ARM GAS  C:\Users\CHRIST~1\AppData\Local\Temp\ccQh6cUH.s 			page 1


   1              		.cpu cortex-m4
   2              		.eabi_attribute 27, 1
   3              		.eabi_attribute 28, 1
   4              		.eabi_attribute 20, 1
   5              		.eabi_attribute 21, 1
   6              		.eabi_attribute 23, 3
   7              		.eabi_attribute 24, 1
   8              		.eabi_attribute 25, 1
   9              		.eabi_attribute 26, 1
  10              		.eabi_attribute 30, 2
  11              		.eabi_attribute 34, 1
  12              		.eabi_attribute 18, 4
  13              		.file	"app.c"
  14              		.text
  15              	.Ltext0:
  16              		.cfi_sections	.debug_frame
  17              		.section	.text.app_get_configuration,"ax",%progbits
  18              		.align	1
  19              		.p2align 4,,15
  20              		.global	app_get_configuration
  21              		.syntax unified
  22              		.thumb
  23              		.thumb_func
  24              		.fpu fpv4-sp-d16
  25              		.type	app_get_configuration, %function
  26              	app_get_configuration:
  27              	.LFB256:
  28              		.file 1 "applications/app.c"
  29              		.loc 1 31 0
  30              		.cfi_startproc
  31              		@ args = 0, pretend = 0, frame = 0
  32              		@ frame_needed = 0, uses_anonymous_args = 0
  33              		@ link register save eliminated.
  34              		.loc 1 33 0
  35 0000 0048     		ldr	r0, .L3
  36 0002 7047     		bx	lr
  37              	.L4:
  38              		.align	2
  39              	.L3:
  40 0004 00000000 		.word	.LANCHOR0
  41              		.cfi_endproc
  42              	.LFE256:
  43              		.size	app_get_configuration, .-app_get_configuration
  44              		.section	.text.app_set_configuration,"ax",%progbits
  45              		.align	1
  46              		.p2align 4,,15
  47              		.global	app_set_configuration
  48              		.syntax unified
  49              		.thumb
  50              		.thumb_func
  51              		.fpu fpv4-sp-d16
  52              		.type	app_set_configuration, %function
  53              	app_set_configuration:
  54              	.LFB257:
  55              		.loc 1 41 0
  56              		.cfi_startproc
  57              		@ args = 0, pretend = 0, frame = 0
ARM GAS  C:\Users\CHRIST~1\AppData\Local\Temp\ccQh6cUH.s 			page 2


  58              		@ frame_needed = 0, uses_anonymous_args = 0
  59              	.LVL0:
  60 0000 70B5     		push	{r4, r5, r6, lr}
  61              		.cfi_def_cfa_offset 16
  62              		.cfi_offset 4, -16
  63              		.cfi_offset 5, -12
  64              		.cfi_offset 6, -8
  65              		.cfi_offset 14, -4
  66              		.loc 1 41 0
  67 0002 0546     		mov	r5, r0
  68              		.loc 1 49 0
  69 0004 2B4E     		ldr	r6, .L18
  70              		.loc 1 42 0
  71 0006 2C48     		ldr	r0, .L18+4
  72              	.LVL1:
  73 0008 2946     		mov	r1, r5
  74 000a C822     		movs	r2, #200
  75 000c FFF7FEFF 		bl	memcpy
  76              	.LVL2:
  77              		.loc 1 44 0
  78 0010 FFF7FEFF 		bl	app_ppm_stop
  79              	.LVL3:
  80              		.loc 1 45 0
  81 0014 FFF7FEFF 		bl	app_adc_stop
  82              	.LVL4:
  83              		.loc 1 46 0
  84 0018 FFF7FEFF 		bl	app_uartcomm_stop
  85              	.LVL5:
  86              		.loc 1 47 0
  87 001c FFF7FEFF 		bl	app_nunchuk_stop
  88              	.LVL6:
  89              		.loc 1 49 0
  90 0020 3378     		ldrb	r3, [r6]	@ zero_extendqisi2
  91 0022 0BB3     		cbz	r3, .L17
  92              	.L6:
  93              		.loc 1 61 0
  94 0024 244C     		ldr	r4, .L18+4
  95              		.loc 1 54 0
  96 0026 287D     		ldrb	r0, [r5, #20]	@ zero_extendqisi2
  97 0028 FFF7FEFF 		bl	comm_can_set_baud
  98              	.LVL7:
  99              		.loc 1 61 0
 100 002c 637D     		ldrb	r3, [r4, #21]	@ zero_extendqisi2
 101 002e 013B     		subs	r3, r3, #1
 102 0030 062B     		cmp	r3, #6
 103 0032 07D8     		bhi	.L7
 104 0034 DFE803F0 		tbb	[pc, r3]
 105              	.L9:
 106 0038 04       		.byte	(.L8-.L9)/2
 107 0039 23       		.byte	(.L10-.L9)/2
 108 003a 27       		.byte	(.L11-.L9)/2
 109 003b 2C       		.byte	(.L12-.L9)/2
 110 003c 33       		.byte	(.L13-.L9)/2
 111 003d 3B       		.byte	(.L14-.L9)/2
 112 003e 1B       		.byte	(.L15-.L9)/2
 113 003f 00       		.p2align 1
 114              	.L8:
ARM GAS  C:\Users\CHRIST~1\AppData\Local\Temp\ccQh6cUH.s 			page 3


 115              		.loc 1 63 0
 116 0040 FFF7FEFF 		bl	app_ppm_start
 117              	.LVL8:
 118              	.L7:
 119              		.loc 1 109 0
 120 0044 1D48     		ldr	r0, .L18+8
 121 0046 FFF7FEFF 		bl	app_ppm_configure
 122              	.LVL9:
 123              		.loc 1 110 0
 124 004a 1D48     		ldr	r0, .L18+12
 125 004c FFF7FEFF 		bl	app_adc_configure
 126              	.LVL10:
 127              		.loc 1 111 0
 128 0050 D4F89400 		ldr	r0, [r4, #148]
 129 0054 FFF7FEFF 		bl	app_uartcomm_configure
 130              	.LVL11:
 131              		.loc 1 112 0
 132 0058 1A48     		ldr	r0, .L18+16
 133 005a FFF7FEFF 		bl	app_nunchuk_configure
 134              	.LVL12:
 135              		.loc 1 118 0
 136 005e 1A48     		ldr	r0, .L18+20
 137              		.loc 1 119 0
 138 0060 BDE87040 		pop	{r4, r5, r6, lr}
 139              		.cfi_remember_state
 140              		.cfi_restore 14
 141              		.cfi_restore 6
 142              		.cfi_restore 5
 143              		.cfi_restore 4
 144              		.cfi_def_cfa_offset 0
 145              	.LVL13:
 146              		.loc 1 118 0
 147 0064 FFF7FEBF 		b	rfhelp_update_conf
 148              	.LVL14:
 149              	.L17:
 150              		.cfi_restore_state
 151              		.loc 1 50 0
 152 0068 FFF7FEFF 		bl	nrf_driver_stop
 153              	.LVL15:
 154 006c DAE7     		b	.L6
 155              	.L15:
 156              		.loc 1 92 0
 157 006e 3378     		ldrb	r3, [r6]	@ zero_extendqisi2
 158 0070 002B     		cmp	r3, #0
 159 0072 E7D1     		bne	.L7
 160              		.loc 1 93 0
 161 0074 FFF7FEFF 		bl	nrf_driver_init
 162              	.LVL16:
 163              		.loc 1 94 0
 164 0078 FFF7FEFF 		bl	rfhelp_restart
 165              	.LVL17:
 166 007c E2E7     		b	.L7
 167              	.L10:
 168              		.loc 1 67 0
 169 007e 0120     		movs	r0, #1
 170 0080 FFF7FEFF 		bl	app_adc_start
 171              	.LVL18:
ARM GAS  C:\Users\CHRIST~1\AppData\Local\Temp\ccQh6cUH.s 			page 4


 172              		.loc 1 68 0
 173 0084 DEE7     		b	.L7
 174              	.L11:
 175              		.loc 1 71 0
 176 0086 FFF7FEFF 		bl	hw_stop_i2c
 177              	.LVL19:
 178              		.loc 1 72 0
 179 008a FFF7FEFF 		bl	app_uartcomm_start
 180              	.LVL20:
 181              		.loc 1 73 0
 182 008e D9E7     		b	.L7
 183              	.L12:
 184              		.loc 1 76 0
 185 0090 FFF7FEFF 		bl	hw_stop_i2c
 186              	.LVL21:
 187              		.loc 1 77 0
 188 0094 FFF7FEFF 		bl	app_ppm_start
 189              	.LVL22:
 190              		.loc 1 78 0
 191 0098 FFF7FEFF 		bl	app_uartcomm_start
 192              	.LVL23:
 193              		.loc 1 79 0
 194 009c D2E7     		b	.L7
 195              	.L13:
 196              		.loc 1 82 0
 197 009e FFF7FEFF 		bl	hw_stop_i2c
 198              	.LVL24:
 199              		.loc 1 83 0
 200 00a2 0020     		movs	r0, #0
 201 00a4 FFF7FEFF 		bl	app_adc_start
 202              	.LVL25:
 203              		.loc 1 84 0
 204 00a8 FFF7FEFF 		bl	app_uartcomm_start
 205              	.LVL26:
 206              		.loc 1 85 0
 207 00ac CAE7     		b	.L7
 208              	.L14:
 209              		.loc 1 88 0
 210 00ae FFF7FEFF 		bl	app_nunchuk_start
 211              	.LVL27:
 212              		.loc 1 89 0
 213 00b2 C7E7     		b	.L7
 214              	.L19:
 215              		.align	2
 216              	.L18:
 217 00b4 00000000 		.word	conf_general_permanent_nrf_found
 218 00b8 00000000 		.word	.LANCHOR0
 219 00bc 18000000 		.word	.LANCHOR0+24
 220 00c0 50000000 		.word	.LANCHOR0+80
 221 00c4 98000000 		.word	.LANCHOR0+152
 222 00c8 BC000000 		.word	.LANCHOR0+188
 223              		.cfi_endproc
 224              	.LFE257:
 225              		.size	app_set_configuration, .-app_set_configuration
 226              		.section	.bss.appconf,"aw",%nobits
 227              		.align	2
 228              		.set	.LANCHOR0,. + 0
ARM GAS  C:\Users\CHRIST~1\AppData\Local\Temp\ccQh6cUH.s 			page 5


 229              		.type	appconf, %object
 230              		.size	appconf, 200
 231              	appconf:
 232 0000 00000000 		.space	200
 232      00000000 
 232      00000000 
 232      00000000 
 232      00000000 
 233              		.text
 234              	.Letext0:
 235              		.file 2 "c:\\program files (x86)\\gnu tools arm embedded\\7 2017-q4-major\\arm-none-eabi\\include\
 236              		.file 3 "c:\\program files (x86)\\gnu tools arm embedded\\7 2017-q4-major\\arm-none-eabi\\include\
 237              		.file 4 "c:\\program files (x86)\\gnu tools arm embedded\\7 2017-q4-major\\lib\\gcc\\arm-none-eabi
 238              		.file 5 "ChibiOS_3.0.2/os/rt/ports/ARMCMx/compilers/GCC/chtypes.h"
 239              		.file 6 "ChibiOS_3.0.2/os/rt/include/chsystypes.h"
 240              		.file 7 "ChibiOS_3.0.2/os/rt/include/chschd.h"
 241              		.file 8 "ChibiOS_3.0.2/os/ext/CMSIS/include/core_cm4.h"
 242              		.file 9 "ChibiOS_3.0.2/os/ext/CMSIS/ST/system_stm32f4xx.h"
 243              		.file 10 "ChibiOS_3.0.2/os/ext/CMSIS/ST/stm32f407xx.h"
 244              		.file 11 "ChibiOS_3.0.2/os/rt/ports/ARMCMx/chcore.h"
 245              		.file 12 "ChibiOS_3.0.2/os/rt/ports/ARMCMx/chcore_v7m.h"
 246              		.file 13 "ChibiOS_3.0.2/os/rt/include/chtm.h"
 247              		.file 14 "ChibiOS_3.0.2/os/rt/include/chsem.h"
 248              		.file 15 "ChibiOS_3.0.2/os/rt/include/chmtx.h"
 249              		.file 16 "ChibiOS_3.0.2/os/rt/include/chregistry.h"
 250              		.file 17 "ChibiOS_3.0.2/os/rt/include/chevents.h"
 251              		.file 18 "ChibiOS_3.0.2/os/rt/include/chqueues.h"
 252              		.file 19 "./datatypes.h"
 253              		.file 20 "./conf_general.h"
 254              		.file 21 "ChibiOS_3.0.2/os/hal/ports/STM32/STM32F4xx/stm32_dma.h"
 255              		.file 22 "ChibiOS_3.0.2/os/hal/ports/STM32/LLD/GPIOv2/pal_lld.h"
 256              		.file 23 "ChibiOS_3.0.2/os/hal/include/can.h"
 257              		.file 24 "ChibiOS_3.0.2/os/hal/ports/STM32/LLD/can_lld.h"
 258              		.file 25 "ChibiOS_3.0.2/os/hal/include/i2c.h"
 259              		.file 26 "ChibiOS_3.0.2/os/hal/ports/STM32/LLD/I2Cv1/i2c_lld.h"
 260              		.file 27 "ChibiOS_3.0.2/os/hal/include/icu.h"
 261              		.file 28 "ChibiOS_3.0.2/os/hal/ports/STM32/LLD/TIMv1/icu_lld.h"
 262              		.file 29 "ChibiOS_3.0.2/os/hal/ports/STM32/LLD/TIMv1/stm32_tim.h"
 263              		.file 30 "ChibiOS_3.0.2/os/hal/include/spi.h"
 264              		.file 31 "ChibiOS_3.0.2/os/hal/ports/STM32/LLD/SPIv1/spi_lld.h"
 265              		.file 32 "ChibiOS_3.0.2/os/hal/include/uart.h"
 266              		.file 33 "ChibiOS_3.0.2/os/hal/ports/STM32/LLD/USARTv1/uart_lld.h"
 267              		.file 34 "ChibiOS_3.0.2/os/hal/include/usb.h"
 268              		.file 35 "ChibiOS_3.0.2/os/hal/ports/STM32/LLD/OTGv1/usb_lld.h"
 269              		.file 36 "ChibiOS_3.0.2/os/hal/ports/STM32/LLD/OTGv1/stm32_otg.h"
 270              		.file 37 "applications/app.h"
 271              		.file 38 "./comm_can.h"
 272              		.file 39 "nrf/rfhelp.h"
 273              		.file 40 "nrf/nrf_driver.h"
 274              		.file 41 "hwconf/hw.h"
 275              		.file 42 "<built-in>"