ARM GAS  C:\Users\CHRIST~1\AppData\Local\Temp\ccXmPir6.s 			page 1


   1              		.cpu cortex-m4
   2              		.eabi_attribute 27, 1
   3              		.eabi_attribute 28, 1
   4              		.eabi_attribute 20, 1
   5              		.eabi_attribute 21, 1
   6              		.eabi_attribute 23, 3
   7              		.eabi_attribute 24, 1
   8              		.eabi_attribute 25, 1
   9              		.eabi_attribute 26, 1
  10              		.eabi_attribute 30, 2
  11              		.eabi_attribute 34, 1
  12              		.eabi_attribute 18, 4
  13              		.file	"app_nunchuk.c"
  14              		.text
  15              	.Ltext0:
  16              		.cfi_sections	.debug_frame
  17              		.section	.text.terminal_cmd_nunchuk_status,"ax",%progbits
  18              		.align	1
  19              		.p2align 4,,15
  20              		.syntax unified
  21              		.thumb
  22              		.thumb_func
  23              		.fpu fpv4-sp-d16
  24              		.type	terminal_cmd_nunchuk_status, %function
  25              	terminal_cmd_nunchuk_status:
  26              	.LFB263:
  27              		.file 1 "applications/app_nunchuk.c"
  28              		.loc 1 488 0
  29              		.cfi_startproc
  30              		@ args = 0, pretend = 0, frame = 0
  31              		@ frame_needed = 0, uses_anonymous_args = 0
  32              	.LVL0:
  33 0000 08B5     		push	{r3, lr}
  34              		.cfi_def_cfa_offset 8
  35              		.cfi_offset 3, -8
  36              		.cfi_offset 14, -4
  37              		.loc 1 492 0
  38 0002 0948     		ldr	r0, .L6
  39              	.LVL1:
  40 0004 FFF7FEFF 		bl	commands_printf
  41              	.LVL2:
  42              		.loc 1 493 0
  43 0008 084B     		ldr	r3, .L6+4
  44 000a 094A     		ldr	r2, .L6+8
  45 000c 1978     		ldrb	r1, [r3]	@ zero_extendqisi2
  46 000e 094B     		ldr	r3, .L6+12
  47 0010 0948     		ldr	r0, .L6+16
  48 0012 0029     		cmp	r1, #0
  49 0014 14BF     		ite	ne
  50 0016 1146     		movne	r1, r2
  51 0018 1946     		moveq	r1, r3
  52 001a FFF7FEFF 		bl	commands_printf
  53              	.LVL3:
  54              		.loc 1 494 0
  55 001e 0748     		ldr	r0, .L6+20
  56              		.loc 1 495 0
  57 0020 BDE80840 		pop	{r3, lr}
ARM GAS  C:\Users\CHRIST~1\AppData\Local\Temp\ccXmPir6.s 			page 2


  58              		.cfi_restore 14
  59              		.cfi_restore 3
  60              		.cfi_def_cfa_offset 0
  61              		.loc 1 494 0
  62 0024 FFF7FEBF 		b	commands_printf
  63              	.LVL4:
  64              	.L7:
  65              		.align	2
  66              	.L6:
  67 0028 08000000 		.word	.LC2
  68 002c 00000000 		.word	.LANCHOR0
  69 0030 00000000 		.word	.LC0
  70 0034 04000000 		.word	.LC1
  71 0038 18000000 		.word	.LC3
  72 003c 24000000 		.word	.LC4
  73              		.cfi_endproc
  74              	.LFE263:
  75              		.size	terminal_cmd_nunchuk_status, .-terminal_cmd_nunchuk_status
  76              		.section	.text.output_thread,"ax",%progbits
  77              		.align	1
  78              		.p2align 4,,15
  79              		.syntax unified
  80              		.thumb
  81              		.thumb_func
  82              		.fpu fpv4-sp-d16
  83              		.type	output_thread, %function
  84              	output_thread:
  85              	.LFB262:
  86              		.loc 1 201 0
  87              		.cfi_startproc
  88              		@ args = 0, pretend = 0, frame = 24
  89              		@ frame_needed = 0, uses_anonymous_args = 0
  90              	.LVL5:
  91 0000 2DE9F04F 		push	{r4, r5, r6, r7, r8, r9, r10, fp, lr}
  92              		.cfi_def_cfa_offset 36
  93              		.cfi_offset 4, -36
  94              		.cfi_offset 5, -32
  95              		.cfi_offset 6, -28
  96              		.cfi_offset 7, -24
  97              		.cfi_offset 8, -20
  98              		.cfi_offset 9, -16
  99              		.cfi_offset 10, -12
 100              		.cfi_offset 11, -8
 101              		.cfi_offset 14, -4
 102              	.LBB87:
 103              	.LBB88:
 104              		.file 2 "ChibiOS_3.0.2/os/rt/include/chregistry.h"
 105              		.loc 2 135 0
 106 0004 DFF87C83 		ldr	r8, .L176+84
 107 0008 C94A     		ldr	r2, .L176
 108 000a D8F81830 		ldr	r3, [r8, #24]
 109 000e C94F     		ldr	r7, .L176+4
 110 0010 C94C     		ldr	r4, .L176+8
 111 0012 CA4E     		ldr	r6, .L176+12
 112 0014 DFF870B3 		ldr	fp, .L176+88
 113              	.LBE88:
 114              	.LBE87:
ARM GAS  C:\Users\CHRIST~1\AppData\Local\Temp\ccXmPir6.s 			page 3


 115              		.loc 1 201 0
 116 0018 2DED0C8B 		vpush.64	{d8, d9, d10, d11, d12, d13}
 117              		.cfi_def_cfa_offset 84
 118              		.cfi_offset 80, -84
 119              		.cfi_offset 81, -80
 120              		.cfi_offset 82, -76
 121              		.cfi_offset 83, -72
 122              		.cfi_offset 84, -68
 123              		.cfi_offset 85, -64
 124              		.cfi_offset 86, -60
 125              		.cfi_offset 87, -56
 126              		.cfi_offset 88, -52
 127              		.cfi_offset 89, -48
 128              		.cfi_offset 90, -44
 129              		.cfi_offset 91, -40
 130              	.LBB90:
 131              	.LBB89:
 132              		.loc 2 135 0
 133 001c 9A61     		str	r2, [r3, #24]
 134 001e C84B     		ldr	r3, .L176+16
 135              	.LBE89:
 136              	.LBE90:
 137              	.LBB91:
 138              		.loc 1 224 0
 139 0020 DFEDC8AA 		vldr.32	s21, .L176+20
 140              	.LBB92:
 141              	.LBB93:
 142              		.loc 1 89 0
 143 0024 9FEDC8AA 		vldr.32	s20, .L176+24
 144              	.LBE93:
 145              	.LBE92:
 146              	.LBB98:
 147              	.LBB99:
 148              	.LBB100:
 149              		.loc 1 448 0
 150 0028 DFEDC89A 		vldr.32	s19, .L176+28
 151 002c 9FEDC89A 		vldr.32	s18, .L176+32
 152              	.LBE100:
 153              	.LBE99:
 154              	.LBE98:
 155              	.LBE91:
 156              		.loc 1 201 0
 157 0030 87B0     		sub	sp, sp, #28
 158              		.cfi_def_cfa_offset 112
 159 0032 03F12005 		add	r5, r3, #32
 160              	.LVL6:
 161              	.L84:
 162              	.LBB161:
 163              		.loc 1 207 0
 164 0036 0A20     		movs	r0, #10
 165 0038 FFF7FEFF 		bl	chThdSleep
 166              	.LVL7:
 167              		.loc 1 209 0
 168 003c FFF7FEFF 		bl	timeout_has_timeout
 169              	.LVL8:
 170 0040 0028     		cmp	r0, #0
 171 0042 F8D1     		bne	.L84
ARM GAS  C:\Users\CHRIST~1\AppData\Local\Temp\ccXmPir6.s 			page 4


 172              		.loc 1 209 0 is_stmt 0 discriminator 1
 173 0044 3B68     		ldr	r3, [r7]
 174 0046 002B     		cmp	r3, #0
 175 0048 F5D1     		bne	.L84
 176              		.loc 1 209 0 discriminator 2
 177 004a 2378     		ldrb	r3, [r4]	@ zero_extendqisi2
 178 004c 002B     		cmp	r3, #0
 179 004e F2D0     		beq	.L84
 180              		.loc 1 215 0 is_stmt 1
 181 0050 C04B     		ldr	r3, .L176+36
 182 0052 1A68     		ldr	r2, [r3]
 183              	.LVL9:
 184              	.LBB114:
 185              	.LBB115:
 186              	.LBB116:
 187              	.LBB117:
 188              		.file 3 "ChibiOS_3.0.2/os/rt/include/chvt.h"
 189              		.loc 3 231 0
 190 0054 D8F82830 		ldr	r3, [r8, #40]
 191              	.LVL10:
 192              	.LBE117:
 193              	.LBE116:
 194              		.loc 3 267 0
 195 0058 9B1A     		subs	r3, r3, r2
 196              	.LBE115:
 197              	.LBE114:
 198              		.loc 1 215 0
 199 005a 44F62062 		movw	r2, #20000
 200 005e 9342     		cmp	r3, r2
 201 0060 E9D8     		bhi	.L84
 202              		.loc 1 219 0
 203 0062 FFF7FEFF 		bl	mc_interface_get_configuration
 204              	.LVL11:
 205 0066 8146     		mov	r9, r0
 206              	.LVL12:
 207              		.loc 1 222 0
 208 0068 FFF7FEFF 		bl	mc_interface_get_tot_current_directional_filtered
 209              	.LVL13:
 210              		.loc 1 224 0
 211 006c 99ED01BA 		vldr.32	s22, [r9, #4]
 212              		.loc 1 226 0
 213 0070 337D     		ldrb	r3, [r6, #20]	@ zero_extendqisi2
 214              		.loc 1 222 0
 215 0072 F0EE408A 		vmov.f32	s17, s0
 216              	.LVL14:
 217              		.loc 1 224 0
 218 0076 2BEE2ABA 		vmul.f32	s22, s22, s21
 219              	.LVL15:
 220              		.loc 1 226 0
 221 007a 1BB1     		cbz	r3, .L10
 222              		.loc 1 226 0 is_stmt 0 discriminator 1
 223 007c 737D     		ldrb	r3, [r6, #21]	@ zero_extendqisi2
 224 007e 002B     		cmp	r3, #0
 225 0080 40F00B81 		bne	.L163
 226              	.L10:
 227 0084 B44A     		ldr	r2, .L176+40
 228              		.loc 1 231 0 is_stmt 1
ARM GAS  C:\Users\CHRIST~1\AppData\Local\Temp\ccXmPir6.s 			page 5


 229 0086 737D     		ldrb	r3, [r6, #21]	@ zero_extendqisi2
 230 0088 1078     		ldrb	r0, [r2]	@ zero_extendqisi2
 231 008a 03F0FF02 		and	r2, r3, #255
 232 008e 3BB1     		cbz	r3, .L12
 233              		.loc 1 231 0 is_stmt 0 discriminator 1
 234 0090 B24B     		ldr	r3, .L176+44
 235 0092 1B78     		ldrb	r3, [r3]	@ zero_extendqisi2
 236 0094 23B9     		cbnz	r3, .L12
 237              		.loc 1 231 0 discriminator 2
 238 0096 2178     		ldrb	r1, [r4]	@ zero_extendqisi2
 239 0098 C9B2     		uxtb	r1, r1
 240 009a 0129     		cmp	r1, #1
 241 009c 00F07682 		beq	.L164
 242              	.L12:
 243              		.loc 1 240 0 is_stmt 1
 244 00a0 AE4A     		ldr	r2, .L176+44
 245 00a2 737D     		ldrb	r3, [r6, #21]	@ zero_extendqisi2
 246 00a4 1370     		strb	r3, [r2]
 247              		.loc 1 242 0
 248 00a6 FFF7FEFF 		bl	led_external_set_reversed
 249              	.LVL16:
 250              	.LBB118:
 251              	.LBB94:
 252              		.loc 1 89 0
 253 00aa D6ED017A 		vldr.32	s15, [r6, #4]	@ int
 254 00ae 9FEDAC8A 		vldr.32	s16, .L176+48
 255              	.LBE94:
 256              	.LBE118:
 257              		.loc 1 245 0
 258 00b2 94ED010A 		vldr.32	s0, [r4, #4]
 259              	.LBB119:
 260              	.LBB95:
 261              		.loc 1 89 0
 262 00b6 F8EEE77A 		vcvt.f32.s32	s15, s15
 263              	.LBE95:
 264              	.LBE119:
 265              		.loc 1 245 0
 266 00ba F7EE000A 		vmov.f32	s1, #1.0e+0
 267              	.LBB120:
 268              	.LBB96:
 269              		.loc 1 89 0
 270 00be 77EECA7A 		vsub.f32	s15, s15, s20
 271              	.LBE96:
 272              	.LBE120:
 273              		.loc 1 245 0
 274 00c2 03A8     		add	r0, sp, #12
 275              	.LBB121:
 276              	.LBB97:
 277              		.loc 1 89 0
 278 00c4 67EE887A 		vmul.f32	s15, s15, s16
 279              	.LBE97:
 280              	.LBE121:
 281              		.loc 1 244 0
 282 00c8 CDED037A 		vstr.32	s15, [sp, #12]
 283              		.loc 1 245 0
 284 00cc FFF7FEFF 		bl	utils_deadband
 285              	.LVL17:
ARM GAS  C:\Users\CHRIST~1\AppData\Local\Temp\ccXmPir6.s 			page 6


 286              		.loc 1 246 0
 287 00d0 D4ED050A 		vldr.32	s1, [r4, #20]
 288 00d4 9DED030A 		vldr.32	s0, [sp, #12]
 289 00d8 94ED061A 		vldr.32	s2, [r4, #24]
 290 00dc 207F     		ldrb	r0, [r4, #28]	@ zero_extendqisi2
 291 00de FFF7FEFF 		bl	utils_throttle_curve
 292              	.LVL18:
 293              		.loc 1 249 0
 294 00e2 D6ED007A 		vldr.32	s15, [r6]	@ int
 295              		.loc 1 250 0
 296 00e6 9FED9F7A 		vldr.32	s14, .L176+52
 297              		.loc 1 246 0
 298 00ea 8DED030A 		vstr.32	s0, [sp, #12]
 299              		.loc 1 249 0
 300 00ee F8EEE77A 		vcvt.f32.s32	s15, s15
 301              		.loc 1 250 0
 302 00f2 B4EEC70A 		vcmpe.f32	s0, s14
 303              		.loc 1 249 0
 304 00f6 77EECA7A 		vsub.f32	s15, s15, s20
 305              		.loc 1 250 0
 306 00fa F1EE10FA 		vmrs	APSR_nzcv, FPSCR
 307              		.loc 1 249 0
 308 00fe 27EE888A 		vmul.f32	s16, s15, s16
 309              	.LVL19:
 310              		.loc 1 251 0
 311 0102 DFED997A 		vldr.32	s15, .L176+56
 312 0106 B4EEE78A 		vcmpe.f32	s16, s15
 313              		.loc 1 250 0
 314 010a 40F1B680 		bpl	.L151
 315              		.loc 1 251 0
 316 010e F1EE10FA 		vmrs	APSR_nzcv, FPSCR
 317 0112 00F1D181 		bmi	.L165
 318              		.loc 1 253 0
 319 0116 DFED957A 		vldr.32	s15, .L176+60
 320 011a B4EEE78A 		vcmpe.f32	s16, s15
 321 011e F1EE10FA 		vmrs	APSR_nzcv, FPSCR
 322              		.loc 1 254 0
 323 0122 CCBF     		ite	gt
 324 0124 0620     		movgt	r0, #6
 325              		.loc 1 256 0
 326 0126 0220     		movle	r0, #2
 327 0128 FFF7FEFF 		bl	led_external_set_state
 328              	.LVL20:
 329              	.L19:
 330              		.loc 1 274 0
 331 012c DBF800A0 		ldr	r10, [fp]
 332 0130 0AF10103 		add	r3, r10, #1
 333 0134 CBF80030 		str	r3, [fp]
 334 0138 FFF7FEFF 		bl	mc_interface_get_rpm
 335              	.LVL21:
 336              		.loc 1 275 0
 337 013c DBF80030 		ldr	r3, [fp]
 338              		.loc 1 274 0
 339 0140 7F4A     		ldr	r2, .L176+16
 340              		.loc 1 275 0
 341 0142 072B     		cmp	r3, #7
 342              		.loc 1 276 0
ARM GAS  C:\Users\CHRIST~1\AppData\Local\Temp\ccXmPir6.s 			page 7


 343 0144 C8BF     		it	gt
 344 0146 0023     		movgt	r3, #0
 345              		.loc 1 274 0
 346 0148 02EB8A0A 		add	r10, r2, r10, lsl #2
 347 014c 8AED000A 		vstr.32	s0, [r10]
 348              		.loc 1 276 0
 349 0150 C8BF     		it	gt
 350 0152 CBF80030 		strgt	r3, [fp]
 351              	.LVL22:
 352              		.loc 1 279 0
 353 0156 9FED860A 		vldr.32	s0, .L176+64
 354 015a 794B     		ldr	r3, .L176+16
 355              	.LVL23:
 356              	.L27:
 357              	.LBB122:
 358              		.loc 1 281 0 discriminator 3
 359 015c F3EC017A 		vldmia.32	r3!, {s15}
 360              		.loc 1 280 0 discriminator 3
 361 0160 AB42     		cmp	r3, r5
 362              		.loc 1 281 0 discriminator 3
 363 0162 30EE270A 		vadd.f32	s0, s0, s15
 364              	.LVL24:
 365              		.loc 1 280 0 discriminator 3
 366 0166 F9D1     		bne	.L27
 367              	.LVL25:
 368              	.LBE122:
 369              		.loc 1 285 0
 370 0168 337D     		ldrb	r3, [r6, #20]	@ zero_extendqisi2
 371 016a 03F0FF02 		and	r2, r3, #255
 372 016e 9BB3     		cbz	r3, .L28
 373              	.LBB123:
 374              		.loc 1 288 0
 375 0170 804B     		ldr	r3, .L176+68
 376 0172 1A78     		ldrb	r2, [r3]	@ zero_extendqisi2
 377 0174 784B     		ldr	r3, .L176+40
 378              	.LBE123:
 379              		.loc 1 283 0
 380 0176 F4EE007A 		vmov.f32	s15, #1.25e-1
 381 017a 1B78     		ldrb	r3, [r3]	@ zero_extendqisi2
 382 017c 20EE270A 		vmul.f32	s0, s0, s15
 383              	.LVL26:
 384              	.LBB133:
 385              		.loc 1 288 0
 386 0180 002A     		cmp	r2, #0
 387 0182 40F03F81 		bne	.L29
 388              		.loc 1 289 0
 389 0186 7C4A     		ldr	r2, .L176+72
 390              		.loc 1 291 0
 391 0188 B5EEC00A 		vcmpe.f32	s0, #0
 392              		.loc 1 289 0
 393 018c 82ED000A 		vstr.32	s0, [r2]
 394              		.loc 1 291 0
 395 0190 002B     		cmp	r3, #0
 396 0192 00F09981 		beq	.L30
 397              		.loc 1 291 0 is_stmt 0 discriminator 1
 398 0196 F1EE10FA 		vmrs	APSR_nzcv, FPSCR
 399 019a 10DD     		ble	.L32
ARM GAS  C:\Users\CHRIST~1\AppData\Local\Temp\ccXmPir6.s 			page 8


 400              	.L31:
 401              		.loc 1 292 0 is_stmt 1
 402 019c D9ED497A 		vldr.32	s15, [r9, #292]
 403 01a0 B0EEC00A 		vabs.f32	s0, s0
 404              	.LVL27:
 405 01a4 B4EEE70A 		vcmpe.f32	s0, s15
 406 01a8 F1EE10FA 		vmrs	APSR_nzcv, FPSCR
 407 01ac 3FF743AF 		bgt	.L84
 408              		.loc 1 296 0
 409 01b0 DFED6F7A 		vldr.32	s15, .L176+64
 410 01b4 704B     		ldr	r3, .L176+72
 411 01b6 B0EE670A 		vmov.f32	s0, s15
 412 01ba C3ED007A 		vstr.32	s15, [r3]
 413              	.LVL28:
 414              	.L32:
 415              		.loc 1 300 0
 416 01be 6D4A     		ldr	r2, .L176+68
 417 01c0 0123     		movs	r3, #1
 418 01c2 1370     		strb	r3, [r2]
 419              	.L34:
 420              		.loc 1 325 0
 421 01c4 FFF7FEFF 		bl	mc_interface_set_pid_speed
 422              	.LVL29:
 423              		.loc 1 328 0
 424 01c8 637F     		ldrb	r3, [r4, #29]	@ zero_extendqisi2
 425 01ca 002B     		cmp	r3, #0
 426 01cc 40F04C81 		bne	.L166
 427              	.LVL30:
 428              	.L40:
 429              		.loc 1 342 0
 430 01d0 6A4B     		ldr	r3, .L176+76
 431 01d2 C3ED008A 		vstr.32	s17, [r3]
 432              		.loc 1 344 0
 433 01d6 2EE7     		b	.L84
 434              	.LVL31:
 435              	.L28:
 436              	.LBE133:
 437              		.loc 1 351 0
 438 01d8 DDED037A 		vldr.32	s15, [sp, #12]
 439              		.loc 1 347 0
 440 01dc 654B     		ldr	r3, .L176+68
 441              		.loc 1 351 0
 442 01de F5EEC07A 		vcmpe.f32	s15, #0
 443 01e2 F1EE10FA 		vmrs	APSR_nzcv, FPSCR
 444              		.loc 1 354 0
 445 01e6 B4BF     		ite	lt
 446 01e8 99ED1E8A 		vldrlt.32	s16, [r9, #120]
 447              	.LVL32:
 448              		.loc 1 352 0
 449 01ec 99ED1D8A 		vldrge.32	s16, [r9, #116]
 450              		.loc 1 347 0
 451 01f0 1A70     		strb	r2, [r3]
 452              	.LVL33:
 453              		.loc 1 354 0
 454 01f2 B8BF     		it	lt
 455 01f4 B0EEC88A 		vabslt.f32	s16, s16
 456 01f8 28EE278A 		vmul.f32	s16, s16, s15
ARM GAS  C:\Users\CHRIST~1\AppData\Local\Temp\ccXmPir6.s 			page 9


 457              	.LVL34:
 458              		.loc 1 358 0
 459 01fc FFF7FEFF 		bl	mc_interface_get_rpm
 460              	.LVL35:
 461              		.loc 1 359 0
 462 0200 554B     		ldr	r3, .L176+40
 463 0202 1B78     		ldrb	r3, [r3]	@ zero_extendqisi2
 464              		.loc 1 358 0
 465 0204 B0EE40CA 		vmov.f32	s24, s0
 466              	.LVL36:
 467              		.loc 1 359 0
 468 0208 0BB1     		cbz	r3, .L47
 469              		.loc 1 360 0
 470 020a B1EE40CA 		vneg.f32	s24, s0
 471              	.LVL37:
 472              	.L47:
 473              		.loc 1 366 0
 474 020e 637F     		ldrb	r3, [r4, #29]	@ zero_extendqisi2
 475              		.loc 1 363 0
 476 0210 F0EE4CBA 		vmov.f32	s23, s24
 477              		.loc 1 366 0
 478 0214 002B     		cmp	r3, #0
 479 0216 49D1     		bne	.L167
 480              	.LVL38:
 481              	.L48:
 482              		.loc 1 395 0
 483 0218 584B     		ldr	r3, .L176+76
 484              		.loc 1 394 0
 485 021a D9ED017A 		vldr.32	s15, [r9, #4]
 486              		.loc 1 395 0
 487 021e D3ED00CA 		vldr.32	s25, [r3]
 488              		.loc 1 394 0
 489 0222 99ED027A 		vldr.32	s14, [r9, #8]
 490              	.LVL39:
 491              		.loc 1 395 0
 492 0226 F0EEEC6A 		vabs.f32	s13, s25
 493 022a B0EEC86A 		vabs.f32	s12, s16
 494 022e B4EEE66A 		vcmpe.f32	s12, s13
 495 0232 F1EE10FA 		vmrs	APSR_nzcv, FPSCR
 496 0236 CCBF     		ite	gt
 497 0238 D4ED026A 		vldrgt.32	s13, [r4, #8]
 498 023c D4ED036A 		vldrle.32	s13, [r4, #12]
 499              	.LVL40:
 500              		.loc 1 397 0
 501 0240 9FED4F6A 		vldr.32	s12, .L176+80
 502 0244 F4EEC66A 		vcmpe.f32	s13, s12
 503 0248 F1EE10FA 		vmrs	APSR_nzcv, FPSCR
 504 024c 00F3A080 		bgt	.L168
 505              	.LVL41:
 506              	.L59:
 507              		.loc 1 427 0
 508 0250 4A4B     		ldr	r3, .L176+76
 509              		.loc 1 429 0
 510 0252 B5EEC08A 		vcmpe.f32	s16, #0
 511 0256 F1EE10FA 		vmrs	APSR_nzcv, FPSCR
 512              		.loc 1 427 0
 513 025a 83ED008A 		vstr.32	s16, [r3]
ARM GAS  C:\Users\CHRIST~1\AppData\Local\Temp\ccXmPir6.s 			page 10


 514              		.loc 1 429 0
 515 025e 00F1EE81 		bmi	.L169
 516              	.LVL42:
 517              	.LBB134:
 518              		.loc 1 444 0
 519 0262 637F     		ldrb	r3, [r4, #29]	@ zero_extendqisi2
 520 0264 002B     		cmp	r3, #0
 521 0266 40F03481 		bne	.L170
 522              	.LVL43:
 523              	.L75:
 524              		.loc 1 479 0
 525 026a 3B4B     		ldr	r3, .L176+40
 526 026c 1B78     		ldrb	r3, [r3]	@ zero_extendqisi2
 527 026e C3B1     		cbz	r3, .L83
 528              		.loc 1 480 0
 529 0270 B1EE480A 		vneg.f32	s0, s16
 530 0274 FFF7FEFF 		bl	mc_interface_set_current
 531              	.LVL44:
 532 0278 DDE6     		b	.L84
 533              	.LVL45:
 534              	.L151:
 535              	.LBE134:
 536              		.loc 1 259 0
 537 027a F1EE10FA 		vmrs	APSR_nzcv, FPSCR
 538 027e 00F11F81 		bmi	.L171
 539              		.loc 1 261 0
 540 0282 DFED3A7A 		vldr.32	s15, .L176+60
 541 0286 B4EEE78A 		vcmpe.f32	s16, s15
 542 028a F1EE10FA 		vmrs	APSR_nzcv, FPSCR
 543              		.loc 1 262 0
 544 028e CCBF     		ite	gt
 545 0290 0420     		movgt	r0, #4
 546              		.loc 1 264 0
 547 0292 0120     		movle	r0, #1
 548 0294 FFF7FEFF 		bl	led_external_set_state
 549              	.LVL46:
 550 0298 48E7     		b	.L19
 551              	.LVL47:
 552              	.L163:
 553              		.loc 1 227 0
 554 029a 0720     		movs	r0, #7
 555 029c FFF7FEFF 		bl	led_external_set_state
 556              	.LVL48:
 557              		.loc 1 228 0
 558 02a0 C9E6     		b	.L84
 559              	.LVL49:
 560              	.L83:
 561              	.LBB135:
 562              		.loc 1 482 0
 563 02a2 B0EE480A 		vmov.f32	s0, s16
 564 02a6 FFF7FEFF 		bl	mc_interface_set_current
 565              	.LVL50:
 566 02aa C4E6     		b	.L84
 567              	.LVL51:
 568              	.L167:
 569              	.LBE135:
 570              	.LBB136:
ARM GAS  C:\Users\CHRIST~1\AppData\Local\Temp\ccXmPir6.s 			page 11


 571              		.loc 1 367 0
 572 02ac 4FF0000A 		mov	r10, #0
 573              	.LVL52:
 574              	.L55:
 575              	.LBB137:
 576              		.loc 1 368 0
 577 02b0 5046     		mov	r0, r10
 578 02b2 FFF7FEFF 		bl	comm_can_get_status_msg_index
 579              	.LVL53:
 580              		.loc 1 370 0
 581 02b6 0368     		ldr	r3, [r0]
 582 02b8 002B     		cmp	r3, #0
 583              	.LBE137:
 584              		.loc 1 367 0
 585 02ba 0AF1010A 		add	r10, r10, #1
 586              	.LVL54:
 587              	.LBB144:
 588              		.loc 1 370 0
 589 02be 32DB     		blt	.L49
 590              	.LBB138:
 591              	.LBB139:
 592              	.LBB140:
 593              	.LBB141:
 594              		.loc 3 231 0 discriminator 1
 595 02c0 D8F82830 		ldr	r3, [r8, #40]
 596              	.LVL55:
 597              	.LBE141:
 598              	.LBE140:
 599              		.loc 3 267 0 discriminator 1
 600 02c4 4268     		ldr	r2, [r0, #4]
 601 02c6 9B1A     		subs	r3, r3, r2
 602              	.LBE139:
 603              	.LBE138:
 604              		.loc 1 370 0 discriminator 1
 605 02c8 07EE903A 		vmov	s15, r3	@ int
 606 02cc F8EE677A 		vcvt.f32.u32	s15, s15
 607              	.LBB142:
 608              		.loc 1 386 0 discriminator 1
 609 02d0 F0EEE86A 		vabs.f32	s13, s17
 610              	.LBE142:
 611              		.loc 1 370 0 discriminator 1
 612 02d4 87EEA97A 		vdiv.f32	s14, s15, s19
 613 02d8 B4EEC97A 		vcmpe.f32	s14, s18
 614 02dc F1EE10FA 		vmrs	APSR_nzcv, FPSCR
 615 02e0 21D5     		bpl	.L49
 616              	.LBB143:
 617              		.loc 1 372 0
 618 02e2 1D4B     		ldr	r3, .L176+40
 619              		.loc 1 371 0
 620 02e4 D0ED027A 		vldr.32	s15, [r0, #8]
 621              	.LVL56:
 622              		.loc 1 372 0
 623 02e8 1B78     		ldrb	r3, [r3]	@ zero_extendqisi2
 624 02ea 0BB1     		cbz	r3, .L51
 625              		.loc 1 373 0
 626 02ec F1EE677A 		vneg.f32	s15, s15
 627              	.LVL57:
ARM GAS  C:\Users\CHRIST~1\AppData\Local\Temp\ccXmPir6.s 			page 12


 628              	.L51:
 629              		.loc 1 382 0
 630 02f0 90ED046A 		vldr.32	s12, [r0, #16]
 631              		.loc 1 381 0
 632 02f4 90ED037A 		vldr.32	s14, [r0, #12]
 633              		.loc 1 377 0
 634 02f8 F4EE6B7A 		vcmp.f32	s15, s23
 635 02fc F1EE10FA 		vmrs	APSR_nzcv, FPSCR
 636              		.loc 1 382 0
 637 0300 B5EEC06A 		vcmpe.f32	s12, #0
 638              		.loc 1 377 0
 639 0304 48BF     		it	mi
 640 0306 F0EE67BA 		vmovmi.f32	s23, s15
 641              	.LVL58:
 642              		.loc 1 382 0
 643 030a F1EE10FA 		vmrs	APSR_nzcv, FPSCR
 644              		.loc 1 383 0
 645 030e 48BF     		it	mi
 646 0310 B1EE477A 		vnegmi.f32	s14, s14
 647              	.LVL59:
 648              		.loc 1 386 0
 649 0314 F0EEC77A 		vabs.f32	s15, s14
 650              	.LVL60:
 651              		.loc 1 387 0
 652 0318 F4EE667A 		vcmp.f32	s15, s13
 653 031c F1EE10FA 		vmrs	APSR_nzcv, FPSCR
 654 0320 C8BF     		it	gt
 655 0322 F0EE478A 		vmovgt.f32	s17, s14
 656              	.LVL61:
 657              	.L49:
 658              	.LBE143:
 659              	.LBE144:
 660              		.loc 1 367 0 discriminator 2
 661 0326 BAF10A0F 		cmp	r10, #10
 662 032a C1D1     		bne	.L55
 663 032c 74E7     		b	.L48
 664              	.L177:
 665 032e 00BF     		.align	2
 666              	.L176:
 667 0330 00000000 		.word	.LC5
 668 0334 00000000 		.word	.LANCHOR1
 669 0338 00000000 		.word	.LANCHOR2
 670 033c 00000000 		.word	.LANCHOR4
 671 0340 00000000 		.word	.LANCHOR8
 672 0344 CDCC4C3E 		.word	1045220557
 673 0348 00000043 		.word	1124073472
 674 034c 00401C46 		.word	1176256512
 675 0350 CDCCCC3D 		.word	1036831949
 676 0354 00000000 		.word	.LANCHOR3
 677 0358 00000000 		.word	.LANCHOR5
 678 035c 00000000 		.word	.LANCHOR6
 679 0360 0000003C 		.word	1006632960
 680 0364 6F1283BA 		.word	-1165815185
 681 0368 CDCCCCBE 		.word	-1093874483
 682 036c CDCCCC3E 		.word	1053609165
 683 0370 00000000 		.word	0
 684 0374 00000000 		.word	.LANCHOR9
ARM GAS  C:\Users\CHRIST~1\AppData\Local\Temp\ccXmPir6.s 			page 13


 685 0378 00000000 		.word	.LANCHOR10
 686 037c 00000000 		.word	.LANCHOR11
 687 0380 0AD7233C 		.word	1008981770
 688 0384 00000000 		.word	ch
 689 0388 00000000 		.word	.LANCHOR7
 690 038c 00007A44 		.word	1148846080
 691              	.LVL62:
 692              	.L168:
 693              	.LBE136:
 694              	.LBB145:
 695              		.loc 1 398 0
 696 0390 1FED026A 		vldr.32	s12, .L176+92
 697              		.loc 1 400 0
 698 0394 CDED04CA 		vstr.32	s25, [sp, #16]
 699              	.LBE145:
 700              		.loc 1 394 0
 701 0398 B0EEC77A 		vabs.f32	s14, s14
 702              	.LVL63:
 703 039c 77EE277A 		vadd.f32	s15, s14, s15
 704              	.LBB146:
 705              		.loc 1 398 0
 706 03a0 66EE866A 		vmul.f32	s13, s13, s12
 707              	.LVL64:
 708              		.loc 1 402 0
 709 03a4 B0EE480A 		vmov.f32	s0, s16
 710              		.loc 1 398 0
 711 03a8 87EEA6DA 		vdiv.f32	s26, s15, s13
 712              	.LVL65:
 713              		.loc 1 402 0
 714 03ac 04A8     		add	r0, sp, #16
 715              	.LVL66:
 716 03ae F0EE4D0A 		vmov.f32	s1, s26
 717 03b2 FFF7FEFF 		bl	utils_step_towards
 718              	.LVL67:
 719              		.loc 1 408 0
 720 03b6 C94B     		ldr	r3, .L178
 721              		.loc 1 403 0
 722 03b8 9DED048A 		vldr.32	s16, [sp, #16]
 723              	.LVL68:
 724              		.loc 1 408 0
 725 03bc 1B78     		ldrb	r3, [r3]	@ zero_extendqisi2
 726              		.loc 1 407 0
 727 03be 8DED058A 		vstr.32	s16, [sp, #20]
 728              		.loc 1 408 0
 729 03c2 002B     		cmp	r3, #0
 730 03c4 00F0F180 		beq	.L61
 731              		.loc 1 409 0
 732 03c8 78EE287A 		vadd.f32	s15, s16, s17
 733 03cc F0EEE77A 		vabs.f32	s15, s15
 734 03d0 F4EECB7A 		vcmpe.f32	s15, s22
 735 03d4 F1EE10FA 		vmrs	APSR_nzcv, FPSCR
 736 03d8 00F37381 		bgt	.L172
 737              	.L62:
 738              	.LVL69:
 739              		.loc 1 420 0
 740 03dc F4EEC8CA 		vcmpe.f32	s25, s16
 741 03e0 F1EE10FA 		vmrs	APSR_nzcv, FPSCR
ARM GAS  C:\Users\CHRIST~1\AppData\Local\Temp\ccXmPir6.s 			page 14


 742 03e4 3FF734AF 		bgt	.L59
 743              	.LVL70:
 744              	.L66:
 745              		.loc 1 420 0 is_stmt 0 discriminator 3
 746 03e8 DDED037A 		vldr.32	s15, [sp, #12]
 747 03ec 9FEDBC7A 		vldr.32	s14, .L178+4
 748 03f0 F0EEE77A 		vabs.f32	s15, s15
 749 03f4 F4EEC77A 		vcmpe.f32	s15, s14
 750 03f8 F1EE10FA 		vmrs	APSR_nzcv, FPSCR
 751 03fc D8BF     		it	le
 752 03fe 9DED048A 		vldrle.32	s16, [sp, #16]
 753              	.LVL71:
 754 0402 25E7     		b	.L59
 755              	.LVL72:
 756              	.L29:
 757 0404 B74A     		ldr	r2, .L178+8
 758 0406 D2ED007A 		vldr.32	s15, [r2]
 759              	.LBE146:
 760              	.LBB147:
 761              		.loc 1 303 0 is_stmt 1
 762 040a F5EEC07A 		vcmpe.f32	s15, #0
 763              		.loc 1 302 0
 764 040e 002B     		cmp	r3, #0
 765 0410 00F0F180 		beq	.L35
 766              		.loc 1 307 0
 767 0414 D4ED046A 		vldr.32	s13, [r4, #16]
 768 0418 9DED037A 		vldr.32	s14, [sp, #12]
 769 041c DFEDB25A 		vldr.32	s11, .L178+12
 770              		.loc 1 309 0
 771 0420 94ED046A 		vldr.32	s12, [r4, #16]
 772              		.loc 1 307 0
 773 0424 AF4B     		ldr	r3, .L178+8
 774 0426 66EE876A 		vmul.f32	s13, s13, s14
 775              		.loc 1 303 0
 776 042a F1EE10FA 		vmrs	APSR_nzcv, FPSCR
 777              		.loc 1 307 0
 778 042e 86EEA57A 		vdiv.f32	s14, s13, s11
 779 0432 C8BF     		it	gt
 780 0434 DFEDAD7A 		vldrgt.32	s15, .L178+16
 781              		.loc 1 309 0
 782 0438 30EE466A 		vsub.f32	s12, s0, s12
 783              		.loc 1 307 0
 784 043c 77EEC77A 		vsub.f32	s15, s15, s14
 785              		.loc 1 309 0
 786 0440 F4EEC67A 		vcmpe.f32	s15, s12
 787 0444 F1EE10FA 		vmrs	APSR_nzcv, FPSCR
 788              		.loc 1 307 0
 789 0448 C3ED007A 		vstr.32	s15, [r3]
 790              		.loc 1 309 0
 791 044c 40F1D080 		bpl	.L157
 792              		.loc 1 310 0
 793 0450 D4ED047A 		vldr.32	s15, [r4, #16]
 794 0454 30EE670A 		vsub.f32	s0, s0, s15
 795              	.LVL73:
 796 0458 83ED000A 		vstr.32	s0, [r3]
 797              		.loc 1 325 0
 798 045c FFF7FEFF 		bl	mc_interface_set_pid_speed
ARM GAS  C:\Users\CHRIST~1\AppData\Local\Temp\ccXmPir6.s 			page 15


 799              	.LVL74:
 800              		.loc 1 328 0
 801 0460 637F     		ldrb	r3, [r4, #29]	@ zero_extendqisi2
 802 0462 002B     		cmp	r3, #0
 803 0464 3FF4B4AE 		beq	.L40
 804              	.L166:
 805              	.LBB124:
 806              		.loc 1 329 0
 807 0468 FFF7FEFF 		bl	mc_interface_get_tot_current_directional_filtered
 808              	.LVL75:
 809              	.LBB125:
 810              		.loc 1 331 0
 811 046c 4FF00009 		mov	r9, #0
 812              	.LVL76:
 813              	.LBE125:
 814              		.loc 1 329 0
 815 0470 B0EE408A 		vmov.f32	s16, s0
 816              	.LVL77:
 817 0474 03E0     		b	.L43
 818              	.LVL78:
 819              	.L41:
 820              	.LBB132:
 821              		.loc 1 331 0 discriminator 2
 822 0476 B9F10A0F 		cmp	r9, #10
 823 047a 3FF4A9AE 		beq	.L40
 824              	.LVL79:
 825              	.L43:
 826              	.LBB126:
 827              		.loc 1 332 0
 828 047e 4846     		mov	r0, r9
 829 0480 FFF7FEFF 		bl	comm_can_get_status_msg_index
 830              	.LVL80:
 831              		.loc 1 334 0
 832 0484 0268     		ldr	r2, [r0]
 833 0486 002A     		cmp	r2, #0
 834              	.LBE126:
 835              		.loc 1 331 0
 836 0488 09F10109 		add	r9, r9, #1
 837              	.LVL81:
 838              	.LBB131:
 839              		.loc 1 334 0
 840 048c F3DB     		blt	.L41
 841              	.LBB127:
 842              	.LBB128:
 843              		.loc 3 267 0 discriminator 1
 844 048e 4168     		ldr	r1, [r0, #4]
 845              	.LBB129:
 846              	.LBB130:
 847              		.loc 3 231 0 discriminator 1
 848 0490 D8F82830 		ldr	r3, [r8, #40]
 849              	.LVL82:
 850              	.LBE130:
 851              	.LBE129:
 852              		.loc 3 267 0 discriminator 1
 853 0494 5B1A     		subs	r3, r3, r1
 854              	.LBE128:
 855              	.LBE127:
ARM GAS  C:\Users\CHRIST~1\AppData\Local\Temp\ccXmPir6.s 			page 16


 856              		.loc 1 334 0 discriminator 1
 857 0496 07EE903A 		vmov	s15, r3	@ int
 858 049a F8EE677A 		vcvt.f32.u32	s15, s15
 859 049e 87EEA97A 		vdiv.f32	s14, s15, s19
 860 04a2 B4EEC97A 		vcmpe.f32	s14, s18
 861 04a6 F1EE10FA 		vmrs	APSR_nzcv, FPSCR
 862 04aa E4D5     		bpl	.L41
 863              		.loc 1 335 0
 864 04ac D0B2     		uxtb	r0, r2
 865              	.LVL83:
 866 04ae B0EE480A 		vmov.f32	s0, s16
 867 04b2 FFF7FEFF 		bl	comm_can_set_current
 868              	.LVL84:
 869 04b6 DEE7     		b	.L41
 870              	.LVL85:
 871              	.L165:
 872              	.LBE131:
 873              	.LBE132:
 874              	.LBE124:
 875              	.LBE147:
 876              		.loc 1 252 0
 877 04b8 0520     		movs	r0, #5
 878 04ba FFF7FEFF 		bl	led_external_set_state
 879              	.LVL86:
 880 04be 35E6     		b	.L19
 881              	.L171:
 882              		.loc 1 260 0
 883 04c0 0320     		movs	r0, #3
 884 04c2 FFF7FEFF 		bl	led_external_set_state
 885              	.LVL87:
 886 04c6 31E6     		b	.L19
 887              	.LVL88:
 888              	.L30:
 889              	.LBB148:
 890              		.loc 1 291 0 discriminator 4
 891 04c8 F1EE10FA 		vmrs	APSR_nzcv, FPSCR
 892 04cc 3FF566AE 		bmi	.L31
 893 04d0 75E6     		b	.L32
 894              	.LVL89:
 895              	.L170:
 896              	.LBE148:
 897              	.LBB149:
 898              		.loc 1 441 0
 899 04d2 F0EE488A 		vmov.f32	s17, s16
 900              	.LVL90:
 901              	.LBB111:
 902              	.LBB107:
 903              	.LBB101:
 904              		.loc 1 456 0
 905 04d6 9FED85BA 		vldr.32	s22, .L178+16
 906              	.LVL91:
 907              	.LBE101:
 908              	.LBE107:
 909              		.loc 1 445 0
 910 04da 4FF0000A 		mov	r10, #0
 911 04de 08E0     		b	.L82
 912              	.LVL92:
ARM GAS  C:\Users\CHRIST~1\AppData\Local\Temp\ccXmPir6.s 			page 17


 913              	.L174:
 914              	.LBB108:
 915              		.loc 1 463 0
 916 04e0 B1EE680A 		vneg.f32	s0, s17
 917 04e4 FFF7FEFF 		bl	comm_can_set_current
 918              	.LVL93:
 919              	.L76:
 920              	.LBE108:
 921              		.loc 1 445 0 discriminator 2
 922 04e8 0AF1010A 		add	r10, r10, #1
 923              	.LVL94:
 924 04ec BAF10A0F 		cmp	r10, #10
 925 04f0 45D0     		beq	.L173
 926              	.LVL95:
 927              	.L82:
 928              	.LBB109:
 929              		.loc 1 446 0
 930 04f2 5046     		mov	r0, r10
 931 04f4 FFF7FEFF 		bl	comm_can_get_status_msg_index
 932              	.LVL96:
 933              		.loc 1 448 0
 934 04f8 0368     		ldr	r3, [r0]
 935 04fa 002B     		cmp	r3, #0
 936 04fc F4DB     		blt	.L76
 937              	.LVL97:
 938              	.LBB102:
 939              	.LBB103:
 940              	.LBB104:
 941              	.LBB105:
 942              		.loc 3 231 0 discriminator 1
 943 04fe D8F82810 		ldr	r1, [r8, #40]
 944              	.LVL98:
 945              	.LBE105:
 946              	.LBE104:
 947              		.loc 3 267 0 discriminator 1
 948 0502 4268     		ldr	r2, [r0, #4]
 949 0504 8A1A     		subs	r2, r1, r2
 950              	.LBE103:
 951              	.LBE102:
 952              		.loc 1 448 0 discriminator 1
 953 0506 07EE902A 		vmov	s15, r2	@ int
 954 050a F8EE677A 		vcvt.f32.u32	s15, s15
 955 050e 87EEA97A 		vdiv.f32	s14, s15, s19
 956 0512 B4EEC97A 		vcmpe.f32	s14, s18
 957 0516 F1EE10FA 		vmrs	APSR_nzcv, FPSCR
 958 051a E5D5     		bpl	.L76
 959 051c 6F4A     		ldr	r2, .L178
 960              		.loc 1 449 0
 961 051e A17F     		ldrb	r1, [r4, #30]	@ zero_extendqisi2
 962 0520 1278     		ldrb	r2, [r2]	@ zero_extendqisi2
 963 0522 01B3     		cbz	r1, .L78
 964              	.LBB106:
 965              		.loc 1 450 0
 966 0524 90ED020A 		vldr.32	s0, [r0, #8]
 967              	.LVL99:
 968              		.loc 1 451 0
 969 0528 0AB1     		cbz	r2, .L79
ARM GAS  C:\Users\CHRIST~1\AppData\Local\Temp\ccXmPir6.s 			page 18


 970              		.loc 1 452 0
 971 052a B1EE400A 		vneg.f32	s0, s0
 972              	.LVL100:
 973              	.L79:
 974              		.loc 1 456 0
 975 052e 94ED081A 		vldr.32	s2, [r4, #32]
 976 0532 DFED6E0A 		vldr.32	s1, .L178+16
 977 0536 0190     		str	r0, [sp, #4]
 978 0538 30EE6B0A 		vsub.f32	s0, s0, s23
 979              	.LVL101:
 980 053c B0EE4B2A 		vmov.f32	s4, s22
 981 0540 F0EE481A 		vmov.f32	s3, s16
 982 0544 FFF7FEFF 		bl	utils_map
 983              	.LVL102:
 984              		.loc 1 457 0
 985 0548 D9ED507A 		vldr.32	s15, [r9, #320]
 986 054c 0198     		ldr	r0, [sp, #4]
 987 054e 634A     		ldr	r2, .L178
 988 0550 0368     		ldr	r3, [r0]
 989 0552 1278     		ldrb	r2, [r2]	@ zero_extendqisi2
 990 0554 F4EEC07A 		vcmpe.f32	s15, s0
 991 0558 F1EE10FA 		vmrs	APSR_nzcv, FPSCR
 992              		.loc 1 456 0
 993 055c F0EE408A 		vmov.f32	s17, s0
 994              	.LVL103:
 995              		.loc 1 458 0
 996 0560 C8BF     		it	gt
 997 0562 F0EE4B8A 		vmovgt.f32	s17, s22
 998              	.LVL104:
 999              	.L78:
 1000 0566 D8B2     		uxtb	r0, r3
 1001              	.LBE106:
 1002              		.loc 1 462 0
 1003 0568 002A     		cmp	r2, #0
 1004 056a B9D1     		bne	.L174
 1005              		.loc 1 465 0
 1006 056c B0EE680A 		vmov.f32	s0, s17
 1007              	.LBE109:
 1008              		.loc 1 445 0
 1009 0570 0AF1010A 		add	r10, r10, #1
 1010              	.LVL105:
 1011              	.LBB110:
 1012              		.loc 1 465 0
 1013 0574 FFF7FEFF 		bl	comm_can_set_current
 1014              	.LVL106:
 1015              	.LBE110:
 1016              		.loc 1 445 0
 1017 0578 BAF10A0F 		cmp	r10, #10
 1018 057c B9D1     		bne	.L82
 1019              	.L173:
 1020              	.LBE111:
 1021              		.loc 1 470 0
 1022 057e A37F     		ldrb	r3, [r4, #30]	@ zero_extendqisi2
 1023 0580 002B     		cmp	r3, #0
 1024 0582 40F08480 		bne	.L175
 1025              	.LBB112:
 1026 0586 B0EE688A 		vmov.f32	s16, s17
ARM GAS  C:\Users\CHRIST~1\AppData\Local\Temp\ccXmPir6.s 			page 19


 1027              	.LVL107:
 1028 058a 6EE6     		b	.L75
 1029              	.LVL108:
 1030              	.L164:
 1031              	.LBE112:
 1032              	.LBE149:
 1033              		.loc 1 232 0 discriminator 3
 1034 058c F0EEE87A 		vabs.f32	s15, s17
 1035              		.loc 1 231 0 discriminator 3
 1036 0590 F4EECB7A 		vcmpe.f32	s15, s22
 1037 0594 F1EE10FA 		vmrs	APSR_nzcv, FPSCR
 1038 0598 7FF582AD 		bpl	.L12
 1039              		.loc 1 233 0
 1040 059c 0028     		cmp	r0, #0
 1041 059e 00F09880 		beq	.L14
 1042              		.loc 1 234 0
 1043 05a2 4E4A     		ldr	r2, .L178
 1044 05a4 1846     		mov	r0, r3
 1045 05a6 1370     		strb	r3, [r2]
 1046 05a8 7AE5     		b	.L12
 1047              	.LVL109:
 1048              	.L61:
 1049              	.LBB150:
 1050              		.loc 1 413 0
 1051 05aa 78EE687A 		vsub.f32	s15, s16, s17
 1052 05ae F0EEE77A 		vabs.f32	s15, s15
 1053 05b2 F4EECB7A 		vcmpe.f32	s15, s22
 1054 05b6 F1EE10FA 		vmrs	APSR_nzcv, FPSCR
 1055 05ba 7FF70FAF 		ble	.L62
 1056              		.loc 1 414 0
 1057 05be 7DEE0D0A 		vadd.f32	s1, s26, s26
 1058 05c2 B0EE680A 		vmov.f32	s0, s17
 1059 05c6 05A8     		add	r0, sp, #20
 1060 05c8 FFF7FEFF 		bl	utils_step_towards
 1061              	.LVL110:
 1062              	.L64:
 1063              		.loc 1 420 0
 1064 05cc F4EEC8CA 		vcmpe.f32	s25, s16
 1065 05d0 F1EE10FA 		vmrs	APSR_nzcv, FPSCR
 1066              		.loc 1 419 0
 1067 05d4 DDED057A 		vldr.32	s15, [sp, #20]
 1068              	.LVL111:
 1069              		.loc 1 420 0
 1070 05d8 07DD     		ble	.L160
 1071              		.loc 1 419 0 discriminator 2
 1072 05da 9DED048A 		vldr.32	s16, [sp, #16]
 1073              	.LVL112:
 1074              		.loc 1 420 0 discriminator 2
 1075 05de F4EEC87A 		vcmpe.f32	s15, s16
 1076 05e2 F1EE10FA 		vmrs	APSR_nzcv, FPSCR
 1077 05e6 7FF533AE 		bpl	.L59
 1078              	.L160:
 1079              		.loc 1 419 0
 1080 05ea B0EE678A 		vmov.f32	s16, s15
 1081 05ee FBE6     		b	.L66
 1082              	.LVL113:
 1083              	.L157:
ARM GAS  C:\Users\CHRIST~1\AppData\Local\Temp\ccXmPir6.s 			page 20


 1084              	.LBE150:
 1085              	.LBB151:
 1086 05f0 B0EE670A 		vmov.f32	s0, s15
 1087              	.LVL114:
 1088 05f4 E6E5     		b	.L34
 1089              	.LVL115:
 1090              	.L35:
 1091              		.loc 1 317 0
 1092 05f6 D4ED046A 		vldr.32	s13, [r4, #16]
 1093 05fa 9DED037A 		vldr.32	s14, [sp, #12]
 1094 05fe DFED3A5A 		vldr.32	s11, .L178+12
 1095              		.loc 1 319 0
 1096 0602 94ED046A 		vldr.32	s12, [r4, #16]
 1097              		.loc 1 317 0
 1098 0606 374B     		ldr	r3, .L178+8
 1099 0608 66EE876A 		vmul.f32	s13, s13, s14
 1100              		.loc 1 313 0
 1101 060c F1EE10FA 		vmrs	APSR_nzcv, FPSCR
 1102              		.loc 1 317 0
 1103 0610 86EEA57A 		vdiv.f32	s14, s13, s11
 1104 0614 48BF     		it	mi
 1105 0616 DFED357A 		vldrmi.32	s15, .L178+16
 1106              		.loc 1 319 0
 1107 061a 36EE006A 		vadd.f32	s12, s12, s0
 1108              		.loc 1 317 0
 1109 061e 77EE277A 		vadd.f32	s15, s14, s15
 1110              		.loc 1 319 0
 1111 0622 F4EEC67A 		vcmpe.f32	s15, s12
 1112 0626 F1EE10FA 		vmrs	APSR_nzcv, FPSCR
 1113              		.loc 1 317 0
 1114 062a C3ED007A 		vstr.32	s15, [r3]
 1115              		.loc 1 319 0
 1116 062e DFDD     		ble	.L157
 1117              		.loc 1 320 0
 1118 0630 D4ED047A 		vldr.32	s15, [r4, #16]
 1119 0634 30EE270A 		vadd.f32	s0, s0, s15
 1120              	.LVL116:
 1121 0638 83ED000A 		vstr.32	s0, [r3]
 1122 063c C2E5     		b	.L34
 1123              	.LVL117:
 1124              	.L169:
 1125              	.LBE151:
 1126              		.loc 1 430 0
 1127 063e B0EE480A 		vmov.f32	s0, s16
 1128 0642 FFF7FEFF 		bl	mc_interface_set_brake_current
 1129              	.LVL118:
 1130              	.LBB152:
 1131              		.loc 1 433 0
 1132 0646 4FF00009 		mov	r9, #0
 1133              	.LVL119:
 1134 064a 03E0     		b	.L74
 1135              	.LVL120:
 1136              	.L72:
 1137              		.loc 1 433 0 is_stmt 0 discriminator 2
 1138 064c B9F10A0F 		cmp	r9, #10
 1139 0650 3FF4F1AC 		beq	.L84
 1140              	.LVL121:
ARM GAS  C:\Users\CHRIST~1\AppData\Local\Temp\ccXmPir6.s 			page 21


 1141              	.L74:
 1142              	.LBB153:
 1143              		.loc 1 434 0 is_stmt 1
 1144 0654 4846     		mov	r0, r9
 1145 0656 FFF7FEFF 		bl	comm_can_get_status_msg_index
 1146              	.LVL122:
 1147              		.loc 1 436 0
 1148 065a 0268     		ldr	r2, [r0]
 1149 065c 002A     		cmp	r2, #0
 1150              	.LBE153:
 1151              		.loc 1 433 0
 1152 065e 09F10109 		add	r9, r9, #1
 1153              	.LVL123:
 1154              	.LBB158:
 1155              		.loc 1 436 0
 1156 0662 F3DB     		blt	.L72
 1157              	.LBB154:
 1158              	.LBB155:
 1159              		.loc 3 267 0 discriminator 1
 1160 0664 4168     		ldr	r1, [r0, #4]
 1161              	.LBB156:
 1162              	.LBB157:
 1163              		.loc 3 231 0 discriminator 1
 1164 0666 D8F82830 		ldr	r3, [r8, #40]
 1165              	.LVL124:
 1166              	.LBE157:
 1167              	.LBE156:
 1168              		.loc 3 267 0 discriminator 1
 1169 066a 5B1A     		subs	r3, r3, r1
 1170              	.LBE155:
 1171              	.LBE154:
 1172              		.loc 1 436 0 discriminator 1
 1173 066c 07EE903A 		vmov	s15, r3	@ int
 1174 0670 F8EE677A 		vcvt.f32.u32	s15, s15
 1175 0674 87EEA97A 		vdiv.f32	s14, s15, s19
 1176 0678 B4EEC97A 		vcmpe.f32	s14, s18
 1177 067c F1EE10FA 		vmrs	APSR_nzcv, FPSCR
 1178 0680 E4D5     		bpl	.L72
 1179              		.loc 1 437 0
 1180 0682 D0B2     		uxtb	r0, r2
 1181              	.LVL125:
 1182 0684 B0EE480A 		vmov.f32	s0, s16
 1183 0688 FFF7FEFF 		bl	comm_can_set_current_brake
 1184              	.LVL126:
 1185 068c DEE7     		b	.L72
 1186              	.LVL127:
 1187              	.L175:
 1188              	.LBE158:
 1189              	.LBE152:
 1190              	.LBB159:
 1191              	.LBB113:
 1192              		.loc 1 472 0
 1193 068e 9FED172A 		vldr.32	s4, .L178+16
 1194 0692 94ED081A 		vldr.32	s2, [r4, #32]
 1195 0696 F0EE481A 		vmov.f32	s3, s16
 1196 069a 3CEE6B0A 		vsub.f32	s0, s24, s23
 1197              	.LVL128:
ARM GAS  C:\Users\CHRIST~1\AppData\Local\Temp\ccXmPir6.s 			page 22


 1198 069e F0EE420A 		vmov.f32	s1, s4
 1199 06a2 FFF7FEFF 		bl	utils_map
 1200              	.LVL129:
 1201              		.loc 1 473 0
 1202 06a6 99ED507A 		vldr.32	s14, [r9, #320]
 1203              		.loc 1 474 0
 1204 06aa DFED107A 		vldr.32	s15, .L178+16
 1205 06ae B4EE407A 		vcmp.f32	s14, s0
 1206              		.loc 1 472 0
 1207 06b2 B0EE408A 		vmov.f32	s16, s0
 1208              	.LVL130:
 1209              		.loc 1 474 0
 1210 06b6 F1EE10FA 		vmrs	APSR_nzcv, FPSCR
 1211 06ba C8BF     		it	gt
 1212 06bc B0EE678A 		vmovgt.f32	s16, s15
 1213 06c0 D3E5     		b	.L75
 1214              	.LVL131:
 1215              	.L172:
 1216              	.LBE113:
 1217              	.LBE159:
 1218              	.LBB160:
 1219              		.loc 1 410 0
 1220 06c2 7DEE0D0A 		vadd.f32	s1, s26, s26
 1221 06c6 B1EE680A 		vneg.f32	s0, s17
 1222 06ca 05A8     		add	r0, sp, #20
 1223 06cc FFF7FEFF 		bl	utils_step_towards
 1224              	.LVL132:
 1225 06d0 7CE7     		b	.L64
 1226              	.LVL133:
 1227              	.L14:
 1228              	.LBE160:
 1229              		.loc 1 236 0
 1230 06d2 024B     		ldr	r3, .L178
 1231 06d4 1046     		mov	r0, r2
 1232 06d6 1970     		strb	r1, [r3]
 1233 06d8 E2E4     		b	.L12
 1234              	.L179:
 1235 06da 00BF     		.align	2
 1236              	.L178:
 1237 06dc 00000000 		.word	.LANCHOR5
 1238 06e0 6F12833A 		.word	981668463
 1239 06e4 00000000 		.word	.LANCHOR10
 1240 06e8 00007A44 		.word	1148846080
 1241 06ec 00000000 		.word	0
 1242              	.LBE161:
 1243              		.cfi_endproc
 1244              	.LFE262:
 1245              		.size	output_thread, .-output_thread
 1246              		.section	.text.app_nunchuk_configure,"ax",%progbits
 1247              		.align	1
 1248              		.p2align 4,,15
 1249              		.global	app_nunchuk_configure
 1250              		.syntax unified
 1251              		.thumb
 1252              		.thumb_func
 1253              		.fpu fpv4-sp-d16
 1254              		.type	app_nunchuk_configure, %function
ARM GAS  C:\Users\CHRIST~1\AppData\Local\Temp\ccXmPir6.s 			page 23


 1255              	app_nunchuk_configure:
 1256              	.LFB256:
 1257              		.loc 1 59 0
 1258              		.cfi_startproc
 1259              		@ args = 0, pretend = 0, frame = 0
 1260              		@ frame_needed = 0, uses_anonymous_args = 0
 1261              		@ link register save eliminated.
 1262              	.LVL134:
 1263 0000 30B4     		push	{r4, r5}
 1264              		.cfi_def_cfa_offset 8
 1265              		.cfi_offset 4, -8
 1266              		.cfi_offset 5, -4
 1267              		.loc 1 60 0
 1268 0002 0546     		mov	r5, r0
 1269 0004 0FCD     		ldmia	r5!, {r0, r1, r2, r3}
 1270              	.LVL135:
 1271 0006 064C     		ldr	r4, .L182
 1272 0008 0FC4     		stmia	r4!, {r0, r1, r2, r3}
 1273 000a 0FCD     		ldmia	r5!, {r0, r1, r2, r3}
 1274              	.LVL136:
 1275 000c 0FC4     		stmia	r4!, {r0, r1, r2, r3}
 1276 000e 2A68     		ldr	r2, [r5]
 1277 0010 2260     		str	r2, [r4]
 1278              		.loc 1 62 0
 1279 0012 044B     		ldr	r3, .L182+4
 1280 0014 0449     		ldr	r1, .L182+8
 1281 0016 0548     		ldr	r0, .L182+12
 1282 0018 0022     		movs	r2, #0
 1283              		.loc 1 67 0
 1284 001a 30BC     		pop	{r4, r5}
 1285              		.cfi_restore 5
 1286              		.cfi_restore 4
 1287              		.cfi_def_cfa_offset 0
 1288              	.LVL137:
 1289              		.loc 1 62 0
 1290 001c FFF7FEBF 		b	terminal_register_command_callback
 1291              	.LVL138:
 1292              	.L183:
 1293              		.align	2
 1294              	.L182:
 1295 0020 00000000 		.word	.LANCHOR2
 1296 0024 00000000 		.word	terminal_cmd_nunchuk_status
 1297 0028 00000000 		.word	.LC6
 1298 002c 24000000 		.word	.LC7
 1299              		.cfi_endproc
 1300              	.LFE256:
 1301              		.size	app_nunchuk_configure, .-app_nunchuk_configure
 1302              		.section	.text.app_nunchuk_start,"ax",%progbits
 1303              		.align	1
 1304              		.p2align 4,,15
 1305              		.global	app_nunchuk_start
 1306              		.syntax unified
 1307              		.thumb
 1308              		.thumb_func
 1309              		.fpu fpv4-sp-d16
 1310              		.type	app_nunchuk_start, %function
 1311              	app_nunchuk_start:
ARM GAS  C:\Users\CHRIST~1\AppData\Local\Temp\ccXmPir6.s 			page 24


 1312              	.LFB257:
 1313              		.loc 1 69 0
 1314              		.cfi_startproc
 1315              		@ args = 0, pretend = 0, frame = 0
 1316              		@ frame_needed = 0, uses_anonymous_args = 0
 1317 0000 10B5     		push	{r4, lr}
 1318              		.cfi_def_cfa_offset 8
 1319              		.cfi_offset 4, -8
 1320              		.cfi_offset 14, -4
 1321              		.loc 1 70 0
 1322 0002 094A     		ldr	r2, .L186
 1323              		.loc 1 71 0
 1324 0004 094B     		ldr	r3, .L186+4
 1325              		.loc 1 69 0
 1326 0006 82B0     		sub	sp, sp, #8
 1327              		.cfi_def_cfa_offset 16
 1328              		.loc 1 70 0
 1329 0008 8021     		movs	r1, #128
 1330              		.loc 1 71 0
 1331 000a 0024     		movs	r4, #0
 1332              		.loc 1 70 0
 1333 000c 5160     		str	r1, [r2, #4]
 1334              		.loc 1 71 0
 1335 000e 1C70     		strb	r4, [r3]
 1336              		.loc 1 72 0
 1337 0010 FFF7FEFF 		bl	hw_start_i2c
 1338              	.LVL139:
 1339              		.loc 1 73 0
 1340 0014 0094     		str	r4, [sp]
 1341 0016 064B     		ldr	r3, .L186+8
 1342 0018 0648     		ldr	r0, .L186+12
 1343 001a 4022     		movs	r2, #64
 1344 001c 4FF4B361 		mov	r1, #1432
 1345 0020 FFF7FEFF 		bl	chThdCreateStatic
 1346              	.LVL140:
 1347              		.loc 1 74 0
 1348 0024 02B0     		add	sp, sp, #8
 1349              		.cfi_def_cfa_offset 8
 1350              		@ sp needed
 1351 0026 10BD     		pop	{r4, pc}
 1352              	.L187:
 1353              		.align	2
 1354              	.L186:
 1355 0028 00000000 		.word	.LANCHOR4
 1356 002c 00000000 		.word	.LANCHOR12
 1357 0030 00000000 		.word	chuk_thread
 1358 0034 00000000 		.word	.LANCHOR13
 1359              		.cfi_endproc
 1360              	.LFE257:
 1361              		.size	app_nunchuk_start, .-app_nunchuk_start
 1362              		.section	.text.app_nunchuk_stop,"ax",%progbits
 1363              		.align	1
 1364              		.p2align 4,,15
 1365              		.global	app_nunchuk_stop
 1366              		.syntax unified
 1367              		.thumb
 1368              		.thumb_func
ARM GAS  C:\Users\CHRIST~1\AppData\Local\Temp\ccXmPir6.s 			page 25


 1369              		.fpu fpv4-sp-d16
 1370              		.type	app_nunchuk_stop, %function
 1371              	app_nunchuk_stop:
 1372              	.LFB258:
 1373              		.loc 1 76 0
 1374              		.cfi_startproc
 1375              		@ args = 0, pretend = 0, frame = 0
 1376              		@ frame_needed = 0, uses_anonymous_args = 0
 1377              		.loc 1 77 0
 1378 0000 084B     		ldr	r3, .L202
 1379              		.loc 1 76 0
 1380 0002 10B5     		push	{r4, lr}
 1381              		.cfi_def_cfa_offset 8
 1382              		.cfi_offset 4, -8
 1383              		.cfi_offset 14, -4
 1384              		.loc 1 77 0
 1385 0004 0122     		movs	r2, #1
 1386              		.loc 1 79 0
 1387 0006 084C     		ldr	r4, .L202+4
 1388              		.loc 1 77 0
 1389 0008 1A70     		strb	r2, [r3]
 1390              		.loc 1 79 0
 1391 000a 2378     		ldrb	r3, [r4]	@ zero_extendqisi2
 1392 000c 1BB1     		cbz	r3, .L200
 1393 000e 06E0     		b	.L201
 1394              	.L191:
 1395              		.loc 1 84 0
 1396 0010 0A20     		movs	r0, #10
 1397 0012 FFF7FEFF 		bl	chThdSleep
 1398              	.LVL141:
 1399              	.L200:
 1400              		.loc 1 83 0
 1401 0016 2378     		ldrb	r3, [r4]	@ zero_extendqisi2
 1402 0018 002B     		cmp	r3, #0
 1403 001a F9D1     		bne	.L191
 1404              		.loc 1 86 0
 1405 001c 10BD     		pop	{r4, pc}
 1406              	.L201:
 1407              		.loc 1 80 0
 1408 001e FFF7FEFF 		bl	hw_stop_i2c
 1409              	.LVL142:
 1410 0022 F8E7     		b	.L200
 1411              	.L203:
 1412              		.align	2
 1413              	.L202:
 1414 0024 00000000 		.word	.LANCHOR12
 1415 0028 00000000 		.word	.LANCHOR14
 1416              		.cfi_endproc
 1417              	.LFE258:
 1418              		.size	app_nunchuk_stop, .-app_nunchuk_stop
 1419              		.section	.text.app_nunchuk_get_decoded_chuk,"ax",%progbits
 1420              		.align	1
 1421              		.p2align 4,,15
 1422              		.global	app_nunchuk_get_decoded_chuk
 1423              		.syntax unified
 1424              		.thumb
 1425              		.thumb_func
ARM GAS  C:\Users\CHRIST~1\AppData\Local\Temp\ccXmPir6.s 			page 26


 1426              		.fpu fpv4-sp-d16
 1427              		.type	app_nunchuk_get_decoded_chuk, %function
 1428              	app_nunchuk_get_decoded_chuk:
 1429              	.LFB259:
 1430              		.loc 1 88 0
 1431              		.cfi_startproc
 1432              		@ args = 0, pretend = 0, frame = 0
 1433              		@ frame_needed = 0, uses_anonymous_args = 0
 1434              		@ link register save eliminated.
 1435              		.loc 1 89 0
 1436 0000 064B     		ldr	r3, .L205
 1437 0002 9FED077A 		vldr.32	s14, .L205+4
 1438 0006 D3ED017A 		vldr.32	s15, [r3, #4]	@ int
 1439 000a 9FED060A 		vldr.32	s0, .L205+8
 1440 000e F8EEE77A 		vcvt.f32.s32	s15, s15
 1441 0012 77EEC77A 		vsub.f32	s15, s15, s14
 1442              		.loc 1 90 0
 1443 0016 27EE800A 		vmul.f32	s0, s15, s0
 1444 001a 7047     		bx	lr
 1445              	.L206:
 1446              		.align	2
 1447              	.L205:
 1448 001c 00000000 		.word	.LANCHOR4
 1449 0020 00000043 		.word	1124073472
 1450 0024 0000003C 		.word	1006632960
 1451              		.cfi_endproc
 1452              	.LFE259:
 1453              		.size	app_nunchuk_get_decoded_chuk, .-app_nunchuk_get_decoded_chuk
 1454              		.section	.text.app_nunchuk_update_output,"ax",%progbits
 1455              		.align	1
 1456              		.p2align 4,,15
 1457              		.global	app_nunchuk_update_output
 1458              		.syntax unified
 1459              		.thumb
 1460              		.thumb_func
 1461              		.fpu fpv4-sp-d16
 1462              		.type	app_nunchuk_update_output, %function
 1463              	app_nunchuk_update_output:
 1464              	.LFB260:
 1465              		.loc 1 92 0
 1466              		.cfi_startproc
 1467              		@ args = 0, pretend = 0, frame = 0
 1468              		@ frame_needed = 0, uses_anonymous_args = 0
 1469              	.LVL143:
 1470 0000 F0B5     		push	{r4, r5, r6, r7, lr}
 1471              		.cfi_def_cfa_offset 20
 1472              		.cfi_offset 4, -20
 1473              		.cfi_offset 5, -16
 1474              		.cfi_offset 6, -12
 1475              		.cfi_offset 7, -8
 1476              		.cfi_offset 14, -4
 1477              		.loc 1 93 0
 1478 0002 164A     		ldr	r2, .L212
 1479 0004 1378     		ldrb	r3, [r2]	@ zero_extendqisi2
 1480              		.loc 1 92 0
 1481 0006 83B0     		sub	sp, sp, #12
 1482              		.cfi_def_cfa_offset 32
ARM GAS  C:\Users\CHRIST~1\AppData\Local\Temp\ccXmPir6.s 			page 27


 1483              		.loc 1 92 0
 1484 0008 0446     		mov	r4, r0
 1485              		.loc 1 93 0
 1486 000a ABB1     		cbz	r3, .L210
 1487 000c 144E     		ldr	r6, .L212+4
 1488              	.LVL144:
 1489              	.L208:
 1490              		.loc 1 100 0
 1491 000e 154D     		ldr	r5, .L212+8
 1492 0010 0FCC     		ldmia	r4!, {r0, r1, r2, r3}
 1493              	.LVL145:
 1494 0012 0FC5     		stmia	r5!, {r0, r1, r2, r3}
 1495 0014 94E80300 		ldm	r4, {r0, r1}
 1496              	.LBB162:
 1497              	.LBB163:
 1498              	.LBB164:
 1499              	.LBB165:
 1500              	.LBB166:
 1501              	.LBB167:
 1502              		.file 4 "ChibiOS_3.0.2/os/ext/CMSIS/include/core_cmFunc.h"
 1503              		.loc 4 546 0
 1504 0018 2023     		movs	r3, #32
 1505              	.LBE167:
 1506              	.LBE166:
 1507              	.LBE165:
 1508              	.LBE164:
 1509              	.LBE163:
 1510              	.LBE162:
 1511              		.loc 1 100 0
 1512 001a 85E80300 		stm	r5, {r0, r1}
 1513              	.LVL146:
 1514              	.LBB187:
 1515              	.LBB186:
 1516              	.LBB171:
 1517              	.LBB170:
 1518              	.LBB169:
 1519              	.LBB168:
 1520              		.loc 4 546 0
 1521              		.syntax unified
 1522              	@ 546 "ChibiOS_3.0.2/os/ext/CMSIS/include/core_cmFunc.h" 1
 1523 001e 83F31188 		MSR basepri, r3
 1524              	@ 0 "" 2
 1525              	.LVL147:
 1526              		.thumb
 1527              		.syntax unified
 1528              	.LBE168:
 1529              	.LBE169:
 1530              	.LBE170:
 1531              	.LBE171:
 1532              	.LBB172:
 1533              	.LBB173:
 1534              		.loc 3 231 0
 1535 0022 114B     		ldr	r3, .L212+12
 1536              	.LBE173:
 1537              	.LBE172:
 1538              	.LBB175:
 1539              	.LBB176:
ARM GAS  C:\Users\CHRIST~1\AppData\Local\Temp\ccXmPir6.s 			page 28


 1540              	.LBB177:
 1541              	.LBB178:
 1542              	.LBB179:
 1543              		.loc 4 546 0
 1544 0024 0022     		movs	r2, #0
 1545              	.LBE179:
 1546              	.LBE178:
 1547              	.LBE177:
 1548              	.LBE176:
 1549              	.LBE175:
 1550              	.LBB184:
 1551              	.LBB174:
 1552              		.loc 3 231 0
 1553 0026 9B6A     		ldr	r3, [r3, #40]
 1554              	.LVL148:
 1555              	.LBE174:
 1556              	.LBE184:
 1557              	.LBB185:
 1558              	.LBB183:
 1559              	.LBB182:
 1560              	.LBB181:
 1561              	.LBB180:
 1562              		.loc 4 546 0
 1563              		.syntax unified
 1564              	@ 546 "ChibiOS_3.0.2/os/ext/CMSIS/include/core_cmFunc.h" 1
 1565 0028 82F31188 		MSR basepri, r2
 1566              	@ 0 "" 2
 1567              	.LVL149:
 1568              		.thumb
 1569              		.syntax unified
 1570              	.LBE180:
 1571              	.LBE181:
 1572              	.LBE182:
 1573              	.LBE183:
 1574              	.LBE185:
 1575              	.LBE186:
 1576              	.LBE187:
 1577              		.loc 1 101 0
 1578 002c 3360     		str	r3, [r6]
 1579              		.loc 1 103 0
 1580 002e 03B0     		add	sp, sp, #12
 1581              		.cfi_remember_state
 1582              		.cfi_def_cfa_offset 20
 1583              		@ sp needed
 1584 0030 BDE8F040 		pop	{r4, r5, r6, r7, lr}
 1585              		.cfi_restore 14
 1586              		.cfi_restore 7
 1587              		.cfi_restore 6
 1588              		.cfi_restore 5
 1589              		.cfi_restore 4
 1590              		.cfi_def_cfa_offset 0
 1591              	.LVL150:
 1592              		.loc 1 102 0
 1593 0034 FFF7FEBF 		b	timeout_reset
 1594              	.LVL151:
 1595              	.L210:
 1596              		.cfi_restore_state
ARM GAS  C:\Users\CHRIST~1\AppData\Local\Temp\ccXmPir6.s 			page 29


 1597              		.loc 1 94 0
 1598 0038 094E     		ldr	r6, .L212+4
 1599              		.loc 1 96 0
 1600 003a 0A48     		ldr	r0, .L212+8
 1601              	.LVL152:
 1602 003c 03F0FF01 		and	r1, r3, #255
 1603              		.loc 1 95 0
 1604 0040 0127     		movs	r7, #1
 1605              		.loc 1 96 0
 1606 0042 8025     		movs	r5, #128
 1607              		.loc 1 97 0
 1608 0044 0091     		str	r1, [sp]
 1609              		.loc 1 94 0
 1610 0046 3160     		str	r1, [r6]
 1611              		.loc 1 97 0
 1612 0048 084B     		ldr	r3, .L212+16
 1613              		.loc 1 95 0
 1614 004a 1770     		strb	r7, [r2]
 1615              		.loc 1 97 0
 1616 004c 4FF4B361 		mov	r1, #1432
 1617              		.loc 1 96 0
 1618 0050 4560     		str	r5, [r0, #4]
 1619              		.loc 1 97 0
 1620 0052 4022     		movs	r2, #64
 1621 0054 0648     		ldr	r0, .L212+20
 1622 0056 FFF7FEFF 		bl	chThdCreateStatic
 1623              	.LVL153:
 1624 005a D8E7     		b	.L208
 1625              	.L213:
 1626              		.align	2
 1627              	.L212:
 1628 005c 00000000 		.word	.LANCHOR0
 1629 0060 00000000 		.word	.LANCHOR3
 1630 0064 00000000 		.word	.LANCHOR4
 1631 0068 00000000 		.word	ch
 1632 006c 00000000 		.word	output_thread
 1633 0070 00000000 		.word	.LANCHOR15
 1634              		.cfi_endproc
 1635              	.LFE260:
 1636              		.size	app_nunchuk_update_output, .-app_nunchuk_update_output
 1637              		.section	.text.chuk_thread,"ax",%progbits
 1638              		.align	1
 1639              		.p2align 4,,15
 1640              		.syntax unified
 1641              		.thumb
 1642              		.thumb_func
 1643              		.fpu fpv4-sp-d16
 1644              		.type	chuk_thread, %function
 1645              	chuk_thread:
 1646              	.LFB261:
 1647              		.loc 1 105 0
 1648              		.cfi_startproc
 1649              		@ args = 0, pretend = 0, frame = 48
 1650              		@ frame_needed = 0, uses_anonymous_args = 0
 1651              	.LVL154:
 1652 0000 2DE9F04F 		push	{r4, r5, r6, r7, r8, r9, r10, fp, lr}
 1653              		.cfi_def_cfa_offset 36
ARM GAS  C:\Users\CHRIST~1\AppData\Local\Temp\ccXmPir6.s 			page 30


 1654              		.cfi_offset 4, -36
 1655              		.cfi_offset 5, -32
 1656              		.cfi_offset 6, -28
 1657              		.cfi_offset 7, -24
 1658              		.cfi_offset 8, -20
 1659              		.cfi_offset 9, -16
 1660              		.cfi_offset 10, -12
 1661              		.cfi_offset 11, -8
 1662              		.cfi_offset 14, -4
 1663              	.LBB188:
 1664              	.LBB189:
 1665              		.loc 2 135 0
 1666 0004 6E4B     		ldr	r3, .L231
 1667 0006 6F4A     		ldr	r2, .L231+4
 1668 0008 9B69     		ldr	r3, [r3, #24]
 1669              	.LBE189:
 1670              	.LBE188:
 1671              	.LBB191:
 1672              		.loc 1 124 0
 1673 000a DFF8CCA1 		ldr	r10, .L231+24
 1674              	.LBE191:
 1675              	.LBB196:
 1676              	.LBB190:
 1677              		.loc 2 135 0
 1678 000e 9A61     		str	r2, [r3, #24]
 1679              	.LVL155:
 1680              	.LBE190:
 1681              	.LBE196:
 1682              		.loc 1 109 0
 1683 0010 6D4A     		ldr	r2, .L231+8
 1684 0012 0123     		movs	r3, #1
 1685              		.loc 1 105 0
 1686 0014 91B0     		sub	sp, sp, #68
 1687              		.cfi_def_cfa_offset 104
 1688              		.loc 1 109 0
 1689 0016 1370     		strb	r3, [r2]
 1690              	.LVL156:
 1691              		.loc 1 118 0
 1692 0018 FFF7FEFF 		bl	hw_start_i2c
 1693              	.LVL157:
 1694              		.loc 1 119 0
 1695 001c 6420     		movs	r0, #100
 1696 001e FFF7FEFF 		bl	chThdSleep
 1697              	.LVL158:
 1698              	.LBB197:
 1699              		.loc 1 124 0
 1700 0022 9AF80030 		ldrb	r3, [r10]	@ zero_extendqisi2
 1701 0026 002B     		cmp	r3, #0
 1702 0028 40F0C680 		bne	.L229
 1703 002c DFF8A0B1 		ldr	fp, .L231+16
 1704 0030 DFF8A891 		ldr	r9, .L231+28
 1705              		.loc 1 132 0
 1706 0034 654C     		ldr	r4, .L231+12
 1707 0036 0BF10606 		add	r6, fp, #6
 1708 003a 04AD     		add	r5, sp, #16
 1709 003c 0FE0     		b	.L215
 1710              	.LVL159:
ARM GAS  C:\Users\CHRIST~1\AppData\Local\Temp\ccXmPir6.s 			page 31


 1711              	.L216:
 1712              		.loc 1 192 0
 1713 003e 0223     		movs	r3, #2
 1714 0040 C9F80030 		str	r3, [r9]
 1715              		.loc 1 193 0
 1716 0044 FFF7FEFF 		bl	hw_try_restore_i2c
 1717              	.LVL160:
 1718              		.loc 1 194 0
 1719 0048 4FF47A70 		mov	r0, #1000
 1720 004c FFF7FEFF 		bl	chThdSleep
 1721              	.LVL161:
 1722              	.L220:
 1723              		.loc 1 197 0
 1724 0050 6420     		movs	r0, #100
 1725 0052 FFF7FEFF 		bl	chThdSleep
 1726              	.LVL162:
 1727              		.loc 1 124 0
 1728 0056 9AF80030 		ldrb	r3, [r10]	@ zero_extendqisi2
 1729 005a 002B     		cmp	r3, #0
 1730 005c 77D1     		bne	.L221
 1731              	.L215:
 1732              		.loc 1 130 0
 1733 005e 45F2F053 		movw	r3, #22000
 1734              		.loc 1 132 0
 1735 0062 2046     		mov	r0, r4
 1736              		.loc 1 130 0
 1737 0064 ADF81C30 		strh	r3, [sp, #28]	@ movhi
 1738              		.loc 1 133 0
 1739 0068 3227     		movs	r7, #50
 1740              		.loc 1 132 0
 1741 006a FFF7FEFF 		bl	i2cAcquireBus
 1742              	.LVL163:
 1743              		.loc 1 133 0
 1744 006e 0023     		movs	r3, #0
 1745 0070 CDE90137 		strd	r3, r7, [sp, #4]
 1746 0074 0095     		str	r5, [sp]
 1747 0076 0223     		movs	r3, #2
 1748 0078 07AA     		add	r2, sp, #28
 1749 007a 5221     		movs	r1, #82
 1750 007c 2046     		mov	r0, r4
 1751 007e FFF7FEFF 		bl	i2cMasterTransmitTimeout
 1752              	.LVL164:
 1753 0082 8046     		mov	r8, r0
 1754              	.LVL165:
 1755              		.loc 1 134 0
 1756 0084 2046     		mov	r0, r4
 1757              	.LVL166:
 1758 0086 FFF7FEFF 		bl	i2cReleaseBus
 1759              	.LVL167:
 1760              		.loc 1 137 0
 1761 008a B8F1000F 		cmp	r8, #0
 1762 008e D6D1     		bne	.L216
 1763              		.loc 1 138 0
 1764 0090 FB23     		movs	r3, #251
 1765              		.loc 1 140 0
 1766 0092 2046     		mov	r0, r4
 1767              		.loc 1 138 0
ARM GAS  C:\Users\CHRIST~1\AppData\Local\Temp\ccXmPir6.s 			page 32


 1768 0094 ADF81C30 		strh	r3, [sp, #28]	@ movhi
 1769              		.loc 1 140 0
 1770 0098 FFF7FEFF 		bl	i2cAcquireBus
 1771              	.LVL168:
 1772              		.loc 1 141 0
 1773 009c CDE90187 		strd	r8, r7, [sp, #4]
 1774 00a0 0095     		str	r5, [sp]
 1775 00a2 0223     		movs	r3, #2
 1776 00a4 07AA     		add	r2, sp, #28
 1777 00a6 5221     		movs	r1, #82
 1778 00a8 2046     		mov	r0, r4
 1779 00aa FFF7FEFF 		bl	i2cMasterTransmitTimeout
 1780              	.LVL169:
 1781 00ae 8046     		mov	r8, r0
 1782              	.LVL170:
 1783              		.loc 1 142 0
 1784 00b0 2046     		mov	r0, r4
 1785              	.LVL171:
 1786 00b2 FFF7FEFF 		bl	i2cReleaseBus
 1787              	.LVL172:
 1788              		.loc 1 146 0
 1789 00b6 B8F1000F 		cmp	r8, #0
 1790 00ba C0D1     		bne	.L216
 1791              		.loc 1 148 0
 1792 00bc 2046     		mov	r0, r4
 1793              		.loc 1 147 0
 1794 00be 8DF81C80 		strb	r8, [sp, #28]
 1795              		.loc 1 148 0
 1796 00c2 FFF7FEFF 		bl	i2cAcquireBus
 1797              	.LVL173:
 1798              		.loc 1 149 0
 1799 00c6 CDE90187 		strd	r8, r7, [sp, #4]
 1800 00ca 0095     		str	r5, [sp]
 1801 00cc 0123     		movs	r3, #1
 1802 00ce 07AA     		add	r2, sp, #28
 1803 00d0 5221     		movs	r1, #82
 1804 00d2 2046     		mov	r0, r4
 1805 00d4 FFF7FEFF 		bl	i2cMasterTransmitTimeout
 1806              	.LVL174:
 1807 00d8 8046     		mov	r8, r0
 1808              	.LVL175:
 1809              		.loc 1 150 0
 1810 00da 2046     		mov	r0, r4
 1811              	.LVL176:
 1812 00dc FFF7FEFF 		bl	i2cReleaseBus
 1813              	.LVL177:
 1814              		.loc 1 154 0
 1815 00e0 B8F1000F 		cmp	r8, #0
 1816 00e4 ABD1     		bne	.L216
 1817              		.loc 1 155 0
 1818 00e6 1E20     		movs	r0, #30
 1819 00e8 FFF7FEFF 		bl	chThdSleep
 1820              	.LVL178:
 1821              		.loc 1 157 0
 1822 00ec 2046     		mov	r0, r4
 1823 00ee FFF7FEFF 		bl	i2cAcquireBus
 1824              	.LVL179:
ARM GAS  C:\Users\CHRIST~1\AppData\Local\Temp\ccXmPir6.s 			page 33


 1825              		.loc 1 158 0
 1826 00f2 0097     		str	r7, [sp]
 1827 00f4 0623     		movs	r3, #6
 1828 00f6 2A46     		mov	r2, r5
 1829 00f8 5221     		movs	r1, #82
 1830 00fa 2046     		mov	r0, r4
 1831 00fc FFF7FEFF 		bl	i2cMasterReceiveTimeout
 1832              	.LVL180:
 1833 0100 0746     		mov	r7, r0
 1834              	.LVL181:
 1835              		.loc 1 159 0
 1836 0102 2046     		mov	r0, r4
 1837              	.LVL182:
 1838 0104 FFF7FEFF 		bl	i2cReleaseBus
 1839              	.LVL183:
 1840              		.loc 1 163 0
 1841 0108 002F     		cmp	r7, #0
 1842 010a 98D1     		bne	.L216
 1843 010c 304B     		ldr	r3, .L231+16
 1844 010e 2946     		mov	r1, r5
 1845              	.LBB192:
 1846              		.loc 1 165 0
 1847 0110 0122     		movs	r2, #1
 1848              	.LVL184:
 1849              	.L218:
 1850              	.LBB193:
 1851              		.loc 1 168 0
 1852 0112 13F8017B 		ldrb	r7, [r3], #1	@ zero_extendqisi2
 1853              	.LVL185:
 1854 0116 11F8010B 		ldrb	r0, [r1], #1	@ zero_extendqisi2
 1855              		.loc 1 169 0
 1856 011a 8742     		cmp	r7, r0
 1857 011c 18BF     		it	ne
 1858 011e 0022     		movne	r2, #0
 1859              	.LVL186:
 1860              		.loc 1 167 0
 1861 0120 9E42     		cmp	r6, r3
 1862 0122 F6D1     		bne	.L218
 1863              	.LBE193:
 1864              		.loc 1 173 0
 1865 0124 95E80300 		ldm	r5, {r0, r1}
 1866 0128 2A4B     		ldr	r3, .L231+20
 1867              	.LVL187:
 1868 012a CBF80000 		str	r0, [fp]
 1869 012e 1980     		strh	r1, [r3]	@ movhi
 1870              		.loc 1 175 0
 1871 0130 AAB1     		cbz	r2, .L230
 1872              	.LVL188:
 1873              	.L219:
 1874              		.loc 1 188 0
 1875 0132 FFF7FEFF 		bl	timeout_has_timeout
 1876              	.LVL189:
 1877 0136 0028     		cmp	r0, #0
 1878 0138 8AD0     		beq	.L220
 1879              		.loc 1 189 0
 1880 013a 0123     		movs	r3, #1
 1881              	.LBE192:
ARM GAS  C:\Users\CHRIST~1\AppData\Local\Temp\ccXmPir6.s 			page 34


 1882              		.loc 1 197 0
 1883 013c 6420     		movs	r0, #100
 1884              	.LBB194:
 1885              		.loc 1 189 0
 1886 013e C9F80030 		str	r3, [r9]
 1887              	.LBE194:
 1888              		.loc 1 197 0
 1889 0142 FFF7FEFF 		bl	chThdSleep
 1890              	.LVL190:
 1891              		.loc 1 124 0
 1892 0146 9AF80030 		ldrb	r3, [r10]	@ zero_extendqisi2
 1893 014a 002B     		cmp	r3, #0
 1894 014c 87D0     		beq	.L215
 1895              	.L221:
 1896              		.loc 1 125 0
 1897 014e 1E4A     		ldr	r2, .L231+8
 1898 0150 0023     		movs	r3, #0
 1899 0152 1370     		strb	r3, [r2]
 1900              		.loc 1 126 0
 1901 0154 C9F80030 		str	r3, [r9]
 1902              	.LBE197:
 1903              		.loc 1 199 0
 1904 0158 11B0     		add	sp, sp, #68
 1905              		.cfi_remember_state
 1906              		.cfi_def_cfa_offset 36
 1907              		@ sp needed
 1908 015a BDE8F08F 		pop	{r4, r5, r6, r7, r8, r9, r10, fp, pc}
 1909              	.LVL191:
 1910              	.L230:
 1911              		.cfi_restore_state
 1912              	.LBB198:
 1913              	.LBB195:
 1914              		.loc 1 179 0
 1915 015e 9DF81530 		ldrb	r3, [sp, #21]	@ zero_extendqisi2
 1916 0162 9DF81200 		ldrb	r0, [sp, #18]	@ zero_extendqisi2
 1917              		.loc 1 180 0
 1918 0166 9DF81310 		ldrb	r1, [sp, #19]	@ zero_extendqisi2
 1919              		.loc 1 176 0
 1920 016a C9F80020 		str	r2, [r9]
 1921              		.loc 1 179 0
 1922 016e C3F38102 		ubfx	r2, r3, #2, #2
 1923              	.LVL192:
 1924              		.loc 1 181 0
 1925 0172 9DF81470 		ldrb	r7, [sp, #20]	@ zero_extendqisi2
 1926              		.loc 1 179 0
 1927 0176 42EA8002 		orr	r2, r2, r0, lsl #2
 1928              		.loc 1 180 0
 1929 017a C3F30110 		ubfx	r0, r3, #4, #2
 1930 017e 40EA8100 		orr	r0, r0, r1, lsl #2
 1931              		.loc 1 181 0
 1932 0182 9909     		lsrs	r1, r3, #6
 1933 0184 41EA8701 		orr	r1, r1, r7, lsl #2
 1934              		.loc 1 179 0
 1935 0188 0C92     		str	r2, [sp, #48]
 1936              		.loc 1 177 0
 1937 018a 9DF81070 		ldrb	r7, [sp, #16]	@ zero_extendqisi2
 1938              		.loc 1 181 0
ARM GAS  C:\Users\CHRIST~1\AppData\Local\Temp\ccXmPir6.s 			page 35


 1939 018e 0E91     		str	r1, [sp, #56]
 1940              		.loc 1 182 0
 1941 0190 DA43     		mvns	r2, r3
 1942              		.loc 1 178 0
 1943 0192 9DF81110 		ldrb	r1, [sp, #17]	@ zero_extendqisi2
 1944              		.loc 1 180 0
 1945 0196 0D90     		str	r0, [sp, #52]
 1946              		.loc 1 183 0
 1947 0198 6FEA5303 		mvn	r3, r3, lsr #1
 1948              		.loc 1 182 0
 1949 019c 02F00102 		and	r2, r2, #1
 1950              		.loc 1 183 0
 1951 01a0 03F00103 		and	r3, r3, #1
 1952              		.loc 1 185 0
 1953 01a4 0AA8     		add	r0, sp, #40
 1954              		.loc 1 182 0
 1955 01a6 8DF83D20 		strb	r2, [sp, #61]
 1956              		.loc 1 183 0
 1957 01aa 8DF83C30 		strb	r3, [sp, #60]
 1958              		.loc 1 178 0
 1959 01ae CDE90A71 		strd	r7, r1, [sp, #40]
 1960              		.loc 1 185 0
 1961 01b2 FFF7FEFF 		bl	app_nunchuk_update_output
 1962              	.LVL193:
 1963 01b6 BCE7     		b	.L219
 1964              	.LVL194:
 1965              	.L229:
 1966 01b8 DFF82090 		ldr	r9, .L231+28
 1967 01bc C7E7     		b	.L221
 1968              	.L232:
 1969 01be 00BF     		.align	2
 1970              	.L231:
 1971 01c0 00000000 		.word	ch
 1972 01c4 00000000 		.word	.LC8
 1973 01c8 00000000 		.word	.LANCHOR14
 1974 01cc 00000000 		.word	I2CD1
 1975 01d0 00000000 		.word	.LANCHOR16
 1976 01d4 04000000 		.word	.LANCHOR16+4
 1977 01d8 00000000 		.word	.LANCHOR12
 1978 01dc 00000000 		.word	.LANCHOR1
 1979              	.LBE195:
 1980              	.LBE198:
 1981              		.cfi_endproc
 1982              	.LFE261:
 1983              		.size	chuk_thread, .-chuk_thread
 1984              		.section	.bss.chuck_d,"aw",%nobits
 1985              		.align	2
 1986              		.set	.LANCHOR4,. + 0
 1987              		.type	chuck_d, %object
 1988              		.size	chuck_d, 24
 1989              	chuck_d:
 1990 0000 00000000 		.space	24
 1990      00000000 
 1990      00000000 
 1990      00000000 
 1990      00000000 
 1991              		.section	.bss.chuck_error,"aw",%nobits
ARM GAS  C:\Users\CHRIST~1\AppData\Local\Temp\ccXmPir6.s 			page 36


 1992              		.align	2
 1993              		.set	.LANCHOR1,. + 0
 1994              		.type	chuck_error, %object
 1995              		.size	chuck_error, 4
 1996              	chuck_error:
 1997 0000 00000000 		.space	4
 1998              		.section	.bss.chuk_thread_wa,"aw",%nobits
 1999              		.align	3
 2000              		.set	.LANCHOR13,. + 0
 2001              		.type	chuk_thread_wa, %object
 2002              		.size	chuk_thread_wa, 1432
 2003              	chuk_thread_wa:
 2004 0000 00000000 		.space	1432
 2004      00000000 
 2004      00000000 
 2004      00000000 
 2004      00000000 
 2005              		.section	.bss.config,"aw",%nobits
 2006              		.align	2
 2007              		.set	.LANCHOR2,. + 0
 2008              		.type	config, %object
 2009              		.size	config, 36
 2010              	config:
 2011 0000 00000000 		.space	36
 2011      00000000 
 2011      00000000 
 2011      00000000 
 2011      00000000 
 2012              		.section	.bss.filter_buffer.11791,"aw",%nobits
 2013              		.align	2
 2014              		.set	.LANCHOR8,. + 0
 2015              		.type	filter_buffer.11791, %object
 2016              		.size	filter_buffer.11791, 32
 2017              	filter_buffer.11791:
 2018 0000 00000000 		.space	32
 2018      00000000 
 2018      00000000 
 2018      00000000 
 2018      00000000 
 2019              		.section	.bss.filter_ptr.11792,"aw",%nobits
 2020              		.align	2
 2021              		.set	.LANCHOR7,. + 0
 2022              		.type	filter_ptr.11792, %object
 2023              		.size	filter_ptr.11792, 4
 2024              	filter_ptr.11792:
 2025 0000 00000000 		.space	4
 2026              		.section	.bss.is_reverse.11783,"aw",%nobits
 2027              		.set	.LANCHOR5,. + 0
 2028              		.type	is_reverse.11783, %object
 2029              		.size	is_reverse.11783, 1
 2030              	is_reverse.11783:
 2031 0000 00       		.space	1
 2032              		.section	.bss.is_running,"aw",%nobits
 2033              		.set	.LANCHOR14,. + 0
 2034              		.type	is_running, %object
 2035              		.size	is_running, 1
 2036              	is_running:
ARM GAS  C:\Users\CHRIST~1\AppData\Local\Temp\ccXmPir6.s 			page 37


 2037 0000 00       		.space	1
 2038              		.section	.bss.last_buffer.11771,"aw",%nobits
 2039              		.align	2
 2040              		.set	.LANCHOR16,. + 0
 2041              		.type	last_buffer.11771, %object
 2042              		.size	last_buffer.11771, 6
 2043              	last_buffer.11771:
 2044 0000 00000000 		.space	6
 2044      0000
 2045              		.section	.bss.last_update_time,"aw",%nobits
 2046              		.align	2
 2047              		.set	.LANCHOR3,. + 0
 2048              		.type	last_update_time, %object
 2049              		.size	last_update_time, 4
 2050              	last_update_time:
 2051 0000 00000000 		.space	4
 2052              		.section	.bss.output_running,"aw",%nobits
 2053              		.set	.LANCHOR0,. + 0
 2054              		.type	output_running, %object
 2055              		.size	output_running, 1
 2056              	output_running:
 2057 0000 00       		.space	1
 2058              		.section	.bss.output_thread_wa,"aw",%nobits
 2059              		.align	3
 2060              		.set	.LANCHOR15,. + 0
 2061              		.type	output_thread_wa, %object
 2062              		.size	output_thread_wa, 1432
 2063              	output_thread_wa:
 2064 0000 00000000 		.space	1432
 2064      00000000 
 2064      00000000 
 2064      00000000 
 2064      00000000 
 2065              		.section	.bss.pid_rpm.11798,"aw",%nobits
 2066              		.align	2
 2067              		.set	.LANCHOR10,. + 0
 2068              		.type	pid_rpm.11798, %object
 2069              		.size	pid_rpm.11798, 4
 2070              	pid_rpm.11798:
 2071 0000 00000000 		.space	4
 2072              		.section	.bss.prev_current.11786,"aw",%nobits
 2073              		.align	2
 2074              		.set	.LANCHOR11,. + 0
 2075              		.type	prev_current.11786, %object
 2076              		.size	prev_current.11786, 4
 2077              	prev_current.11786:
 2078 0000 00000000 		.space	4
 2079              		.section	.bss.was_pid.11790,"aw",%nobits
 2080              		.set	.LANCHOR9,. + 0
 2081              		.type	was_pid.11790, %object
 2082              		.size	was_pid.11790, 1
 2083              	was_pid.11790:
 2084 0000 00       		.space	1
 2085              		.section	.bss.was_z.11784,"aw",%nobits
 2086              		.set	.LANCHOR6,. + 0
 2087              		.type	was_z.11784, %object
 2088              		.size	was_z.11784, 1
ARM GAS  C:\Users\CHRIST~1\AppData\Local\Temp\ccXmPir6.s 			page 38


 2089              	was_z.11784:
 2090 0000 00       		.space	1
 2091              		.section	.data.stop_now,"aw",%progbits
 2092              		.set	.LANCHOR12,. + 0
 2093              		.type	stop_now, %object
 2094              		.size	stop_now, 1
 2095              	stop_now:
 2096 0000 01       		.byte	1
 2097              		.section	.rodata.app_nunchuk_configure.str1.4,"aMS",%progbits,1
 2098              		.align	2
 2099              	.LC6:
 2100 0000 5072696E 		.ascii	"Print the status of the nunchuk app\000"
 2100      74207468 
 2100      65207374 
 2100      61747573 
 2100      206F6620 
 2101              	.LC7:
 2102 0024 6E756E63 		.ascii	"nunchuk_status\000"
 2102      68756B5F 
 2102      73746174 
 2102      757300
 2103              		.section	.rodata.chuk_thread.str1.4,"aMS",%progbits,1
 2104              		.align	2
 2105              	.LC8:
 2106 0000 4E756E63 		.ascii	"Nunchuk i2c\000"
 2106      68756B20 
 2106      69326300 
 2107              		.section	.rodata.output_thread.str1.4,"aMS",%progbits,1
 2108              		.align	2
 2109              	.LC5:
 2110 0000 4E756E63 		.ascii	"Nunchuk output\000"
 2110      68756B20 
 2110      6F757470 
 2110      757400
 2111              		.section	.rodata.terminal_cmd_nunchuk_status.str1.4,"aMS",%progbits,1
 2112              		.align	2
 2113              	.LC0:
 2114 0000 4F6E00   		.ascii	"On\000"
 2115 0003 00       		.space	1
 2116              	.LC1:
 2117 0004 4F666600 		.ascii	"Off\000"
 2118              	.LC2:
 2119 0008 4E756E63 		.ascii	"Nunchuk Status\000"
 2119      68756B20 
 2119      53746174 
 2119      757300
 2120 0017 00       		.space	1
 2121              	.LC3:
 2122 0018 4F757470 		.ascii	"Output: %s\000"
 2122      75743A20 
 2122      257300
 2123 0023 00       		.space	1
 2124              	.LC4:
 2125 0024 2000     		.ascii	" \000"
 2126              		.text
 2127              	.Letext0:
 2128              		.file 5 "c:\\program files (x86)\\gnu tools arm embedded\\7 2017-q4-major\\arm-none-eabi\\include\
ARM GAS  C:\Users\CHRIST~1\AppData\Local\Temp\ccXmPir6.s 			page 39


 2129              		.file 6 "c:\\program files (x86)\\gnu tools arm embedded\\7 2017-q4-major\\arm-none-eabi\\include\
 2130              		.file 7 "c:\\program files (x86)\\gnu tools arm embedded\\7 2017-q4-major\\lib\\gcc\\arm-none-eabi
 2131              		.file 8 "ChibiOS_3.0.2/os/rt/ports/ARMCMx/compilers/GCC/chtypes.h"
 2132              		.file 9 "ChibiOS_3.0.2/os/rt/include/chsystypes.h"
 2133              		.file 10 "ChibiOS_3.0.2/os/rt/include/chschd.h"
 2134              		.file 11 "ChibiOS_3.0.2/os/ext/CMSIS/include/core_cm4.h"
 2135              		.file 12 "ChibiOS_3.0.2/os/ext/CMSIS/ST/system_stm32f4xx.h"
 2136              		.file 13 "ChibiOS_3.0.2/os/ext/CMSIS/ST/stm32f407xx.h"
 2137              		.file 14 "ChibiOS_3.0.2/os/rt/ports/ARMCMx/chcore.h"
 2138              		.file 15 "ChibiOS_3.0.2/os/rt/ports/ARMCMx/chcore_v7m.h"
 2139              		.file 16 "ChibiOS_3.0.2/os/rt/include/chtm.h"
 2140              		.file 17 "ChibiOS_3.0.2/os/rt/include/chsem.h"
 2141              		.file 18 "ChibiOS_3.0.2/os/rt/include/chmtx.h"
 2142              		.file 19 "ChibiOS_3.0.2/os/rt/include/chevents.h"
 2143              		.file 20 "ChibiOS_3.0.2/os/rt/include/chqueues.h"
 2144              		.file 21 "./datatypes.h"
 2145              		.file 22 "./conf_general.h"
 2146              		.file 23 "ChibiOS_3.0.2/os/hal/ports/STM32/STM32F4xx/stm32_dma.h"
 2147              		.file 24 "ChibiOS_3.0.2/os/hal/ports/STM32/LLD/GPIOv2/pal_lld.h"
 2148              		.file 25 "ChibiOS_3.0.2/os/hal/include/can.h"
 2149              		.file 26 "ChibiOS_3.0.2/os/hal/ports/STM32/LLD/can_lld.h"
 2150              		.file 27 "ChibiOS_3.0.2/os/hal/include/i2c.h"
 2151              		.file 28 "ChibiOS_3.0.2/os/hal/ports/STM32/LLD/I2Cv1/i2c_lld.h"
 2152              		.file 29 "ChibiOS_3.0.2/os/hal/include/icu.h"
 2153              		.file 30 "ChibiOS_3.0.2/os/hal/ports/STM32/LLD/TIMv1/icu_lld.h"
 2154              		.file 31 "ChibiOS_3.0.2/os/hal/ports/STM32/LLD/TIMv1/stm32_tim.h"
 2155              		.file 32 "ChibiOS_3.0.2/os/hal/include/spi.h"
 2156              		.file 33 "ChibiOS_3.0.2/os/hal/ports/STM32/LLD/SPIv1/spi_lld.h"
 2157              		.file 34 "ChibiOS_3.0.2/os/hal/include/uart.h"
 2158              		.file 35 "ChibiOS_3.0.2/os/hal/ports/STM32/LLD/USARTv1/uart_lld.h"
 2159              		.file 36 "ChibiOS_3.0.2/os/hal/include/usb.h"
 2160              		.file 37 "ChibiOS_3.0.2/os/hal/ports/STM32/LLD/OTGv1/usb_lld.h"
 2161              		.file 38 "ChibiOS_3.0.2/os/hal/ports/STM32/LLD/OTGv1/stm32_otg.h"
 2162              		.file 39 "./mc_interface.h"
 2163              		.file 40 "c:\\program files (x86)\\gnu tools arm embedded\\7 2017-q4-major\\arm-none-eabi\\include
 2164              		.file 41 "c:\\program files (x86)\\gnu tools arm embedded\\7 2017-q4-major\\arm-none-eabi\\include
 2165              		.file 42 "c:\\program files (x86)\\gnu tools arm embedded\\7 2017-q4-major\\arm-none-eabi\\include
 2166              		.file 43 "c:\\program files (x86)\\gnu tools arm embedded\\7 2017-q4-major\\arm-none-eabi\\include
 2167              		.file 44 "ChibiOS_3.0.2/os/rt/include/chsys.h"
 2168              		.file 45 "./commands.h"
 2169              		.file 46 "./comm_can.h"
 2170              		.file 47 "./utils.h"
 2171              		.file 48 "ChibiOS_3.0.2/os/rt/include/chthreads.h"
 2172              		.file 49 "./timeout.h"
 2173              		.file 50 "./led_external.h"
 2174              		.file 51 "hwconf/hw.h"
 2175              		.file 52 "./terminal.h"