ARM GAS  C:\Users\CHRIST~1\AppData\Local\Temp\ccb0PMVc.s 			page 1


   1              		.cpu cortex-m4
   2              		.eabi_attribute 27, 1
   3              		.eabi_attribute 28, 1
   4              		.eabi_attribute 20, 1
   5              		.eabi_attribute 21, 1
   6              		.eabi_attribute 23, 3
   7              		.eabi_attribute 24, 1
   8              		.eabi_attribute 25, 1
   9              		.eabi_attribute 26, 1
  10              		.eabi_attribute 30, 2
  11              		.eabi_attribute 34, 1
  12              		.eabi_attribute 18, 4
  13              		.file	"app_adc.c"
  14              		.text
  15              	.Ltext0:
  16              		.cfi_sections	.debug_frame
  17              		.section	.text.adc_thread,"ax",%progbits
  18              		.align	1
  19              		.p2align 4,,15
  20              		.syntax unified
  21              		.thumb
  22              		.thumb_func
  23              		.fpu fpv4-sp-d16
  24              		.type	adc_thread, %function
  25              	adc_thread:
  26              	.LFB263:
  27              		.file 1 "applications/app_adc.c"
  28              		.loc 1 88 0
  29              		.cfi_startproc
  30              		@ args = 0, pretend = 0, frame = 16
  31              		@ frame_needed = 0, uses_anonymous_args = 0
  32              	.LVL0:
  33 0000 2DE9F04F 		push	{r4, r5, r6, r7, r8, r9, r10, fp, lr}
  34              		.cfi_def_cfa_offset 36
  35              		.cfi_offset 4, -36
  36              		.cfi_offset 5, -32
  37              		.cfi_offset 6, -28
  38              		.cfi_offset 7, -24
  39              		.cfi_offset 8, -20
  40              		.cfi_offset 9, -16
  41              		.cfi_offset 10, -12
  42              		.cfi_offset 11, -8
  43              		.cfi_offset 14, -4
  44              		.loc 1 94 0
  45 0004 BD4B     		ldr	r3, .L252
  46              	.LBB64:
  47              	.LBB65:
  48              		.file 2 "ChibiOS_3.0.2/os/rt/include/chregistry.h"
  49              		.loc 2 135 0
  50 0006 DFF84883 		ldr	r8, .L252+84
  51              	.LBE65:
  52              	.LBE64:
  53              		.loc 1 94 0
  54 000a 1B78     		ldrb	r3, [r3]	@ zero_extendqisi2
  55              	.LBB68:
  56              	.LBB66:
  57              		.loc 2 135 0
ARM GAS  C:\Users\CHRIST~1\AppData\Local\Temp\ccb0PMVc.s 			page 2


  58 000c D8F81820 		ldr	r2, [r8, #24]
  59 0010 BB49     		ldr	r1, .L252+4
  60              	.LBE66:
  61              	.LBE68:
  62              		.loc 1 88 0
  63 0012 2DED088B 		vpush.64	{d8, d9, d10, d11}
  64              		.cfi_def_cfa_offset 68
  65              		.cfi_offset 80, -68
  66              		.cfi_offset 81, -64
  67              		.cfi_offset 82, -60
  68              		.cfi_offset 83, -56
  69              		.cfi_offset 84, -52
  70              		.cfi_offset 85, -48
  71              		.cfi_offset 86, -44
  72              		.cfi_offset 87, -40
  73              	.LBB69:
  74              	.LBB67:
  75              		.loc 2 135 0
  76 0016 9161     		str	r1, [r2, #24]
  77              	.LVL1:
  78              	.LBE67:
  79              	.LBE69:
  80              		.loc 1 88 0
  81 0018 85B0     		sub	sp, sp, #20
  82              		.cfi_def_cfa_offset 88
  83              		.loc 1 95 0
  84 001a 2022     		movs	r2, #32
  85              		.loc 1 94 0
  86 001c 002B     		cmp	r3, #0
  87 001e 00F02484 		beq	.L2
  88              		.loc 1 95 0
  89 0022 4021     		movs	r1, #64
  90 0024 B748     		ldr	r0, .L252+8
  91              	.LVL2:
  92 0026 FFF7FEFF 		bl	_pal_lld_setgroupmode
  93              	.LVL3:
  94              		.loc 1 96 0
  95 002a 2022     		movs	r2, #32
  96 002c 8021     		movs	r1, #128
  97 002e B548     		ldr	r0, .L252+8
  98 0030 FFF7FEFF 		bl	_pal_lld_setgroupmode
  99              	.LVL4:
 100              	.L3:
 101              		.loc 1 101 0
 102 0034 B44A     		ldr	r2, .L252+12
 103 0036 B54C     		ldr	r4, .L252+16
 104              	.LBB70:
 105              		.loc 1 120 0
 106 0038 9FEDB58A 		vldr.32	s16, .L252+20
 107              		.loc 1 125 0
 108 003c DFEDB59A 		vldr.32	s19, .L252+24
 109              	.LBB71:
 110              	.LBB72:
 111              	.LBB73:
 112              		.loc 1 510 0
 113 0040 DFEDB58A 		vldr.32	s17, .L252+28
 114 0044 9FEDB59A 		vldr.32	s18, .L252+32
ARM GAS  C:\Users\CHRIST~1\AppData\Local\Temp\ccb0PMVc.s 			page 3


 115              	.LBE73:
 116              	.LBE72:
 117              	.LBE71:
 118              	.LBE70:
 119              		.loc 1 101 0
 120 0048 0123     		movs	r3, #1
 121 004a 1370     		strb	r3, [r2]
 122              	.L4:
 123              	.LBB164:
 124              		.loc 1 105 0
 125 004c 236C     		ldr	r3, [r4, #64]
 126 004e 42F21075 		movw	r5, #10000
 127 0052 B5FBF3F5 		udiv	r5, r5, r3
 128              	.LVL5:
 129              		.loc 1 109 0
 130 0056 002D     		cmp	r5, #0
 131 0058 08BF     		it	eq
 132 005a 0125     		moveq	r5, #1
 133              	.LVL6:
 134              		.loc 1 111 0
 135 005c 2846     		mov	r0, r5
 136 005e FFF7FEFF 		bl	chThdSleep
 137              	.LVL7:
 138              		.loc 1 113 0
 139 0062 AF4B     		ldr	r3, .L252+36
 140 0064 1B78     		ldrb	r3, [r3]	@ zero_extendqisi2
 141 0066 03F0FF09 		and	r9, r3, #255
 142 006a 002B     		cmp	r3, #0
 143 006c 40F0A583 		bne	.L237
 144              		.loc 1 119 0
 145 0070 FFF7FEFF 		bl	mc_interface_get_fault
 146              	.LVL8:
 147 0074 18B1     		cbz	r0, .L7
 148              		.loc 1 120 0
 149 0076 DFF8DCB2 		ldr	fp, .L252+88
 150 007a 8BED008A 		vstr.32	s16, [fp]
 151              	.L7:
 152              		.loc 1 124 0
 153 007e A94E     		ldr	r6, .L252+40
 154              		.loc 1 126 0
 155 0080 9FEDA90A 		vldr.32	s0, .L252+44
 156              		.loc 1 124 0
 157 0084 B38A     		ldrh	r3, [r6, #20]
 158 0086 07EE103A 		vmov	s14, r3	@ int
 159 008a B8EE477A 		vcvt.f32.u32	s14, s14
 160              		.loc 1 128 0
 161 008e A74B     		ldr	r3, .L252+48
 162              		.loc 1 125 0
 163 0090 C7EE297A 		vdiv.f32	s15, s14, s19
 164              		.loc 1 126 0
 165 0094 27EE800A 		vmul.f32	s0, s15, s0
 166              		.loc 1 128 0
 167 0098 83ED000A 		vstr.32	s0, [r3]
 168              		.loc 1 131 0
 169 009c 237F     		ldrb	r3, [r4, #28]	@ zero_extendqisi2
 170              		.loc 1 126 0
 171 009e 8DED020A 		vstr.32	s0, [sp, #8]
ARM GAS  C:\Users\CHRIST~1\AppData\Local\Temp\ccb0PMVc.s 			page 4


 172              		.loc 1 131 0
 173 00a2 3BB3     		cbz	r3, .L8
 174              	.LBB90:
 175              		.loc 1 135 0
 176 00a4 A249     		ldr	r1, .L252+52
 177 00a6 A34B     		ldr	r3, .L252+56
 178 00a8 0A68     		ldr	r2, [r1]
 179 00aa 501C     		adds	r0, r2, #1
 180 00ac 03EB8202 		add	r2, r3, r2, lsl #2
 181 00b0 82ED000A 		vstr.32	s0, [r2]
 182              	.LBB91:
 183              		.loc 1 142 0
 184 00b4 D3ED007A 		vldr.32	s15, [r3]
 185 00b8 D3ED015A 		vldr.32	s11, [r3, #4]
 186 00bc 93ED026A 		vldr.32	s12, [r3, #8]
 187 00c0 D3ED036A 		vldr.32	s13, [r3, #12]
 188 00c4 93ED047A 		vldr.32	s14, [r3, #16]
 189              	.LBE91:
 190              		.loc 1 135 0
 191 00c8 0860     		str	r0, [r1]
 192              	.LBB92:
 193              		.loc 1 142 0
 194 00ca 77EE887A 		vadd.f32	s15, s15, s16
 195              	.LBE92:
 196              		.loc 1 144 0
 197 00ce B1EE045A 		vmov.f32	s10, #5.0e+0
 198              	.LBB93:
 199              		.loc 1 142 0
 200 00d2 77EEA57A 		vadd.f32	s15, s15, s11
 201              	.LBE93:
 202              		.loc 1 136 0
 203 00d6 0428     		cmp	r0, #4
 204              	.LBB94:
 205              		.loc 1 142 0
 206 00d8 77EE867A 		vadd.f32	s15, s15, s12
 207              	.LBE94:
 208              		.loc 1 137 0
 209 00dc C8BF     		it	gt
 210 00de 0022     		movgt	r2, #0
 211              	.LBB95:
 212              		.loc 1 142 0
 213 00e0 77EEA67A 		vadd.f32	s15, s15, s13
 214              	.LBE95:
 215              		.loc 1 137 0
 216 00e4 C8BF     		it	gt
 217 00e6 0A60     		strgt	r2, [r1]
 218              	.LVL9:
 219              	.LBB96:
 220              		.loc 1 142 0
 221 00e8 77EE877A 		vadd.f32	s15, s15, s14
 222              	.LBE96:
 223              		.loc 1 144 0
 224 00ec 87EE850A 		vdiv.f32	s0, s15, s10
 225 00f0 8DED020A 		vstr.32	s0, [sp, #8]
 226              	.LVL10:
 227              	.L8:
 228              	.LBE90:
ARM GAS  C:\Users\CHRIST~1\AppData\Local\Temp\ccb0PMVc.s 			page 5


 229              		.loc 1 148 0
 230 00f4 2378     		ldrb	r3, [r4]	@ zero_extendqisi2
 231 00f6 DBB2     		uxtb	r3, r3
 232 00f8 0C2B     		cmp	r3, #12
 233 00fa 00F26082 		bhi	.L10
 234 00fe 0122     		movs	r2, #1
 235 0100 02FA03F3 		lsl	r3, r2, r3
 236 0104 41F22422 		movw	r2, #4644
 237 0108 1342     		tst	r3, r2
 238 010a 00F05882 		beq	.L10
 239              		.loc 1 154 0
 240 010e D4ED047A 		vldr.32	s15, [r4, #16]
 241 0112 F4EEC07A 		vcmpe.f32	s15, s0
 242 0116 F1EE10FA 		vmrs	APSR_nzcv, FPSCR
 243 011a 40F35683 		ble	.L222
 244              		.loc 1 155 0
 245 011e D4ED020A 		vldr.32	s1, [r4, #8]
 246 0122 94ED041A 		vldr.32	s2, [r4, #16]
 247 0126 B6EE002A 		vmov.f32	s4, #5.0e-1
 248 012a F0EE481A 		vmov.f32	s3, s16
 249 012e FFF7FEFF 		bl	utils_map
 250              	.LVL11:
 251 0132 8DED020A 		vstr.32	s0, [sp, #8]
 252              	.L13:
 253              		.loc 1 170 0
 254 0136 02A8     		add	r0, sp, #8
 255 0138 F7EE000A 		vmov.f32	s1, #1.0e+0
 256 013c B0EE480A 		vmov.f32	s0, s16
 257 0140 FFF7FEFF 		bl	utils_truncate_number
 258              	.LVL12:
 259              		.loc 1 173 0
 260 0144 94F82030 		ldrb	r3, [r4, #32]	@ zero_extendqisi2
 261              		.loc 1 174 0
 262 0148 DDED027A 		vldr.32	s15, [sp, #8]
 263              		.loc 1 173 0
 264 014c 2BB1     		cbz	r3, .L15
 265              		.loc 1 174 0
 266 014e B7EE007A 		vmov.f32	s14, #1.0e+0
 267 0152 77EE677A 		vsub.f32	s15, s14, s15
 268 0156 CDED027A 		vstr.32	s15, [sp, #8]
 269              	.L15:
 270              		.loc 1 177 0
 271 015a 774B     		ldr	r3, .L252+60
 272              		.loc 1 183 0
 273 015c 9FED720A 		vldr.32	s0, .L252+44
 274              		.loc 1 177 0
 275 0160 C3ED007A 		vstr.32	s15, [r3]
 276              		.loc 1 181 0
 277 0164 F389     		ldrh	r3, [r6, #14]
 278 0166 07EE103A 		vmov	s14, r3	@ int
 279 016a B8EE477A 		vcvt.f32.u32	s14, s14
 280              		.loc 1 188 0
 281 016e 734B     		ldr	r3, .L252+64
 282              		.loc 1 182 0
 283 0170 C7EE297A 		vdiv.f32	s15, s14, s19
 284              		.loc 1 183 0
 285 0174 27EE800A 		vmul.f32	s0, s15, s0
ARM GAS  C:\Users\CHRIST~1\AppData\Local\Temp\ccb0PMVc.s 			page 6


 286              		.loc 1 188 0
 287 0178 83ED000A 		vstr.32	s0, [r3]
 288              		.loc 1 191 0
 289 017c 237F     		ldrb	r3, [r4, #28]	@ zero_extendqisi2
 290              		.loc 1 183 0
 291 017e 8DED030A 		vstr.32	s0, [sp, #12]
 292              		.loc 1 191 0
 293 0182 3BB3     		cbz	r3, .L16
 294              	.LBB97:
 295              		.loc 1 195 0
 296 0184 6E49     		ldr	r1, .L252+68
 297 0186 6F4B     		ldr	r3, .L252+72
 298 0188 0A68     		ldr	r2, [r1]
 299 018a 501C     		adds	r0, r2, #1
 300 018c 03EB8202 		add	r2, r3, r2, lsl #2
 301 0190 82ED000A 		vstr.32	s0, [r2]
 302              	.LBB98:
 303              		.loc 1 202 0
 304 0194 D3ED007A 		vldr.32	s15, [r3]
 305 0198 D3ED015A 		vldr.32	s11, [r3, #4]
 306 019c 93ED026A 		vldr.32	s12, [r3, #8]
 307 01a0 D3ED036A 		vldr.32	s13, [r3, #12]
 308 01a4 93ED047A 		vldr.32	s14, [r3, #16]
 309              	.LBE98:
 310              		.loc 1 195 0
 311 01a8 0860     		str	r0, [r1]
 312              	.LBB99:
 313              		.loc 1 202 0
 314 01aa 77EE887A 		vadd.f32	s15, s15, s16
 315              	.LBE99:
 316              		.loc 1 204 0
 317 01ae B1EE045A 		vmov.f32	s10, #5.0e+0
 318              	.LBB100:
 319              		.loc 1 202 0
 320 01b2 77EEA57A 		vadd.f32	s15, s15, s11
 321              	.LBE100:
 322              		.loc 1 196 0
 323 01b6 0428     		cmp	r0, #4
 324              	.LBB101:
 325              		.loc 1 202 0
 326 01b8 77EE867A 		vadd.f32	s15, s15, s12
 327              	.LBE101:
 328              		.loc 1 197 0
 329 01bc C8BF     		it	gt
 330 01be 0022     		movgt	r2, #0
 331              	.LBB102:
 332              		.loc 1 202 0
 333 01c0 77EEA67A 		vadd.f32	s15, s15, s13
 334              	.LBE102:
 335              		.loc 1 197 0
 336 01c4 C8BF     		it	gt
 337 01c6 0A60     		strgt	r2, [r1]
 338              	.LVL13:
 339              	.LBB103:
 340              		.loc 1 202 0
 341 01c8 77EE877A 		vadd.f32	s15, s15, s14
 342              	.LBE103:
ARM GAS  C:\Users\CHRIST~1\AppData\Local\Temp\ccb0PMVc.s 			page 7


 343              		.loc 1 204 0
 344 01cc 87EE850A 		vdiv.f32	s0, s15, s10
 345 01d0 8DED030A 		vstr.32	s0, [sp, #12]
 346              	.LVL14:
 347              	.L16:
 348              	.LBE97:
 349              		.loc 1 208 0
 350 01d4 D4ED050A 		vldr.32	s1, [r4, #20]
 351 01d8 94ED061A 		vldr.32	s2, [r4, #24]
 352 01dc B7EE002A 		vmov.f32	s4, #1.0e+0
 353 01e0 F0EE481A 		vmov.f32	s3, s16
 354 01e4 FFF7FEFF 		bl	utils_map
 355              	.LVL15:
 356 01e8 04A8     		add	r0, sp, #16
 357 01ea 20ED010A 		vstmdb.32	r0!, {s0}
 358              		.loc 1 209 0
 359 01ee F7EE000A 		vmov.f32	s1, #1.0e+0
 360 01f2 B0EE480A 		vmov.f32	s0, s16
 361 01f6 FFF7FEFF 		bl	utils_truncate_number
 362              	.LVL16:
 363              		.loc 1 212 0
 364 01fa 94F82130 		ldrb	r3, [r4, #33]	@ zero_extendqisi2
 365              		.loc 1 213 0
 366 01fe DDED037A 		vldr.32	s15, [sp, #12]
 367              		.loc 1 212 0
 368 0202 2BB1     		cbz	r3, .L19
 369              		.loc 1 213 0
 370 0204 B7EE007A 		vmov.f32	s14, #1.0e+0
 371 0208 77EE677A 		vsub.f32	s15, s14, s15
 372 020c CDED037A 		vstr.32	s15, [sp, #12]
 373              	.L19:
 374              		.loc 1 216 0
 375 0210 4D4B     		ldr	r3, .L252+76
 376 0212 C3ED007A 		vstr.32	s15, [r3]
 377              	.LVL17:
 378              		.loc 1 221 0
 379 0216 394B     		ldr	r3, .L252
 380 0218 1B78     		ldrb	r3, [r3]	@ zero_extendqisi2
 381 021a 03F0FF02 		and	r2, r3, #255
 382 021e 002B     		cmp	r3, #0
 383 0220 00F0DA81 		beq	.L20
 384              		.loc 1 222 0
 385 0224 374B     		ldr	r3, .L252+8
 386 0226 1F69     		ldr	r7, [r3, #16]
 387              		.loc 1 223 0
 388 0228 A37F     		ldrb	r3, [r4, #30]	@ zero_extendqisi2
 389              		.loc 1 222 0
 390 022a BF09     		lsrs	r7, r7, #6
 391              	.LVL18:
 392              		.loc 1 223 0
 393 022c 03B9     		cbnz	r3, .L231
 394 022e FF43     		mvns	r7, r7
 395              	.LVL19:
 396              	.L231:
 397              		.loc 1 226 0
 398 0230 344B     		ldr	r3, .L252+8
 399 0232 1E69     		ldr	r6, [r3, #16]
ARM GAS  C:\Users\CHRIST~1\AppData\Local\Temp\ccb0PMVc.s 			page 8


 400              		.loc 1 227 0
 401 0234 E37F     		ldrb	r3, [r4, #31]	@ zero_extendqisi2
 402              		.loc 1 226 0
 403 0236 F609     		lsrs	r6, r6, #7
 404 0238 07F00107 		and	r7, r7, #1
 405              	.LVL20:
 406 023c F243     		mvns	r2, r6
 407              	.LVL21:
 408              		.loc 1 227 0
 409 023e 002B     		cmp	r3, #0
 410 0240 00F07B82 		beq	.L232
 411              		.loc 1 228 0
 412 0244 06F00106 		and	r6, r6, #1
 413              	.LVL22:
 414              	.L24:
 415              		.loc 1 247 0
 416 0248 2378     		ldrb	r3, [r4]	@ zero_extendqisi2
 417 024a DBB2     		uxtb	r3, r3
 418 024c 0D2B     		cmp	r3, #13
 419 024e 10D8     		bhi	.L29
 420 0250 0122     		movs	r2, #1
 421 0252 02FA03F3 		lsl	r3, r2, r3
 422 0256 42F24842 		movw	r2, #9288
 423 025a 1342     		tst	r3, r2
 424 025c 40F0A382 		bne	.L30
 425 0260 41F22422 		movw	r2, #4644
 426 0264 1342     		tst	r3, r2
 427 0266 40F0BD82 		bne	.L31
 428 026a 13F0900F 		tst	r3, #144
 429 026e 40F00A83 		bne	.L32
 430              	.L29:
 431              		.loc 1 277 0
 432 0272 94ED010A 		vldr.32	s0, [r4, #4]
 433              		.loc 1 285 0
 434 0276 DFF8E0A0 		ldr	r10, .L252+92
 435              		.loc 1 277 0
 436 027a 02A8     		add	r0, sp, #8
 437 027c F7EE000A 		vmov.f32	s1, #1.0e+0
 438 0280 FFF7FEFF 		bl	utils_deadband
 439              	.LVL23:
 440              		.loc 1 280 0
 441 0284 D4ED090A 		vldr.32	s1, [r4, #36]
 442 0288 9DED020A 		vldr.32	s0, [sp, #8]
 443 028c 94ED0A1A 		vldr.32	s2, [r4, #40]
 444 0290 94F82C00 		ldrb	r0, [r4, #44]	@ zero_extendqisi2
 445 0294 FFF7FEFF 		bl	utils_throttle_curve
 446              	.LVL24:
 447              		.loc 1 285 0
 448 0298 DAED007A 		vldr.32	s15, [r10]
 449              		.loc 1 280 0
 450 029c 8DED020A 		vstr.32	s0, [sp, #8]
 451              		.loc 1 285 0
 452 02a0 F0EEE77A 		vabs.f32	s15, s15
 453 02a4 B0EEC07A 		vabs.f32	s14, s0
 454 02a8 B4EEE77A 		vcmpe.f32	s14, s15
 455 02ac F1EE10FA 		vmrs	APSR_nzcv, FPSCR
 456 02b0 CCBF     		ite	gt
ARM GAS  C:\Users\CHRIST~1\AppData\Local\Temp\ccb0PMVc.s 			page 9


 457 02b2 D4ED0C0A 		vldrgt.32	s1, [r4, #48]
 458 02b6 D4ED0D0A 		vldrle.32	s1, [r4, #52]
 459              	.LVL25:
 460              		.loc 1 287 0
 461 02ba DFED247A 		vldr.32	s15, .L252+80
 462 02be F4EEE70A 		vcmpe.f32	s1, s15
 463 02c2 F1EE10FA 		vmrs	APSR_nzcv, FPSCR
 464 02c6 00F34882 		bgt	.L238
 465              	.LVL26:
 466              	.L36:
 467              		.loc 1 297 0
 468 02ca FFF7FEFF 		bl	mc_interface_get_configuration
 469              	.LVL27:
 470 02ce 8246     		mov	r10, r0
 471              	.LVL28:
 472              		.loc 1 298 0
 473 02d0 FFF7FEFF 		bl	mc_interface_get_rpm
 474              	.LVL29:
 475              		.loc 1 302 0
 476 02d4 2378     		ldrb	r3, [r4]	@ zero_extendqisi2
 477 02d6 013B     		subs	r3, r3, #1
 478 02d8 0C2B     		cmp	r3, #12
 479 02da 3FF6B7AE 		bhi	.L4
 480 02de DFE813F0 		tbh	[pc, r3, lsl #1]
 481              	.L40:
 482 02e2 2501     		.2byte	(.L39-.L40)/2
 483 02e4 2501     		.2byte	(.L39-.L40)/2
 484 02e6 2501     		.2byte	(.L39-.L40)/2
 485 02e8 BA00     		.2byte	(.L41-.L40)/2
 486 02ea BA00     		.2byte	(.L41-.L40)/2
 487 02ec BA00     		.2byte	(.L41-.L40)/2
 488 02ee BA00     		.2byte	(.L41-.L40)/2
 489 02f0 8C00     		.2byte	(.L42-.L40)/2
 490 02f2 8C00     		.2byte	(.L42-.L40)/2
 491 02f4 8C00     		.2byte	(.L42-.L40)/2
 492 02f6 3D00     		.2byte	(.L43-.L40)/2
 493 02f8 3D00     		.2byte	(.L43-.L40)/2
 494 02fa 3D00     		.2byte	(.L43-.L40)/2
 495              		.p2align 1
 496              	.L253:
 497              		.align	2
 498              	.L252:
 499 02fc 00000000 		.word	.LANCHOR0
 500 0300 00000000 		.word	.LC0
 501 0304 00080240 		.word	1073874944
 502 0308 00000000 		.word	.LANCHOR1
 503 030c 00000000 		.word	.LANCHOR2
 504 0310 00000000 		.word	0
 505 0314 00F07F45 		.word	1166012416
 506 0318 00401C46 		.word	1176256512
 507 031c CDCCCC3D 		.word	1036831949
 508 0320 00000000 		.word	.LANCHOR3
 509 0324 00000000 		.word	ADC_Value
 510 0328 33335340 		.word	1079194419
 511 032c 00000000 		.word	.LANCHOR5
 512 0330 00000000 		.word	.LANCHOR6
 513 0334 00000000 		.word	.LANCHOR7
ARM GAS  C:\Users\CHRIST~1\AppData\Local\Temp\ccb0PMVc.s 			page 10


 514 0338 00000000 		.word	.LANCHOR8
 515 033c 00000000 		.word	.LANCHOR9
 516 0340 00000000 		.word	.LANCHOR10
 517 0344 00000000 		.word	.LANCHOR11
 518 0348 00000000 		.word	.LANCHOR12
 519 034c 0AD7233C 		.word	1008981770
 520 0350 00000000 		.word	ch
 521 0354 00000000 		.word	.LANCHOR4
 522 0358 00000000 		.word	.LANCHOR13
 523              	.L43:
 524              		.loc 1 355 0
 525 035c DDED027A 		vldr.32	s15, [sp, #8]
 526 0360 F5EEC07A 		vcmpe.f32	s15, #0
 527 0364 F1EE10FA 		vmrs	APSR_nzcv, FPSCR
 528 0368 C0F21C81 		blt	.L62
 529              		.loc 1 355 0 is_stmt 0 discriminator 1
 530 036c B5EEC00A 		vcmpe.f32	s0, #0
 531 0370 F1EE10FA 		vmrs	APSR_nzcv, FPSCR
 532 0374 40F31681 		ble	.L62
 533              	.L64:
 534              		.loc 1 356 0 is_stmt 1
 535 0378 9AED1DAA 		vldr.32	s20, [r10, #116]
 536 037c 27EE8AAA 		vmul.f32	s20, s15, s20
 537              	.LVL30:
 538              	.L68:
 539              		.loc 1 361 0
 540 0380 DFF860B3 		ldr	fp, .L254+32
 541 0384 9FEDCF7A 		vldr.32	s14, .L254
 542 0388 DBED006A 		vldr.32	s13, [fp]
 543 038c F4EEC76A 		vcmpe.f32	s13, s14
 544 0390 F1EE10FA 		vmrs	APSR_nzcv, FPSCR
 545 0394 03D5     		bpl	.L69
 546              		.loc 1 361 0 is_stmt 0 discriminator 1
 547 0396 637F     		ldrb	r3, [r4, #29]	@ zero_extendqisi2
 548 0398 002B     		cmp	r3, #0
 549 039a 40F07B82 		bne	.L129
 550              	.L69:
 551              	.LVL31:
 552              	.LBB104:
 553              		.loc 1 363 0 is_stmt 1
 554 039e F5EEC07A 		vcmpe.f32	s15, #0
 555 03a2 F1EE10FA 		vmrs	APSR_nzcv, FPSCR
 556              		.loc 1 366 0
 557 03a6 B6BF     		itet	lt
 558 03a8 9AED060A 		vldrlt.32	s0, [r10, #24]
 559              	.LVL32:
 560              		.loc 1 364 0
 561 03ac 9AED070A 		vldrge.32	s0, [r10, #28]
 562              		.loc 1 366 0
 563 03b0 B0EEC00A 		vabslt.f32	s0, s0
 564 03b4 20EE270A 		vmul.f32	s0, s0, s15
 565              	.LVL33:
 566              		.loc 1 369 0
 567 03b8 FFF7FEFF 		bl	mc_interface_set_pid_speed
 568              	.LVL34:
 569 03bc DDED027A 		vldr.32	s15, [sp, #8]
 570              		.loc 1 370 0
ARM GAS  C:\Users\CHRIST~1\AppData\Local\Temp\ccb0PMVc.s 			page 11


 571 03c0 0126     		movs	r6, #1
 572              	.LVL35:
 573              	.L71:
 574              	.LBE104:
 575              		.loc 1 373 0
 576 03c2 9FEDC17A 		vldr.32	s14, .L254+4
 577 03c6 F0EEE77A 		vabs.f32	s15, s15
 578 03ca F4EEC77A 		vcmpe.f32	s15, s14
 579 03ce F1EE10FA 		vmrs	APSR_nzcv, FPSCR
 580 03d2 40F11282 		bpl	.L227
 581              		.loc 1 374 0
 582 03d6 07EE905A 		vmov	s15, r5	@ int
 583 03da B8EEE77A 		vcvt.f32.s32	s14, s15
 584 03de DFEDBB7A 		vldr.32	s15, .L254+8
 585 03e2 DBED006A 		vldr.32	s13, [fp]
 586 03e6 67EE277A 		vmul.f32	s15, s14, s15
 587              		.loc 1 295 0
 588 03ea 0025     		movs	r5, #0
 589              	.LVL36:
 590              		.loc 1 374 0
 591 03ec 87EEA87A 		vdiv.f32	s14, s15, s17
 592 03f0 77EE267A 		vadd.f32	s15, s14, s13
 593 03f4 CBED007A 		vstr.32	s15, [fp]
 594 03f8 4BE0     		b	.L51
 595              	.LVL37:
 596              	.L42:
 597              		.loc 1 342 0
 598 03fa 9DED020A 		vldr.32	s0, [sp, #8]
 599              	.LVL38:
 600 03fe DFEDB27A 		vldr.32	s15, .L254+4
 601 0402 B0EEC07A 		vabs.f32	s14, s0
 602 0406 B4EEE77A 		vcmpe.f32	s14, s15
 603 040a F1EE10FA 		vmrs	APSR_nzcv, FPSCR
 604 040e 00F11482 		bmi	.L143
 605 0412 DFF8D0B2 		ldr	fp, .L254+32
 606              	.L58:
 607              		.loc 1 346 0
 608 0416 9BED007A 		vldr.32	s14, [fp]
 609 041a DFEDAA7A 		vldr.32	s15, .L254
 610 041e B4EEE77A 		vcmpe.f32	s14, s15
 611 0422 F1EE10FA 		vmrs	APSR_nzcv, FPSCR
 612 0426 03D5     		bpl	.L60
 613              		.loc 1 346 0 is_stmt 0 discriminator 1
 614 0428 637F     		ldrb	r3, [r4, #29]	@ zero_extendqisi2
 615 042a 002B     		cmp	r3, #0
 616 042c 40F02682 		bne	.L128
 617              	.L60:
 618              		.loc 1 347 0 is_stmt 1
 619 0430 DAED161A 		vldr.32	s3, [r10, #88]
 620 0434 9AED162A 		vldr.32	s4, [r10, #88]
 621              		.loc 1 294 0
 622 0438 9FEDA5AA 		vldr.32	s20, .L254+12
 623              		.loc 1 347 0
 624 043c F1EE611A 		vneg.f32	s3, s3
 625 0440 B7EE001A 		vmov.f32	s2, #1.0e+0
 626 0444 FFEE000A 		vmov.f32	s1, #-1.0e+0
 627 0448 FFF7FEFF 		bl	utils_map
ARM GAS  C:\Users\CHRIST~1\AppData\Local\Temp\ccb0PMVc.s 			page 12


 628              	.LVL39:
 629 044c FFF7FEFF 		bl	mc_interface_set_duty
 630              	.LVL40:
 631              		.loc 1 295 0
 632 0450 0025     		movs	r5, #0
 633              	.LVL41:
 634              		.loc 1 348 0
 635 0452 0126     		movs	r6, #1
 636              	.LVL42:
 637 0454 1DE0     		b	.L51
 638              	.LVL43:
 639              	.L41:
 640              		.loc 1 323 0
 641 0456 DDED027A 		vldr.32	s15, [sp, #8]
 642 045a F5EEC07A 		vcmpe.f32	s15, #0
 643 045e F1EE10FA 		vmrs	APSR_nzcv, FPSCR
 644 0462 C0F2B882 		blt	.L225
 645              		.loc 1 324 0
 646 0466 9AED1DAA 		vldr.32	s20, [r10, #116]
 647 046a 27EE8AAA 		vmul.f32	s20, s15, s20
 648              	.LVL44:
 649              		.loc 1 296 0
 650 046e 4FF00009 		mov	r9, #0
 651              	.LVL45:
 652              	.L55:
 653              		.loc 1 330 0
 654 0472 9FED957A 		vldr.32	s14, .L254+4
 655 0476 F4EEC77A 		vcmpe.f32	s15, s14
 656 047a F1EE10FA 		vmrs	APSR_nzcv, FPSCR
 657 047e 00F1BE81 		bmi	.L142
 658              		.loc 1 334 0
 659 0482 2378     		ldrb	r3, [r4]	@ zero_extendqisi2
 660 0484 DFF85CB2 		ldr	fp, .L254+32
 661 0488 042B     		cmp	r3, #4
 662 048a 00F0CE81 		beq	.L239
 663              	.L126:
 664              		.loc 1 299 0
 665 048e 0026     		movs	r6, #0
 666              	.LVL46:
 667              		.loc 1 322 0
 668 0490 0125     		movs	r5, #1
 669              	.LVL47:
 670              	.L51:
 671              		.loc 1 383 0
 672 0492 9BED007A 		vldr.32	s14, [fp]
 673 0496 DFED8B7A 		vldr.32	s15, .L254
 674 049a B4EEE77A 		vcmpe.f32	s14, s15
 675 049e F1EE10FA 		vmrs	APSR_nzcv, FPSCR
 676 04a2 40F1B380 		bpl	.L76
 677              		.loc 1 383 0 is_stmt 0 discriminator 1
 678 04a6 637F     		ldrb	r3, [r4, #29]	@ zero_extendqisi2
 679 04a8 002B     		cmp	r3, #0
 680 04aa 00F0AF80 		beq	.L76
 681              	.LBB105:
 682              		.loc 1 385 0 is_stmt 1
 683 04ae 894B     		ldr	r3, .L254+16
 684 04b0 9BED007A 		vldr.32	s14, [fp]
ARM GAS  C:\Users\CHRIST~1\AppData\Local\Temp\ccb0PMVc.s 			page 13


 685 04b4 D3ED007A 		vldr.32	s15, [r3]	@ int
 686 04b8 F8EEE77A 		vcvt.f32.s32	s15, s15
 687 04bc F4EE477A 		vcmp.f32	s15, s14
 688 04c0 F1EE10FA 		vmrs	APSR_nzcv, FPSCR
 689              		.loc 1 386 0
 690 04c4 08BF     		it	eq
 691 04c6 8BED008A 		vstreq.32	s16, [fp]
 692              		.loc 1 388 0
 693 04ca DBED007A 		vldr.32	s15, [fp]
 694 04ce FDEEE77A 		vcvt.s32.f32	s15, s15
 695 04d2 C3ED007A 		vstr.32	s15, [r3]	@ int
 696              		.loc 1 389 0
 697 04d6 FFF7FEFF 		bl	timeout_get_brake_current
 698              	.LVL48:
 699 04da FFF7FEFF 		bl	mc_interface_set_brake_current
 700              	.LVL49:
 701              		.loc 1 391 0
 702 04de 94F83830 		ldrb	r3, [r4, #56]	@ zero_extendqisi2
 703 04e2 002B     		cmp	r3, #0
 704 04e4 3FF4B2AD 		beq	.L4
 705              	.LBB106:
 706              		.loc 1 392 0
 707 04e8 0025     		movs	r5, #0
 708              	.LVL50:
 709 04ea 02E0     		b	.L79
 710              	.LVL51:
 711              	.L80:
 712              		.loc 1 392 0 is_stmt 0 discriminator 2
 713 04ec 0A2D     		cmp	r5, #10
 714 04ee 3FF4ADAD 		beq	.L4
 715              	.LVL52:
 716              	.L79:
 717              	.LBB107:
 718              		.loc 1 393 0 is_stmt 1
 719 04f2 2846     		mov	r0, r5
 720 04f4 FFF7FEFF 		bl	comm_can_get_status_msg_index
 721              	.LVL53:
 722              		.loc 1 395 0
 723 04f8 0668     		ldr	r6, [r0]
 724 04fa 002E     		cmp	r6, #0
 725              	.LBE107:
 726              		.loc 1 392 0
 727 04fc 05F10105 		add	r5, r5, #1
 728              	.LVL54:
 729              	.LBB112:
 730              		.loc 1 395 0
 731 0500 F4DB     		blt	.L80
 732              	.LBB108:
 733              	.LBB109:
 734              		.file 3 "ChibiOS_3.0.2/os/rt/include/chvt.h"
 735              		.loc 3 267 0 discriminator 1
 736 0502 4268     		ldr	r2, [r0, #4]
 737              	.LBB110:
 738              	.LBB111:
 739              		.loc 3 231 0 discriminator 1
 740 0504 D8F82830 		ldr	r3, [r8, #40]
 741              	.LVL55:
ARM GAS  C:\Users\CHRIST~1\AppData\Local\Temp\ccb0PMVc.s 			page 14


 742              	.LBE111:
 743              	.LBE110:
 744              		.loc 3 267 0 discriminator 1
 745 0508 9B1A     		subs	r3, r3, r2
 746              	.LBE109:
 747              	.LBE108:
 748              		.loc 1 395 0 discriminator 1
 749 050a 07EE903A 		vmov	s15, r3	@ int
 750 050e F8EE677A 		vcvt.f32.u32	s15, s15
 751 0512 87EEA87A 		vdiv.f32	s14, s15, s17
 752 0516 B4EEC97A 		vcmpe.f32	s14, s18
 753 051a F1EE10FA 		vmrs	APSR_nzcv, FPSCR
 754 051e E5D5     		bpl	.L80
 755              		.loc 1 396 0
 756 0520 FFF7FEFF 		bl	timeout_get_brake_current
 757              	.LVL56:
 758 0524 F0B2     		uxtb	r0, r6
 759 0526 FFF7FEFF 		bl	comm_can_set_current_brake
 760              	.LVL57:
 761 052a DFE7     		b	.L80
 762              	.LVL58:
 763              	.L39:
 764              	.LBE112:
 765              	.LBE106:
 766              	.LBE105:
 767              		.loc 1 307 0
 768 052c DDED027A 		vldr.32	s15, [sp, #8]
 769 0530 F5EEC07A 		vcmpe.f32	s15, #0
 770 0534 F1EE10FA 		vmrs	APSR_nzcv, FPSCR
 771 0538 27DB     		blt	.L44
 772              		.loc 1 307 0 is_stmt 0 discriminator 1
 773 053a B5EEC00A 		vcmpe.f32	s0, #0
 774 053e F1EE10FA 		vmrs	APSR_nzcv, FPSCR
 775 0542 22DD     		ble	.L44
 776              	.L46:
 777              		.loc 1 308 0 is_stmt 1
 778 0544 9AED1DAA 		vldr.32	s20, [r10, #116]
 779 0548 27EE8AAA 		vmul.f32	s20, s15, s20
 780              	.LVL59:
 781              	.L50:
 782              		.loc 1 313 0
 783 054c 9FED5E7A 		vldr.32	s14, .L254+4
 784 0550 F0EEE77A 		vabs.f32	s15, s15
 785 0554 F4EEC77A 		vcmpe.f32	s15, s14
 786 0558 F1EE10FA 		vmrs	APSR_nzcv, FPSCR
 787 055c 40F18081 		bpl	.L224
 788              		.loc 1 314 0
 789 0560 07EE905A 		vmov	s15, r5	@ int
 790 0564 F8EEE76A 		vcvt.f32.s32	s13, s15
 791 0568 DFED587A 		vldr.32	s15, .L254+8
 792 056c DFF874B1 		ldr	fp, .L254+32
 793 0570 66EEA76A 		vmul.f32	s13, s13, s15
 794 0574 DBED007A 		vldr.32	s15, [fp]
 795 0578 86EEA87A 		vdiv.f32	s14, s13, s17
 796              		.loc 1 299 0
 797 057c 0026     		movs	r6, #0
 798              	.LVL60:
ARM GAS  C:\Users\CHRIST~1\AppData\Local\Temp\ccb0PMVc.s 			page 15


 799              		.loc 1 306 0
 800 057e 0125     		movs	r5, #1
 801              	.LVL61:
 802              		.loc 1 314 0
 803 0580 77EE277A 		vadd.f32	s15, s14, s15
 804 0584 CBED007A 		vstr.32	s15, [fp]
 805 0588 83E7     		b	.L51
 806              	.LVL62:
 807              	.L44:
 808              		.loc 1 307 0 discriminator 3
 809 058a F5EEC07A 		vcmpe.f32	s15, #0
 810 058e F1EE10FA 		vmrs	APSR_nzcv, FPSCR
 811 0592 00F1A781 		bmi	.L240
 812              		.loc 1 310 0
 813 0596 9AED1EAA 		vldr.32	s20, [r10, #120]
 814 059a B0EECAAA 		vabs.f32	s20, s20
 815 059e 2AEE27AA 		vmul.f32	s20, s20, s15
 816              	.LVL63:
 817 05a2 D3E7     		b	.L50
 818              	.LVL64:
 819              	.L62:
 820              		.loc 1 355 0 discriminator 3
 821 05a4 F5EEC07A 		vcmpe.f32	s15, #0
 822 05a8 F1EE10FA 		vmrs	APSR_nzcv, FPSCR
 823 05ac 00F1A781 		bmi	.L241
 824              		.loc 1 358 0
 825 05b0 9AED1EAA 		vldr.32	s20, [r10, #120]
 826 05b4 B0EECAAA 		vabs.f32	s20, s20
 827 05b8 2AEE27AA 		vmul.f32	s20, s20, s15
 828              	.LVL65:
 829 05bc E0E6     		b	.L68
 830              	.LVL66:
 831              	.L10:
 832              		.loc 1 165 0
 833 05be D4ED020A 		vldr.32	s1, [r4, #8]
 834 05c2 94ED031A 		vldr.32	s2, [r4, #12]
 835 05c6 B7EE002A 		vmov.f32	s4, #1.0e+0
 836 05ca F0EE481A 		vmov.f32	s3, s16
 837 05ce FFF7FEFF 		bl	utils_map
 838              	.LVL67:
 839 05d2 8DED020A 		vstr.32	s0, [sp, #8]
 840              		.loc 1 166 0
 841 05d6 AEE5     		b	.L13
 842              	.LVL68:
 843              	.L20:
 844              		.loc 1 232 0
 845 05d8 2378     		ldrb	r3, [r4]	@ zero_extendqisi2
 846 05da 032B     		cmp	r3, #3
 847 05dc 00F0B080 		beq	.L25
 848              		.loc 1 233 0 discriminator 1
 849 05e0 2378     		ldrb	r3, [r4]	@ zero_extendqisi2
 850              		.loc 1 232 0 discriminator 1
 851 05e2 062B     		cmp	r3, #6
 852 05e4 00F0AC80 		beq	.L25
 853              		.loc 1 234 0
 854 05e8 2378     		ldrb	r3, [r4]	@ zero_extendqisi2
 855              		.loc 1 233 0
ARM GAS  C:\Users\CHRIST~1\AppData\Local\Temp\ccb0PMVc.s 			page 16


 856 05ea 0A2B     		cmp	r3, #10
 857 05ec 00F0A880 		beq	.L25
 858              		.loc 1 240 0
 859 05f0 394B     		ldr	r3, .L254+20
 860 05f2 1F69     		ldr	r7, [r3, #16]
 861              		.loc 1 241 0
 862 05f4 A37F     		ldrb	r3, [r4, #30]	@ zero_extendqisi2
 863              		.loc 1 240 0
 864 05f6 7F09     		lsrs	r7, r7, #5
 865 05f8 F943     		mvns	r1, r7
 866              	.LVL69:
 867              		.loc 1 241 0
 868 05fa 03F0FF06 		and	r6, r3, #255
 869 05fe 002B     		cmp	r3, #0
 870 0600 00F03981 		beq	.L242
 871              		.loc 1 242 0
 872 0604 07F00107 		and	r7, r7, #1
 873              	.LVL70:
 874              		.loc 1 220 0
 875 0608 1646     		mov	r6, r2
 876 060a 1DE6     		b	.L24
 877              	.LVL71:
 878              	.L76:
 879              		.loc 1 413 0
 880 060c DFF8D8B0 		ldr	fp, .L254+36
 881              		.loc 1 405 0
 882 0610 FFF7FEFF 		bl	timeout_reset
 883              	.LVL72:
 884              		.loc 1 413 0
 885 0614 DBF80010 		ldr	r1, [fp]
 886 0618 0191     		str	r1, [sp, #4]
 887 061a 4B1C     		adds	r3, r1, #1
 888 061c CBF80030 		str	r3, [fp]
 889 0620 FFF7FEFF 		bl	mc_interface_get_rpm
 890              	.LVL73:
 891              		.loc 1 414 0
 892 0624 DBF80020 		ldr	r2, [fp]
 893              		.loc 1 413 0
 894 0628 2C4B     		ldr	r3, .L254+24
 895 062a 0199     		ldr	r1, [sp, #4]
 896              		.loc 1 418 0
 897 062c DFED287A 		vldr.32	s15, .L254+12
 898              		.loc 1 413 0
 899 0630 03EB8103 		add	r3, r3, r1, lsl #2
 900              		.loc 1 414 0
 901 0634 072A     		cmp	r2, #7
 902              		.loc 1 413 0
 903 0636 83ED000A 		vstr.32	s0, [r3]
 904              		.loc 1 415 0
 905 063a C4BF     		itt	gt
 906 063c 0023     		movgt	r3, #0
 907 063e CBF80030 		strgt	r3, [fp]
 908              	.LVL74:
 909 0642 264B     		ldr	r3, .L254+24
 910 0644 03F12002 		add	r2, r3, #32
 911              	.LVL75:
 912              	.L84:
ARM GAS  C:\Users\CHRIST~1\AppData\Local\Temp\ccb0PMVc.s 			page 17


 913              	.LBB113:
 914              		.loc 1 420 0 discriminator 3
 915 0648 B3EC017A 		vldmia.32	r3!, {s14}
 916              		.loc 1 419 0 discriminator 3
 917 064c 9A42     		cmp	r2, r3
 918              		.loc 1 420 0 discriminator 3
 919 064e 77EE877A 		vadd.f32	s15, s15, s14
 920              	.LVL76:
 921              		.loc 1 419 0 discriminator 3
 922 0652 F9D1     		bne	.L84
 923              	.LVL77:
 924              	.LBE113:
 925              		.loc 1 424 0
 926 0654 65B1     		cbz	r5, .L85
 927              		.loc 1 424 0 is_stmt 0 discriminator 1
 928 0656 5FB1     		cbz	r7, .L85
 929              		.loc 1 424 0 discriminator 2
 930 0658 9DED027A 		vldr.32	s14, [sp, #8]
 931 065c DFED1A6A 		vldr.32	s13, .L254+4
 932 0660 B0EEC77A 		vabs.f32	s14, s14
 933 0664 B4EEE67A 		vcmpe.f32	s14, s13
 934 0668 F1EE10FA 		vmrs	APSR_nzcv, FPSCR
 935 066c 00F1C981 		bmi	.L243
 936              	.L85:
 937              		.loc 1 450 0 is_stmt 1
 938 0670 1B4B     		ldr	r3, .L254+28
 939 0672 0027     		movs	r7, #0
 940              	.LVL78:
 941 0674 1F70     		strb	r7, [r3]
 942              		.loc 1 453 0
 943 0676 FFF7FEFF 		bl	mc_interface_get_rpm
 944              	.LVL79:
 945              		.loc 1 455 0
 946 067a 94F83830 		ldrb	r3, [r4, #56]	@ zero_extendqisi2
 947              		.loc 1 453 0
 948 067e B0EE40BA 		vmov.f32	s22, s0
 949              	.LVL80:
 950              		.loc 1 454 0
 951 0682 F0EE40AA 		vmov.f32	s21, s0
 952              		.loc 1 455 0
 953 0686 8BBB     		cbnz	r3, .L95
 954              	.LVL81:
 955              	.L92:
 956              		.loc 1 470 0
 957 0688 26B1     		cbz	r6, .L96
 958              		.loc 1 470 0 is_stmt 0 discriminator 1
 959 068a 94F83830 		ldrb	r3, [r4, #56]	@ zero_extendqisi2
 960 068e 002B     		cmp	r3, #0
 961 0690 40F00281 		bne	.L244
 962              	.LVL82:
 963              	.L96:
 964              		.loc 1 482 0 is_stmt 1
 965 0694 002D     		cmp	r5, #0
 966 0696 3FF4D9AC 		beq	.L4
 967              		.loc 1 483 0
 968 069a B9F1000F 		cmp	r9, #0
 969 069e 40F0FB81 		bne	.L245
ARM GAS  C:\Users\CHRIST~1\AppData\Local\Temp\ccb0PMVc.s 			page 18


 970              	.LVL83:
 971              	.LBB114:
 972              		.loc 1 497 0
 973 06a2 B5EEC0AA 		vcmpe.f32	s20, #0
 974 06a6 F1EE10FA 		vmrs	APSR_nzcv, FPSCR
 975              		.loc 1 506 0
 976 06aa 94F83830 		ldrb	r3, [r4, #56]	@ zero_extendqisi2
 977              		.loc 1 497 0
 978 06ae 00F19B81 		bmi	.L107
 979              		.loc 1 506 0
 980 06b2 002B     		cmp	r3, #0
 981 06b4 40F03081 		bne	.L246
 982              		.loc 1 544 0
 983 06b8 B0EE4A0A 		vmov.f32	s0, s20
 984 06bc FFF7FEFF 		bl	mc_interface_set_current
 985              	.LVL84:
 986 06c0 C4E4     		b	.L4
 987              	.L255:
 988 06c2 00BF     		.align	2
 989              	.L254:
 990 06c4 0000FA43 		.word	1140457472
 991 06c8 6F12833A 		.word	981668463
 992 06cc 00007A44 		.word	1148846080
 993 06d0 00000000 		.word	0
 994 06d4 00000000 		.word	.LANCHOR15
 995 06d8 00040240 		.word	1073873920
 996 06dc 00000000 		.word	.LANCHOR17
 997 06e0 00000000 		.word	.LANCHOR18
 998 06e4 00000000 		.word	.LANCHOR4
 999 06e8 00000000 		.word	.LANCHOR16
 1000              	.LVL85:
 1001              	.L95:
 1002              	.LBE114:
 1003              	.LBB115:
 1004              	.LBB116:
 1005              		.loc 1 457 0
 1006 06ec 3846     		mov	r0, r7
 1007 06ee FFF7FEFF 		bl	comm_can_get_status_msg_index
 1008              	.LVL86:
 1009              		.loc 1 459 0
 1010 06f2 0368     		ldr	r3, [r0]
 1011 06f4 002B     		cmp	r3, #0
 1012              	.LBE116:
 1013              		.loc 1 456 0
 1014 06f6 07F10107 		add	r7, r7, #1
 1015              	.LVL87:
 1016              	.LBB123:
 1017              		.loc 1 459 0
 1018 06fa 1BDB     		blt	.L93
 1019              	.LBB117:
 1020              	.LBB118:
 1021              	.LBB119:
 1022              	.LBB120:
 1023              		.loc 3 231 0 discriminator 1
 1024 06fc D8F82820 		ldr	r2, [r8, #40]
 1025              	.LVL88:
 1026              	.LBE120:
ARM GAS  C:\Users\CHRIST~1\AppData\Local\Temp\ccb0PMVc.s 			page 19


 1027              	.LBE119:
 1028              		.loc 3 267 0 discriminator 1
 1029 0700 4368     		ldr	r3, [r0, #4]
 1030 0702 D31A     		subs	r3, r2, r3
 1031              	.LBE118:
 1032              	.LBE117:
 1033              		.loc 1 459 0 discriminator 1
 1034 0704 07EE903A 		vmov	s15, r3	@ int
 1035 0708 F8EE677A 		vcvt.f32.u32	s15, s15
 1036              	.LBB121:
 1037              		.loc 1 462 0 discriminator 1
 1038 070c F0EEEA6A 		vabs.f32	s13, s21
 1039              	.LBE121:
 1040              		.loc 1 459 0 discriminator 1
 1041 0710 87EEA87A 		vdiv.f32	s14, s15, s17
 1042 0714 B4EEC97A 		vcmpe.f32	s14, s18
 1043 0718 F1EE10FA 		vmrs	APSR_nzcv, FPSCR
 1044 071c 0AD5     		bpl	.L93
 1045              	.LBB122:
 1046              		.loc 1 460 0
 1047 071e D0ED027A 		vldr.32	s15, [r0, #8]
 1048              	.LVL89:
 1049              		.loc 1 462 0
 1050 0722 B0EEE77A 		vabs.f32	s14, s15
 1051              		.loc 1 463 0
 1052 0726 B4EE667A 		vcmp.f32	s14, s13
 1053 072a F1EE10FA 		vmrs	APSR_nzcv, FPSCR
 1054 072e 48BF     		it	mi
 1055 0730 F0EE67AA 		vmovmi.f32	s21, s15
 1056              	.LVL90:
 1057              	.L93:
 1058              	.LBE122:
 1059              	.LBE123:
 1060              		.loc 1 456 0 discriminator 2
 1061 0734 0A2F     		cmp	r7, #10
 1062 0736 D9D1     		bne	.L95
 1063 0738 A6E7     		b	.L92
 1064              	.LVL91:
 1065              	.L232:
 1066              	.LBE115:
 1067              		.loc 1 235 0
 1068 073a 02F00106 		and	r6, r2, #1
 1069 073e 83E5     		b	.L24
 1070              	.LVL92:
 1071              	.L25:
 1072 0740 D84B     		ldr	r3, .L256
 1073 0742 1E69     		ldr	r6, [r3, #16]
 1074              		.loc 1 236 0
 1075 0744 E37F     		ldrb	r3, [r4, #31]	@ zero_extendqisi2
 1076              		.loc 1 235 0
 1077 0746 7609     		lsrs	r6, r6, #5
 1078 0748 F243     		mvns	r2, r6
 1079              	.LVL93:
 1080              		.loc 1 236 0
 1081 074a 03F0FF07 		and	r7, r3, #255
 1082 074e 002B     		cmp	r3, #0
 1083 0750 F3D0     		beq	.L232
ARM GAS  C:\Users\CHRIST~1\AppData\Local\Temp\ccb0PMVc.s 			page 20


 1084              		.loc 1 237 0
 1085 0752 06F00106 		and	r6, r6, #1
 1086              	.LVL94:
 1087              		.loc 1 219 0
 1088 0756 0027     		movs	r7, #0
 1089 0758 76E5     		b	.L24
 1090              	.LVL95:
 1091              	.L238:
 1092              	.LBB124:
 1093              		.loc 1 288 0
 1094 075a DFF868B3 		ldr	fp, .L256+32
 1095              	.LBB125:
 1096              	.LBB126:
 1097              	.LBB127:
 1098              	.LBB128:
 1099              		.loc 3 231 0
 1100 075e D8F82830 		ldr	r3, [r8, #40]
 1101              	.LVL96:
 1102              	.LBE128:
 1103              	.LBE127:
 1104              		.loc 3 267 0
 1105 0762 DBF80020 		ldr	r2, [fp]
 1106              	.LBE126:
 1107              	.LBE125:
 1108              		.loc 1 288 0
 1109 0766 D049     		ldr	r1, .L256+4
 1110 0768 9FEDD07A 		vldr.32	s14, .L256+8
 1111              	.LBB130:
 1112              	.LBB129:
 1113              		.loc 3 267 0
 1114 076c 9B1A     		subs	r3, r3, r2
 1115              	.LVL97:
 1116              	.LBE129:
 1117              	.LBE130:
 1118              		.loc 1 288 0
 1119 076e 4FF47A70 		mov	r0, #1000
 1120 0772 42F20F72 		movw	r2, #9999
 1121 0776 00FB0323 		mla	r3, r0, r3, r2
 1122 077a A1FB0323 		umull	r2, r3, r1, r3
 1123 077e 5B0B     		lsrs	r3, r3, #13
 1124 0780 07EE903A 		vmov	s15, r3	@ int
 1125 0784 60EE870A 		vmul.f32	s1, s1, s14
 1126              	.LVL98:
 1127 0788 F8EEE77A 		vcvt.f32.s32	s15, s15
 1128              		.loc 1 289 0
 1129 078c C848     		ldr	r0, .L256+12
 1130 078e C7EEA00A 		vdiv.f32	s1, s15, s1
 1131 0792 FFF7FEFF 		bl	utils_step_towards
 1132              	.LVL99:
 1133              	.LBB131:
 1134              	.LBB132:
 1135              		.loc 3 231 0
 1136 0796 D8F82830 		ldr	r3, [r8, #40]
 1137              	.LBE132:
 1138              	.LBE131:
 1139              		.loc 1 290 0
 1140 079a CBF80030 		str	r3, [fp]
ARM GAS  C:\Users\CHRIST~1\AppData\Local\Temp\ccb0PMVc.s 			page 21


 1141              		.loc 1 291 0
 1142 079e DAF80030 		ldr	r3, [r10]	@ float
 1143 07a2 0293     		str	r3, [sp, #8]	@ float
 1144 07a4 91E5     		b	.L36
 1145              	.L30:
 1146              	.LBE124:
 1147              		.loc 1 267 0
 1148 07a6 002E     		cmp	r6, #0
 1149 07a8 3FF463AD 		beq	.L29
 1150              		.loc 1 268 0
 1151 07ac DDED027A 		vldr.32	s15, [sp, #8]
 1152 07b0 F1EE677A 		vneg.f32	s15, s15
 1153 07b4 CDED027A 		vstr.32	s15, [sp, #8]
 1154 07b8 5BE5     		b	.L29
 1155              	.LVL100:
 1156              	.L237:
 1157              		.loc 1 114 0
 1158 07ba BE4A     		ldr	r2, .L256+16
 1159 07bc 0023     		movs	r3, #0
 1160 07be 1370     		strb	r3, [r2]
 1161              	.LBE164:
 1162              		.loc 1 549 0
 1163 07c0 05B0     		add	sp, sp, #20
 1164              		.cfi_remember_state
 1165              		.cfi_def_cfa_offset 68
 1166              		@ sp needed
 1167 07c2 BDEC088B 		vldm	sp!, {d8-d11}
 1168              		.cfi_restore 86
 1169              		.cfi_restore 87
 1170              		.cfi_restore 84
 1171              		.cfi_restore 85
 1172              		.cfi_restore 82
 1173              		.cfi_restore 83
 1174              		.cfi_restore 80
 1175              		.cfi_restore 81
 1176              		.cfi_def_cfa_offset 36
 1177 07c6 BDE8F08F 		pop	{r4, r5, r6, r7, r8, r9, r10, fp, pc}
 1178              	.LVL101:
 1179              	.L222:
 1180              		.cfi_restore_state
 1181              	.LBB165:
 1182              		.loc 1 158 0
 1183 07ca D4ED040A 		vldr.32	s1, [r4, #16]
 1184 07ce 94ED031A 		vldr.32	s2, [r4, #12]
 1185 07d2 B7EE002A 		vmov.f32	s4, #1.0e+0
 1186 07d6 F6EE001A 		vmov.f32	s3, #5.0e-1
 1187 07da FFF7FEFF 		bl	utils_map
 1188              	.LVL102:
 1189 07de 8DED020A 		vstr.32	s0, [sp, #8]
 1190 07e2 A8E4     		b	.L13
 1191              	.LVL103:
 1192              	.L31:
 1193              		.loc 1 254 0
 1194 07e4 DDED026A 		vldr.32	s13, [sp, #8]
 1195 07e8 B0EE007A 		vmov.f32	s14, #2.0e+0
 1196 07ec FFEE007A 		vmov.f32	s15, #-1.0e+0
 1197 07f0 E6EE877A 		vfma.f32	s15, s13, s14
ARM GAS  C:\Users\CHRIST~1\AppData\Local\Temp\ccb0PMVc.s 			page 22


 1198 07f4 CDED027A 		vstr.32	s15, [sp, #8]
 1199              		.loc 1 255 0
 1200 07f8 3BE5     		b	.L29
 1201              	.LVL104:
 1202              	.L227:
 1203              		.loc 1 295 0
 1204 07fa 0025     		movs	r5, #0
 1205              	.LVL105:
 1206 07fc 49E6     		b	.L51
 1207              	.LVL106:
 1208              	.L142:
 1209              		.loc 1 331 0
 1210 07fe 07EE905A 		vmov	s15, r5	@ int
 1211 0802 F8EEE76A 		vcvt.f32.s32	s13, s15
 1212 0806 DFEDA97A 		vldr.32	s15, .L256+8
 1213 080a DFF8BCB2 		ldr	fp, .L256+36
 1214 080e 66EEA76A 		vmul.f32	s13, s13, s15
 1215 0812 DBED007A 		vldr.32	s15, [fp]
 1216 0816 86EEA87A 		vdiv.f32	s14, s13, s17
 1217 081a 77EE277A 		vadd.f32	s15, s14, s15
 1218 081e CBED007A 		vstr.32	s15, [fp]
 1219              		.loc 1 334 0
 1220 0822 2378     		ldrb	r3, [r4]	@ zero_extendqisi2
 1221 0824 042B     		cmp	r3, #4
 1222 0826 7FF432AE 		bne	.L126
 1223              	.L239:
 1224              		.loc 1 334 0 is_stmt 0 discriminator 1
 1225 082a 002E     		cmp	r6, #0
 1226 082c 00F06E81 		beq	.L127
 1227              		.loc 1 322 0 is_stmt 1
 1228 0830 3546     		mov	r5, r6
 1229              	.LVL107:
 1230              		.loc 1 335 0
 1231 0832 B1EE4AAA 		vneg.f32	s20, s20
 1232              	.LVL108:
 1233              		.loc 1 299 0
 1234 0836 0026     		movs	r6, #0
 1235              	.LVL109:
 1236 0838 2BE6     		b	.L51
 1237              	.LVL110:
 1238              	.L143:
 1239              		.loc 1 343 0
 1240 083a 07EE905A 		vmov	s15, r5	@ int
 1241 083e F8EEE76A 		vcvt.f32.s32	s13, s15
 1242 0842 DFED9A7A 		vldr.32	s15, .L256+8
 1243 0846 DFF880B2 		ldr	fp, .L256+36
 1244 084a 66EEA76A 		vmul.f32	s13, s13, s15
 1245 084e DBED007A 		vldr.32	s15, [fp]
 1246 0852 86EEA87A 		vdiv.f32	s14, s13, s17
 1247 0856 77EE277A 		vadd.f32	s15, s14, s15
 1248 085a CBED007A 		vstr.32	s15, [fp]
 1249 085e DAE5     		b	.L58
 1250              	.LVL111:
 1251              	.L224:
 1252              		.loc 1 299 0
 1253 0860 0026     		movs	r6, #0
 1254              	.LVL112:
ARM GAS  C:\Users\CHRIST~1\AppData\Local\Temp\ccb0PMVc.s 			page 23


 1255              		.loc 1 306 0
 1256 0862 0125     		movs	r5, #1
 1257              	.LVL113:
 1258 0864 DFF860B2 		ldr	fp, .L256+36
 1259 0868 13E6     		b	.L51
 1260              	.LVL114:
 1261              	.L2:
 1262              	.LBE165:
 1263              		.loc 1 98 0
 1264 086a 1146     		mov	r1, r2
 1265 086c 8D48     		ldr	r0, .L256
 1266              	.LVL115:
 1267 086e FFF7FEFF 		bl	_pal_lld_setgroupmode
 1268              	.LVL116:
 1269 0872 FFF7DFBB 		b	.L3
 1270              	.LVL117:
 1271              	.L242:
 1272              	.LBB166:
 1273              		.loc 1 240 0
 1274 0876 01F00107 		and	r7, r1, #1
 1275 087a E5E4     		b	.L24
 1276              	.LVL118:
 1277              	.L128:
 1278              		.loc 1 299 0
 1279 087c 0026     		movs	r6, #0
 1280              	.LVL119:
 1281              		.loc 1 295 0
 1282 087e 3546     		mov	r5, r6
 1283              	.LVL120:
 1284              		.loc 1 294 0
 1285 0880 9FED8DAA 		vldr.32	s20, .L256+20
 1286 0884 05E6     		b	.L51
 1287              	.LVL121:
 1288              	.L32:
 1289              		.loc 1 259 0
 1290 0886 9DED027A 		vldr.32	s14, [sp, #8]
 1291 088a 77EE677A 		vsub.f32	s15, s14, s15
 1292 088e CDED027A 		vstr.32	s15, [sp, #8]
 1293              		.loc 1 260 0
 1294 0892 EEE4     		b	.L29
 1295              	.LVL122:
 1296              	.L129:
 1297              		.loc 1 299 0
 1298 0894 0026     		movs	r6, #0
 1299              	.LVL123:
 1300 0896 94E5     		b	.L71
 1301              	.LVL124:
 1302              	.L244:
 1303              	.LBB133:
 1304              		.loc 1 471 0
 1305 0898 FFF7FEFF 		bl	mc_interface_get_duty_cycle_now
 1306              	.LVL125:
 1307              	.LBB134:
 1308              		.loc 1 473 0
 1309 089c 0026     		movs	r6, #0
 1310              	.LVL126:
 1311              	.LBE134:
ARM GAS  C:\Users\CHRIST~1\AppData\Local\Temp\ccb0PMVc.s 			page 24


 1312              		.loc 1 471 0
 1313 089e F0EE40BA 		vmov.f32	s23, s0
 1314              	.LVL127:
 1315 08a2 02E0     		b	.L99
 1316              	.LVL128:
 1317              	.L97:
 1318              	.LBB141:
 1319              		.loc 1 473 0 discriminator 2
 1320 08a4 0A2E     		cmp	r6, #10
 1321 08a6 3FF4F5AE 		beq	.L96
 1322              	.LVL129:
 1323              	.L99:
 1324              	.LBB135:
 1325              		.loc 1 474 0
 1326 08aa 3046     		mov	r0, r6
 1327 08ac FFF7FEFF 		bl	comm_can_get_status_msg_index
 1328              	.LVL130:
 1329              		.loc 1 476 0
 1330 08b0 0268     		ldr	r2, [r0]
 1331 08b2 002A     		cmp	r2, #0
 1332              	.LBE135:
 1333              		.loc 1 473 0
 1334 08b4 06F10106 		add	r6, r6, #1
 1335              	.LVL131:
 1336              	.LBB140:
 1337              		.loc 1 476 0
 1338 08b8 F4DB     		blt	.L97
 1339              	.LBB136:
 1340              	.LBB137:
 1341              		.loc 3 267 0 discriminator 1
 1342 08ba 4168     		ldr	r1, [r0, #4]
 1343              	.LBB138:
 1344              	.LBB139:
 1345              		.loc 3 231 0 discriminator 1
 1346 08bc D8F82830 		ldr	r3, [r8, #40]
 1347              	.LVL132:
 1348              	.LBE139:
 1349              	.LBE138:
 1350              		.loc 3 267 0 discriminator 1
 1351 08c0 5B1A     		subs	r3, r3, r1
 1352              	.LBE137:
 1353              	.LBE136:
 1354              		.loc 1 476 0 discriminator 1
 1355 08c2 07EE903A 		vmov	s15, r3	@ int
 1356 08c6 F8EE677A 		vcvt.f32.u32	s15, s15
 1357 08ca 87EEA87A 		vdiv.f32	s14, s15, s17
 1358 08ce B4EEC97A 		vcmpe.f32	s14, s18
 1359 08d2 F1EE10FA 		vmrs	APSR_nzcv, FPSCR
 1360 08d6 E5D5     		bpl	.L97
 1361              		.loc 1 477 0
 1362 08d8 D0B2     		uxtb	r0, r2
 1363              	.LVL133:
 1364 08da B0EE6B0A 		vmov.f32	s0, s23
 1365 08de FFF7FEFF 		bl	comm_can_set_duty
 1366              	.LVL134:
 1367 08e2 DFE7     		b	.L97
 1368              	.LVL135:
ARM GAS  C:\Users\CHRIST~1\AppData\Local\Temp\ccb0PMVc.s 			page 25


 1369              	.L240:
 1370              	.LBE140:
 1371              	.LBE141:
 1372              	.LBE133:
 1373              		.loc 1 307 0 discriminator 4
 1374 08e4 B5EEC00A 		vcmpe.f32	s0, #0
 1375 08e8 F1EE10FA 		vmrs	APSR_nzcv, FPSCR
 1376 08ec 3FF52AAE 		bmi	.L46
 1377              		.loc 1 310 0
 1378 08f0 9AED1EAA 		vldr.32	s20, [r10, #120]
 1379 08f4 B0EECAAA 		vabs.f32	s20, s20
 1380 08f8 2AEE27AA 		vmul.f32	s20, s20, s15
 1381              	.LVL136:
 1382 08fc 26E6     		b	.L50
 1383              	.LVL137:
 1384              	.L241:
 1385              		.loc 1 355 0 discriminator 4
 1386 08fe B5EEC00A 		vcmpe.f32	s0, #0
 1387 0902 F1EE10FA 		vmrs	APSR_nzcv, FPSCR
 1388 0906 3FF537AD 		bmi	.L64
 1389              		.loc 1 358 0
 1390 090a 9AED1EAA 		vldr.32	s20, [r10, #120]
 1391 090e B0EECAAA 		vabs.f32	s20, s20
 1392 0912 2AEE27AA 		vmul.f32	s20, s20, s15
 1393              	.LVL138:
 1394 0916 33E5     		b	.L68
 1395              	.LVL139:
 1396              	.L246:
 1397              	.LBB142:
 1398              		.loc 1 506 0
 1399 0918 F0EE4ABA 		vmov.f32	s23, s20
 1400              	.LVL140:
 1401              	.L111:
 1402              		.loc 1 500 0 discriminator 1
 1403 091c 0025     		movs	r5, #0
 1404              	.LVL141:
 1405 091e 4E46     		mov	r6, r9
 1406 0920 27E0     		b	.L109
 1407              	.LVL142:
 1408              	.L249:
 1409              	.LBB86:
 1410              	.LBB81:
 1411              	.LBB74:
 1412              		.loc 1 512 0
 1413 0922 90ED020A 		vldr.32	s0, [r0, #8]
 1414              	.LVL143:
 1415 0926 0190     		str	r0, [sp, #4]
 1416              		.loc 1 518 0
 1417 0928 94ED0F1A 		vldr.32	s2, [r4, #60]
 1418 092c DFED620A 		vldr.32	s1, .L256+20
 1419              		.loc 1 513 0
 1420 0930 002E     		cmp	r6, #0
 1421 0932 00F09B80 		beq	.L115
 1422              		.loc 1 514 0
 1423 0936 B1EE400A 		vneg.f32	s0, s0
 1424              	.LVL144:
 1425              		.loc 1 518 0
ARM GAS  C:\Users\CHRIST~1\AppData\Local\Temp\ccb0PMVc.s 			page 26


 1426 093a 30EE6A0A 		vsub.f32	s0, s0, s21
 1427              	.LVL145:
 1428 093e B0EE482A 		vmov.f32	s4, s16
 1429 0942 F0EE6B1A 		vmov.f32	s3, s23
 1430 0946 FFF7FEFF 		bl	utils_map
 1431              	.LVL146:
 1432              		.loc 1 519 0
 1433 094a DAED507A 		vldr.32	s15, [r10, #320]
 1434 094e 0198     		ldr	r0, [sp, #4]
 1435 0950 B4EEE70A 		vcmpe.f32	s0, s15
 1436 0954 F1EE10FA 		vmrs	APSR_nzcv, FPSCR
 1437              		.loc 1 518 0
 1438 0958 B0EE40AA 		vmov.f32	s20, s0
 1439              	.LVL147:
 1440 095c 0268     		ldr	r2, [r0]
 1441              		.loc 1 519 0
 1442 095e 00F10481 		bmi	.L247
 1443              	.LVL148:
 1444              	.L118:
 1445              	.LBE74:
 1446              		.loc 1 525 0
 1447 0962 D0B2     		uxtb	r0, r2
 1448 0964 B1EE4A0A 		vneg.f32	s0, s20
 1449 0968 FFF7FEFF 		bl	comm_can_set_current
 1450              	.LVL149:
 1451              	.L112:
 1452              	.LBE81:
 1453              		.loc 1 507 0 discriminator 2
 1454 096c 0135     		adds	r5, r5, #1
 1455              	.LVL150:
 1456 096e 0A2D     		cmp	r5, #10
 1457 0970 22D0     		beq	.L248
 1458              	.LVL151:
 1459              	.L109:
 1460              	.LBB82:
 1461              		.loc 1 508 0
 1462 0972 2846     		mov	r0, r5
 1463 0974 FFF7FEFF 		bl	comm_can_get_status_msg_index
 1464              	.LVL152:
 1465              		.loc 1 510 0
 1466 0978 0268     		ldr	r2, [r0]
 1467 097a 002A     		cmp	r2, #0
 1468 097c F6DB     		blt	.L112
 1469              	.LVL153:
 1470              	.LBB75:
 1471              	.LBB76:
 1472              	.LBB77:
 1473              	.LBB78:
 1474              		.loc 3 231 0 discriminator 1
 1475 097e D8F82830 		ldr	r3, [r8, #40]
 1476              	.LVL154:
 1477              	.LBE78:
 1478              	.LBE77:
 1479              		.loc 3 267 0 discriminator 1
 1480 0982 4168     		ldr	r1, [r0, #4]
 1481 0984 5B1A     		subs	r3, r3, r1
 1482              	.LBE76:
ARM GAS  C:\Users\CHRIST~1\AppData\Local\Temp\ccb0PMVc.s 			page 27


 1483              	.LBE75:
 1484              		.loc 1 510 0 discriminator 1
 1485 0986 07EE903A 		vmov	s15, r3	@ int
 1486 098a F8EE677A 		vcvt.f32.u32	s15, s15
 1487 098e 87EEA87A 		vdiv.f32	s14, s15, s17
 1488 0992 B4EEC97A 		vcmpe.f32	s14, s18
 1489 0996 F1EE10FA 		vmrs	APSR_nzcv, FPSCR
 1490 099a E7D5     		bpl	.L112
 1491              		.loc 1 511 0
 1492 099c 94F83930 		ldrb	r3, [r4, #57]	@ zero_extendqisi2
 1493 09a0 002B     		cmp	r3, #0
 1494 09a2 BED1     		bne	.L249
 1495              		.loc 1 524 0
 1496 09a4 002E     		cmp	r6, #0
 1497 09a6 DCD1     		bne	.L118
 1498              	.LVL155:
 1499              	.L119:
 1500              		.loc 1 527 0
 1501 09a8 D0B2     		uxtb	r0, r2
 1502 09aa B0EE4A0A 		vmov.f32	s0, s20
 1503              	.LBE82:
 1504              		.loc 1 507 0
 1505 09ae 0135     		adds	r5, r5, #1
 1506              	.LVL156:
 1507              	.LBB83:
 1508              		.loc 1 527 0
 1509 09b0 FFF7FEFF 		bl	comm_can_set_current
 1510              	.LVL157:
 1511              	.LBE83:
 1512              		.loc 1 507 0
 1513 09b4 0A2D     		cmp	r5, #10
 1514 09b6 DCD1     		bne	.L109
 1515              	.L248:
 1516              	.LBE86:
 1517              		.loc 1 532 0
 1518 09b8 94F83930 		ldrb	r3, [r4, #57]	@ zero_extendqisi2
 1519 09bc B146     		mov	r9, r6
 1520 09be 002B     		cmp	r3, #0
 1521 09c0 40F0B080 		bne	.L250
 1522              		.loc 1 541 0
 1523 09c4 B9F1000F 		cmp	r9, #0
 1524 09c8 15D1     		bne	.L110
 1525              	.L236:
 1526              		.loc 1 544 0
 1527 09ca B0EE4A0A 		vmov.f32	s0, s20
 1528 09ce FFF7FEFF 		bl	mc_interface_set_current
 1529              	.LVL158:
 1530 09d2 FFF73BBB 		b	.L4
 1531              	.LVL159:
 1532              	.L225:
 1533              	.LBE142:
 1534              		.loc 1 326 0
 1535 09d6 9AED1EAA 		vldr.32	s20, [r10, #120]
 1536 09da 27EE8AAA 		vmul.f32	s20, s15, s20
 1537              		.loc 1 327 0
 1538 09de 4FF00109 		mov	r9, #1
 1539              		.loc 1 326 0
ARM GAS  C:\Users\CHRIST~1\AppData\Local\Temp\ccb0PMVc.s 			page 28


 1540 09e2 B0EECAAA 		vabs.f32	s20, s20
 1541              	.LVL160:
 1542 09e6 44E5     		b	.L55
 1543              	.LVL161:
 1544              	.L107:
 1545              	.LBB143:
 1546              		.loc 1 499 0
 1547 09e8 B1EE4AAA 		vneg.f32	s20, s20
 1548              	.LVL162:
 1549              		.loc 1 506 0
 1550 09ec 03F0FF09 		and	r9, r3, #255
 1551              	.LVL163:
 1552 09f0 002B     		cmp	r3, #0
 1553 09f2 40F0B380 		bne	.L251
 1554              	.LVL164:
 1555              	.L110:
 1556              		.loc 1 542 0
 1557 09f6 B1EE4A0A 		vneg.f32	s0, s20
 1558 09fa FFF7FEFF 		bl	mc_interface_set_current
 1559              	.LVL165:
 1560 09fe FFF725BB 		b	.L4
 1561              	.LVL166:
 1562              	.L243:
 1563              	.LBE143:
 1564              	.LBB144:
 1565              		.loc 1 427 0
 1566 0a02 2E4B     		ldr	r3, .L256+24
 1567 0a04 1A78     		ldrb	r2, [r3]	@ zero_extendqisi2
 1568 0a06 002A     		cmp	r2, #0
 1569 0a08 00F08280 		beq	.L87
 1570 0a0c 2C4B     		ldr	r3, .L256+28
 1571 0a0e 93ED000A 		vldr.32	s0, [r3]
 1572              	.L88:
 1573              		.loc 1 432 0
 1574 0a12 FFF7FEFF 		bl	mc_interface_set_pid_speed
 1575              	.LVL167:
 1576              		.loc 1 435 0
 1577 0a16 94F83830 		ldrb	r3, [r4, #56]	@ zero_extendqisi2
 1578 0a1a 002B     		cmp	r3, #0
 1579 0a1c 3FF416AB 		beq	.L4
 1580              	.LBB145:
 1581              		.loc 1 436 0
 1582 0a20 FFF7FEFF 		bl	mc_interface_get_tot_current_directional_filtered
 1583              	.LVL168:
 1584              	.LBB146:
 1585              		.loc 1 438 0
 1586 0a24 0025     		movs	r5, #0
 1587              	.LVL169:
 1588              	.LBE146:
 1589              		.loc 1 436 0
 1590 0a26 B0EE40AA 		vmov.f32	s20, s0
 1591              	.LVL170:
 1592 0a2a 02E0     		b	.L91
 1593              	.LVL171:
 1594              	.L89:
 1595              	.LBB153:
 1596              		.loc 1 438 0 discriminator 2
ARM GAS  C:\Users\CHRIST~1\AppData\Local\Temp\ccb0PMVc.s 			page 29


 1597 0a2c 0A2D     		cmp	r5, #10
 1598 0a2e 3FF40DAB 		beq	.L4
 1599              	.LVL172:
 1600              	.L91:
 1601              	.LBB147:
 1602              		.loc 1 439 0
 1603 0a32 2846     		mov	r0, r5
 1604 0a34 FFF7FEFF 		bl	comm_can_get_status_msg_index
 1605              	.LVL173:
 1606              		.loc 1 441 0
 1607 0a38 0268     		ldr	r2, [r0]
 1608 0a3a 002A     		cmp	r2, #0
 1609              	.LBE147:
 1610              		.loc 1 438 0
 1611 0a3c 05F10105 		add	r5, r5, #1
 1612              	.LVL174:
 1613              	.LBB152:
 1614              		.loc 1 441 0
 1615 0a40 F4DB     		blt	.L89
 1616              	.LBB148:
 1617              	.LBB149:
 1618              		.loc 3 267 0 discriminator 1
 1619 0a42 4168     		ldr	r1, [r0, #4]
 1620              	.LBB150:
 1621              	.LBB151:
 1622              		.loc 3 231 0 discriminator 1
 1623 0a44 D8F82830 		ldr	r3, [r8, #40]
 1624              	.LVL175:
 1625              	.LBE151:
 1626              	.LBE150:
 1627              		.loc 3 267 0 discriminator 1
 1628 0a48 5B1A     		subs	r3, r3, r1
 1629              	.LBE149:
 1630              	.LBE148:
 1631              		.loc 1 441 0 discriminator 1
 1632 0a4a 07EE903A 		vmov	s15, r3	@ int
 1633 0a4e F8EE677A 		vcvt.f32.u32	s15, s15
 1634 0a52 87EEA87A 		vdiv.f32	s14, s15, s17
 1635 0a56 B4EEC97A 		vcmpe.f32	s14, s18
 1636 0a5a F1EE10FA 		vmrs	APSR_nzcv, FPSCR
 1637 0a5e E5D5     		bpl	.L89
 1638              		.loc 1 442 0
 1639 0a60 D0B2     		uxtb	r0, r2
 1640              	.LVL176:
 1641 0a62 B0EE4A0A 		vmov.f32	s0, s20
 1642 0a66 FFF7FEFF 		bl	comm_can_set_current
 1643              	.LVL177:
 1644 0a6a DFE7     		b	.L89
 1645              	.LVL178:
 1646              	.L115:
 1647              	.LBE152:
 1648              	.LBE153:
 1649              	.LBE145:
 1650              	.LBE144:
 1651              	.LBB154:
 1652              	.LBB87:
 1653              	.LBB84:
ARM GAS  C:\Users\CHRIST~1\AppData\Local\Temp\ccb0PMVc.s 			page 30


 1654              	.LBB79:
 1655              		.loc 1 518 0
 1656 0a6c 30EE6A0A 		vsub.f32	s0, s0, s21
 1657              	.LVL179:
 1658 0a70 B0EE482A 		vmov.f32	s4, s16
 1659 0a74 F0EE6B1A 		vmov.f32	s3, s23
 1660 0a78 FFF7FEFF 		bl	utils_map
 1661              	.LVL180:
 1662              		.loc 1 519 0
 1663 0a7c DAED507A 		vldr.32	s15, [r10, #320]
 1664 0a80 0198     		ldr	r0, [sp, #4]
 1665 0a82 B4EEE70A 		vcmpe.f32	s0, s15
 1666 0a86 F1EE10FA 		vmrs	APSR_nzcv, FPSCR
 1667              		.loc 1 518 0
 1668 0a8a B0EE40AA 		vmov.f32	s20, s0
 1669              	.LVL181:
 1670 0a8e 0268     		ldr	r2, [r0]
 1671              		.loc 1 519 0
 1672 0a90 8AD5     		bpl	.L119
 1673              		.loc 1 520 0
 1674 0a92 9FED09AA 		vldr.32	s20, .L256+20
 1675 0a96 87E7     		b	.L119
 1676              	.LVL182:
 1677              	.L245:
 1678              	.LBE79:
 1679              	.LBE84:
 1680              	.LBE87:
 1681              	.LBE154:
 1682              		.loc 1 484 0
 1683 0a98 B0EE4A0A 		vmov.f32	s0, s20
 1684 0a9c FFF7FEFF 		bl	mc_interface_set_brake_current
 1685              	.LVL183:
 1686              	.LBB155:
 1687              		.loc 1 487 0
 1688 0aa0 0025     		movs	r5, #0
 1689              	.LVL184:
 1690 0aa2 16E0     		b	.L105
 1691              	.L257:
 1692              		.align	2
 1693              	.L256:
 1694 0aa4 00040240 		.word	1073873920
 1695 0aa8 5917B7D1 		.word	-776530087
 1696 0aac 00007A44 		.word	1148846080
 1697 0ab0 00000000 		.word	.LANCHOR13
 1698 0ab4 00000000 		.word	.LANCHOR1
 1699 0ab8 00000000 		.word	0
 1700 0abc 00000000 		.word	.LANCHOR18
 1701 0ac0 00000000 		.word	.LANCHOR19
 1702 0ac4 00000000 		.word	.LANCHOR14
 1703 0ac8 00000000 		.word	.LANCHOR4
 1704              	.LVL185:
 1705              	.L103:
 1706              		.loc 1 487 0 is_stmt 0 discriminator 2
 1707 0acc 0A2D     		cmp	r5, #10
 1708 0ace 3FF4BDAA 		beq	.L4
 1709              	.LVL186:
 1710              	.L105:
ARM GAS  C:\Users\CHRIST~1\AppData\Local\Temp\ccb0PMVc.s 			page 31


 1711              	.LBB156:
 1712              		.loc 1 488 0 is_stmt 1
 1713 0ad2 2846     		mov	r0, r5
 1714 0ad4 FFF7FEFF 		bl	comm_can_get_status_msg_index
 1715              	.LVL187:
 1716              		.loc 1 490 0
 1717 0ad8 0268     		ldr	r2, [r0]
 1718 0ada 002A     		cmp	r2, #0
 1719              	.LBE156:
 1720              		.loc 1 487 0
 1721 0adc 05F10105 		add	r5, r5, #1
 1722              	.LVL188:
 1723              	.LBB161:
 1724              		.loc 1 490 0
 1725 0ae0 F4DB     		blt	.L103
 1726              	.LBB157:
 1727              	.LBB158:
 1728              		.loc 3 267 0 discriminator 1
 1729 0ae2 4168     		ldr	r1, [r0, #4]
 1730              	.LBB159:
 1731              	.LBB160:
 1732              		.loc 3 231 0 discriminator 1
 1733 0ae4 D8F82830 		ldr	r3, [r8, #40]
 1734              	.LVL189:
 1735              	.LBE160:
 1736              	.LBE159:
 1737              		.loc 3 267 0 discriminator 1
 1738 0ae8 5B1A     		subs	r3, r3, r1
 1739              	.LBE158:
 1740              	.LBE157:
 1741              		.loc 1 490 0 discriminator 1
 1742 0aea 07EE903A 		vmov	s15, r3	@ int
 1743 0aee F8EE677A 		vcvt.f32.u32	s15, s15
 1744 0af2 87EEA87A 		vdiv.f32	s14, s15, s17
 1745 0af6 B4EEC97A 		vcmpe.f32	s14, s18
 1746 0afa F1EE10FA 		vmrs	APSR_nzcv, FPSCR
 1747 0afe E5D5     		bpl	.L103
 1748              		.loc 1 491 0
 1749 0b00 D0B2     		uxtb	r0, r2
 1750              	.LVL190:
 1751 0b02 B0EE4A0A 		vmov.f32	s0, s20
 1752 0b06 FFF7FEFF 		bl	comm_can_set_current_brake
 1753              	.LVL191:
 1754 0b0a DFE7     		b	.L103
 1755              	.LVL192:
 1756              	.L127:
 1757              	.LBE161:
 1758              	.LBE155:
 1759              		.loc 1 322 0
 1760 0b0c 0125     		movs	r5, #1
 1761              	.LVL193:
 1762 0b0e C0E4     		b	.L51
 1763              	.LVL194:
 1764              	.L87:
 1765              		.loc 1 422 0
 1766 0b10 B4EE000A 		vmov.f32	s0, #1.25e-1
 1767 0b14 27EE800A 		vmul.f32	s0, s15, s0
ARM GAS  C:\Users\CHRIST~1\AppData\Local\Temp\ccb0PMVc.s 			page 32


 1768              	.LBB162:
 1769              		.loc 1 429 0
 1770 0b18 1549     		ldr	r1, .L258
 1771              		.loc 1 428 0
 1772 0b1a 0122     		movs	r2, #1
 1773              		.loc 1 429 0
 1774 0b1c 81ED000A 		vstr.32	s0, [r1]
 1775              		.loc 1 428 0
 1776 0b20 1A70     		strb	r2, [r3]
 1777 0b22 76E7     		b	.L88
 1778              	.LVL195:
 1779              	.L250:
 1780              	.LBE162:
 1781              	.LBB163:
 1782              	.LBB88:
 1783              		.loc 1 534 0
 1784 0b24 94ED0F1A 		vldr.32	s2, [r4, #60]
 1785 0b28 DFED120A 		vldr.32	s1, .L258+4
 1786 0b2c F0EE6B1A 		vmov.f32	s3, s23
 1787 0b30 3BEE6A0A 		vsub.f32	s0, s22, s21
 1788              	.LVL196:
 1789 0b34 B0EE482A 		vmov.f32	s4, s16
 1790 0b38 FFF7FEFF 		bl	utils_map
 1791              	.LVL197:
 1792              		.loc 1 535 0
 1793 0b3c DAED507A 		vldr.32	s15, [r10, #320]
 1794              		.loc 1 536 0
 1795 0b40 F4EE407A 		vcmp.f32	s15, s0
 1796              		.loc 1 534 0
 1797 0b44 B0EE40AA 		vmov.f32	s20, s0
 1798              	.LVL198:
 1799              		.loc 1 536 0
 1800 0b48 F1EE10FA 		vmrs	APSR_nzcv, FPSCR
 1801 0b4c C8BF     		it	gt
 1802 0b4e B0EE48AA 		vmovgt.f32	s20, s16
 1803              	.LVL199:
 1804              	.LBE88:
 1805              		.loc 1 541 0
 1806 0b52 B9F1000F 		cmp	r9, #0
 1807 0b56 3FF438AF 		beq	.L236
 1808 0b5a 4CE7     		b	.L110
 1809              	.LVL200:
 1810              	.L251:
 1811              		.loc 1 501 0
 1812 0b5c B1EE4BBA 		vneg.f32	s22, s22
 1813              	.LVL201:
 1814              		.loc 1 502 0
 1815 0b60 F1EE6AAA 		vneg.f32	s21, s21
 1816              	.LVL202:
 1817              		.loc 1 500 0
 1818 0b64 F0EE4ABA 		vmov.f32	s23, s20
 1819 0b68 D8E6     		b	.L111
 1820              	.LVL203:
 1821              	.L247:
 1822              	.LBB89:
 1823              	.LBB85:
 1824              	.LBB80:
ARM GAS  C:\Users\CHRIST~1\AppData\Local\Temp\ccb0PMVc.s 			page 33


 1825              		.loc 1 520 0
 1826 0b6a 9FED02AA 		vldr.32	s20, .L258+4
 1827 0b6e F8E6     		b	.L118
 1828              	.L259:
 1829              		.align	2
 1830              	.L258:
 1831 0b70 00000000 		.word	.LANCHOR19
 1832 0b74 00000000 		.word	0
 1833              	.LBE80:
 1834              	.LBE85:
 1835              	.LBE89:
 1836              	.LBE163:
 1837              	.LBE166:
 1838              		.cfi_endproc
 1839              	.LFE263:
 1840              		.size	adc_thread, .-adc_thread
 1841              		.section	.text.app_adc_configure,"ax",%progbits
 1842              		.align	1
 1843              		.p2align 4,,15
 1844              		.global	app_adc_configure
 1845              		.syntax unified
 1846              		.thumb
 1847              		.thumb_func
 1848              		.fpu fpv4-sp-d16
 1849              		.type	app_adc_configure, %function
 1850              	app_adc_configure:
 1851              	.LFB256:
 1852              		.loc 1 53 0
 1853              		.cfi_startproc
 1854              		@ args = 0, pretend = 0, frame = 0
 1855              		@ frame_needed = 0, uses_anonymous_args = 0
 1856              	.LVL204:
 1857 0000 08B5     		push	{r3, lr}
 1858              		.cfi_def_cfa_offset 8
 1859              		.cfi_offset 3, -8
 1860              		.cfi_offset 14, -4
 1861              		.loc 1 54 0
 1862 0002 0146     		mov	r1, r0
 1863 0004 4422     		movs	r2, #68
 1864 0006 0348     		ldr	r0, .L262
 1865              	.LVL205:
 1866 0008 FFF7FEFF 		bl	memcpy
 1867              	.LVL206:
 1868              		.loc 1 55 0
 1869 000c 024B     		ldr	r3, .L262+4
 1870 000e 0022     		movs	r2, #0
 1871 0010 1A60     		str	r2, [r3]	@ float
 1872              		.loc 1 56 0
 1873 0012 08BD     		pop	{r3, pc}
 1874              	.L263:
 1875              		.align	2
 1876              	.L262:
 1877 0014 00000000 		.word	.LANCHOR2
 1878 0018 00000000 		.word	.LANCHOR4
 1879              		.cfi_endproc
 1880              	.LFE256:
 1881              		.size	app_adc_configure, .-app_adc_configure
ARM GAS  C:\Users\CHRIST~1\AppData\Local\Temp\ccb0PMVc.s 			page 34


 1882              		.section	.text.app_adc_start,"ax",%progbits
 1883              		.align	1
 1884              		.p2align 4,,15
 1885              		.global	app_adc_start
 1886              		.syntax unified
 1887              		.thumb
 1888              		.thumb_func
 1889              		.fpu fpv4-sp-d16
 1890              		.type	app_adc_start, %function
 1891              	app_adc_start:
 1892              	.LFB257:
 1893              		.loc 1 58 0
 1894              		.cfi_startproc
 1895              		@ args = 0, pretend = 0, frame = 0
 1896              		@ frame_needed = 0, uses_anonymous_args = 0
 1897              	.LVL207:
 1898 0000 30B5     		push	{r4, r5, lr}
 1899              		.cfi_def_cfa_offset 12
 1900              		.cfi_offset 4, -12
 1901              		.cfi_offset 5, -8
 1902              		.cfi_offset 14, -4
 1903              		.loc 1 59 0
 1904 0002 0849     		ldr	r1, .L266
 1905              		.loc 1 60 0
 1906 0004 084D     		ldr	r5, .L266+4
 1907              		.loc 1 61 0
 1908 0006 094B     		ldr	r3, .L266+8
 1909              		.loc 1 58 0
 1910 0008 83B0     		sub	sp, sp, #12
 1911              		.cfi_def_cfa_offset 24
 1912              		.loc 1 60 0
 1913 000a 0024     		movs	r4, #0
 1914              		.loc 1 61 0
 1915 000c 0094     		str	r4, [sp]
 1916 000e 4022     		movs	r2, #64
 1917              		.loc 1 59 0
 1918 0010 0870     		strb	r0, [r1]
 1919              		.loc 1 61 0
 1920 0012 4FF4B361 		mov	r1, #1432
 1921 0016 0648     		ldr	r0, .L266+12
 1922              	.LVL208:
 1923              		.loc 1 60 0
 1924 0018 2C70     		strb	r4, [r5]
 1925              	.LVL209:
 1926              		.loc 1 61 0
 1927 001a FFF7FEFF 		bl	chThdCreateStatic
 1928              	.LVL210:
 1929              		.loc 1 62 0
 1930 001e 03B0     		add	sp, sp, #12
 1931              		.cfi_def_cfa_offset 12
 1932              		@ sp needed
 1933 0020 30BD     		pop	{r4, r5, pc}
 1934              	.L267:
 1935 0022 00BF     		.align	2
 1936              	.L266:
 1937 0024 00000000 		.word	.LANCHOR0
 1938 0028 00000000 		.word	.LANCHOR3
ARM GAS  C:\Users\CHRIST~1\AppData\Local\Temp\ccb0PMVc.s 			page 35


 1939 002c 00000000 		.word	adc_thread
 1940 0030 00000000 		.word	.LANCHOR20
 1941              		.cfi_endproc
 1942              	.LFE257:
 1943              		.size	app_adc_start, .-app_adc_start
 1944              		.section	.text.app_adc_stop,"ax",%progbits
 1945              		.align	1
 1946              		.p2align 4,,15
 1947              		.global	app_adc_stop
 1948              		.syntax unified
 1949              		.thumb
 1950              		.thumb_func
 1951              		.fpu fpv4-sp-d16
 1952              		.type	app_adc_stop, %function
 1953              	app_adc_stop:
 1954              	.LFB258:
 1955              		.loc 1 64 0
 1956              		.cfi_startproc
 1957              		@ args = 0, pretend = 0, frame = 0
 1958              		@ frame_needed = 0, uses_anonymous_args = 0
 1959              		.loc 1 65 0
 1960 0000 064B     		ldr	r3, .L276
 1961              		.loc 1 64 0
 1962 0002 10B5     		push	{r4, lr}
 1963              		.cfi_def_cfa_offset 8
 1964              		.cfi_offset 4, -8
 1965              		.cfi_offset 14, -4
 1966              		.loc 1 65 0
 1967 0004 0122     		movs	r2, #1
 1968              		.loc 1 66 0
 1969 0006 064C     		ldr	r4, .L276+4
 1970              		.loc 1 65 0
 1971 0008 1A70     		strb	r2, [r3]
 1972              		.loc 1 66 0
 1973 000a 2378     		ldrb	r3, [r4]	@ zero_extendqisi2
 1974 000c 2BB1     		cbz	r3, .L268
 1975              	.L270:
 1976              		.loc 1 67 0
 1977 000e 0A20     		movs	r0, #10
 1978 0010 FFF7FEFF 		bl	chThdSleep
 1979              	.LVL211:
 1980              		.loc 1 66 0
 1981 0014 2378     		ldrb	r3, [r4]	@ zero_extendqisi2
 1982 0016 002B     		cmp	r3, #0
 1983 0018 F9D1     		bne	.L270
 1984              	.L268:
 1985              		.loc 1 69 0
 1986 001a 10BD     		pop	{r4, pc}
 1987              	.L277:
 1988              		.align	2
 1989              	.L276:
 1990 001c 00000000 		.word	.LANCHOR3
 1991 0020 00000000 		.word	.LANCHOR1
 1992              		.cfi_endproc
 1993              	.LFE258:
 1994              		.size	app_adc_stop, .-app_adc_stop
 1995              		.section	.text.app_adc_get_decoded_level,"ax",%progbits
ARM GAS  C:\Users\CHRIST~1\AppData\Local\Temp\ccb0PMVc.s 			page 36


 1996              		.align	1
 1997              		.p2align 4,,15
 1998              		.global	app_adc_get_decoded_level
 1999              		.syntax unified
 2000              		.thumb
 2001              		.thumb_func
 2002              		.fpu fpv4-sp-d16
 2003              		.type	app_adc_get_decoded_level, %function
 2004              	app_adc_get_decoded_level:
 2005              	.LFB259:
 2006              		.loc 1 71 0
 2007              		.cfi_startproc
 2008              		@ args = 0, pretend = 0, frame = 0
 2009              		@ frame_needed = 0, uses_anonymous_args = 0
 2010              		@ link register save eliminated.
 2011              		.loc 1 72 0
 2012 0000 014B     		ldr	r3, .L279
 2013 0002 93ED000A 		vldr.32	s0, [r3]
 2014              		.loc 1 73 0
 2015 0006 7047     		bx	lr
 2016              	.L280:
 2017              		.align	2
 2018              	.L279:
 2019 0008 00000000 		.word	.LANCHOR8
 2020              		.cfi_endproc
 2021              	.LFE259:
 2022              		.size	app_adc_get_decoded_level, .-app_adc_get_decoded_level
 2023              		.section	.text.app_adc_get_voltage,"ax",%progbits
 2024              		.align	1
 2025              		.p2align 4,,15
 2026              		.global	app_adc_get_voltage
 2027              		.syntax unified
 2028              		.thumb
 2029              		.thumb_func
 2030              		.fpu fpv4-sp-d16
 2031              		.type	app_adc_get_voltage, %function
 2032              	app_adc_get_voltage:
 2033              	.LFB260:
 2034              		.loc 1 75 0
 2035              		.cfi_startproc
 2036              		@ args = 0, pretend = 0, frame = 0
 2037              		@ frame_needed = 0, uses_anonymous_args = 0
 2038              		@ link register save eliminated.
 2039              		.loc 1 76 0
 2040 0000 014B     		ldr	r3, .L282
 2041 0002 93ED000A 		vldr.32	s0, [r3]
 2042              		.loc 1 77 0
 2043 0006 7047     		bx	lr
 2044              	.L283:
 2045              		.align	2
 2046              	.L282:
 2047 0008 00000000 		.word	.LANCHOR5
 2048              		.cfi_endproc
 2049              	.LFE260:
 2050              		.size	app_adc_get_voltage, .-app_adc_get_voltage
 2051              		.section	.text.app_adc_get_decoded_level2,"ax",%progbits
 2052              		.align	1
ARM GAS  C:\Users\CHRIST~1\AppData\Local\Temp\ccb0PMVc.s 			page 37


 2053              		.p2align 4,,15
 2054              		.global	app_adc_get_decoded_level2
 2055              		.syntax unified
 2056              		.thumb
 2057              		.thumb_func
 2058              		.fpu fpv4-sp-d16
 2059              		.type	app_adc_get_decoded_level2, %function
 2060              	app_adc_get_decoded_level2:
 2061              	.LFB261:
 2062              		.loc 1 79 0
 2063              		.cfi_startproc
 2064              		@ args = 0, pretend = 0, frame = 0
 2065              		@ frame_needed = 0, uses_anonymous_args = 0
 2066              		@ link register save eliminated.
 2067              		.loc 1 80 0
 2068 0000 014B     		ldr	r3, .L285
 2069 0002 93ED000A 		vldr.32	s0, [r3]
 2070              		.loc 1 81 0
 2071 0006 7047     		bx	lr
 2072              	.L286:
 2073              		.align	2
 2074              	.L285:
 2075 0008 00000000 		.word	.LANCHOR12
 2076              		.cfi_endproc
 2077              	.LFE261:
 2078              		.size	app_adc_get_decoded_level2, .-app_adc_get_decoded_level2
 2079              		.section	.text.app_adc_get_voltage2,"ax",%progbits
 2080              		.align	1
 2081              		.p2align 4,,15
 2082              		.global	app_adc_get_voltage2
 2083              		.syntax unified
 2084              		.thumb
 2085              		.thumb_func
 2086              		.fpu fpv4-sp-d16
 2087              		.type	app_adc_get_voltage2, %function
 2088              	app_adc_get_voltage2:
 2089              	.LFB262:
 2090              		.loc 1 83 0
 2091              		.cfi_startproc
 2092              		@ args = 0, pretend = 0, frame = 0
 2093              		@ frame_needed = 0, uses_anonymous_args = 0
 2094              		@ link register save eliminated.
 2095              		.loc 1 84 0
 2096 0000 014B     		ldr	r3, .L288
 2097 0002 93ED000A 		vldr.32	s0, [r3]
 2098              		.loc 1 85 0
 2099 0006 7047     		bx	lr
 2100              	.L289:
 2101              		.align	2
 2102              	.L288:
 2103 0008 00000000 		.word	.LANCHOR9
 2104              		.cfi_endproc
 2105              	.LFE262:
 2106              		.size	app_adc_get_voltage2, .-app_adc_get_voltage2
 2107              		.section	.bss.adc_thread_wa,"aw",%nobits
 2108              		.align	3
 2109              		.set	.LANCHOR20,. + 0
ARM GAS  C:\Users\CHRIST~1\AppData\Local\Temp\ccb0PMVc.s 			page 38


 2110              		.type	adc_thread_wa, %object
 2111              		.size	adc_thread_wa, 1432
 2112              	adc_thread_wa:
 2113 0000 00000000 		.space	1432
 2113      00000000 
 2113      00000000 
 2113      00000000 
 2113      00000000 
 2114              		.section	.bss.config,"aw",%nobits
 2115              		.align	2
 2116              		.set	.LANCHOR2,. + 0
 2117              		.type	config, %object
 2118              		.size	config, 68
 2119              	config:
 2120 0000 00000000 		.space	68
 2120      00000000 
 2120      00000000 
 2120      00000000 
 2120      00000000 
 2121              		.section	.bss.decoded_level,"aw",%nobits
 2122              		.align	2
 2123              		.set	.LANCHOR8,. + 0
 2124              		.type	decoded_level, %object
 2125              		.size	decoded_level, 4
 2126              	decoded_level:
 2127 0000 00000000 		.space	4
 2128              		.section	.bss.decoded_level2,"aw",%nobits
 2129              		.align	2
 2130              		.set	.LANCHOR12,. + 0
 2131              		.type	decoded_level2, %object
 2132              		.size	decoded_level2, 4
 2133              	decoded_level2:
 2134 0000 00000000 		.space	4
 2135              		.section	.bss.filter_buffer.11490,"aw",%nobits
 2136              		.align	2
 2137              		.set	.LANCHOR7,. + 0
 2138              		.type	filter_buffer.11490, %object
 2139              		.size	filter_buffer.11490, 20
 2140              	filter_buffer.11490:
 2141 0000 00000000 		.space	20
 2141      00000000 
 2141      00000000 
 2141      00000000 
 2141      00000000 
 2142              		.section	.bss.filter_buffer.11557,"aw",%nobits
 2143              		.align	2
 2144              		.set	.LANCHOR17,. + 0
 2145              		.type	filter_buffer.11557, %object
 2146              		.size	filter_buffer.11557, 32
 2147              	filter_buffer.11557:
 2148 0000 00000000 		.space	32
 2148      00000000 
 2148      00000000 
 2148      00000000 
 2148      00000000 
 2149              		.section	.bss.filter_buffer2.11503,"aw",%nobits
 2150              		.align	2
ARM GAS  C:\Users\CHRIST~1\AppData\Local\Temp\ccb0PMVc.s 			page 39


 2151              		.set	.LANCHOR11,. + 0
 2152              		.type	filter_buffer2.11503, %object
 2153              		.size	filter_buffer2.11503, 20
 2154              	filter_buffer2.11503:
 2155 0000 00000000 		.space	20
 2155      00000000 
 2155      00000000 
 2155      00000000 
 2155      00000000 
 2156              		.section	.bss.filter_ptr.11491,"aw",%nobits
 2157              		.align	2
 2158              		.set	.LANCHOR6,. + 0
 2159              		.type	filter_ptr.11491, %object
 2160              		.size	filter_ptr.11491, 4
 2161              	filter_ptr.11491:
 2162 0000 00000000 		.space	4
 2163              		.section	.bss.filter_ptr.11558,"aw",%nobits
 2164              		.align	2
 2165              		.set	.LANCHOR16,. + 0
 2166              		.type	filter_ptr.11558, %object
 2167              		.size	filter_ptr.11558, 4
 2168              	filter_ptr.11558:
 2169 0000 00000000 		.space	4
 2170              		.section	.bss.filter_ptr2.11504,"aw",%nobits
 2171              		.align	2
 2172              		.set	.LANCHOR10,. + 0
 2173              		.type	filter_ptr2.11504, %object
 2174              		.size	filter_ptr2.11504, 4
 2175              	filter_ptr2.11504:
 2176 0000 00000000 		.space	4
 2177              		.section	.bss.is_running,"aw",%nobits
 2178              		.set	.LANCHOR1,. + 0
 2179              		.type	is_running, %object
 2180              		.size	is_running, 1
 2181              	is_running:
 2182 0000 00       		.space	1
 2183              		.section	.bss.last_time.11523,"aw",%nobits
 2184              		.align	2
 2185              		.set	.LANCHOR14,. + 0
 2186              		.type	last_time.11523, %object
 2187              		.size	last_time.11523, 4
 2188              	last_time.11523:
 2189 0000 00000000 		.space	4
 2190              		.section	.bss.ms_without_power,"aw",%nobits
 2191              		.align	2
 2192              		.set	.LANCHOR4,. + 0
 2193              		.type	ms_without_power, %object
 2194              		.size	ms_without_power, 4
 2195              	ms_without_power:
 2196 0000 00000000 		.space	4
 2197              		.section	.bss.pid_rpm.11564,"aw",%nobits
 2198              		.align	2
 2199              		.set	.LANCHOR19,. + 0
 2200              		.type	pid_rpm.11564, %object
 2201              		.size	pid_rpm.11564, 4
 2202              	pid_rpm.11564:
 2203 0000 00000000 		.space	4
ARM GAS  C:\Users\CHRIST~1\AppData\Local\Temp\ccb0PMVc.s 			page 40


 2204              		.section	.bss.pulses_without_power_before.11550,"aw",%nobits
 2205              		.align	2
 2206              		.set	.LANCHOR15,. + 0
 2207              		.type	pulses_without_power_before.11550, %object
 2208              		.size	pulses_without_power_before.11550, 4
 2209              	pulses_without_power_before.11550:
 2210 0000 00000000 		.space	4
 2211              		.section	.bss.pwr_ramp.11524,"aw",%nobits
 2212              		.align	2
 2213              		.set	.LANCHOR13,. + 0
 2214              		.type	pwr_ramp.11524, %object
 2215              		.size	pwr_ramp.11524, 4
 2216              	pwr_ramp.11524:
 2217 0000 00000000 		.space	4
 2218              		.section	.bss.read_voltage,"aw",%nobits
 2219              		.align	2
 2220              		.set	.LANCHOR5,. + 0
 2221              		.type	read_voltage, %object
 2222              		.size	read_voltage, 4
 2223              	read_voltage:
 2224 0000 00000000 		.space	4
 2225              		.section	.bss.read_voltage2,"aw",%nobits
 2226              		.align	2
 2227              		.set	.LANCHOR9,. + 0
 2228              		.type	read_voltage2, %object
 2229              		.size	read_voltage2, 4
 2230              	read_voltage2:
 2231 0000 00000000 		.space	4
 2232              		.section	.bss.use_rx_tx_as_buttons,"aw",%nobits
 2233              		.set	.LANCHOR0,. + 0
 2234              		.type	use_rx_tx_as_buttons, %object
 2235              		.size	use_rx_tx_as_buttons, 1
 2236              	use_rx_tx_as_buttons:
 2237 0000 00       		.space	1
 2238              		.section	.bss.was_pid.11556,"aw",%nobits
 2239              		.set	.LANCHOR18,. + 0
 2240              		.type	was_pid.11556, %object
 2241              		.size	was_pid.11556, 1
 2242              	was_pid.11556:
 2243 0000 00       		.space	1
 2244              		.section	.data.stop_now,"aw",%progbits
 2245              		.set	.LANCHOR3,. + 0
 2246              		.type	stop_now, %object
 2247              		.size	stop_now, 1
 2248              	stop_now:
 2249 0000 01       		.byte	1
 2250              		.section	.rodata.adc_thread.str1.4,"aMS",%progbits,1
 2251              		.align	2
 2252              	.LC0:
 2253 0000 4150505F 		.ascii	"APP_ADC\000"
 2253      41444300 
 2254              		.text
 2255              	.Letext0:
 2256              		.file 4 "c:\\program files (x86)\\gnu tools arm embedded\\7 2017-q4-major\\arm-none-eabi\\include\
 2257              		.file 5 "c:\\program files (x86)\\gnu tools arm embedded\\7 2017-q4-major\\arm-none-eabi\\include\
 2258              		.file 6 "c:\\program files (x86)\\gnu tools arm embedded\\7 2017-q4-major\\lib\\gcc\\arm-none-eabi
 2259              		.file 7 "ChibiOS_3.0.2/os/rt/ports/ARMCMx/compilers/GCC/chtypes.h"
ARM GAS  C:\Users\CHRIST~1\AppData\Local\Temp\ccb0PMVc.s 			page 41


 2260              		.file 8 "ChibiOS_3.0.2/os/rt/include/chsystypes.h"
 2261              		.file 9 "ChibiOS_3.0.2/os/rt/include/chschd.h"
 2262              		.file 10 "ChibiOS_3.0.2/os/ext/CMSIS/include/core_cm4.h"
 2263              		.file 11 "ChibiOS_3.0.2/os/ext/CMSIS/ST/system_stm32f4xx.h"
 2264              		.file 12 "ChibiOS_3.0.2/os/ext/CMSIS/ST/stm32f407xx.h"
 2265              		.file 13 "ChibiOS_3.0.2/os/rt/ports/ARMCMx/chcore.h"
 2266              		.file 14 "ChibiOS_3.0.2/os/rt/ports/ARMCMx/chcore_v7m.h"
 2267              		.file 15 "ChibiOS_3.0.2/os/rt/include/chtm.h"
 2268              		.file 16 "ChibiOS_3.0.2/os/rt/include/chsem.h"
 2269              		.file 17 "ChibiOS_3.0.2/os/rt/include/chmtx.h"
 2270              		.file 18 "ChibiOS_3.0.2/os/rt/include/chevents.h"
 2271              		.file 19 "ChibiOS_3.0.2/os/rt/include/chqueues.h"
 2272              		.file 20 "./datatypes.h"
 2273              		.file 21 "./conf_general.h"
 2274              		.file 22 "ChibiOS_3.0.2/os/hal/ports/STM32/STM32F4xx/stm32_dma.h"
 2275              		.file 23 "ChibiOS_3.0.2/os/hal/ports/STM32/LLD/GPIOv2/pal_lld.h"
 2276              		.file 24 "ChibiOS_3.0.2/os/hal/include/can.h"
 2277              		.file 25 "ChibiOS_3.0.2/os/hal/ports/STM32/LLD/can_lld.h"
 2278              		.file 26 "ChibiOS_3.0.2/os/hal/include/i2c.h"
 2279              		.file 27 "ChibiOS_3.0.2/os/hal/ports/STM32/LLD/I2Cv1/i2c_lld.h"
 2280              		.file 28 "ChibiOS_3.0.2/os/hal/include/icu.h"
 2281              		.file 29 "ChibiOS_3.0.2/os/hal/ports/STM32/LLD/TIMv1/icu_lld.h"
 2282              		.file 30 "ChibiOS_3.0.2/os/hal/ports/STM32/LLD/TIMv1/stm32_tim.h"
 2283              		.file 31 "ChibiOS_3.0.2/os/hal/include/spi.h"
 2284              		.file 32 "ChibiOS_3.0.2/os/hal/ports/STM32/LLD/SPIv1/spi_lld.h"
 2285              		.file 33 "ChibiOS_3.0.2/os/hal/include/uart.h"
 2286              		.file 34 "ChibiOS_3.0.2/os/hal/ports/STM32/LLD/USARTv1/uart_lld.h"
 2287              		.file 35 "ChibiOS_3.0.2/os/hal/include/usb.h"
 2288              		.file 36 "ChibiOS_3.0.2/os/hal/ports/STM32/LLD/OTGv1/usb_lld.h"
 2289              		.file 37 "ChibiOS_3.0.2/os/hal/ports/STM32/LLD/OTGv1/stm32_otg.h"
 2290              		.file 38 "./mc_interface.h"
 2291              		.file 39 "c:\\program files (x86)\\gnu tools arm embedded\\7 2017-q4-major\\arm-none-eabi\\include
 2292              		.file 40 "c:\\program files (x86)\\gnu tools arm embedded\\7 2017-q4-major\\arm-none-eabi\\include
 2293              		.file 41 "c:\\program files (x86)\\gnu tools arm embedded\\7 2017-q4-major\\arm-none-eabi\\include
 2294              		.file 42 "c:\\program files (x86)\\gnu tools arm embedded\\7 2017-q4-major\\arm-none-eabi\\include
 2295              		.file 43 "./utils.h"
 2296              		.file 44 "./comm_can.h"
 2297              		.file 45 "./timeout.h"
 2298              		.file 46 "ChibiOS_3.0.2/os/rt/include/chthreads.h"
 2299              		.file 47 "<built-in>"