ARM GAS  C:\Users\CHRIST~1\AppData\Local\Temp\ccsd2ocY.s 			page 1


   1              		.cpu cortex-m4
   2              		.eabi_attribute 27, 1
   3              		.eabi_attribute 28, 1
   4              		.eabi_attribute 20, 1
   5              		.eabi_attribute 21, 1
   6              		.eabi_attribute 23, 3
   7              		.eabi_attribute 24, 1
   8              		.eabi_attribute 25, 1
   9              		.eabi_attribute 26, 1
  10              		.eabi_attribute 30, 2
  11              		.eabi_attribute 34, 1
  12              		.eabi_attribute 18, 4
  13              		.file	"app_ppm.c"
  14              		.text
  15              	.Ltext0:
  16              		.cfi_sections	.debug_frame
  17              		.section	.text.ppm_thread,"ax",%progbits
  18              		.align	1
  19              		.p2align 4,,15
  20              		.syntax unified
  21              		.thumb
  22              		.thumb_func
  23              		.fpu fpv4-sp-d16
  24              		.type	ppm_thread, %function
  25              	ppm_thread:
  26              	.LFB262:
  27              		.file 1 "applications/app_ppm.c"
  28              		.loc 1 125 0
  29              		.cfi_startproc
  30              		@ args = 0, pretend = 0, frame = 16
  31              		@ frame_needed = 0, uses_anonymous_args = 0
  32              	.LVL0:
  33 0000 2DE9F04F 		push	{r4, r5, r6, r7, r8, r9, r10, fp, lr}
  34              		.cfi_def_cfa_offset 36
  35              		.cfi_offset 4, -36
  36              		.cfi_offset 5, -32
  37              		.cfi_offset 6, -28
  38              		.cfi_offset 7, -24
  39              		.cfi_offset 8, -20
  40              		.cfi_offset 9, -16
  41              		.cfi_offset 10, -12
  42              		.cfi_offset 11, -8
  43              		.cfi_offset 14, -4
  44              	.LBB126:
  45              	.LBB127:
  46              		.file 2 "ChibiOS_3.0.2/os/rt/include/chregistry.h"
  47              		.loc 2 135 0
  48 0004 C44F     		ldr	r7, .L154
  49              	.LBE127:
  50              	.LBE126:
  51              		.loc 1 131 0
  52 0006 C54C     		ldr	r4, .L154+4
  53              	.LBB130:
  54              	.LBB128:
  55              		.loc 2 135 0
  56 0008 BB69     		ldr	r3, [r7, #24]
  57 000a C549     		ldr	r1, .L154+8
ARM GAS  C:\Users\CHRIST~1\AppData\Local\Temp\ccsd2ocY.s 			page 2


  58              	.LBE128:
  59              	.LBE130:
  60              		.loc 1 129 0
  61 000c C54A     		ldr	r2, .L154+12
  62              		.loc 1 131 0
  63 000e 94ED030A 		vldr.32	s0, [r4, #12]
  64 0012 D4ED040A 		vldr.32	s1, [r4, #16]
  65 0016 207E     		ldrb	r0, [r4, #24]	@ zero_extendqisi2
  66              	.LVL1:
  67              		.loc 1 133 0
  68 0018 DFF83883 		ldr	r8, .L154+60
  69 001c C24E     		ldr	r6, .L154+16
  70              		.loc 1 125 0
  71 001e 2DED088B 		vpush.64	{d8, d9, d10, d11}
  72              		.cfi_def_cfa_offset 68
  73              		.cfi_offset 80, -68
  74              		.cfi_offset 81, -64
  75              		.cfi_offset 82, -60
  76              		.cfi_offset 83, -56
  77              		.cfi_offset 84, -52
  78              		.cfi_offset 85, -48
  79              		.cfi_offset 86, -44
  80              		.cfi_offset 87, -40
  81              	.LBB131:
  82              	.LBB129:
  83              		.loc 2 135 0
  84 0022 9961     		str	r1, [r3, #24]
  85              	.LVL2:
  86              	.LBE129:
  87              	.LBE131:
  88              		.loc 1 125 0
  89 0024 85B0     		sub	sp, sp, #20
  90              		.cfi_def_cfa_offset 88
  91              		.loc 1 129 0
  92 0026 1360     		str	r3, [r2]
  93              		.loc 1 131 0
  94 0028 FFF7FEFF 		bl	servodec_set_pulse_options
  95              	.LVL3:
  96              		.loc 1 132 0
  97 002c BF48     		ldr	r0, .L154+20
  98              	.LBB132:
  99              		.loc 1 163 0
 100 002e DFEDC08A 		vldr.32	s17, .L154+24
 101              		.loc 1 187 0
 102 0032 9FEDC0AA 		vldr.32	s20, .L154+28
 103              	.LBB133:
 104              	.LBB134:
 105              	.LBB135:
 106              		.loc 1 323 0
 107 0036 DFEDC09A 		vldr.32	s19, .L154+32
 108 003a 9FEDC09A 		vldr.32	s18, .L154+36
 109              	.LBE135:
 110              	.LBE134:
 111              	.LBE133:
 112              	.LBE132:
 113              		.loc 1 132 0
 114 003e FFF7FEFF 		bl	servodec_init
ARM GAS  C:\Users\CHRIST~1\AppData\Local\Temp\ccsd2ocY.s 			page 3


 115              	.LVL4:
 116              		.loc 1 133 0
 117 0042 0123     		movs	r3, #1
 118 0044 88F80030 		strb	r3, [r8]
 119              	.L2:
 120              	.LBB191:
 121              		.loc 1 136 0
 122 0048 0120     		movs	r0, #1
 123 004a FFF7FEFF 		bl	chEvtWaitAny
 124              	.LVL5:
 125              		.loc 1 138 0
 126 004e 3378     		ldrb	r3, [r6]	@ zero_extendqisi2
 127 0050 03F0FF05 		and	r5, r3, #255
 128 0054 002B     		cmp	r3, #0
 129 0056 40F09C80 		bne	.L141
 130              		.loc 1 143 0
 131 005a FFF7FEFF 		bl	mc_interface_get_configuration
 132              	.LVL6:
 133 005e 8146     		mov	r9, r0
 134              	.LVL7:
 135              		.loc 1 144 0
 136 0060 FFF7FEFF 		bl	mc_interface_get_rpm
 137              	.LVL8:
 138              		.loc 1 145 0
 139 0064 2846     		mov	r0, r5
 140              		.loc 1 144 0
 141 0066 B0EE408A 		vmov.f32	s16, s0
 142              	.LVL9:
 143              		.loc 1 145 0
 144 006a FFF7FEFF 		bl	servodec_get_servo
 145              	.LVL10:
 146              		.loc 1 146 0
 147 006e D4ED031A 		vldr.32	s3, [r4, #12]
 148 0072 94ED042A 		vldr.32	s4, [r4, #16]
 149              		.loc 1 145 0
 150 0076 8DED030A 		vstr.32	s0, [sp, #12]
 151              		.loc 1 146 0
 152 007a B7EE001A 		vmov.f32	s2, #1.0e+0
 153 007e FFEE000A 		vmov.f32	s1, #-1.0e+0
 154 0082 FFF7FEFF 		bl	utils_map
 155              	.LVL11:
 156              		.loc 1 148 0
 157 0086 2378     		ldrb	r3, [r4]	@ zero_extendqisi2
 158 0088 DBB2     		uxtb	r3, r3
 159 008a 072B     		cmp	r3, #7
 160 008c 5DD8     		bhi	.L4
 161 008e 0122     		movs	r2, #1
 162 0090 02FA03F3 		lsl	r3, r2, r3
 163 0094 13F0A40F 		tst	r3, #164
 164 0098 57D0     		beq	.L4
 165              		.loc 1 152 0
 166 009a 9DED037A 		vldr.32	s14, [sp, #12]
 167 009e A84B     		ldr	r3, .L154+40
 168              		.loc 1 153 0
 169 00a0 F7EE007A 		vmov.f32	s15, #1.0e+0
 170 00a4 77EE277A 		vadd.f32	s15, s14, s15
 171              		.loc 1 154 0
ARM GAS  C:\Users\CHRIST~1\AppData\Local\Temp\ccsd2ocY.s 			page 4


 172 00a8 F6EE006A 		vmov.f32	s13, #5.0e-1
 173 00ac 67EEA67A 		vmul.f32	s15, s15, s13
 174              		.loc 1 152 0
 175 00b0 83ED007A 		vstr.32	s14, [r3]
 176              		.loc 1 154 0
 177 00b4 CDED037A 		vstr.32	s15, [sp, #12]
 178              	.LVL12:
 179              	.L5:
 180              		.loc 1 170 0
 181 00b8 FFF7FEFF 		bl	timeout_has_timeout
 182              	.LVL13:
 183 00bc 0546     		mov	r5, r0
 184 00be 0028     		cmp	r0, #0
 185 00c0 3FD1     		bne	.L11
 186              		.loc 1 170 0 is_stmt 0 discriminator 1
 187 00c2 FFF7FEFF 		bl	servodec_get_time_since_update
 188              	.LVL14:
 189 00c6 8246     		mov	r10, r0
 190 00c8 FFF7FEFF 		bl	timeout_get_timeout_msec
 191              	.LVL15:
 192 00cc 8245     		cmp	r10, r0
 193 00ce 38D8     		bhi	.L11
 194              		.loc 1 171 0 is_stmt 1 discriminator 2
 195 00d0 FFF7FEFF 		bl	mc_interface_get_fault
 196              	.LVL16:
 197              		.loc 1 170 0 discriminator 2
 198 00d4 A8BB     		cbnz	r0, .L11
 199              		.loc 1 177 0
 200 00d6 94ED020A 		vldr.32	s0, [r4, #8]
 201              		.loc 1 185 0
 202 00da DFF874A2 		ldr	r10, .L154+56
 203              		.loc 1 177 0
 204 00de F7EE000A 		vmov.f32	s1, #1.0e+0
 205 00e2 03A8     		add	r0, sp, #12
 206 00e4 FFF7FEFF 		bl	utils_deadband
 207              	.LVL17:
 208              		.loc 1 180 0
 209 00e8 D4ED070A 		vldr.32	s1, [r4, #28]
 210 00ec 9DED030A 		vldr.32	s0, [sp, #12]
 211 00f0 94ED081A 		vldr.32	s2, [r4, #32]
 212 00f4 94F82400 		ldrb	r0, [r4, #36]	@ zero_extendqisi2
 213 00f8 FFF7FEFF 		bl	utils_throttle_curve
 214              	.LVL18:
 215              		.loc 1 185 0
 216 00fc DAED007A 		vldr.32	s15, [r10]
 217              		.loc 1 180 0
 218 0100 8DED030A 		vstr.32	s0, [sp, #12]
 219              		.loc 1 185 0
 220 0104 F0EEE77A 		vabs.f32	s15, s15
 221 0108 B0EEC07A 		vabs.f32	s14, s0
 222 010c B4EEE77A 		vcmpe.f32	s14, s15
 223 0110 F1EE10FA 		vmrs	APSR_nzcv, FPSCR
 224 0114 CCBF     		ite	gt
 225 0116 D4ED0A0A 		vldrgt.32	s1, [r4, #40]
 226 011a D4ED0B0A 		vldrle.32	s1, [r4, #44]
 227              	.LVL19:
 228              		.loc 1 187 0
ARM GAS  C:\Users\CHRIST~1\AppData\Local\Temp\ccsd2ocY.s 			page 5


 229 011e F4EECA0A 		vcmpe.f32	s1, s20
 230 0122 F1EE10FA 		vmrs	APSR_nzcv, FPSCR
 231 0126 3CDC     		bgt	.L142
 232              	.LVL20:
 233              	.L15:
 234              		.loc 1 199 0
 235 0128 2378     		ldrb	r3, [r4]	@ zero_extendqisi2
 236 012a 013B     		subs	r3, r3, #1
 237 012c 062B     		cmp	r3, #6
 238 012e 8BD8     		bhi	.L2
 239 0130 DFE813F0 		tbh	[pc, r3, lsl #1]
 240              	.L18:
 241 0134 8100     		.2byte	(.L17-.L18)/2
 242 0136 8100     		.2byte	(.L17-.L18)/2
 243 0138 D500     		.2byte	(.L19-.L18)/2
 244 013a 1601     		.2byte	(.L20-.L18)/2
 245 013c 1601     		.2byte	(.L20-.L18)/2
 246 013e 5B00     		.2byte	(.L21-.L18)/2
 247 0140 5B00     		.2byte	(.L21-.L18)/2
 248              	.LVL21:
 249              		.p2align 1
 250              	.L11:
 251              		.loc 1 172 0
 252 0142 804B     		ldr	r3, .L154+44
 253 0144 0022     		movs	r2, #0
 254 0146 1A60     		str	r2, [r3]
 255              		.loc 1 173 0
 256 0148 7EE7     		b	.L2
 257              	.LVL22:
 258              	.L4:
 259              		.loc 1 159 0
 260 014a D4ED057A 		vldr.32	s15, [r4, #20]
 261 014e F4EEC07A 		vcmpe.f32	s15, s0
 262 0152 F1EE10FA 		vmrs	APSR_nzcv, FPSCR
 263 0156 0FDD     		ble	.L132
 264              		.loc 1 160 0
 265 0158 D4ED030A 		vldr.32	s1, [r4, #12]
 266 015c 94ED051A 		vldr.32	s2, [r4, #20]
 267 0160 B0EE682A 		vmov.f32	s4, s17
 268 0164 FFEE001A 		vmov.f32	s3, #-1.0e+0
 269 0168 FFF7FEFF 		bl	utils_map
 270              	.LVL23:
 271 016c 8DED030A 		vstr.32	s0, [sp, #12]
 272              	.L8:
 273              		.loc 1 166 0
 274 0170 734B     		ldr	r3, .L154+40
 275 0172 83ED000A 		vstr.32	s0, [r3]
 276              		.loc 1 167 0
 277 0176 9FE7     		b	.L5
 278              	.LVL24:
 279              	.L132:
 280              		.loc 1 163 0
 281 0178 D4ED050A 		vldr.32	s1, [r4, #20]
 282 017c 94ED041A 		vldr.32	s2, [r4, #16]
 283 0180 B7EE002A 		vmov.f32	s4, #1.0e+0
 284 0184 F0EE681A 		vmov.f32	s3, s17
 285 0188 FFF7FEFF 		bl	utils_map
ARM GAS  C:\Users\CHRIST~1\AppData\Local\Temp\ccsd2ocY.s 			page 6


 286              	.LVL25:
 287 018c 8DED030A 		vstr.32	s0, [sp, #12]
 288 0190 EEE7     		b	.L8
 289              	.LVL26:
 290              	.L141:
 291              		.loc 1 139 0
 292 0192 0023     		movs	r3, #0
 293 0194 88F80030 		strb	r3, [r8]
 294              	.LBE191:
 295              		.loc 1 363 0
 296 0198 05B0     		add	sp, sp, #20
 297              		.cfi_remember_state
 298              		.cfi_def_cfa_offset 68
 299              		@ sp needed
 300 019a BDEC088B 		vldm	sp!, {d8-d11}
 301              		.cfi_restore 86
 302              		.cfi_restore 87
 303              		.cfi_restore 84
 304              		.cfi_restore 85
 305              		.cfi_restore 82
 306              		.cfi_restore 83
 307              		.cfi_restore 80
 308              		.cfi_restore 81
 309              		.cfi_def_cfa_offset 36
 310 019e BDE8F08F 		pop	{r4, r5, r6, r7, r8, r9, r10, fp, pc}
 311              	.LVL27:
 312              	.L142:
 313              		.cfi_restore_state
 314              	.LBB192:
 315              	.LBB151:
 316              		.loc 1 188 0
 317 01a2 DFF8B4B1 		ldr	fp, .L154+64
 318              	.LBB152:
 319              	.LBB153:
 320              	.LBB154:
 321              	.LBB155:
 322              		.file 3 "ChibiOS_3.0.2/os/rt/include/chvt.h"
 323              		.loc 3 231 0
 324 01a6 BB6A     		ldr	r3, [r7, #40]
 325              	.LVL28:
 326              	.LBE155:
 327              	.LBE154:
 328              		.loc 3 267 0
 329 01a8 DBF80020 		ldr	r2, [fp]
 330              	.LBE153:
 331              	.LBE152:
 332              		.loc 1 188 0
 333 01ac 6649     		ldr	r1, .L154+48
 334 01ae 9FED677A 		vldr.32	s14, .L154+52
 335              	.LBB157:
 336              	.LBB156:
 337              		.loc 3 267 0
 338 01b2 9B1A     		subs	r3, r3, r2
 339              	.LVL29:
 340              	.LBE156:
 341              	.LBE157:
 342              		.loc 1 188 0
ARM GAS  C:\Users\CHRIST~1\AppData\Local\Temp\ccsd2ocY.s 			page 7


 343 01b4 4FF47A70 		mov	r0, #1000
 344 01b8 42F20F72 		movw	r2, #9999
 345 01bc 00FB0323 		mla	r3, r0, r3, r2
 346 01c0 A1FB0323 		umull	r2, r3, r1, r3
 347 01c4 5B0B     		lsrs	r3, r3, #13
 348 01c6 07EE903A 		vmov	s15, r3	@ int
 349 01ca 60EE870A 		vmul.f32	s1, s1, s14
 350              	.LVL30:
 351 01ce F8EEE77A 		vcvt.f32.s32	s15, s15
 352              		.loc 1 189 0
 353 01d2 5F48     		ldr	r0, .L154+56
 354 01d4 C7EEA00A 		vdiv.f32	s1, s15, s1
 355 01d8 FFF7FEFF 		bl	utils_step_towards
 356              	.LVL31:
 357              	.LBB158:
 358              	.LBB159:
 359              		.loc 3 231 0
 360 01dc BB6A     		ldr	r3, [r7, #40]
 361              	.LBE159:
 362              	.LBE158:
 363              		.loc 1 190 0
 364 01de CBF80030 		str	r3, [fp]
 365              		.loc 1 191 0
 366 01e2 DAF80030 		ldr	r3, [r10]	@ float
 367 01e6 0393     		str	r3, [sp, #12]	@ float
 368 01e8 9EE7     		b	.L15
 369              	.LVL32:
 370              	.L21:
 371              	.LBE151:
 372              		.loc 1 242 0
 373 01ea DDED037A 		vldr.32	s15, [sp, #12]
 374 01ee 9FED5B7A 		vldr.32	s14, .L154+68
 375              		.loc 1 243 0
 376 01f2 544B     		ldr	r3, .L154+44
 377              		.loc 1 242 0
 378 01f4 F0EEE76A 		vabs.f32	s13, s15
 379 01f8 F4EEC76A 		vcmpe.f32	s13, s14
 380 01fc F1EE10FA 		vmrs	APSR_nzcv, FPSCR
 381              		.loc 1 243 0
 382 0200 42BF     		ittt	mi
 383 0202 1A68     		ldrmi	r2, [r3]
 384 0204 0132     		addmi	r2, r2, #1
 385 0206 1A60     		strmi	r2, [r3]
 386              		.loc 1 246 0
 387 0208 1A68     		ldr	r2, [r3]
 388 020a 312A     		cmp	r2, #49
 389 020c 03DC     		bgt	.L40
 390              		.loc 1 246 0 is_stmt 0 discriminator 1
 391 020e 627E     		ldrb	r2, [r4, #25]	@ zero_extendqisi2
 392 0210 002A     		cmp	r2, #0
 393 0212 40F0FB80 		bne	.L41
 394              	.L40:
 395              		.loc 1 247 0 is_stmt 1
 396 0216 94ED010A 		vldr.32	s0, [r4, #4]
 397 021a 0193     		str	r3, [sp, #4]
 398 021c 27EE800A 		vmul.f32	s0, s15, s0
 399              		.loc 1 196 0
ARM GAS  C:\Users\CHRIST~1\AppData\Local\Temp\ccsd2ocY.s 			page 8


 400 0220 4FF0000A 		mov	r10, #0
 401              		.loc 1 247 0
 402 0224 FFF7FEFF 		bl	mc_interface_set_pid_speed
 403              	.LVL33:
 404              		.loc 1 194 0
 405 0228 DFED41AA 		vldr.32	s21, .L154+24
 406              		.loc 1 195 0
 407 022c CDF800A0 		str	r10, [sp]
 408              		.loc 1 248 0
 409 0230 0125     		movs	r5, #1
 410 0232 019B     		ldr	r3, [sp, #4]
 411 0234 23E0     		b	.L29
 412              	.LVL34:
 413              	.L17:
 414              		.loc 1 203 0
 415 0236 DDED037A 		vldr.32	s15, [sp, #12]
 416 023a F5EEC07A 		vcmpe.f32	s15, #0
 417 023e F1EE10FA 		vmrs	APSR_nzcv, FPSCR
 418 0242 C0F2F880 		blt	.L22
 419              		.loc 1 203 0 is_stmt 0 discriminator 1
 420 0246 B5EEC08A 		vcmpe.f32	s16, #0
 421 024a F1EE10FA 		vmrs	APSR_nzcv, FPSCR
 422 024e 40F3F280 		ble	.L22
 423              	.L24:
 424              		.loc 1 204 0 is_stmt 1
 425 0252 D9ED1DAA 		vldr.32	s21, [r9, #116]
 426 0256 67EEAAAA 		vmul.f32	s21, s15, s21
 427              	.LVL35:
 428              	.L28:
 429              		.loc 1 209 0
 430 025a 9FED407A 		vldr.32	s14, .L154+68
 431 025e F0EEE77A 		vabs.f32	s15, s15
 432 0262 F4EEC77A 		vcmpe.f32	s15, s14
 433 0266 F1EE10FA 		vmrs	APSR_nzcv, FPSCR
 434 026a 40F1F480 		bpl	.L134
 435              		.loc 1 210 0
 436 026e 354B     		ldr	r3, .L154+44
 437 0270 1A68     		ldr	r2, [r3]
 438 0272 0132     		adds	r2, r2, #1
 439 0274 1A60     		str	r2, [r3]
 440              		.loc 1 202 0
 441 0276 0122     		movs	r2, #1
 442              		.loc 1 196 0
 443 0278 4FF0000A 		mov	r10, #0
 444              		.loc 1 202 0
 445 027c 0092     		str	r2, [sp]
 446              	.LVL36:
 447              	.L29:
 448              		.loc 1 256 0
 449 027e 1A68     		ldr	r2, [r3]
 450 0280 312A     		cmp	r2, #49
 451 0282 03DC     		bgt	.L42
 452              		.loc 1 256 0 is_stmt 0 discriminator 1
 453 0284 627E     		ldrb	r2, [r4, #25]	@ zero_extendqisi2
 454 0286 002A     		cmp	r2, #0
 455 0288 40F0C780 		bne	.L143
 456              	.L42:
ARM GAS  C:\Users\CHRIST~1\AppData\Local\Temp\ccsd2ocY.s 			page 9


 457              		.loc 1 267 0 is_stmt 1
 458 028c FFF7FEFF 		bl	mc_interface_get_rpm
 459              	.LVL37:
 460              		.loc 1 269 0
 461 0290 94F83030 		ldrb	r3, [r4, #48]	@ zero_extendqisi2
 462              		.loc 1 267 0
 463 0294 B0EE40BA 		vmov.f32	s22, s0
 464              	.LVL38:
 465              		.loc 1 268 0
 466 0298 B0EE408A 		vmov.f32	s16, s0
 467              	.LVL39:
 468              		.loc 1 269 0
 469 029c 002B     		cmp	r3, #0
 470 029e 40F08C80 		bne	.L144
 471              	.LVL40:
 472              	.L44:
 473              		.loc 1 283 0
 474 02a2 25B1     		cbz	r5, .L48
 475              		.loc 1 283 0 is_stmt 0 discriminator 1
 476 02a4 94F83030 		ldrb	r3, [r4, #48]	@ zero_extendqisi2
 477 02a8 002B     		cmp	r3, #0
 478 02aa 40F09D81 		bne	.L145
 479              	.LVL41:
 480              	.L48:
 481              		.loc 1 295 0 is_stmt 1
 482 02ae 009B     		ldr	r3, [sp]
 483 02b0 002B     		cmp	r3, #0
 484 02b2 3FF4C9AE 		beq	.L2
 485              		.loc 1 296 0
 486 02b6 BAF1000F 		cmp	r10, #0
 487 02ba 40F07081 		bne	.L146
 488              	.LVL42:
 489              	.LBB160:
 490              		.loc 1 310 0
 491 02be F5EEC0AA 		vcmpe.f32	s21, #0
 492 02c2 F1EE10FA 		vmrs	APSR_nzcv, FPSCR
 493              		.loc 1 319 0
 494 02c6 94F83030 		ldrb	r3, [r4, #48]	@ zero_extendqisi2
 495              		.loc 1 310 0
 496 02ca 00F1CA80 		bmi	.L59
 497              		.loc 1 319 0
 498 02ce 002B     		cmp	r3, #0
 499 02d0 40F0AF81 		bne	.L147
 500              	.LVL43:
 501              	.L60:
 502              		.loc 1 357 0
 503 02d4 B0EE6A0A 		vmov.f32	s0, s21
 504 02d8 FFF7FEFF 		bl	mc_interface_set_current
 505              	.LVL44:
 506 02dc B4E6     		b	.L2
 507              	.LVL45:
 508              	.L19:
 509              	.LBE160:
 510              		.loc 1 216 0
 511 02de DDED037A 		vldr.32	s15, [sp, #12]
 512 02e2 F5EEC07A 		vcmpe.f32	s15, #0
 513 02e6 F1EE10FA 		vmrs	APSR_nzcv, FPSCR
ARM GAS  C:\Users\CHRIST~1\AppData\Local\Temp\ccsd2ocY.s 			page 10


 514 02ea C0F2C480 		blt	.L135
 515              		.loc 1 217 0
 516 02ee D9ED1DAA 		vldr.32	s21, [r9, #116]
 517 02f2 67EEAAAA 		vmul.f32	s21, s15, s21
 518              	.LVL46:
 519              		.loc 1 196 0
 520 02f6 4FF0000A 		mov	r10, #0
 521              	.LVL47:
 522              	.L33:
 523              		.loc 1 223 0
 524 02fa 9FED187A 		vldr.32	s14, .L154+68
 525              		.loc 1 224 0
 526 02fe 114B     		ldr	r3, .L154+44
 527              		.loc 1 223 0
 528 0300 F4EEC77A 		vcmpe.f32	s15, s14
 529 0304 F1EE10FA 		vmrs	APSR_nzcv, FPSCR
 530 0308 40F1A280 		bpl	.L136
 531              		.loc 1 224 0
 532 030c 1A68     		ldr	r2, [r3]
 533 030e 0132     		adds	r2, r2, #1
 534 0310 1A60     		str	r2, [r3]
 535              		.loc 1 215 0
 536 0312 0122     		movs	r2, #1
 537 0314 0092     		str	r2, [sp]
 538 0316 B2E7     		b	.L29
 539              	.L155:
 540              		.align	2
 541              	.L154:
 542 0318 00000000 		.word	ch
 543 031c 00000000 		.word	.LANCHOR1
 544 0320 00000000 		.word	.LC0
 545 0324 00000000 		.word	.LANCHOR0
 546 0328 00000000 		.word	.LANCHOR3
 547 032c 00000000 		.word	servodec_func
 548 0330 00000000 		.word	0
 549 0334 0AD7233C 		.word	1008981770
 550 0338 00401C46 		.word	1176256512
 551 033c CDCCCC3D 		.word	1036831949
 552 0340 00000000 		.word	.LANCHOR4
 553 0344 00000000 		.word	.LANCHOR5
 554 0348 5917B7D1 		.word	-776530087
 555 034c 00007A44 		.word	1148846080
 556 0350 00000000 		.word	.LANCHOR6
 557 0354 00000000 		.word	.LANCHOR2
 558 0358 00000000 		.word	.LANCHOR7
 559 035c 6F12833A 		.word	981668463
 560              	.LVL48:
 561              	.L20:
 562              		.loc 1 230 0
 563 0360 9DED030A 		vldr.32	s0, [sp, #12]
 564 0364 5FED037A 		vldr.32	s15, .L154+68
 565              		.loc 1 231 0
 566 0368 B84B     		ldr	r3, .L156
 567              		.loc 1 230 0
 568 036a B0EEC07A 		vabs.f32	s14, s0
 569 036e B4EEE77A 		vcmpe.f32	s14, s15
 570 0372 F1EE10FA 		vmrs	APSR_nzcv, FPSCR
ARM GAS  C:\Users\CHRIST~1\AppData\Local\Temp\ccsd2ocY.s 			page 11


 571              		.loc 1 231 0
 572 0376 42BF     		ittt	mi
 573 0378 1A68     		ldrmi	r2, [r3]
 574 037a 0132     		addmi	r2, r2, #1
 575 037c 1A60     		strmi	r2, [r3]
 576              		.loc 1 234 0
 577 037e 1A68     		ldr	r2, [r3]
 578 0380 312A     		cmp	r2, #49
 579 0382 02DC     		bgt	.L37
 580              		.loc 1 234 0 is_stmt 0 discriminator 1
 581 0384 627E     		ldrb	r2, [r4, #25]	@ zero_extendqisi2
 582 0386 002A     		cmp	r2, #0
 583 0388 40D1     		bne	.L41
 584              	.L37:
 585              		.loc 1 235 0 is_stmt 1
 586 038a D9ED161A 		vldr.32	s3, [r9, #88]
 587 038e 99ED162A 		vldr.32	s4, [r9, #88]
 588 0392 0193     		str	r3, [sp, #4]
 589 0394 F1EE611A 		vneg.f32	s3, s3
 590 0398 B7EE001A 		vmov.f32	s2, #1.0e+0
 591 039c FFEE000A 		vmov.f32	s1, #-1.0e+0
 592 03a0 FFF7FEFF 		bl	utils_map
 593              	.LVL49:
 594              		.loc 1 196 0
 595 03a4 4FF0000A 		mov	r10, #0
 596              		.loc 1 235 0
 597 03a8 FFF7FEFF 		bl	mc_interface_set_duty
 598              	.LVL50:
 599              		.loc 1 194 0
 600 03ac DFEDA8AA 		vldr.32	s21, .L156+4
 601              		.loc 1 195 0
 602 03b0 CDF800A0 		str	r10, [sp]
 603              		.loc 1 236 0
 604 03b4 0125     		movs	r5, #1
 605 03b6 019B     		ldr	r3, [sp, #4]
 606 03b8 61E7     		b	.L29
 607              	.LVL51:
 608              	.L144:
 609              	.LBB161:
 610              		.loc 1 270 0
 611 03ba 4FF0000B 		mov	fp, #0
 612              	.LVL52:
 613              	.L47:
 614              	.LBB162:
 615              		.loc 1 271 0
 616 03be 5846     		mov	r0, fp
 617 03c0 FFF7FEFF 		bl	comm_can_get_status_msg_index
 618              	.LVL53:
 619              		.loc 1 273 0
 620 03c4 0268     		ldr	r2, [r0]
 621 03c6 002A     		cmp	r2, #0
 622              	.LBE162:
 623              		.loc 1 270 0
 624 03c8 0BF1010B 		add	fp, fp, #1
 625              	.LVL54:
 626              	.LBB169:
 627              		.loc 1 273 0
ARM GAS  C:\Users\CHRIST~1\AppData\Local\Temp\ccsd2ocY.s 			page 12


 628 03cc 1ADB     		blt	.L45
 629              	.LBB163:
 630              	.LBB164:
 631              	.LBB165:
 632              	.LBB166:
 633              		.loc 3 231 0 discriminator 1
 634 03ce BA6A     		ldr	r2, [r7, #40]
 635              	.LVL55:
 636              	.LBE166:
 637              	.LBE165:
 638              		.loc 3 267 0 discriminator 1
 639 03d0 4168     		ldr	r1, [r0, #4]
 640 03d2 521A     		subs	r2, r2, r1
 641              	.LBE164:
 642              	.LBE163:
 643              		.loc 1 273 0 discriminator 1
 644 03d4 07EE902A 		vmov	s15, r2	@ int
 645 03d8 F8EE677A 		vcvt.f32.u32	s15, s15
 646              	.LBB167:
 647              		.loc 1 276 0 discriminator 1
 648 03dc F0EEC86A 		vabs.f32	s13, s16
 649              	.LBE167:
 650              		.loc 1 273 0 discriminator 1
 651 03e0 87EEA97A 		vdiv.f32	s14, s15, s19
 652 03e4 B4EEC97A 		vcmpe.f32	s14, s18
 653 03e8 F1EE10FA 		vmrs	APSR_nzcv, FPSCR
 654 03ec 0AD5     		bpl	.L45
 655              	.LBB168:
 656              		.loc 1 274 0
 657 03ee D0ED027A 		vldr.32	s15, [r0, #8]
 658              	.LVL56:
 659              		.loc 1 276 0
 660 03f2 B0EEE77A 		vabs.f32	s14, s15
 661              		.loc 1 277 0
 662 03f6 B4EE667A 		vcmp.f32	s14, s13
 663 03fa F1EE10FA 		vmrs	APSR_nzcv, FPSCR
 664 03fe 48BF     		it	mi
 665 0400 B0EE678A 		vmovmi.f32	s16, s15
 666              	.LVL57:
 667              	.L45:
 668              	.LBE168:
 669              	.LBE169:
 670              		.loc 1 270 0 discriminator 2
 671 0404 BBF10A0F 		cmp	fp, #10
 672 0408 D9D1     		bne	.L47
 673 040a 4AE7     		b	.L44
 674              	.LVL58:
 675              	.L41:
 676              	.LBE161:
 677              		.loc 1 196 0
 678 040c 4FF0000A 		mov	r10, #0
 679              		.loc 1 195 0
 680 0410 CDF800A0 		str	r10, [sp]
 681              		.loc 1 194 0
 682 0414 DFED8EAA 		vldr.32	s21, .L156+4
 683 0418 31E7     		b	.L29
 684              	.LVL59:
ARM GAS  C:\Users\CHRIST~1\AppData\Local\Temp\ccsd2ocY.s 			page 13


 685              	.L143:
 686              	.LBB170:
 687              		.loc 1 258 0
 688 041a 8E4A     		ldr	r2, .L156+8
 689 041c 1868     		ldr	r0, [r3]
 690 041e 1168     		ldr	r1, [r2]
 691 0420 8842     		cmp	r0, r1
 692              		.loc 1 259 0
 693 0422 04BF     		itt	eq
 694 0424 0021     		moveq	r1, #0
 695 0426 1960     		streq	r1, [r3]
 696              		.loc 1 261 0
 697 0428 1B68     		ldr	r3, [r3]
 698 042a 1360     		str	r3, [r2]
 699              		.loc 1 262 0
 700 042c FFF7FEFF 		bl	timeout_get_brake_current
 701              	.LVL60:
 702 0430 FFF7FEFF 		bl	mc_interface_set_brake_current
 703              	.LVL61:
 704              		.loc 1 263 0
 705 0434 08E6     		b	.L2
 706              	.LVL62:
 707              	.L22:
 708              	.LBE170:
 709              		.loc 1 203 0 discriminator 3
 710 0436 F5EEC07A 		vcmpe.f32	s15, #0
 711 043a F1EE10FA 		vmrs	APSR_nzcv, FPSCR
 712 043e 00F1FB80 		bmi	.L148
 713              	.L25:
 714              		.loc 1 206 0
 715 0442 D9ED1EAA 		vldr.32	s21, [r9, #120]
 716 0446 F0EEEAAA 		vabs.f32	s21, s21
 717 044a 6AEEA7AA 		vmul.f32	s21, s21, s15
 718              	.LVL63:
 719 044e 04E7     		b	.L28
 720              	.LVL64:
 721              	.L136:
 722              		.loc 1 215 0
 723 0450 0122     		movs	r2, #1
 724 0452 0092     		str	r2, [sp]
 725 0454 13E7     		b	.L29
 726              	.LVL65:
 727              	.L134:
 728              		.loc 1 202 0
 729 0456 0123     		movs	r3, #1
 730 0458 0093     		str	r3, [sp]
 731              		.loc 1 196 0
 732 045a 4FF0000A 		mov	r10, #0
 733 045e 7B4B     		ldr	r3, .L156
 734 0460 0DE7     		b	.L29
 735              	.LVL66:
 736              	.L59:
 737              	.LBB171:
 738              		.loc 1 312 0
 739 0462 F1EE6AAA 		vneg.f32	s21, s21
 740              	.LVL67:
 741              		.loc 1 319 0
ARM GAS  C:\Users\CHRIST~1\AppData\Local\Temp\ccsd2ocY.s 			page 14


 742 0466 03F0FF0A 		and	r10, r3, #255
 743              	.LVL68:
 744 046a 6BB9     		cbnz	r3, .L149
 745              	.LVL69:
 746              	.L62:
 747              		.loc 1 355 0
 748 046c B1EE6A0A 		vneg.f32	s0, s21
 749 0470 FFF7FEFF 		bl	mc_interface_set_current
 750              	.LVL70:
 751 0474 E8E5     		b	.L2
 752              	.LVL71:
 753              	.L135:
 754              	.LBE171:
 755              		.loc 1 219 0
 756 0476 D9ED1EAA 		vldr.32	s21, [r9, #120]
 757 047a 67EEAAAA 		vmul.f32	s21, s15, s21
 758              		.loc 1 220 0
 759 047e 4FF0010A 		mov	r10, #1
 760              		.loc 1 219 0
 761 0482 F0EEEAAA 		vabs.f32	s21, s21
 762              	.LVL72:
 763 0486 38E7     		b	.L33
 764              	.LVL73:
 765              	.L149:
 766              	.LBB172:
 767              		.loc 1 314 0
 768 0488 B1EE4BBA 		vneg.f32	s22, s22
 769              	.LVL74:
 770              		.loc 1 315 0
 771 048c B1EE488A 		vneg.f32	s16, s16
 772              	.LVL75:
 773              		.loc 1 313 0
 774 0490 F0EE6ABA 		vmov.f32	s23, s21
 775              	.LVL76:
 776              	.L63:
 777              		.loc 1 313 0 is_stmt 0 discriminator 1
 778 0494 0025     		movs	r5, #0
 779 0496 27E0     		b	.L61
 780              	.LVL77:
 781              	.L152:
 782              	.LBB147:
 783              	.LBB143:
 784              	.LBB136:
 785              		.loc 1 325 0 is_stmt 1
 786 0498 90ED020A 		vldr.32	s0, [r0, #8]
 787              	.LVL78:
 788 049c 0090     		str	r0, [sp]
 789              		.loc 1 331 0
 790 049e 94ED0D1A 		vldr.32	s2, [r4, #52]
 791 04a2 DFED6B0A 		vldr.32	s1, .L156+4
 792              		.loc 1 326 0
 793 04a6 BAF1000F 		cmp	r10, #0
 794 04aa 62D0     		beq	.L67
 795              		.loc 1 327 0
 796 04ac B1EE400A 		vneg.f32	s0, s0
 797              	.LVL79:
 798              		.loc 1 331 0
ARM GAS  C:\Users\CHRIST~1\AppData\Local\Temp\ccsd2ocY.s 			page 15


 799 04b0 30EE480A 		vsub.f32	s0, s0, s16
 800              	.LVL80:
 801 04b4 B0EE682A 		vmov.f32	s4, s17
 802 04b8 F0EE6B1A 		vmov.f32	s3, s23
 803 04bc FFF7FEFF 		bl	utils_map
 804              	.LVL81:
 805              		.loc 1 332 0
 806 04c0 D9ED507A 		vldr.32	s15, [r9, #320]
 807 04c4 0098     		ldr	r0, [sp]
 808 04c6 B4EEE70A 		vcmpe.f32	s0, s15
 809 04ca F1EE10FA 		vmrs	APSR_nzcv, FPSCR
 810              		.loc 1 331 0
 811 04ce F0EE40AA 		vmov.f32	s21, s0
 812              	.LVL82:
 813 04d2 0168     		ldr	r1, [r0]
 814              		.loc 1 332 0
 815 04d4 00F1B780 		bmi	.L150
 816              	.LVL83:
 817              	.L70:
 818              	.LBE136:
 819              		.loc 1 338 0
 820 04d8 C8B2     		uxtb	r0, r1
 821 04da B1EE6A0A 		vneg.f32	s0, s21
 822 04de FFF7FEFF 		bl	comm_can_set_current
 823              	.LVL84:
 824              	.L64:
 825              	.LBE143:
 826              		.loc 1 320 0 discriminator 2
 827 04e2 0135     		adds	r5, r5, #1
 828              	.LVL85:
 829 04e4 0A2D     		cmp	r5, #10
 830 04e6 20D0     		beq	.L151
 831              	.LVL86:
 832              	.L61:
 833              	.LBB144:
 834              		.loc 1 321 0
 835 04e8 2846     		mov	r0, r5
 836 04ea FFF7FEFF 		bl	comm_can_get_status_msg_index
 837              	.LVL87:
 838              		.loc 1 323 0
 839 04ee 0168     		ldr	r1, [r0]
 840 04f0 0029     		cmp	r1, #0
 841 04f2 F6DB     		blt	.L64
 842              	.LVL88:
 843              	.LBB137:
 844              	.LBB138:
 845              	.LBB139:
 846              	.LBB140:
 847              		.loc 3 231 0 discriminator 1
 848 04f4 BB6A     		ldr	r3, [r7, #40]
 849              	.LVL89:
 850              	.LBE140:
 851              	.LBE139:
 852              		.loc 3 267 0 discriminator 1
 853 04f6 4268     		ldr	r2, [r0, #4]
 854 04f8 9B1A     		subs	r3, r3, r2
 855              	.LBE138:
ARM GAS  C:\Users\CHRIST~1\AppData\Local\Temp\ccsd2ocY.s 			page 16


 856              	.LBE137:
 857              		.loc 1 323 0 discriminator 1
 858 04fa 07EE903A 		vmov	s15, r3	@ int
 859 04fe F8EE677A 		vcvt.f32.u32	s15, s15
 860 0502 87EEA97A 		vdiv.f32	s14, s15, s19
 861 0506 B4EEC97A 		vcmpe.f32	s14, s18
 862 050a F1EE10FA 		vmrs	APSR_nzcv, FPSCR
 863 050e E8D5     		bpl	.L64
 864              		.loc 1 324 0
 865 0510 94F83130 		ldrb	r3, [r4, #49]	@ zero_extendqisi2
 866 0514 002B     		cmp	r3, #0
 867 0516 BFD1     		bne	.L152
 868              		.loc 1 337 0
 869 0518 BAF1000F 		cmp	r10, #0
 870 051c DCD1     		bne	.L70
 871              	.LVL90:
 872              	.L71:
 873              		.loc 1 340 0
 874 051e C8B2     		uxtb	r0, r1
 875 0520 B0EE6A0A 		vmov.f32	s0, s21
 876 0524 FFF7FEFF 		bl	comm_can_set_current
 877              	.LVL91:
 878 0528 DBE7     		b	.L64
 879              	.L151:
 880              	.LBE144:
 881              	.LBE147:
 882              		.loc 1 345 0
 883 052a 94F83130 		ldrb	r3, [r4, #49]	@ zero_extendqisi2
 884 052e 23B9     		cbnz	r3, .L153
 885              		.loc 1 354 0
 886 0530 BAF1000F 		cmp	r10, #0
 887 0534 3FF4CEAE 		beq	.L60
 888 0538 98E7     		b	.L62
 889              	.L153:
 890              	.LVL92:
 891              	.LBB148:
 892              		.loc 1 347 0
 893 053a 94ED0D1A 		vldr.32	s2, [r4, #52]
 894 053e DFED440A 		vldr.32	s1, .L156+4
 895 0542 F0EE6B1A 		vmov.f32	s3, s23
 896 0546 3BEE480A 		vsub.f32	s0, s22, s16
 897              	.LVL93:
 898 054a B0EE682A 		vmov.f32	s4, s17
 899 054e FFF7FEFF 		bl	utils_map
 900              	.LVL94:
 901              		.loc 1 348 0
 902 0552 D9ED507A 		vldr.32	s15, [r9, #320]
 903              		.loc 1 349 0
 904 0556 F4EE407A 		vcmp.f32	s15, s0
 905              		.loc 1 347 0
 906 055a F0EE40AA 		vmov.f32	s21, s0
 907              	.LVL95:
 908              		.loc 1 349 0
 909 055e F1EE10FA 		vmrs	APSR_nzcv, FPSCR
 910 0562 C8BF     		it	gt
 911 0564 F0EE68AA 		vmovgt.f32	s21, s17
 912              	.LVL96:
ARM GAS  C:\Users\CHRIST~1\AppData\Local\Temp\ccsd2ocY.s 			page 17


 913              	.LBE148:
 914              		.loc 1 354 0
 915 0568 BAF1000F 		cmp	r10, #0
 916 056c 3FF4B2AE 		beq	.L60
 917 0570 7CE7     		b	.L62
 918              	.LVL97:
 919              	.L67:
 920              	.LBB149:
 921              	.LBB145:
 922              	.LBB141:
 923              		.loc 1 331 0
 924 0572 30EE480A 		vsub.f32	s0, s0, s16
 925              	.LVL98:
 926 0576 B0EE682A 		vmov.f32	s4, s17
 927 057a F0EE6B1A 		vmov.f32	s3, s23
 928 057e FFF7FEFF 		bl	utils_map
 929              	.LVL99:
 930              		.loc 1 332 0
 931 0582 D9ED507A 		vldr.32	s15, [r9, #320]
 932 0586 0098     		ldr	r0, [sp]
 933 0588 B4EEE70A 		vcmpe.f32	s0, s15
 934 058c F1EE10FA 		vmrs	APSR_nzcv, FPSCR
 935              		.loc 1 331 0
 936 0590 F0EE40AA 		vmov.f32	s21, s0
 937              	.LVL100:
 938 0594 0168     		ldr	r1, [r0]
 939              		.loc 1 332 0
 940 0596 C2D5     		bpl	.L71
 941              		.loc 1 333 0
 942 0598 DFED2DAA 		vldr.32	s21, .L156+4
 943 059c BFE7     		b	.L71
 944              	.LVL101:
 945              	.L146:
 946              	.LBE141:
 947              	.LBE145:
 948              	.LBE149:
 949              	.LBE172:
 950              		.loc 1 297 0
 951 059e B0EE6A0A 		vmov.f32	s0, s21
 952 05a2 FFF7FEFF 		bl	mc_interface_set_brake_current
 953              	.LVL102:
 954              	.LBB173:
 955              		.loc 1 300 0
 956 05a6 0025     		movs	r5, #0
 957 05a8 02E0     		b	.L57
 958              	.LVL103:
 959              	.L55:
 960              		.loc 1 300 0 is_stmt 0 discriminator 2
 961 05aa 0A2D     		cmp	r5, #10
 962 05ac 3FF44CAD 		beq	.L2
 963              	.LVL104:
 964              	.L57:
 965              	.LBB174:
 966              		.loc 1 301 0 is_stmt 1
 967 05b0 2846     		mov	r0, r5
 968 05b2 FFF7FEFF 		bl	comm_can_get_status_msg_index
 969              	.LVL105:
ARM GAS  C:\Users\CHRIST~1\AppData\Local\Temp\ccsd2ocY.s 			page 18


 970              		.loc 1 303 0
 971 05b6 0268     		ldr	r2, [r0]
 972 05b8 002A     		cmp	r2, #0
 973              	.LBE174:
 974              		.loc 1 300 0
 975 05ba 05F10105 		add	r5, r5, #1
 976              	.LVL106:
 977              	.LBB179:
 978              		.loc 1 303 0
 979 05be F4DB     		blt	.L55
 980              	.LBB175:
 981              	.LBB176:
 982              		.loc 3 267 0 discriminator 1
 983 05c0 4168     		ldr	r1, [r0, #4]
 984              	.LBB177:
 985              	.LBB178:
 986              		.loc 3 231 0 discriminator 1
 987 05c2 BB6A     		ldr	r3, [r7, #40]
 988              	.LVL107:
 989              	.LBE178:
 990              	.LBE177:
 991              		.loc 3 267 0 discriminator 1
 992 05c4 5B1A     		subs	r3, r3, r1
 993              	.LBE176:
 994              	.LBE175:
 995              		.loc 1 303 0 discriminator 1
 996 05c6 07EE903A 		vmov	s15, r3	@ int
 997 05ca F8EE677A 		vcvt.f32.u32	s15, s15
 998 05ce 87EEA97A 		vdiv.f32	s14, s15, s19
 999 05d2 B4EEC97A 		vcmpe.f32	s14, s18
 1000 05d6 F1EE10FA 		vmrs	APSR_nzcv, FPSCR
 1001 05da E6D5     		bpl	.L55
 1002              		.loc 1 304 0
 1003 05dc D0B2     		uxtb	r0, r2
 1004              	.LVL108:
 1005 05de B0EE6A0A 		vmov.f32	s0, s21
 1006 05e2 FFF7FEFF 		bl	comm_can_set_current_brake
 1007              	.LVL109:
 1008 05e6 E0E7     		b	.L55
 1009              	.LVL110:
 1010              	.L145:
 1011              	.LBE179:
 1012              	.LBE173:
 1013              	.LBB180:
 1014              		.loc 1 284 0
 1015 05e8 FFF7FEFF 		bl	mc_interface_get_tot_current_directional_filtered
 1016              	.LVL111:
 1017              	.LBB181:
 1018              		.loc 1 286 0
 1019 05ec 0025     		movs	r5, #0
 1020              	.LVL112:
 1021              	.LBE181:
 1022              		.loc 1 284 0
 1023 05ee F0EE40BA 		vmov.f32	s23, s0
 1024              	.LVL113:
 1025 05f2 02E0     		b	.L51
 1026              	.LVL114:
ARM GAS  C:\Users\CHRIST~1\AppData\Local\Temp\ccsd2ocY.s 			page 19


 1027              	.L49:
 1028              	.LBB188:
 1029              		.loc 1 286 0 discriminator 2
 1030 05f4 0A2D     		cmp	r5, #10
 1031 05f6 3FF45AAE 		beq	.L48
 1032              	.LVL115:
 1033              	.L51:
 1034              	.LBB182:
 1035              		.loc 1 287 0
 1036 05fa 2846     		mov	r0, r5
 1037 05fc FFF7FEFF 		bl	comm_can_get_status_msg_index
 1038              	.LVL116:
 1039              		.loc 1 289 0
 1040 0600 0268     		ldr	r2, [r0]
 1041 0602 002A     		cmp	r2, #0
 1042              	.LBE182:
 1043              		.loc 1 286 0
 1044 0604 05F10105 		add	r5, r5, #1
 1045              	.LVL117:
 1046              	.LBB187:
 1047              		.loc 1 289 0
 1048 0608 F4DB     		blt	.L49
 1049              	.LBB183:
 1050              	.LBB184:
 1051              		.loc 3 267 0 discriminator 1
 1052 060a 4168     		ldr	r1, [r0, #4]
 1053              	.LBB185:
 1054              	.LBB186:
 1055              		.loc 3 231 0 discriminator 1
 1056 060c BB6A     		ldr	r3, [r7, #40]
 1057              	.LVL118:
 1058              	.LBE186:
 1059              	.LBE185:
 1060              		.loc 3 267 0 discriminator 1
 1061 060e 5B1A     		subs	r3, r3, r1
 1062              	.LBE184:
 1063              	.LBE183:
 1064              		.loc 1 289 0 discriminator 1
 1065 0610 07EE903A 		vmov	s15, r3	@ int
 1066 0614 F8EE677A 		vcvt.f32.u32	s15, s15
 1067 0618 87EEA97A 		vdiv.f32	s14, s15, s19
 1068 061c B4EEC97A 		vcmpe.f32	s14, s18
 1069 0620 F1EE10FA 		vmrs	APSR_nzcv, FPSCR
 1070 0624 E6D5     		bpl	.L49
 1071              		.loc 1 290 0
 1072 0626 D0B2     		uxtb	r0, r2
 1073              	.LVL119:
 1074 0628 B0EE6B0A 		vmov.f32	s0, s23
 1075 062c FFF7FEFF 		bl	comm_can_set_current
 1076              	.LVL120:
 1077 0630 E0E7     		b	.L49
 1078              	.LVL121:
 1079              	.L147:
 1080              	.LBE187:
 1081              	.LBE188:
 1082              	.LBE180:
 1083              	.LBB189:
ARM GAS  C:\Users\CHRIST~1\AppData\Local\Temp\ccsd2ocY.s 			page 20


 1084              		.loc 1 319 0
 1085 0632 F0EE6ABA 		vmov.f32	s23, s21
 1086 0636 2DE7     		b	.L63
 1087              	.LVL122:
 1088              	.L148:
 1089              	.LBE189:
 1090              		.loc 1 203 0 discriminator 4
 1091 0638 B5EEC08A 		vcmpe.f32	s16, #0
 1092 063c F1EE10FA 		vmrs	APSR_nzcv, FPSCR
 1093 0640 7FF5FFAE 		bpl	.L25
 1094 0644 05E6     		b	.L24
 1095              	.LVL123:
 1096              	.L150:
 1097              	.LBB190:
 1098              	.LBB150:
 1099              	.LBB146:
 1100              	.LBB142:
 1101              		.loc 1 333 0
 1102 0646 DFED02AA 		vldr.32	s21, .L156+4
 1103 064a 45E7     		b	.L70
 1104              	.L157:
 1105              		.align	2
 1106              	.L156:
 1107 064c 00000000 		.word	.LANCHOR5
 1108 0650 00000000 		.word	0
 1109 0654 00000000 		.word	.LANCHOR8
 1110              	.LBE142:
 1111              	.LBE146:
 1112              	.LBE150:
 1113              	.LBE190:
 1114              	.LBE192:
 1115              		.cfi_endproc
 1116              	.LFE262:
 1117              		.size	ppm_thread, .-ppm_thread
 1118              		.section	.text.servodec_func,"ax",%progbits
 1119              		.align	1
 1120              		.p2align 4,,15
 1121              		.syntax unified
 1122              		.thumb
 1123              		.thumb_func
 1124              		.fpu fpv4-sp-d16
 1125              		.type	servodec_func, %function
 1126              	servodec_func:
 1127              	.LFB260:
 1128              		.loc 1 107 0
 1129              		.cfi_startproc
 1130              		@ args = 0, pretend = 0, frame = 0
 1131              		@ frame_needed = 0, uses_anonymous_args = 0
 1132              	.LVL124:
 1133 0000 08B5     		push	{r3, lr}
 1134              		.cfi_def_cfa_offset 8
 1135              		.cfi_offset 3, -8
 1136              		.cfi_offset 14, -4
 1137              	.LBB193:
 1138              	.LBB194:
 1139              	.LBB195:
 1140              	.LBB196:
ARM GAS  C:\Users\CHRIST~1\AppData\Local\Temp\ccsd2ocY.s 			page 21


 1141              	.LBB197:
 1142              		.file 4 "ChibiOS_3.0.2/os/ext/CMSIS/include/core_cmFunc.h"
 1143              		.loc 4 546 0
 1144 0002 2023     		movs	r3, #32
 1145              		.syntax unified
 1146              	@ 546 "ChibiOS_3.0.2/os/ext/CMSIS/include/core_cmFunc.h" 1
 1147 0004 83F31188 		MSR basepri, r3
 1148              	@ 0 "" 2
 1149              	.LVL125:
 1150              		.thumb
 1151              		.syntax unified
 1152              	.LBE197:
 1153              	.LBE196:
 1154              	.LBE195:
 1155              	.LBE194:
 1156              	.LBE193:
 1157              		.loc 1 109 0
 1158 0008 FFF7FEFF 		bl	timeout_reset
 1159              	.LVL126:
 1160              		.loc 1 110 0
 1161 000c 044B     		ldr	r3, .L160
 1162 000e 0121     		movs	r1, #1
 1163 0010 1868     		ldr	r0, [r3]
 1164 0012 FFF7FEFF 		bl	chEvtSignalI
 1165              	.LVL127:
 1166              	.LBB198:
 1167              	.LBB199:
 1168              	.LBB200:
 1169              	.LBB201:
 1170              	.LBB202:
 1171              		.loc 4 546 0
 1172 0016 0023     		movs	r3, #0
 1173              		.syntax unified
 1174              	@ 546 "ChibiOS_3.0.2/os/ext/CMSIS/include/core_cmFunc.h" 1
 1175 0018 83F31188 		MSR basepri, r3
 1176              	@ 0 "" 2
 1177              	.LVL128:
 1178              		.thumb
 1179              		.syntax unified
 1180              	.LBE202:
 1181              	.LBE201:
 1182              	.LBE200:
 1183              	.LBE199:
 1184              	.LBE198:
 1185              		.loc 1 112 0
 1186 001c 08BD     		pop	{r3, pc}
 1187              	.L161:
 1188 001e 00BF     		.align	2
 1189              	.L160:
 1190 0020 00000000 		.word	.LANCHOR0
 1191              		.cfi_endproc
 1192              	.LFE260:
 1193              		.size	servodec_func, .-servodec_func
 1194              		.section	.text.update,"ax",%progbits
 1195              		.align	1
 1196              		.p2align 4,,15
 1197              		.syntax unified
ARM GAS  C:\Users\CHRIST~1\AppData\Local\Temp\ccsd2ocY.s 			page 22


 1198              		.thumb
 1199              		.thumb_func
 1200              		.fpu fpv4-sp-d16
 1201              		.type	update, %function
 1202              	update:
 1203              	.LFB261:
 1204              		.loc 1 114 0
 1205              		.cfi_startproc
 1206              		@ args = 0, pretend = 0, frame = 0
 1207              		@ frame_needed = 0, uses_anonymous_args = 0
 1208              	.LVL129:
 1209              		.loc 1 115 0
 1210 0000 0E4B     		ldr	r3, .L176
 1211 0002 1B78     		ldrb	r3, [r3]	@ zero_extendqisi2
 1212 0004 03B9     		cbnz	r3, .L175
 1213 0006 7047     		bx	lr
 1214              	.L175:
 1215              		.loc 1 114 0
 1216 0008 10B5     		push	{r4, lr}
 1217              		.cfi_def_cfa_offset 8
 1218              		.cfi_offset 4, -8
 1219              		.cfi_offset 14, -4
 1220              	.LBB219:
 1221              	.LBB220:
 1222              	.LBB221:
 1223              	.LBB222:
 1224              	.LBB223:
 1225              	.LBB224:
 1226              	.LBB225:
 1227              		.loc 4 546 0
 1228 000a 2023     		movs	r3, #32
 1229 000c 0446     		mov	r4, r0
 1230              	.LVL130:
 1231              		.syntax unified
 1232              	@ 546 "ChibiOS_3.0.2/os/ext/CMSIS/include/core_cmFunc.h" 1
 1233 000e 83F31188 		MSR basepri, r3
 1234              	@ 0 "" 2
 1235              	.LVL131:
 1236              		.thumb
 1237              		.syntax unified
 1238              	.LBE225:
 1239              	.LBE224:
 1240              	.LBE223:
 1241              	.LBE222:
 1242              	.LBE221:
 1243              	.LBB226:
 1244              	.LBB227:
 1245              	.LBB228:
 1246              	.LBB229:
 1247              		.loc 3 376 0
 1248 0012 0B48     		ldr	r0, .L176+4
 1249              	.LVL132:
 1250 0014 C368     		ldr	r3, [r0, #12]
 1251 0016 0BB1     		cbz	r3, .L164
 1252              		.loc 3 377 0
 1253 0018 FFF7FEFF 		bl	chVTDoResetI
 1254              	.LVL133:
ARM GAS  C:\Users\CHRIST~1\AppData\Local\Temp\ccsd2ocY.s 			page 23


 1255              	.L164:
 1256              	.LBE229:
 1257              	.LBE228:
 1258              		.loc 3 424 0
 1259 001c 2346     		mov	r3, r4
 1260 001e 094A     		ldr	r2, .L176+8
 1261 0020 0748     		ldr	r0, .L176+4
 1262 0022 1421     		movs	r1, #20
 1263 0024 FFF7FEFF 		bl	chVTDoSetI
 1264              	.LVL134:
 1265              	.LBE227:
 1266              	.LBE226:
 1267              		.loc 1 121 0
 1268 0028 074B     		ldr	r3, .L176+12
 1269 002a 0121     		movs	r1, #1
 1270 002c 1868     		ldr	r0, [r3]
 1271 002e FFF7FEFF 		bl	chEvtSignalI
 1272              	.LVL135:
 1273              	.LBB230:
 1274              	.LBB231:
 1275              	.LBB232:
 1276              	.LBB233:
 1277              	.LBB234:
 1278              		.loc 4 546 0
 1279 0032 0023     		movs	r3, #0
 1280              		.syntax unified
 1281              	@ 546 "ChibiOS_3.0.2/os/ext/CMSIS/include/core_cmFunc.h" 1
 1282 0034 83F31188 		MSR basepri, r3
 1283              	@ 0 "" 2
 1284              	.LVL136:
 1285              		.thumb
 1286              		.syntax unified
 1287              	.LBE234:
 1288              	.LBE233:
 1289              	.LBE232:
 1290              	.LBE231:
 1291              	.LBE230:
 1292              	.LBE220:
 1293              	.LBE219:
 1294              		.loc 1 123 0
 1295 0038 10BD     		pop	{r4, pc}
 1296              	.LVL137:
 1297              	.L177:
 1298 003a 00BF     		.align	2
 1299              	.L176:
 1300 003c 00000000 		.word	.LANCHOR2
 1301 0040 00000000 		.word	.LANCHOR9
 1302 0044 00000000 		.word	update
 1303 0048 00000000 		.word	.LANCHOR0
 1304              		.cfi_endproc
 1305              	.LFE261:
 1306              		.size	update, .-update
 1307              		.section	.text.app_ppm_configure,"ax",%progbits
 1308              		.align	1
 1309              		.p2align 4,,15
 1310              		.global	app_ppm_configure
 1311              		.syntax unified
ARM GAS  C:\Users\CHRIST~1\AppData\Local\Temp\ccsd2ocY.s 			page 24


 1312              		.thumb
 1313              		.thumb_func
 1314              		.fpu fpv4-sp-d16
 1315              		.type	app_ppm_configure, %function
 1316              	app_ppm_configure:
 1317              	.LFB256:
 1318              		.loc 1 59 0
 1319              		.cfi_startproc
 1320              		@ args = 0, pretend = 0, frame = 0
 1321              		@ frame_needed = 0, uses_anonymous_args = 0
 1322              		@ link register save eliminated.
 1323              	.LVL138:
 1324 0000 F0B4     		push	{r4, r5, r6, r7}
 1325              		.cfi_def_cfa_offset 16
 1326              		.cfi_offset 4, -16
 1327              		.cfi_offset 5, -12
 1328              		.cfi_offset 6, -8
 1329              		.cfi_offset 7, -4
 1330              		.loc 1 61 0
 1331 0002 0546     		mov	r5, r0
 1332 0004 0FCD     		ldmia	r5!, {r0, r1, r2, r3}
 1333              	.LVL139:
 1334 0006 0D4E     		ldr	r6, .L182
 1335              		.loc 1 62 0
 1336 0008 0D4F     		ldr	r7, .L182+4
 1337              		.loc 1 61 0
 1338 000a 3446     		mov	r4, r6
 1339 000c 0FC4     		stmia	r4!, {r0, r1, r2, r3}
 1340 000e 0FCD     		ldmia	r5!, {r0, r1, r2, r3}
 1341              	.LVL140:
 1342 0010 0FC4     		stmia	r4!, {r0, r1, r2, r3}
 1343 0012 0FCD     		ldmia	r5!, {r0, r1, r2, r3}
 1344              	.LVL141:
 1345 0014 0FC4     		stmia	r4!, {r0, r1, r2, r3}
 1346 0016 95E80300 		ldm	r5, {r0, r1}
 1347 001a 84E80300 		stm	r4, {r0, r1}
 1348              		.loc 1 62 0
 1349 001e 0022     		movs	r2, #0
 1350              		.loc 1 64 0
 1351 0020 084B     		ldr	r3, .L182+8
 1352              		.loc 1 62 0
 1353 0022 3A60     		str	r2, [r7]
 1354              		.loc 1 64 0
 1355 0024 1B78     		ldrb	r3, [r3]	@ zero_extendqisi2
 1356 0026 0BB9     		cbnz	r3, .L181
 1357              		.loc 1 70 0
 1358 0028 F0BC     		pop	{r4, r5, r6, r7}
 1359              		.cfi_remember_state
 1360              		.cfi_restore 7
 1361              		.cfi_restore 6
 1362              		.cfi_restore 5
 1363              		.cfi_restore 4
 1364              		.cfi_def_cfa_offset 0
 1365              	.LVL142:
 1366 002a 7047     		bx	lr
 1367              	.L181:
 1368              		.cfi_restore_state
ARM GAS  C:\Users\CHRIST~1\AppData\Local\Temp\ccsd2ocY.s 			page 25


 1369              		.loc 1 65 0
 1370 002c 96ED030A 		vldr.32	s0, [r6, #12]
 1371 0030 D6ED040A 		vldr.32	s1, [r6, #16]
 1372 0034 307E     		ldrb	r0, [r6, #24]	@ zero_extendqisi2
 1373              		.loc 1 70 0
 1374 0036 F0BC     		pop	{r4, r5, r6, r7}
 1375              		.cfi_restore 7
 1376              		.cfi_restore 6
 1377              		.cfi_restore 5
 1378              		.cfi_restore 4
 1379              		.cfi_def_cfa_offset 0
 1380              		.loc 1 65 0
 1381 0038 FFF7FEBF 		b	servodec_set_pulse_options
 1382              	.LVL143:
 1383              	.L183:
 1384              		.align	2
 1385              	.L182:
 1386 003c 00000000 		.word	.LANCHOR1
 1387 0040 00000000 		.word	.LANCHOR5
 1388 0044 00000000 		.word	.LANCHOR2
 1389              		.cfi_endproc
 1390              	.LFE256:
 1391              		.size	app_ppm_configure, .-app_ppm_configure
 1392              		.section	.text.app_ppm_start,"ax",%progbits
 1393              		.align	1
 1394              		.p2align 4,,15
 1395              		.global	app_ppm_start
 1396              		.syntax unified
 1397              		.thumb
 1398              		.thumb_func
 1399              		.fpu fpv4-sp-d16
 1400              		.type	app_ppm_start, %function
 1401              	app_ppm_start:
 1402              	.LFB257:
 1403              		.loc 1 72 0
 1404              		.cfi_startproc
 1405              		@ args = 0, pretend = 0, frame = 0
 1406              		@ frame_needed = 0, uses_anonymous_args = 0
 1407 0000 30B5     		push	{r4, r5, lr}
 1408              		.cfi_def_cfa_offset 12
 1409              		.cfi_offset 4, -12
 1410              		.cfi_offset 5, -8
 1411              		.cfi_offset 14, -4
 1412 0002 83B0     		sub	sp, sp, #12
 1413              		.cfi_def_cfa_offset 24
 1414              		.loc 1 74 0
 1415 0004 0024     		movs	r4, #0
 1416 0006 0E4D     		ldr	r5, .L190
 1417              		.loc 1 75 0
 1418 0008 0E4B     		ldr	r3, .L190+4
 1419 000a 0094     		str	r4, [sp]
 1420 000c 4022     		movs	r2, #64
 1421 000e 4FF4B361 		mov	r1, #1432
 1422 0012 0D48     		ldr	r0, .L190+8
 1423              		.loc 1 74 0
 1424 0014 2C70     		strb	r4, [r5]
 1425              		.loc 1 75 0
ARM GAS  C:\Users\CHRIST~1\AppData\Local\Temp\ccsd2ocY.s 			page 26


 1426 0016 FFF7FEFF 		bl	chThdCreateStatic
 1427              	.LVL144:
 1428              	.LBB248:
 1429              	.LBB249:
 1430              	.LBB250:
 1431              	.LBB251:
 1432              		.loc 4 546 0
 1433 001a 2023     		movs	r3, #32
 1434              		.syntax unified
 1435              	@ 546 "ChibiOS_3.0.2/os/ext/CMSIS/include/core_cmFunc.h" 1
 1436 001c 83F31188 		MSR basepri, r3
 1437              	@ 0 "" 2
 1438              	.LVL145:
 1439              		.thumb
 1440              		.syntax unified
 1441              	.LBE251:
 1442              	.LBE250:
 1443              	.LBE249:
 1444              	.LBE248:
 1445              	.LBB252:
 1446              	.LBB253:
 1447              	.LBB254:
 1448              	.LBB255:
 1449              		.loc 3 376 0
 1450 0020 0A48     		ldr	r0, .L190+12
 1451 0022 C368     		ldr	r3, [r0, #12]
 1452 0024 0BB1     		cbz	r3, .L185
 1453              		.loc 3 377 0
 1454 0026 FFF7FEFF 		bl	chVTDoResetI
 1455              	.LVL146:
 1456              	.L185:
 1457              	.LBE255:
 1458              	.LBE254:
 1459              		.loc 3 424 0
 1460 002a 0023     		movs	r3, #0
 1461 002c 084A     		ldr	r2, .L190+16
 1462 002e 0748     		ldr	r0, .L190+12
 1463 0030 0A21     		movs	r1, #10
 1464 0032 FFF7FEFF 		bl	chVTDoSetI
 1465              	.LVL147:
 1466              	.LBE253:
 1467              	.LBE252:
 1468              	.LBB256:
 1469              	.LBB257:
 1470              	.LBB258:
 1471              	.LBB259:
 1472              	.LBB260:
 1473              		.loc 4 546 0
 1474 0036 0023     		movs	r3, #0
 1475              		.syntax unified
 1476              	@ 546 "ChibiOS_3.0.2/os/ext/CMSIS/include/core_cmFunc.h" 1
 1477 0038 83F31188 		MSR basepri, r3
 1478              	@ 0 "" 2
 1479              	.LVL148:
 1480              		.thumb
 1481              		.syntax unified
 1482              	.LBE260:
ARM GAS  C:\Users\CHRIST~1\AppData\Local\Temp\ccsd2ocY.s 			page 27


 1483              	.LBE259:
 1484              	.LBE258:
 1485              	.LBE257:
 1486              	.LBE256:
 1487              		.loc 1 81 0
 1488 003c 03B0     		add	sp, sp, #12
 1489              		.cfi_def_cfa_offset 12
 1490              		@ sp needed
 1491 003e 30BD     		pop	{r4, r5, pc}
 1492              	.L191:
 1493              		.align	2
 1494              	.L190:
 1495 0040 00000000 		.word	.LANCHOR3
 1496 0044 00000000 		.word	ppm_thread
 1497 0048 00000000 		.word	.LANCHOR10
 1498 004c 00000000 		.word	.LANCHOR9
 1499 0050 00000000 		.word	update
 1500              		.cfi_endproc
 1501              	.LFE257:
 1502              		.size	app_ppm_start, .-app_ppm_start
 1503              		.section	.text.app_ppm_stop,"ax",%progbits
 1504              		.align	1
 1505              		.p2align 4,,15
 1506              		.global	app_ppm_stop
 1507              		.syntax unified
 1508              		.thumb
 1509              		.thumb_func
 1510              		.fpu fpv4-sp-d16
 1511              		.type	app_ppm_stop, %function
 1512              	app_ppm_stop:
 1513              	.LFB258:
 1514              		.loc 1 83 0
 1515              		.cfi_startproc
 1516              		@ args = 0, pretend = 0, frame = 0
 1517              		@ frame_needed = 0, uses_anonymous_args = 0
 1518              		.loc 1 85 0
 1519 0000 0A4B     		ldr	r3, .L206
 1520              		.loc 1 83 0
 1521 0002 10B5     		push	{r4, lr}
 1522              		.cfi_def_cfa_offset 8
 1523              		.cfi_offset 4, -8
 1524              		.cfi_offset 14, -4
 1525              		.loc 1 85 0
 1526 0004 0121     		movs	r1, #1
 1527              		.loc 1 87 0
 1528 0006 0A4C     		ldr	r4, .L206+4
 1529              		.loc 1 85 0
 1530 0008 1970     		strb	r1, [r3]
 1531              		.loc 1 87 0
 1532 000a 2378     		ldrb	r3, [r4]	@ zero_extendqisi2
 1533 000c 1BB1     		cbz	r3, .L204
 1534 000e 06E0     		b	.L205
 1535              	.L195:
 1536              		.loc 1 93 0
 1537 0010 0A20     		movs	r0, #10
 1538 0012 FFF7FEFF 		bl	chThdSleep
 1539              	.LVL149:
ARM GAS  C:\Users\CHRIST~1\AppData\Local\Temp\ccsd2ocY.s 			page 28


 1540              	.L204:
 1541              		.loc 1 92 0
 1542 0016 2378     		ldrb	r3, [r4]	@ zero_extendqisi2
 1543 0018 002B     		cmp	r3, #0
 1544 001a F9D1     		bne	.L195
 1545              		.loc 1 96 0
 1546 001c 10BD     		pop	{r4, pc}
 1547              	.L205:
 1548              		.loc 1 88 0
 1549 001e 054B     		ldr	r3, .L206+8
 1550 0020 1868     		ldr	r0, [r3]
 1551 0022 FFF7FEFF 		bl	chEvtSignalI
 1552              	.LVL150:
 1553              		.loc 1 89 0
 1554 0026 FFF7FEFF 		bl	servodec_stop
 1555              	.LVL151:
 1556 002a F4E7     		b	.L204
 1557              	.L207:
 1558              		.align	2
 1559              	.L206:
 1560 002c 00000000 		.word	.LANCHOR3
 1561 0030 00000000 		.word	.LANCHOR2
 1562 0034 00000000 		.word	.LANCHOR0
 1563              		.cfi_endproc
 1564              	.LFE258:
 1565              		.size	app_ppm_stop, .-app_ppm_stop
 1566              		.section	.text.app_ppm_get_decoded_level,"ax",%progbits
 1567              		.align	1
 1568              		.p2align 4,,15
 1569              		.global	app_ppm_get_decoded_level
 1570              		.syntax unified
 1571              		.thumb
 1572              		.thumb_func
 1573              		.fpu fpv4-sp-d16
 1574              		.type	app_ppm_get_decoded_level, %function
 1575              	app_ppm_get_decoded_level:
 1576              	.LFB259:
 1577              		.loc 1 98 0
 1578              		.cfi_startproc
 1579              		@ args = 0, pretend = 0, frame = 0
 1580              		@ frame_needed = 0, uses_anonymous_args = 0
 1581              		@ link register save eliminated.
 1582              		.loc 1 100 0
 1583 0000 014B     		ldr	r3, .L209
 1584              		.loc 1 104 0
 1585 0002 93ED000A 		vldr.32	s0, [r3]
 1586 0006 7047     		bx	lr
 1587              	.L210:
 1588              		.align	2
 1589              	.L209:
 1590 0008 00000000 		.word	.LANCHOR4
 1591              		.cfi_endproc
 1592              	.LFE259:
 1593              		.size	app_ppm_get_decoded_level, .-app_ppm_get_decoded_level
 1594              		.global	vt
 1595              		.section	.bss.config,"aw",%nobits
 1596              		.align	2
ARM GAS  C:\Users\CHRIST~1\AppData\Local\Temp\ccsd2ocY.s 			page 29


 1597              		.set	.LANCHOR1,. + 0
 1598              		.type	config, %object
 1599              		.size	config, 56
 1600              	config:
 1601 0000 00000000 		.space	56
 1601      00000000 
 1601      00000000 
 1601      00000000 
 1601      00000000 
 1602              		.section	.bss.input_val,"aw",%nobits
 1603              		.align	2
 1604              		.set	.LANCHOR4,. + 0
 1605              		.type	input_val, %object
 1606              		.size	input_val, 4
 1607              	input_val:
 1608 0000 00000000 		.space	4
 1609              		.section	.bss.is_running,"aw",%nobits
 1610              		.set	.LANCHOR2,. + 0
 1611              		.type	is_running, %object
 1612              		.size	is_running, 1
 1613              	is_running:
 1614 0000 00       		.space	1
 1615              		.section	.bss.last_time.11512,"aw",%nobits
 1616              		.align	2
 1617              		.set	.LANCHOR7,. + 0
 1618              		.type	last_time.11512, %object
 1619              		.size	last_time.11512, 4
 1620              	last_time.11512:
 1621 0000 00000000 		.space	4
 1622              		.section	.bss.ppm_thread_wa,"aw",%nobits
 1623              		.align	3
 1624              		.set	.LANCHOR10,. + 0
 1625              		.type	ppm_thread_wa, %object
 1626              		.size	ppm_thread_wa, 1432
 1627              	ppm_thread_wa:
 1628 0000 00000000 		.space	1432
 1628      00000000 
 1628      00000000 
 1628      00000000 
 1628      00000000 
 1629              		.section	.bss.ppm_tp,"aw",%nobits
 1630              		.align	2
 1631              		.set	.LANCHOR0,. + 0
 1632              		.type	ppm_tp, %object
 1633              		.size	ppm_tp, 4
 1634              	ppm_tp:
 1635 0000 00000000 		.space	4
 1636              		.section	.bss.pulses_without_power,"aw",%nobits
 1637              		.align	2
 1638              		.set	.LANCHOR5,. + 0
 1639              		.type	pulses_without_power, %object
 1640              		.size	pulses_without_power, 4
 1641              	pulses_without_power:
 1642 0000 00000000 		.space	4
 1643              		.section	.bss.pulses_without_power_before.11529,"aw",%nobits
 1644              		.align	2
 1645              		.set	.LANCHOR8,. + 0
ARM GAS  C:\Users\CHRIST~1\AppData\Local\Temp\ccsd2ocY.s 			page 30


 1646              		.type	pulses_without_power_before.11529, %object
 1647              		.size	pulses_without_power_before.11529, 4
 1648              	pulses_without_power_before.11529:
 1649 0000 00000000 		.space	4
 1650              		.section	.bss.servo_val_ramp.11513,"aw",%nobits
 1651              		.align	2
 1652              		.set	.LANCHOR6,. + 0
 1653              		.type	servo_val_ramp.11513, %object
 1654              		.size	servo_val_ramp.11513, 4
 1655              	servo_val_ramp.11513:
 1656 0000 00000000 		.space	4
 1657              		.section	.bss.vt,"aw",%nobits
 1658              		.align	2
 1659              		.set	.LANCHOR9,. + 0
 1660              		.type	vt, %object
 1661              		.size	vt, 20
 1662              	vt:
 1663 0000 00000000 		.space	20
 1663      00000000 
 1663      00000000 
 1663      00000000 
 1663      00000000 
 1664              		.section	.data.stop_now,"aw",%progbits
 1665              		.set	.LANCHOR3,. + 0
 1666              		.type	stop_now, %object
 1667              		.size	stop_now, 1
 1668              	stop_now:
 1669 0000 01       		.byte	1
 1670              		.section	.rodata.ppm_thread.str1.4,"aMS",%progbits,1
 1671              		.align	2
 1672              	.LC0:
 1673 0000 4150505F 		.ascii	"APP_PPM\000"
 1673      50504D00 
 1674              		.text
 1675              	.Letext0:
 1676              		.file 5 "c:\\program files (x86)\\gnu tools arm embedded\\7 2017-q4-major\\arm-none-eabi\\include\
 1677              		.file 6 "c:\\program files (x86)\\gnu tools arm embedded\\7 2017-q4-major\\arm-none-eabi\\include\
 1678              		.file 7 "c:\\program files (x86)\\gnu tools arm embedded\\7 2017-q4-major\\lib\\gcc\\arm-none-eabi
 1679              		.file 8 "ChibiOS_3.0.2/os/rt/ports/ARMCMx/compilers/GCC/chtypes.h"
 1680              		.file 9 "ChibiOS_3.0.2/os/rt/include/chsystypes.h"
 1681              		.file 10 "ChibiOS_3.0.2/os/rt/include/chschd.h"
 1682              		.file 11 "ChibiOS_3.0.2/os/ext/CMSIS/include/core_cm4.h"
 1683              		.file 12 "ChibiOS_3.0.2/os/ext/CMSIS/ST/system_stm32f4xx.h"
 1684              		.file 13 "ChibiOS_3.0.2/os/ext/CMSIS/ST/stm32f407xx.h"
 1685              		.file 14 "ChibiOS_3.0.2/os/rt/ports/ARMCMx/chcore.h"
 1686              		.file 15 "ChibiOS_3.0.2/os/rt/ports/ARMCMx/chcore_v7m.h"
 1687              		.file 16 "ChibiOS_3.0.2/os/rt/include/chtm.h"
 1688              		.file 17 "ChibiOS_3.0.2/os/rt/include/chsem.h"
 1689              		.file 18 "ChibiOS_3.0.2/os/rt/include/chmtx.h"
 1690              		.file 19 "ChibiOS_3.0.2/os/rt/include/chevents.h"
 1691              		.file 20 "ChibiOS_3.0.2/os/rt/include/chqueues.h"
 1692              		.file 21 "./datatypes.h"
 1693              		.file 22 "./conf_general.h"
 1694              		.file 23 "ChibiOS_3.0.2/os/hal/ports/STM32/STM32F4xx/stm32_dma.h"
 1695              		.file 24 "ChibiOS_3.0.2/os/hal/ports/STM32/LLD/GPIOv2/pal_lld.h"
 1696              		.file 25 "ChibiOS_3.0.2/os/hal/include/can.h"
 1697              		.file 26 "ChibiOS_3.0.2/os/hal/ports/STM32/LLD/can_lld.h"
ARM GAS  C:\Users\CHRIST~1\AppData\Local\Temp\ccsd2ocY.s 			page 31


 1698              		.file 27 "ChibiOS_3.0.2/os/hal/include/i2c.h"
 1699              		.file 28 "ChibiOS_3.0.2/os/hal/ports/STM32/LLD/I2Cv1/i2c_lld.h"
 1700              		.file 29 "ChibiOS_3.0.2/os/hal/include/icu.h"
 1701              		.file 30 "ChibiOS_3.0.2/os/hal/ports/STM32/LLD/TIMv1/icu_lld.h"
 1702              		.file 31 "ChibiOS_3.0.2/os/hal/ports/STM32/LLD/TIMv1/stm32_tim.h"
 1703              		.file 32 "ChibiOS_3.0.2/os/hal/include/spi.h"
 1704              		.file 33 "ChibiOS_3.0.2/os/hal/ports/STM32/LLD/SPIv1/spi_lld.h"
 1705              		.file 34 "ChibiOS_3.0.2/os/hal/include/uart.h"
 1706              		.file 35 "ChibiOS_3.0.2/os/hal/ports/STM32/LLD/USARTv1/uart_lld.h"
 1707              		.file 36 "ChibiOS_3.0.2/os/hal/include/usb.h"
 1708              		.file 37 "ChibiOS_3.0.2/os/hal/ports/STM32/LLD/OTGv1/usb_lld.h"
 1709              		.file 38 "ChibiOS_3.0.2/os/hal/ports/STM32/LLD/OTGv1/stm32_otg.h"
 1710              		.file 39 "./mc_interface.h"
 1711              		.file 40 "c:\\program files (x86)\\gnu tools arm embedded\\7 2017-q4-major\\arm-none-eabi\\include
 1712              		.file 41 "c:\\program files (x86)\\gnu tools arm embedded\\7 2017-q4-major\\arm-none-eabi\\include
 1713              		.file 42 "c:\\program files (x86)\\gnu tools arm embedded\\7 2017-q4-major\\arm-none-eabi\\include
 1714              		.file 43 "c:\\program files (x86)\\gnu tools arm embedded\\7 2017-q4-major\\arm-none-eabi\\include
 1715              		.file 44 "ChibiOS_3.0.2/os/rt/include/chsys.h"
 1716              		.file 45 "ChibiOS_3.0.2/os/rt/include/chthreads.h"
 1717              		.file 46 "./utils.h"
 1718              		.file 47 "./timeout.h"
 1719              		.file 48 "./comm_can.h"
 1720              		.file 49 "./servo_dec.h"