ARM GAS  C:\Users\CHRIST~1\AppData\Local\Temp\ccu8H79a.s 			page 1


   1              		.cpu cortex-m4
   2              		.eabi_attribute 27, 1
   3              		.eabi_attribute 28, 1
   4              		.eabi_attribute 20, 1
   5              		.eabi_attribute 21, 1
   6              		.eabi_attribute 23, 3
   7              		.eabi_attribute 24, 1
   8              		.eabi_attribute 25, 1
   9              		.eabi_attribute 26, 1
  10              		.eabi_attribute 30, 2
  11              		.eabi_attribute 34, 1
  12              		.eabi_attribute 18, 4
  13              		.file	"commands.c"
  14              		.text
  15              	.Ltext0:
  16              		.cfi_sections	.debug_frame
  17              		.section	.text.detect_thread,"ax",%progbits
  18              		.align	1
  19              		.p2align 4,,15
  20              		.syntax unified
  21              		.thumb
  22              		.thumb_func
  23              		.fpu fpv4-sp-d16
  24              		.type	detect_thread, %function
  25              	detect_thread:
  26              	.LFB270:
  27              		.file 1 "commands.c"
  28              		.loc 1 1001 0
  29              		.cfi_startproc
  30              		@ Volatile: function does not return.
  31              		@ args = 0, pretend = 0, frame = 16
  32              		@ frame_needed = 0, uses_anonymous_args = 0
  33              	.LVL0:
  34 0000 2DE98048 		push	{r7, fp, lr}
  35              		.cfi_def_cfa_offset 12
  36              		.cfi_offset 7, -12
  37              		.cfi_offset 11, -8
  38              		.cfi_offset 14, -4
  39              	.LBB66:
  40              	.LBB67:
  41              		.file 2 "ChibiOS_3.0.2/os/rt/include/chregistry.h"
  42              		.loc 2 135 0
  43 0004 354B     		ldr	r3, .L13
  44              	.LBE67:
  45              	.LBE66:
  46              		.loc 1 1006 0
  47 0006 364A     		ldr	r2, .L13+4
  48              	.LBB70:
  49              	.LBB68:
  50              		.loc 2 135 0
  51 0008 9B69     		ldr	r3, [r3, #24]
  52 000a 364D     		ldr	r5, .L13+8
  53 000c 3649     		ldr	r1, .L13+12
  54 000e 374E     		ldr	r6, .L13+16
  55 0010 DFF8F0B0 		ldr	fp, .L13+40
  56 0014 DFF8F4A0 		ldr	r10, .L13+48
  57 0018 DFF8F490 		ldr	r9, .L13+52
ARM GAS  C:\Users\CHRIST~1\AppData\Local\Temp\ccu8H79a.s 			page 2


  58 001c DFF8F480 		ldr	r8, .L13+56
  59 0020 9FED338A 		vldr.32	s16, .L13+20
  60              	.LBE68:
  61              	.LBE70:
  62              	.LBB71:
  63              		.loc 1 1014 0
  64 0024 DFED338A 		vldr.32	s17, .L13+24
  65              	.LBE71:
  66              	.LBB74:
  67              	.LBB69:
  68              		.loc 2 135 0
  69 0028 9961     		str	r1, [r3, #24]
  70              	.LVL1:
  71              	.LBE69:
  72              	.LBE74:
  73              		.loc 1 1001 0
  74 002a 85B0     		sub	sp, sp, #20
  75              		.cfi_def_cfa_offset 32
  76              		.loc 1 1006 0
  77 002c 1360     		str	r3, [r2]
  78              	.LBB75:
  79              		.loc 1 1020 0
  80 002e 2C46     		mov	r4, r5
  81 0030 37E0     		b	.L6
  82              	.LVL2:
  83              	.L12:
  84 0032 DBED007A 		vldr.32	s15, [fp]
  85 0036 67EE887A 		vmul.f32	s15, s15, s16
  86 003a FDEEE77A 		vcvt.s32.f32	s15, s15
  87 003e CDED017A 		vstr.32	s15, [sp, #4]	@ int
  88              	.L3:
  89              		.loc 1 1019 0
  90 0042 0120     		movs	r0, #1
  91 0044 1823     		movs	r3, #24
  92              		.loc 1 1020 0
  93 0046 03AA     		add	r2, sp, #12
  94 0048 0199     		ldr	r1, [sp, #4]
  95              		.loc 1 1019 0
  96 004a 0390     		str	r0, [sp, #12]
  97              		.loc 1 1020 0
  98 004c 2046     		mov	r0, r4
  99              		.loc 1 1019 0
 100 004e 2B70     		strb	r3, [r5]
 101              		.loc 1 1020 0
 102 0050 FFF7FEFF 		bl	buffer_append_int32
 103              	.LVL3:
 104              		.loc 1 1021 0
 105 0054 D6ED007A 		vldr.32	s15, [r6]
 106              		.loc 1 1024 0
 107 0058 274F     		ldr	r7, .L13+28
 108              		.loc 1 1021 0
 109 005a 67EE887A 		vmul.f32	s15, s15, s16
 110 005e 03AA     		add	r2, sp, #12
 111 0060 FDEEE77A 		vcvt.s32.f32	s15, s15
 112 0064 2046     		mov	r0, r4
 113 0066 17EE901A 		vmov	r1, s15	@ int
 114 006a FFF7FEFF 		bl	buffer_append_int32
ARM GAS  C:\Users\CHRIST~1\AppData\Local\Temp\ccu8H79a.s 			page 3


 115              	.LVL4:
 116              		.loc 1 1022 0
 117 006e DFF890C0 		ldr	ip, .L13+36
 118 0072 039B     		ldr	r3, [sp, #12]
 119              		.loc 1 1026 0
 120 0074 214A     		ldr	r2, .L13+32
 121              		.loc 1 1024 0
 122 0076 D7F800E0 		ldr	lr, [r7]
 123              		.loc 1 1026 0
 124 007a 1268     		ldr	r2, [r2]
 125              		.loc 1 1024 0
 126 007c 8DF804E0 		strb	lr, [sp, #4]
 127              		.loc 1 1022 0
 128 0080 BCE80300 		ldmia	ip!, {r0, r1}
 129 0084 05EB030C 		add	ip, r5, r3
 130 0088 E850     		str	r0, [r5, r3]	@ unaligned
 131              		.loc 1 1024 0
 132 008a 5FFA8EF7 		uxtb	r7, lr
 133 008e 0933     		adds	r3, r3, #9
 134              		.loc 1 1022 0
 135 0090 CCF80410 		str	r1, [ip, #4]	@ unaligned
 136              		.loc 1 1027 0
 137 0094 2046     		mov	r0, r4
 138              		.loc 1 1024 0
 139 0096 0393     		str	r3, [sp, #12]
 140              		.loc 1 1027 0
 141 0098 1946     		mov	r1, r3
 142              		.loc 1 1024 0
 143 009a 8CF80870 		strb	r7, [ip, #8]
 144              		.loc 1 1026 0
 145 009e BAB1     		cbz	r2, .L4
 146              		.loc 1 1027 0
 147 00a0 9047     		blx	r2
 148              	.LVL5:
 149              	.L6:
 150              		.loc 1 1009 0
 151 00a2 0120     		movs	r0, #1
 152 00a4 FFF7FEFF 		bl	chEvtWaitAny
 153              	.LVL6:
 154              		.loc 1 1011 0
 155 00a8 134B     		ldr	r3, .L13+28
 156 00aa 154A     		ldr	r2, .L13+36
 157 00ac 0F49     		ldr	r1, .L13+16
 158 00ae 1548     		ldr	r0, .L13+40
 159 00b0 9AED001A 		vldr.32	s2, [r10]
 160 00b4 D9ED000A 		vldr.32	s1, [r9]
 161 00b8 98ED000A 		vldr.32	s0, [r8]
 162 00bc FFF7FEFF 		bl	conf_general_detect_motor_param
 163              	.LVL7:
 164 00c0 0028     		cmp	r0, #0
 165 00c2 B6D1     		bne	.L12
 166              		.loc 1 1014 0
 167 00c4 CBED008A 		vstr.32	s17, [fp]
 168              		.loc 1 1015 0
 169 00c8 C6ED008A 		vstr.32	s17, [r6]
 170 00cc 0190     		str	r0, [sp, #4]
 171 00ce B8E7     		b	.L3
ARM GAS  C:\Users\CHRIST~1\AppData\Local\Temp\ccu8H79a.s 			page 4


 172              	.L4:
 173              	.LVL8:
 174              	.LBB72:
 175              	.LBB73:
 176              		.loc 1 91 0
 177 00d0 0D4B     		ldr	r3, .L13+44
 178 00d2 1B68     		ldr	r3, [r3]
 179 00d4 002B     		cmp	r3, #0
 180 00d6 E4D0     		beq	.L6
 181              		.loc 1 92 0
 182 00d8 9847     		blx	r3
 183              	.LVL9:
 184              	.LBE73:
 185              	.LBE72:
 186              	.LBE75:
 187              		.loc 1 1008 0
 188 00da E2E7     		b	.L6
 189              	.L14:
 190              		.align	2
 191              	.L13:
 192 00dc 00000000 		.word	ch
 193 00e0 00000000 		.word	.LANCHOR0
 194 00e4 00000000 		.word	.LANCHOR8
 195 00e8 00000000 		.word	.LC0
 196 00ec 00000000 		.word	.LANCHOR3
 197 00f0 00007A44 		.word	1148846080
 198 00f4 00000000 		.word	0
 199 00f8 00000000 		.word	.LANCHOR1
 200 00fc 00000000 		.word	.LANCHOR9
 201 0100 00000000 		.word	.LANCHOR2
 202 0104 00000000 		.word	.LANCHOR4
 203 0108 00000000 		.word	.LANCHOR10
 204 010c 00000000 		.word	.LANCHOR5
 205 0110 00000000 		.word	.LANCHOR6
 206 0114 00000000 		.word	.LANCHOR7
 207              		.cfi_endproc
 208              	.LFE270:
 209              		.size	detect_thread, .-detect_thread
 210              		.section	.text.commands_init,"ax",%progbits
 211              		.align	1
 212              		.p2align 4,,15
 213              		.global	commands_init
 214              		.syntax unified
 215              		.thumb
 216              		.thumb_func
 217              		.fpu fpv4-sp-d16
 218              		.type	commands_init, %function
 219              	commands_init:
 220              	.LFB259:
 221              		.loc 1 67 0
 222              		.cfi_startproc
 223              		@ args = 0, pretend = 0, frame = 0
 224              		@ frame_needed = 0, uses_anonymous_args = 0
 225 0000 00B5     		push	{lr}
 226              		.cfi_def_cfa_offset 4
 227              		.cfi_offset 14, -4
 228 0002 83B0     		sub	sp, sp, #12
ARM GAS  C:\Users\CHRIST~1\AppData\Local\Temp\ccu8H79a.s 			page 5


 229              		.cfi_def_cfa_offset 16
 230              		.loc 1 68 0
 231 0004 0023     		movs	r3, #0
 232 0006 0093     		str	r3, [sp]
 233 0008 4022     		movs	r2, #64
 234 000a 044B     		ldr	r3, .L17
 235 000c 0448     		ldr	r0, .L17+4
 236 000e 40F69811 		movw	r1, #2456
 237 0012 FFF7FEFF 		bl	chThdCreateStatic
 238              	.LVL10:
 239              		.loc 1 69 0
 240 0016 03B0     		add	sp, sp, #12
 241              		.cfi_def_cfa_offset 4
 242              		@ sp needed
 243 0018 5DF804FB 		ldr	pc, [sp], #4
 244              	.L18:
 245              		.align	2
 246              	.L17:
 247 001c 00000000 		.word	detect_thread
 248 0020 00000000 		.word	.LANCHOR11
 249              		.cfi_endproc
 250              	.LFE259:
 251              		.size	commands_init, .-commands_init
 252              		.section	.text.commands_set_send_func,"ax",%progbits
 253              		.align	1
 254              		.p2align 4,,15
 255              		.global	commands_set_send_func
 256              		.syntax unified
 257              		.thumb
 258              		.thumb_func
 259              		.fpu fpv4-sp-d16
 260              		.type	commands_set_send_func, %function
 261              	commands_set_send_func:
 262              	.LFB260:
 263              		.loc 1 77 0
 264              		.cfi_startproc
 265              		@ args = 0, pretend = 0, frame = 0
 266              		@ frame_needed = 0, uses_anonymous_args = 0
 267              		@ link register save eliminated.
 268              	.LVL11:
 269              		.loc 1 78 0
 270 0000 014B     		ldr	r3, .L20
 271 0002 1860     		str	r0, [r3]
 272              		.loc 1 79 0
 273 0004 7047     		bx	lr
 274              	.L21:
 275 0006 00BF     		.align	2
 276              	.L20:
 277 0008 00000000 		.word	.LANCHOR10
 278              		.cfi_endproc
 279              	.LFE260:
 280              		.size	commands_set_send_func, .-commands_set_send_func
 281              		.section	.text.commands_send_packet,"ax",%progbits
 282              		.align	1
 283              		.p2align 4,,15
 284              		.global	commands_send_packet
 285              		.syntax unified
ARM GAS  C:\Users\CHRIST~1\AppData\Local\Temp\ccu8H79a.s 			page 6


 286              		.thumb
 287              		.thumb_func
 288              		.fpu fpv4-sp-d16
 289              		.type	commands_send_packet, %function
 290              	commands_send_packet:
 291              	.LFB261:
 292              		.loc 1 90 0
 293              		.cfi_startproc
 294              		@ args = 0, pretend = 0, frame = 0
 295              		@ frame_needed = 0, uses_anonymous_args = 0
 296              		@ link register save eliminated.
 297              	.LVL12:
 298              		.loc 1 91 0
 299 0000 024B     		ldr	r3, .L24
 300 0002 1B68     		ldr	r3, [r3]
 301 0004 03B1     		cbz	r3, .L22
 302              		.loc 1 92 0
 303 0006 1847     		bx	r3	@ indirect register sibling call
 304              	.LVL13:
 305              	.L22:
 306              		.loc 1 94 0
 307 0008 7047     		bx	lr
 308              	.L25:
 309 000a 00BF     		.align	2
 310              	.L24:
 311 000c 00000000 		.word	.LANCHOR10
 312              		.cfi_endproc
 313              	.LFE261:
 314              		.size	commands_send_packet, .-commands_send_packet
 315              		.section	.text.commands_printf,"ax",%progbits
 316              		.align	1
 317              		.p2align 4,,15
 318              		.global	commands_printf
 319              		.syntax unified
 320              		.thumb
 321              		.thumb_func
 322              		.fpu fpv4-sp-d16
 323              		.type	commands_printf, %function
 324              	commands_printf:
 325              	.LFB263:
 326              		.loc 1 862 0
 327              		.cfi_startproc
 328              		@ args = 4, pretend = 16, frame = 8
 329              		@ frame_needed = 0, uses_anonymous_args = 1
 330              	.LVL14:
 331 0000 0FB4     		push	{r0, r1, r2, r3}
 332              		.cfi_def_cfa_offset 16
 333              		.cfi_offset 0, -16
 334              		.cfi_offset 1, -12
 335              		.cfi_offset 2, -8
 336              		.cfi_offset 3, -4
 337 0002 10B5     		push	{r4, lr}
 338              		.cfi_def_cfa_offset 24
 339              		.cfi_offset 4, -24
 340              		.cfi_offset 14, -20
 341              		.loc 1 868 0
 342 0004 0E4C     		ldr	r4, .L32
ARM GAS  C:\Users\CHRIST~1\AppData\Local\Temp\ccu8H79a.s 			page 7


 343              		.loc 1 862 0
 344 0006 82B0     		sub	sp, sp, #8
 345              		.cfi_def_cfa_offset 32
 346              		.loc 1 862 0
 347 0008 04AB     		add	r3, sp, #16
 348              		.loc 1 868 0
 349 000a 2046     		mov	r0, r4
 350 000c 1521     		movs	r1, #21
 351              		.loc 1 862 0
 352 000e 53F8042B 		ldr	r2, [r3], #4
 353              		.loc 1 868 0
 354 0012 00F8011B 		strb	r1, [r0], #1
 355              		.loc 1 869 0
 356 0016 FE21     		movs	r1, #254
 357              		.loc 1 864 0
 358 0018 0193     		str	r3, [sp, #4]
 359              		.loc 1 869 0
 360 001a FFF7FEFF 		bl	vsnprintf
 361              	.LVL15:
 362              		.loc 1 872 0
 363 001e 0028     		cmp	r0, #0
 364 0020 08DD     		ble	.L26
 365              	.LBB76:
 366              	.LBB77:
 367              		.loc 1 91 0
 368 0022 084B     		ldr	r3, .L32+4
 369              	.LBE77:
 370              	.LBE76:
 371              		.loc 1 873 0
 372 0024 FE28     		cmp	r0, #254
 373              	.LBB80:
 374              	.LBB78:
 375              		.loc 1 91 0
 376 0026 1B68     		ldr	r3, [r3]
 377              	.LBE78:
 378              	.LBE80:
 379              		.loc 1 873 0
 380 0028 A8BF     		it	ge
 381 002a FE20     		movge	r0, #254
 382              	.LVL16:
 383 002c 411C     		adds	r1, r0, #1
 384              	.LVL17:
 385              	.LBB81:
 386              	.LBB79:
 387              		.loc 1 91 0
 388 002e 0BB1     		cbz	r3, .L26
 389              		.loc 1 92 0
 390 0030 2046     		mov	r0, r4
 391 0032 9847     		blx	r3
 392              	.LVL18:
 393              	.L26:
 394              	.LBE79:
 395              	.LBE81:
 396              		.loc 1 875 0
 397 0034 02B0     		add	sp, sp, #8
 398              		.cfi_def_cfa_offset 24
 399              		@ sp needed
ARM GAS  C:\Users\CHRIST~1\AppData\Local\Temp\ccu8H79a.s 			page 8


 400 0036 BDE81040 		pop	{r4, lr}
 401              		.cfi_restore 14
 402              		.cfi_restore 4
 403              		.cfi_def_cfa_offset 16
 404 003a 04B0     		add	sp, sp, #16
 405              		.cfi_restore 3
 406              		.cfi_restore 2
 407              		.cfi_restore 1
 408              		.cfi_restore 0
 409              		.cfi_def_cfa_offset 0
 410 003c 7047     		bx	lr
 411              	.L33:
 412 003e 00BF     		.align	2
 413              	.L32:
 414 0040 00000000 		.word	.LANCHOR12
 415 0044 00000000 		.word	.LANCHOR10
 416              		.cfi_endproc
 417              	.LFE263:
 418              		.size	commands_printf, .-commands_printf
 419              		.section	.text.commands_send_rotor_pos,"ax",%progbits
 420              		.align	1
 421              		.p2align 4,,15
 422              		.global	commands_send_rotor_pos
 423              		.syntax unified
 424              		.thumb
 425              		.thumb_func
 426              		.fpu fpv4-sp-d16
 427              		.type	commands_send_rotor_pos, %function
 428              	commands_send_rotor_pos:
 429              	.LFB264:
 430              		.loc 1 877 0
 431              		.cfi_startproc
 432              		@ args = 0, pretend = 0, frame = 16
 433              		@ frame_needed = 0, uses_anonymous_args = 0
 434              	.LVL19:
 435 0000 10B5     		push	{r4, lr}
 436              		.cfi_def_cfa_offset 8
 437              		.cfi_offset 4, -8
 438              		.cfi_offset 14, -4
 439              		.loc 1 882 0
 440 0002 DFED0D7A 		vldr.32	s15, .L40
 441 0006 20EE270A 		vmul.f32	s0, s0, s15
 442              	.LVL20:
 443              		.loc 1 877 0
 444 000a 84B0     		sub	sp, sp, #16
 445              		.cfi_def_cfa_offset 24
 446              		.loc 1 882 0
 447 000c FDEEC07A 		vcvt.s32.f32	s15, s0
 448              		.loc 1 881 0
 449 0010 1623     		movs	r3, #22
 450              		.loc 1 882 0
 451 0012 17EE901A 		vmov	r1, s15	@ int
 452 0016 02A8     		add	r0, sp, #8
 453              		.loc 1 881 0
 454 0018 0124     		movs	r4, #1
 455              		.loc 1 882 0
 456 001a 01AA     		add	r2, sp, #4
ARM GAS  C:\Users\CHRIST~1\AppData\Local\Temp\ccu8H79a.s 			page 9


 457              		.loc 1 881 0
 458 001c 8DF80830 		strb	r3, [sp, #8]
 459 0020 0194     		str	r4, [sp, #4]
 460              		.loc 1 882 0
 461 0022 FFF7FEFF 		bl	buffer_append_int32
 462              	.LVL21:
 463              	.LBB82:
 464              	.LBB83:
 465              		.loc 1 91 0
 466 0026 054B     		ldr	r3, .L40+4
 467              	.LBE83:
 468              	.LBE82:
 469              		.loc 1 884 0
 470 0028 0199     		ldr	r1, [sp, #4]
 471              	.LVL22:
 472              	.LBB85:
 473              	.LBB84:
 474              		.loc 1 91 0
 475 002a 1B68     		ldr	r3, [r3]
 476 002c 0BB1     		cbz	r3, .L34
 477              		.loc 1 92 0
 478 002e 02A8     		add	r0, sp, #8
 479              	.LVL23:
 480 0030 9847     		blx	r3
 481              	.LVL24:
 482              	.L34:
 483              	.LBE84:
 484              	.LBE85:
 485              		.loc 1 885 0
 486 0032 04B0     		add	sp, sp, #16
 487              		.cfi_def_cfa_offset 8
 488              		@ sp needed
 489 0034 10BD     		pop	{r4, pc}
 490              	.L41:
 491 0036 00BF     		.align	2
 492              	.L40:
 493 0038 0050C347 		.word	1203982336
 494 003c 00000000 		.word	.LANCHOR10
 495              		.cfi_endproc
 496              	.LFE264:
 497              		.size	commands_send_rotor_pos, .-commands_send_rotor_pos
 498              		.section	.text.commands_send_experiment_samples,"ax",%progbits
 499              		.align	1
 500              		.p2align 4,,15
 501              		.global	commands_send_experiment_samples
 502              		.syntax unified
 503              		.thumb
 504              		.thumb_func
 505              		.fpu fpv4-sp-d16
 506              		.type	commands_send_experiment_samples, %function
 507              	commands_send_experiment_samples:
 508              	.LFB265:
 509              		.loc 1 887 0
 510              		.cfi_startproc
 511              		@ args = 0, pretend = 0, frame = 8
 512              		@ frame_needed = 1, uses_anonymous_args = 0
 513              	.LVL25:
ARM GAS  C:\Users\CHRIST~1\AppData\Local\Temp\ccu8H79a.s 			page 10


 514 0000 2DE9F041 		push	{r4, r5, r6, r7, r8, lr}
 515              		.cfi_def_cfa_offset 24
 516              		.cfi_offset 4, -24
 517              		.cfi_offset 5, -20
 518              		.cfi_offset 6, -16
 519              		.cfi_offset 7, -12
 520              		.cfi_offset 8, -8
 521              		.cfi_offset 14, -4
 522 0004 2DED028B 		vpush.64	{d8}
 523              		.cfi_def_cfa_offset 32
 524              		.cfi_offset 80, -32
 525              		.cfi_offset 81, -28
 526              		.loc 1 888 0
 527 0008 8D00     		lsls	r5, r1, #2
 528              		.loc 1 887 0
 529 000a 82B0     		sub	sp, sp, #8
 530              		.cfi_def_cfa_offset 40
 531              		.loc 1 888 0
 532 000c FF2D     		cmp	r5, #255
 533              		.loc 1 887 0
 534 000e 00AF     		add	r7, sp, #0
 535              		.cfi_def_cfa_register 7
 536              		.loc 1 888 0
 537 0010 27DC     		bgt	.L42
 538              	.LVL26:
 539              		.loc 1 892 0
 540 0012 05F10803 		add	r3, r5, #8
 541 0016 23F00703 		bic	r3, r3, #7
 542 001a E846     		mov	r8, sp
 543 001c ADEB030D 		sub	sp, sp, r3
 544              		.loc 1 895 0
 545 0020 1722     		movs	r2, #23
 546 0022 0123     		movs	r3, #1
 547              	.LBB86:
 548              		.loc 1 897 0
 549 0024 0029     		cmp	r1, #0
 550              	.LBE86:
 551              		.loc 1 895 0
 552 0026 8DF80020 		strb	r2, [sp]
 553              		.loc 1 892 0
 554 002a 6E46     		mov	r6, sp
 555              	.LVL27:
 556              		.loc 1 895 0
 557 002c 7B60     		str	r3, [r7, #4]
 558              	.LBB87:
 559              		.loc 1 897 0
 560 002e 1EDD     		ble	.L48
 561              		.loc 1 898 0
 562 0030 9FED108A 		vldr.32	s16, .L54
 563 0034 0446     		mov	r4, r0
 564 0036 0544     		add	r5, r5, r0
 565              	.LVL28:
 566              	.L45:
 567              		.loc 1 898 0 is_stmt 0 discriminator 3
 568 0038 F4EC017A 		vldmia.32	r4!, {s15}
 569 003c 67EE887A 		vmul.f32	s15, s15, s16
 570 0040 3A1D     		adds	r2, r7, #4
ARM GAS  C:\Users\CHRIST~1\AppData\Local\Temp\ccu8H79a.s 			page 11


 571 0042 FDEEE77A 		vcvt.s32.f32	s15, s15
 572 0046 3046     		mov	r0, r6
 573 0048 17EE901A 		vmov	r1, s15	@ int
 574 004c FFF7FEFF 		bl	buffer_append_int32
 575              	.LVL29:
 576              		.loc 1 897 0 is_stmt 1 discriminator 3
 577 0050 A542     		cmp	r5, r4
 578 0052 F1D1     		bne	.L45
 579 0054 7968     		ldr	r1, [r7, #4]
 580              	.L44:
 581              	.LVL30:
 582              	.LBE87:
 583              	.LBB88:
 584              	.LBB89:
 585              		.loc 1 91 0
 586 0056 084B     		ldr	r3, .L54+4
 587 0058 1B68     		ldr	r3, [r3]
 588 005a 0BB1     		cbz	r3, .L46
 589              		.loc 1 92 0
 590 005c 3046     		mov	r0, r6
 591 005e 9847     		blx	r3
 592              	.LVL31:
 593              	.L46:
 594 0060 C546     		mov	sp, r8
 595              	.LVL32:
 596              	.L42:
 597              	.LBE89:
 598              	.LBE88:
 599              		.loc 1 902 0
 600 0062 0837     		adds	r7, r7, #8
 601              		.cfi_remember_state
 602              		.cfi_def_cfa_offset 32
 603 0064 BD46     		mov	sp, r7
 604              		.cfi_def_cfa_register 13
 605              		@ sp needed
 606 0066 BDEC028B 		vldm	sp!, {d8}
 607              		.cfi_restore 80
 608              		.cfi_restore 81
 609              		.cfi_def_cfa_offset 24
 610 006a BDE8F081 		pop	{r4, r5, r6, r7, r8, pc}
 611              	.LVL33:
 612              	.L48:
 613              		.cfi_restore_state
 614              	.LBB90:
 615              		.loc 1 897 0
 616 006e 1946     		mov	r1, r3
 617              	.LVL34:
 618 0070 F1E7     		b	.L44
 619              	.L55:
 620 0072 00BF     		.align	2
 621              	.L54:
 622 0074 00401C46 		.word	1176256512
 623 0078 00000000 		.word	.LANCHOR10
 624              	.LBE90:
 625              		.cfi_endproc
 626              	.LFE265:
 627              		.size	commands_send_experiment_samples, .-commands_send_experiment_samples
ARM GAS  C:\Users\CHRIST~1\AppData\Local\Temp\ccu8H79a.s 			page 12


 628              		.section	.text.commands_get_disp_pos_mode,"ax",%progbits
 629              		.align	1
 630              		.p2align 4,,15
 631              		.global	commands_get_disp_pos_mode
 632              		.syntax unified
 633              		.thumb
 634              		.thumb_func
 635              		.fpu fpv4-sp-d16
 636              		.type	commands_get_disp_pos_mode, %function
 637              	commands_get_disp_pos_mode:
 638              	.LFB266:
 639              		.loc 1 904 0
 640              		.cfi_startproc
 641              		@ args = 0, pretend = 0, frame = 0
 642              		@ frame_needed = 0, uses_anonymous_args = 0
 643              		@ link register save eliminated.
 644              		.loc 1 905 0
 645 0000 014B     		ldr	r3, .L57
 646              		.loc 1 906 0
 647 0002 1878     		ldrb	r0, [r3]	@ zero_extendqisi2
 648 0004 7047     		bx	lr
 649              	.L58:
 650 0006 00BF     		.align	2
 651              	.L57:
 652 0008 00000000 		.word	.LANCHOR13
 653              		.cfi_endproc
 654              	.LFE266:
 655              		.size	commands_get_disp_pos_mode, .-commands_get_disp_pos_mode
 656              		.section	.text.commands_set_app_data_handler,"ax",%progbits
 657              		.align	1
 658              		.p2align 4,,15
 659              		.global	commands_set_app_data_handler
 660              		.syntax unified
 661              		.thumb
 662              		.thumb_func
 663              		.fpu fpv4-sp-d16
 664              		.type	commands_set_app_data_handler, %function
 665              	commands_set_app_data_handler:
 666              	.LFB267:
 667              		.loc 1 908 0
 668              		.cfi_startproc
 669              		@ args = 0, pretend = 0, frame = 0
 670              		@ frame_needed = 0, uses_anonymous_args = 0
 671              		@ link register save eliminated.
 672              	.LVL35:
 673              		.loc 1 909 0
 674 0000 014B     		ldr	r3, .L60
 675 0002 1860     		str	r0, [r3]
 676              		.loc 1 910 0
 677 0004 7047     		bx	lr
 678              	.L61:
 679 0006 00BF     		.align	2
 680              	.L60:
 681 0008 00000000 		.word	.LANCHOR14
 682              		.cfi_endproc
 683              	.LFE267:
 684              		.size	commands_set_app_data_handler, .-commands_set_app_data_handler
ARM GAS  C:\Users\CHRIST~1\AppData\Local\Temp\ccu8H79a.s 			page 13


 685              		.section	.text.commands_send_app_data,"ax",%progbits
 686              		.align	1
 687              		.p2align 4,,15
 688              		.global	commands_send_app_data
 689              		.syntax unified
 690              		.thumb
 691              		.thumb_func
 692              		.fpu fpv4-sp-d16
 693              		.type	commands_send_app_data, %function
 694              	commands_send_app_data:
 695              	.LFB268:
 696              		.loc 1 912 0
 697              		.cfi_startproc
 698              		@ args = 0, pretend = 0, frame = 0
 699              		@ frame_needed = 0, uses_anonymous_args = 0
 700              	.LVL36:
 701 0000 70B5     		push	{r4, r5, r6, lr}
 702              		.cfi_def_cfa_offset 16
 703              		.cfi_offset 4, -16
 704              		.cfi_offset 5, -12
 705              		.cfi_offset 6, -8
 706              		.cfi_offset 14, -4
 707              		.loc 1 915 0
 708 0002 0A4D     		ldr	r5, .L65
 709              		.loc 1 912 0
 710 0004 0246     		mov	r2, r0
 711              		.loc 1 915 0
 712 0006 2846     		mov	r0, r5
 713              	.LVL37:
 714 0008 2423     		movs	r3, #36
 715              		.loc 1 912 0
 716 000a 0C46     		mov	r4, r1
 717              		.loc 1 915 0
 718 000c 00F8013B 		strb	r3, [r0], #1
 719              		.loc 1 916 0
 720 0010 1146     		mov	r1, r2
 721              	.LVL38:
 722 0012 2246     		mov	r2, r4
 723              	.LVL39:
 724 0014 FFF7FEFF 		bl	memcpy
 725              	.LVL40:
 726              	.LBB91:
 727              	.LBB92:
 728              		.loc 1 91 0
 729 0018 054B     		ldr	r3, .L65+4
 730 001a 1B68     		ldr	r3, [r3]
 731              	.LVL41:
 732 001c 23B1     		cbz	r3, .L62
 733 001e 611C     		adds	r1, r4, #1
 734              	.LVL42:
 735              		.loc 1 92 0
 736 0020 2846     		mov	r0, r5
 737              	.LBE92:
 738              	.LBE91:
 739              		.loc 1 920 0
 740 0022 BDE87040 		pop	{r4, r5, r6, lr}
 741              		.cfi_remember_state
ARM GAS  C:\Users\CHRIST~1\AppData\Local\Temp\ccu8H79a.s 			page 14


 742              		.cfi_restore 14
 743              		.cfi_restore 6
 744              		.cfi_restore 5
 745              		.cfi_restore 4
 746              		.cfi_def_cfa_offset 0
 747              	.LVL43:
 748              	.LBB94:
 749              	.LBB93:
 750              		.loc 1 92 0
 751 0026 1847     		bx	r3	@ indirect register sibling call
 752              	.LVL44:
 753              	.L62:
 754              		.cfi_restore_state
 755              	.LBE93:
 756              	.LBE94:
 757              		.loc 1 920 0
 758 0028 70BD     		pop	{r4, r5, r6, pc}
 759              	.LVL45:
 760              	.L66:
 761 002a 00BF     		.align	2
 762              	.L65:
 763 002c 00000000 		.word	.LANCHOR8
 764 0030 00000000 		.word	.LANCHOR10
 765              		.cfi_endproc
 766              	.LFE268:
 767              		.size	commands_send_app_data, .-commands_send_app_data
 768              		.section	.text.commands_send_appconf,"ax",%progbits
 769              		.align	1
 770              		.p2align 4,,15
 771              		.global	commands_send_appconf
 772              		.syntax unified
 773              		.thumb
 774              		.thumb_func
 775              		.fpu fpv4-sp-d16
 776              		.type	commands_send_appconf, %function
 777              	commands_send_appconf:
 778              	.LFB269:
 779              		.loc 1 922 0
 780              		.cfi_startproc
 781              		@ args = 0, pretend = 0, frame = 8
 782              		@ frame_needed = 0, uses_anonymous_args = 0
 783              	.LVL46:
 784 0000 F0B5     		push	{r4, r5, r6, r7, lr}
 785              		.cfi_def_cfa_offset 20
 786              		.cfi_offset 4, -20
 787              		.cfi_offset 5, -16
 788              		.cfi_offset 6, -12
 789              		.cfi_offset 7, -8
 790              		.cfi_offset 14, -4
 791              		.loc 1 924 0
 792 0002 AF4D     		ldr	r5, .L73
 793              		.loc 1 922 0
 794 0004 83B0     		sub	sp, sp, #12
 795              		.cfi_def_cfa_offset 32
 796              		.loc 1 925 0
 797 0006 02AE     		add	r6, sp, #8
 798              		.loc 1 924 0
ARM GAS  C:\Users\CHRIST~1\AppData\Local\Temp\ccu8H79a.s 			page 15


 799 0008 2870     		strb	r0, [r5]
 800              		.loc 1 925 0
 801 000a 0222     		movs	r2, #2
 802 000c 46F8042D 		str	r2, [r6, #-4]!
 803 0010 0B78     		ldrb	r3, [r1]	@ zero_extendqisi2
 804 0012 6B70     		strb	r3, [r5, #1]
 805              		.loc 1 922 0
 806 0014 0C46     		mov	r4, r1
 807              		.loc 1 926 0
 808 0016 3246     		mov	r2, r6
 809 0018 4968     		ldr	r1, [r1, #4]
 810              	.LVL47:
 811 001a 2846     		mov	r0, r5
 812              	.LVL48:
 813 001c FFF7FEFF 		bl	buffer_append_uint32
 814              	.LVL49:
 815              		.loc 1 927 0
 816 0020 3146     		mov	r1, r6
 817 0022 94ED020A 		vldr.32	s0, [r4, #8]
 818 0026 2846     		mov	r0, r5
 819 0028 FFF7FEFF 		bl	buffer_append_float32_auto
 820              	.LVL50:
 821              		.loc 1 928 0
 822 002c 019B     		ldr	r3, [sp, #4]
 823 002e 227B     		ldrb	r2, [r4, #12]	@ zero_extendqisi2
 824 0030 EA54     		strb	r2, [r5, r3]
 825              		.loc 1 929 0
 826 0032 2846     		mov	r0, r5
 827              		.loc 1 928 0
 828 0034 0133     		adds	r3, r3, #1
 829              		.loc 1 929 0
 830 0036 3246     		mov	r2, r6
 831 0038 218A     		ldrh	r1, [r4, #16]
 832              		.loc 1 928 0
 833 003a 0193     		str	r3, [sp, #4]
 834              		.loc 1 929 0
 835 003c FFF7FEFF 		bl	buffer_append_uint16
 836              	.LVL51:
 837              		.loc 1 930 0
 838 0040 019B     		ldr	r3, [sp, #4]
 839 0042 227D     		ldrb	r2, [r4, #20]	@ zero_extendqisi2
 840 0044 EA54     		strb	r2, [r5, r3]
 841              		.loc 1 932 0
 842 0046 EA18     		adds	r2, r5, r3
 843 0048 617D     		ldrb	r1, [r4, #21]	@ zero_extendqisi2
 844 004a 5170     		strb	r1, [r2, #1]
 845              		.loc 1 934 0
 846 004c 217E     		ldrb	r1, [r4, #24]	@ zero_extendqisi2
 847 004e 9170     		strb	r1, [r2, #2]
 848 0050 0333     		adds	r3, r3, #3
 849              		.loc 1 935 0
 850 0052 3146     		mov	r1, r6
 851 0054 94ED070A 		vldr.32	s0, [r4, #28]
 852              		.loc 1 934 0
 853 0058 0193     		str	r3, [sp, #4]
 854              		.loc 1 935 0
 855 005a 2846     		mov	r0, r5
ARM GAS  C:\Users\CHRIST~1\AppData\Local\Temp\ccu8H79a.s 			page 16


 856 005c FFF7FEFF 		bl	buffer_append_float32_auto
 857              	.LVL52:
 858              		.loc 1 936 0
 859 0060 3146     		mov	r1, r6
 860 0062 94ED080A 		vldr.32	s0, [r4, #32]
 861 0066 2846     		mov	r0, r5
 862 0068 FFF7FEFF 		bl	buffer_append_float32_auto
 863              	.LVL53:
 864              		.loc 1 937 0
 865 006c 3146     		mov	r1, r6
 866 006e 94ED090A 		vldr.32	s0, [r4, #36]
 867 0072 2846     		mov	r0, r5
 868 0074 FFF7FEFF 		bl	buffer_append_float32_auto
 869              	.LVL54:
 870              		.loc 1 938 0
 871 0078 3146     		mov	r1, r6
 872 007a 94ED0A0A 		vldr.32	s0, [r4, #40]
 873 007e 2846     		mov	r0, r5
 874 0080 FFF7FEFF 		bl	buffer_append_float32_auto
 875              	.LVL55:
 876              		.loc 1 939 0
 877 0084 3146     		mov	r1, r6
 878 0086 94ED0B0A 		vldr.32	s0, [r4, #44]
 879 008a 2846     		mov	r0, r5
 880 008c FFF7FEFF 		bl	buffer_append_float32_auto
 881              	.LVL56:
 882              		.loc 1 940 0
 883 0090 019B     		ldr	r3, [sp, #4]
 884 0092 94F83020 		ldrb	r2, [r4, #48]	@ zero_extendqisi2
 885 0096 EA54     		strb	r2, [r5, r3]
 886              		.loc 1 941 0
 887 0098 EA18     		adds	r2, r5, r3
 888 009a 94F83110 		ldrb	r1, [r4, #49]	@ zero_extendqisi2
 889 009e 5170     		strb	r1, [r2, #1]
 890 00a0 0233     		adds	r3, r3, #2
 891              		.loc 1 942 0
 892 00a2 3146     		mov	r1, r6
 893 00a4 94ED0D0A 		vldr.32	s0, [r4, #52]
 894              		.loc 1 941 0
 895 00a8 0193     		str	r3, [sp, #4]
 896              		.loc 1 942 0
 897 00aa 2846     		mov	r0, r5
 898 00ac FFF7FEFF 		bl	buffer_append_float32_auto
 899              	.LVL57:
 900              		.loc 1 943 0
 901 00b0 3146     		mov	r1, r6
 902 00b2 94ED0E0A 		vldr.32	s0, [r4, #56]
 903 00b6 2846     		mov	r0, r5
 904 00b8 FFF7FEFF 		bl	buffer_append_float32_auto
 905              	.LVL58:
 906              		.loc 1 944 0
 907 00bc 019B     		ldr	r3, [sp, #4]
 908 00be 94F83C20 		ldrb	r2, [r4, #60]	@ zero_extendqisi2
 909 00c2 EA54     		strb	r2, [r5, r3]
 910              		.loc 1 945 0
 911 00c4 3146     		mov	r1, r6
 912              		.loc 1 944 0
ARM GAS  C:\Users\CHRIST~1\AppData\Local\Temp\ccu8H79a.s 			page 17


 913 00c6 0133     		adds	r3, r3, #1
 914              		.loc 1 945 0
 915 00c8 94ED100A 		vldr.32	s0, [r4, #64]
 916              		.loc 1 944 0
 917 00cc 0193     		str	r3, [sp, #4]
 918              		.loc 1 945 0
 919 00ce 2846     		mov	r0, r5
 920 00d0 FFF7FEFF 		bl	buffer_append_float32_auto
 921              	.LVL59:
 922              		.loc 1 946 0
 923 00d4 3146     		mov	r1, r6
 924 00d6 94ED110A 		vldr.32	s0, [r4, #68]
 925 00da 2846     		mov	r0, r5
 926 00dc FFF7FEFF 		bl	buffer_append_float32_auto
 927              	.LVL60:
 928              		.loc 1 947 0
 929 00e0 019B     		ldr	r3, [sp, #4]
 930 00e2 94F84820 		ldrb	r2, [r4, #72]	@ zero_extendqisi2
 931 00e6 EA54     		strb	r2, [r5, r3]
 932              		.loc 1 948 0
 933 00e8 EA18     		adds	r2, r5, r3
 934 00ea 94F84910 		ldrb	r1, [r4, #73]	@ zero_extendqisi2
 935 00ee 5170     		strb	r1, [r2, #1]
 936 00f0 0233     		adds	r3, r3, #2
 937              		.loc 1 949 0
 938 00f2 3146     		mov	r1, r6
 939 00f4 94ED130A 		vldr.32	s0, [r4, #76]
 940              		.loc 1 948 0
 941 00f8 0193     		str	r3, [sp, #4]
 942              		.loc 1 949 0
 943 00fa 2846     		mov	r0, r5
 944 00fc FFF7FEFF 		bl	buffer_append_float32_auto
 945              	.LVL61:
 946              		.loc 1 951 0
 947 0100 019B     		ldr	r3, [sp, #4]
 948 0102 94F85020 		ldrb	r2, [r4, #80]	@ zero_extendqisi2
 949 0106 EA54     		strb	r2, [r5, r3]
 950              		.loc 1 952 0
 951 0108 3146     		mov	r1, r6
 952              		.loc 1 951 0
 953 010a 0133     		adds	r3, r3, #1
 954              		.loc 1 952 0
 955 010c 94ED150A 		vldr.32	s0, [r4, #84]
 956              		.loc 1 951 0
 957 0110 0193     		str	r3, [sp, #4]
 958              		.loc 1 952 0
 959 0112 2846     		mov	r0, r5
 960 0114 FFF7FEFF 		bl	buffer_append_float32_auto
 961              	.LVL62:
 962              		.loc 1 953 0
 963 0118 3146     		mov	r1, r6
 964 011a 94ED160A 		vldr.32	s0, [r4, #88]
 965 011e 2846     		mov	r0, r5
 966 0120 FFF7FEFF 		bl	buffer_append_float32_auto
 967              	.LVL63:
 968              		.loc 1 954 0
 969 0124 3146     		mov	r1, r6
ARM GAS  C:\Users\CHRIST~1\AppData\Local\Temp\ccu8H79a.s 			page 18


 970 0126 94ED170A 		vldr.32	s0, [r4, #92]
 971 012a 2846     		mov	r0, r5
 972 012c FFF7FEFF 		bl	buffer_append_float32_auto
 973              	.LVL64:
 974              		.loc 1 955 0
 975 0130 3146     		mov	r1, r6
 976 0132 94ED180A 		vldr.32	s0, [r4, #96]
 977 0136 2846     		mov	r0, r5
 978 0138 FFF7FEFF 		bl	buffer_append_float32_auto
 979              	.LVL65:
 980              		.loc 1 956 0
 981 013c 3146     		mov	r1, r6
 982 013e 94ED190A 		vldr.32	s0, [r4, #100]
 983 0142 2846     		mov	r0, r5
 984 0144 FFF7FEFF 		bl	buffer_append_float32_auto
 985              	.LVL66:
 986              		.loc 1 957 0
 987 0148 3146     		mov	r1, r6
 988 014a 94ED1A0A 		vldr.32	s0, [r4, #104]
 989 014e 2846     		mov	r0, r5
 990 0150 FFF7FEFF 		bl	buffer_append_float32_auto
 991              	.LVL67:
 992              		.loc 1 958 0
 993 0154 019B     		ldr	r3, [sp, #4]
 994 0156 94F86C20 		ldrb	r2, [r4, #108]	@ zero_extendqisi2
 995 015a EA54     		strb	r2, [r5, r3]
 996              		.loc 1 959 0
 997 015c EA18     		adds	r2, r5, r3
 998 015e 94F86D10 		ldrb	r1, [r4, #109]	@ zero_extendqisi2
 999 0162 5170     		strb	r1, [r2, #1]
 1000              		.loc 1 960 0
 1001 0164 94F86E10 		ldrb	r1, [r4, #110]	@ zero_extendqisi2
 1002 0168 9170     		strb	r1, [r2, #2]
 1003              		.loc 1 961 0
 1004 016a 94F86F10 		ldrb	r1, [r4, #111]	@ zero_extendqisi2
 1005 016e D170     		strb	r1, [r2, #3]
 1006              		.loc 1 962 0
 1007 0170 94F87010 		ldrb	r1, [r4, #112]	@ zero_extendqisi2
 1008 0174 1171     		strb	r1, [r2, #4]
 1009              		.loc 1 963 0
 1010 0176 94F87110 		ldrb	r1, [r4, #113]	@ zero_extendqisi2
 1011 017a 5171     		strb	r1, [r2, #5]
 1012 017c 0633     		adds	r3, r3, #6
 1013              		.loc 1 964 0
 1014 017e 3146     		mov	r1, r6
 1015 0180 94ED1D0A 		vldr.32	s0, [r4, #116]
 1016              		.loc 1 963 0
 1017 0184 0193     		str	r3, [sp, #4]
 1018              		.loc 1 964 0
 1019 0186 2846     		mov	r0, r5
 1020 0188 FFF7FEFF 		bl	buffer_append_float32_auto
 1021              	.LVL68:
 1022              		.loc 1 965 0
 1023 018c 3146     		mov	r1, r6
 1024 018e 94ED1E0A 		vldr.32	s0, [r4, #120]
 1025 0192 2846     		mov	r0, r5
 1026 0194 FFF7FEFF 		bl	buffer_append_float32_auto
ARM GAS  C:\Users\CHRIST~1\AppData\Local\Temp\ccu8H79a.s 			page 19


 1027              	.LVL69:
 1028              		.loc 1 966 0
 1029 0198 019B     		ldr	r3, [sp, #4]
 1030 019a 94F87C20 		ldrb	r2, [r4, #124]	@ zero_extendqisi2
 1031 019e EA54     		strb	r2, [r5, r3]
 1032              		.loc 1 967 0
 1033 01a0 3146     		mov	r1, r6
 1034              		.loc 1 966 0
 1035 01a2 0133     		adds	r3, r3, #1
 1036              		.loc 1 967 0
 1037 01a4 94ED200A 		vldr.32	s0, [r4, #128]
 1038              		.loc 1 966 0
 1039 01a8 0193     		str	r3, [sp, #4]
 1040              		.loc 1 967 0
 1041 01aa 2846     		mov	r0, r5
 1042 01ac FFF7FEFF 		bl	buffer_append_float32_auto
 1043              	.LVL70:
 1044              		.loc 1 968 0
 1045 01b0 3146     		mov	r1, r6
 1046 01b2 94ED210A 		vldr.32	s0, [r4, #132]
 1047 01b6 2846     		mov	r0, r5
 1048 01b8 FFF7FEFF 		bl	buffer_append_float32_auto
 1049              	.LVL71:
 1050              		.loc 1 969 0
 1051 01bc 019B     		ldr	r3, [sp, #4]
 1052 01be 94F88820 		ldrb	r2, [r4, #136]	@ zero_extendqisi2
 1053 01c2 EA54     		strb	r2, [r5, r3]
 1054              		.loc 1 970 0
 1055 01c4 EA18     		adds	r2, r5, r3
 1056 01c6 94F88910 		ldrb	r1, [r4, #137]	@ zero_extendqisi2
 1057 01ca 5170     		strb	r1, [r2, #1]
 1058 01cc 0233     		adds	r3, r3, #2
 1059              		.loc 1 971 0
 1060 01ce 94ED230A 		vldr.32	s0, [r4, #140]
 1061              		.loc 1 970 0
 1062 01d2 0193     		str	r3, [sp, #4]
 1063              		.loc 1 971 0
 1064 01d4 3146     		mov	r1, r6
 1065 01d6 2846     		mov	r0, r5
 1066 01d8 FFF7FEFF 		bl	buffer_append_float32_auto
 1067              	.LVL72:
 1068              		.loc 1 972 0
 1069 01dc 3246     		mov	r2, r6
 1070 01de B4F89010 		ldrh	r1, [r4, #144]
 1071 01e2 2846     		mov	r0, r5
 1072 01e4 FFF7FEFF 		bl	buffer_append_uint16
 1073              	.LVL73:
 1074              		.loc 1 974 0
 1075 01e8 3246     		mov	r2, r6
 1076 01ea D4F89410 		ldr	r1, [r4, #148]
 1077 01ee 2846     		mov	r0, r5
 1078 01f0 FFF7FEFF 		bl	buffer_append_uint32
 1079              	.LVL74:
 1080              		.loc 1 976 0
 1081 01f4 019B     		ldr	r3, [sp, #4]
 1082 01f6 94F89820 		ldrb	r2, [r4, #152]	@ zero_extendqisi2
 1083 01fa EA54     		strb	r2, [r5, r3]
ARM GAS  C:\Users\CHRIST~1\AppData\Local\Temp\ccu8H79a.s 			page 20


 1084              		.loc 1 977 0
 1085 01fc 3146     		mov	r1, r6
 1086              		.loc 1 976 0
 1087 01fe 0133     		adds	r3, r3, #1
 1088              		.loc 1 977 0
 1089 0200 94ED270A 		vldr.32	s0, [r4, #156]
 1090              		.loc 1 976 0
 1091 0204 0193     		str	r3, [sp, #4]
 1092              		.loc 1 977 0
 1093 0206 2846     		mov	r0, r5
 1094 0208 FFF7FEFF 		bl	buffer_append_float32_auto
 1095              	.LVL75:
 1096              		.loc 1 978 0
 1097 020c 3146     		mov	r1, r6
 1098 020e 94ED280A 		vldr.32	s0, [r4, #160]
 1099 0212 2846     		mov	r0, r5
 1100 0214 FFF7FEFF 		bl	buffer_append_float32_auto
 1101              	.LVL76:
 1102              		.loc 1 979 0
 1103 0218 3146     		mov	r1, r6
 1104 021a 94ED290A 		vldr.32	s0, [r4, #164]
 1105 021e 2846     		mov	r0, r5
 1106 0220 FFF7FEFF 		bl	buffer_append_float32_auto
 1107              	.LVL77:
 1108              		.loc 1 980 0
 1109 0224 3146     		mov	r1, r6
 1110 0226 94ED2A0A 		vldr.32	s0, [r4, #168]
 1111 022a 2846     		mov	r0, r5
 1112 022c FFF7FEFF 		bl	buffer_append_float32_auto
 1113              	.LVL78:
 1114              		.loc 1 981 0
 1115 0230 3146     		mov	r1, r6
 1116 0232 94ED2B0A 		vldr.32	s0, [r4, #172]
 1117 0236 2846     		mov	r0, r5
 1118 0238 FFF7FEFF 		bl	buffer_append_float32_auto
 1119              	.LVL79:
 1120              		.loc 1 982 0
 1121 023c 3146     		mov	r1, r6
 1122 023e 94ED2C0A 		vldr.32	s0, [r4, #176]
 1123 0242 2846     		mov	r0, r5
 1124 0244 FFF7FEFF 		bl	buffer_append_float32_auto
 1125              	.LVL80:
 1126              		.loc 1 983 0
 1127 0248 019B     		ldr	r3, [sp, #4]
 1128 024a 94F8B420 		ldrb	r2, [r4, #180]	@ zero_extendqisi2
 1129 024e EA54     		strb	r2, [r5, r3]
 1130              		.loc 1 984 0
 1131 0250 EA18     		adds	r2, r5, r3
 1132 0252 94F8B510 		ldrb	r1, [r4, #181]	@ zero_extendqisi2
 1133 0256 5170     		strb	r1, [r2, #1]
 1134              		.loc 1 985 0
 1135 0258 94F8B610 		ldrb	r1, [r4, #182]	@ zero_extendqisi2
 1136 025c 9170     		strb	r1, [r2, #2]
 1137 025e 0333     		adds	r3, r3, #3
 1138              		.loc 1 986 0
 1139 0260 3146     		mov	r1, r6
 1140 0262 2846     		mov	r0, r5
ARM GAS  C:\Users\CHRIST~1\AppData\Local\Temp\ccu8H79a.s 			page 21


 1141 0264 94ED2E0A 		vldr.32	s0, [r4, #184]
 1142              		.loc 1 985 0
 1143 0268 0193     		str	r3, [sp, #4]
 1144              		.loc 1 986 0
 1145 026a FFF7FEFF 		bl	buffer_append_float32_auto
 1146              	.LVL81:
 1147              		.loc 1 988 0
 1148 026e 0199     		ldr	r1, [sp, #4]
 1149 0270 94F8BC30 		ldrb	r3, [r4, #188]	@ zero_extendqisi2
 1150 0274 6B54     		strb	r3, [r5, r1]
 1151              		.loc 1 989 0
 1152 0276 6B18     		adds	r3, r5, r1
 1153 0278 94F8BD20 		ldrb	r2, [r4, #189]	@ zero_extendqisi2
 1154 027c 5A70     		strb	r2, [r3, #1]
 1155              		.loc 1 990 0
 1156 027e 94F8BE20 		ldrb	r2, [r4, #190]	@ zero_extendqisi2
 1157 0282 9A70     		strb	r2, [r3, #2]
 1158              		.loc 1 991 0
 1159 0284 94F8BF20 		ldrb	r2, [r4, #191]	@ zero_extendqisi2
 1160 0288 DA70     		strb	r2, [r3, #3]
 1161              		.loc 1 992 0
 1162 028a 94F8C020 		ldrb	r2, [r4, #192]	@ zero_extendqisi2
 1163 028e 1A71     		strb	r2, [r3, #4]
 1164              		.loc 1 993 0
 1165 0290 94F8C120 		ldrb	r2, [r4, #193]	@ zero_extendqisi2
 1166 0294 5A71     		strb	r2, [r3, #5]
 1167              		.loc 1 994 0
 1168 0296 2046     		mov	r0, r4
 1169              		.loc 1 993 0
 1170 0298 8A1D     		adds	r2, r1, #6
 1171              		.loc 1 994 0
 1172 029a 30F8C27F 		ldrh	r7, [r0, #194]!	@ unaligned
 1173              	.LBB95:
 1174              	.LBB96:
 1175              		.loc 1 91 0
 1176 029e 094E     		ldr	r6, .L73+4
 1177              	.LBE96:
 1178              	.LBE95:
 1179              		.loc 1 994 0
 1180 02a0 8078     		ldrb	r0, [r0, #2]	@ zero_extendqisi2
 1181 02a2 AF52     		strh	r7, [r5, r2]	@ unaligned
 1182 02a4 2A44     		add	r2, r2, r5
 1183              	.LBB99:
 1184              	.LBB97:
 1185              		.loc 1 91 0
 1186 02a6 3668     		ldr	r6, [r6]
 1187              	.LBE97:
 1188              	.LBE99:
 1189              		.loc 1 994 0
 1190 02a8 9070     		strb	r0, [r2, #2]
 1191              		.loc 1 996 0
 1192 02aa 94F8C520 		ldrb	r2, [r4, #197]	@ zero_extendqisi2
 1193 02ae 5A72     		strb	r2, [r3, #9]
 1194              	.LVL82:
 1195 02b0 0A31     		adds	r1, r1, #10
 1196              	.LVL83:
 1197 02b2 0191     		str	r1, [sp, #4]
ARM GAS  C:\Users\CHRIST~1\AppData\Local\Temp\ccu8H79a.s 			page 22


 1198              	.LBB100:
 1199              	.LBB98:
 1200              		.loc 1 91 0
 1201 02b4 0EB1     		cbz	r6, .L67
 1202              		.loc 1 92 0
 1203 02b6 2846     		mov	r0, r5
 1204 02b8 B047     		blx	r6
 1205              	.LVL84:
 1206              	.L67:
 1207              	.LBE98:
 1208              	.LBE100:
 1209              		.loc 1 999 0
 1210 02ba 03B0     		add	sp, sp, #12
 1211              		.cfi_def_cfa_offset 20
 1212              		@ sp needed
 1213 02bc F0BD     		pop	{r4, r5, r6, r7, pc}
 1214              	.LVL85:
 1215              	.L74:
 1216 02be 00BF     		.align	2
 1217              	.L73:
 1218 02c0 00000000 		.word	.LANCHOR8
 1219 02c4 00000000 		.word	.LANCHOR10
 1220              		.cfi_endproc
 1221              	.LFE269:
 1222              		.size	commands_send_appconf, .-commands_send_appconf
 1223              		.section	.text.commands_process_packet,"ax",%progbits
 1224              		.align	1
 1225              		.p2align 4,,15
 1226              		.global	commands_process_packet
 1227              		.syntax unified
 1228              		.thumb
 1229              		.thumb_func
 1230              		.fpu fpv4-sp-d16
 1231              		.type	commands_process_packet, %function
 1232              	commands_process_packet:
 1233              	.LFB262:
 1234              		.loc 1 105 0
 1235              		.cfi_startproc
 1236              		@ args = 0, pretend = 0, frame = 216
 1237              		@ frame_needed = 0, uses_anonymous_args = 0
 1238              	.LVL86:
 1239              		.loc 1 106 0
 1240 0000 0029     		cmp	r1, #0
 1241 0002 00F08380 		beq	.L185
 1242              		.loc 1 105 0
 1243 0006 2DE9F047 		push	{r4, r5, r6, r7, r8, r9, r10, lr}
 1244              		.cfi_def_cfa_offset 32
 1245              		.cfi_offset 4, -32
 1246              		.cfi_offset 5, -28
 1247              		.cfi_offset 6, -24
 1248              		.cfi_offset 7, -20
 1249              		.cfi_offset 8, -16
 1250              		.cfi_offset 9, -12
 1251              		.cfi_offset 10, -8
 1252              		.cfi_offset 14, -4
 1253 000a 2DED048B 		vpush.64	{d8, d9}
 1254              		.cfi_def_cfa_offset 48
ARM GAS  C:\Users\CHRIST~1\AppData\Local\Temp\ccu8H79a.s 			page 23


 1255              		.cfi_offset 80, -48
 1256              		.cfi_offset 81, -44
 1257              		.cfi_offset 82, -40
 1258              		.cfi_offset 83, -36
 1259              		.loc 1 118 0
 1260 000e 0446     		mov	r4, r0
 1261              		.loc 1 105 0
 1262 0010 B6B0     		sub	sp, sp, #216
 1263              		.cfi_def_cfa_offset 264
 1264              		.loc 1 118 0
 1265 0012 14F8018B 		ldrb	r8, [r4], #1	@ zero_extendqisi2
 1266              	.LVL87:
 1267              		.loc 1 111 0
 1268 0016 0023     		movs	r3, #0
 1269 0018 0746     		mov	r7, r0
 1270 001a 0293     		str	r3, [sp, #8]
 1271              		.loc 1 120 0
 1272 001c 4D1E     		subs	r5, r1, #1
 1273              	.LVL88:
 1274              		.loc 1 122 0
 1275 001e B8F1250F 		cmp	r8, #37
 1276 0022 6ED8     		bhi	.L75
 1277 0024 DFE818F0 		tbh	[pc, r8, lsl #1]
 1278              	.L79:
 1279 0028 E808     		.2byte	(.L78-.L79)/2
 1280 002a A90A     		.2byte	(.L80-.L79)/2
 1281 002c 930A     		.2byte	(.L81-.L79)/2
 1282 002e 760A     		.2byte	(.L82-.L79)/2
 1283 0030 C009     		.2byte	(.L83-.L79)/2
 1284 0032 BF0A     		.2byte	(.L84-.L79)/2
 1285 0034 AD0A     		.2byte	(.L85-.L79)/2
 1286 0036 D10A     		.2byte	(.L86-.L79)/2
 1287 0038 DA08     		.2byte	(.L87-.L79)/2
 1288 003a C808     		.2byte	(.L88-.L79)/2
 1289 003c BC08     		.2byte	(.L89-.L79)/2
 1290 003e 7300     		.2byte	(.L90-.L79)/2
 1291 0040 6D00     		.2byte	(.L75-.L79)/2
 1292 0042 E605     		.2byte	(.L91-.L79)/2
 1293 0044 B803     		.2byte	(.L92-.L79)/2
 1294 0046 B803     		.2byte	(.L92-.L79)/2
 1295 0048 0002     		.2byte	(.L93-.L79)/2
 1296 004a E401     		.2byte	(.L94-.L79)/2
 1297 004c E401     		.2byte	(.L94-.L79)/2
 1298 004e D301     		.2byte	(.L95-.L79)/2
 1299 0050 CD01     		.2byte	(.L96-.L79)/2
 1300 0052 6D00     		.2byte	(.L75-.L79)/2
 1301 0054 6D00     		.2byte	(.L75-.L79)/2
 1302 0056 6D00     		.2byte	(.L75-.L79)/2
 1303 0058 A801     		.2byte	(.L97-.L79)/2
 1304 005a 2600     		.2byte	(.L98-.L79)/2
 1305 005c 4B01     		.2byte	(.L99-.L79)/2
 1306 005e E000     		.2byte	(.L100-.L79)/2
 1307 0060 8F00     		.2byte	(.L101-.L79)/2
 1308 0062 8D00     		.2byte	(.L102-.L79)/2
 1309 0064 8A00     		.2byte	(.L103-.L79)/2
 1310 0066 A209     		.2byte	(.L104-.L79)/2
 1311 0068 6D09     		.2byte	(.L105-.L79)/2
ARM GAS  C:\Users\CHRIST~1\AppData\Local\Temp\ccu8H79a.s 			page 24


 1312 006a 5009     		.2byte	(.L106-.L79)/2
 1313 006c 4809     		.2byte	(.L107-.L79)/2
 1314 006e 2209     		.2byte	(.L108-.L79)/2
 1315 0070 1A09     		.2byte	(.L109-.L79)/2
 1316 0072 0709     		.2byte	(.L110-.L79)/2
 1317              		.p2align 1
 1318              	.L98:
 1319              	.LBB101:
 1320              		.loc 1 649 0
 1321 0074 FFF7FEFF 		bl	mc_interface_get_configuration
 1322              	.LVL89:
 1323 0078 B34C     		ldr	r4, .L200
 1324              	.LVL90:
 1325              		.loc 1 652 0
 1326 007a B44D     		ldr	r5, .L200+4
 1327              	.LVL91:
 1328 007c B44E     		ldr	r6, .L200+8
 1329              		.loc 1 649 0
 1330 007e 0146     		mov	r1, r0
 1331 0080 4FF4BA72 		mov	r2, #372
 1332 0084 2046     		mov	r0, r4
 1333 0086 FFF7FEFF 		bl	memcpy
 1334              	.LVL92:
 1335              		.loc 1 650 0
 1336 008a 2146     		mov	r1, r4
 1337 008c 4FF4BA72 		mov	r2, #372
 1338 0090 B048     		ldr	r0, .L200+12
 1339 0092 FFF7FEFF 		bl	memcpy
 1340              	.LVL93:
 1341              		.loc 1 654 0
 1342 0096 0222     		movs	r2, #2
 1343              		.loc 1 655 0
 1344 0098 2046     		mov	r0, r4
 1345              		.loc 1 652 0
 1346 009a 2B68     		ldr	r3, [r5]
 1347              		.loc 1 654 0
 1348 009c A270     		strb	r2, [r4, #2]
 1349              		.loc 1 652 0
 1350 009e 3360     		str	r3, [r6]
 1351              		.loc 1 655 0
 1352 00a0 FFF7FEFF 		bl	mc_interface_set_configuration
 1353              	.LVL94:
 1354              		.loc 1 658 0
 1355 00a4 36A9     		add	r1, sp, #216
 1356              		.loc 1 657 0
 1357 00a6 0024     		movs	r4, #0
 1358              		.loc 1 659 0
 1359 00a8 03A8     		add	r0, sp, #12
 1360              		.loc 1 658 0
 1361 00aa 41F8C84D 		str	r4, [r1, #-200]!	@ float
 1362              		.loc 1 657 0
 1363 00ae 0394     		str	r4, [sp, #12]	@ float
 1364              		.loc 1 659 0
 1365 00b0 FFF7FEFF 		bl	mcpwm_foc_measure_res_ind
 1366              	.LVL95:
 1367 00b4 0746     		mov	r7, r0
 1368              	.LVL96:
ARM GAS  C:\Users\CHRIST~1\AppData\Local\Temp\ccu8H79a.s 			page 25


 1369              		.loc 1 660 0
 1370 00b6 A748     		ldr	r0, .L200+12
 1371 00b8 FFF7FEFF 		bl	mc_interface_set_configuration
 1372              	.LVL97:
 1373              		.loc 1 662 0
 1374 00bc 0FB9     		cbnz	r7, .L119
 1375              		.loc 1 663 0
 1376 00be 0394     		str	r4, [sp, #12]	@ float
 1377              		.loc 1 664 0
 1378 00c0 0494     		str	r4, [sp, #16]	@ float
 1379              	.L119:
 1380              		.loc 1 668 0
 1381 00c2 36AF     		add	r7, sp, #216
 1382              	.LVL98:
 1383 00c4 0123     		movs	r3, #1
 1384 00c6 47F8D03D 		str	r3, [r7, #-208]!
 1385 00ca A34C     		ldr	r4, .L200+16
 1386              		.loc 1 669 0
 1387 00cc DFEDA30A 		vldr.32	s1, .L200+20
 1388 00d0 9DED030A 		vldr.32	s0, [sp, #12]
 1389              		.loc 1 668 0
 1390 00d4 1923     		movs	r3, #25
 1391              		.loc 1 669 0
 1392 00d6 3946     		mov	r1, r7
 1393 00d8 2046     		mov	r0, r4
 1394              		.loc 1 668 0
 1395 00da 2370     		strb	r3, [r4]
 1396              		.loc 1 669 0
 1397 00dc FFF7FEFF 		bl	buffer_append_float32
 1398              	.LVL99:
 1399              		.loc 1 670 0
 1400 00e0 3946     		mov	r1, r7
 1401 00e2 2046     		mov	r0, r4
 1402 00e4 DFEDA30A 		vldr.32	s1, .L200+44
 1403 00e8 9DED040A 		vldr.32	s0, [sp, #16]
 1404 00ec FFF7FEFF 		bl	buffer_append_float32
 1405              	.LVL100:
 1406              		.loc 1 671 0
 1407 00f0 3368     		ldr	r3, [r6]
 1408 00f2 002B     		cmp	r3, #0
 1409 00f4 40F02481 		bne	.L191
 1410              	.L123:
 1411              	.LBE101:
 1412              	.LBB102:
 1413              	.LBB103:
 1414              	.LBB104:
 1415              		.loc 1 91 0
 1416 00f8 2B68     		ldr	r3, [r5]
 1417              	.LBE104:
 1418              	.LBE103:
 1419              		.loc 1 701 0
 1420 00fa 0299     		ldr	r1, [sp, #8]
 1421              	.LVL101:
 1422              	.LBB106:
 1423              	.LBB105:
 1424              		.loc 1 91 0
 1425 00fc 0BB1     		cbz	r3, .L75
ARM GAS  C:\Users\CHRIST~1\AppData\Local\Temp\ccu8H79a.s 			page 26


 1426              	.LVL102:
 1427              	.L189:
 1428              	.LBE105:
 1429              	.LBE106:
 1430              	.LBE102:
 1431              		.loc 1 843 0
 1432 00fe 2046     		mov	r0, r4
 1433 0100 9847     		blx	r3
 1434              	.LVL103:
 1435              	.L75:
 1436              		.loc 1 860 0
 1437 0102 36B0     		add	sp, sp, #216
 1438              		.cfi_def_cfa_offset 48
 1439              		@ sp needed
 1440 0104 BDEC048B 		vldm	sp!, {d8-d9}
 1441              		.cfi_restore 82
 1442              		.cfi_restore 83
 1443              		.cfi_restore 80
 1444              		.cfi_restore 81
 1445              		.cfi_def_cfa_offset 32
 1446 0108 BDE8F087 		pop	{r4, r5, r6, r7, r8, r9, r10, pc}
 1447              	.LVL104:
 1448              	.L185:
 1449              		.cfi_def_cfa_offset 0
 1450              		.cfi_restore 4
 1451              		.cfi_restore 5
 1452              		.cfi_restore 6
 1453              		.cfi_restore 7
 1454              		.cfi_restore 8
 1455              		.cfi_restore 9
 1456              		.cfi_restore 10
 1457              		.cfi_restore 14
 1458 010c 7047     		bx	lr
 1459              	.LVL105:
 1460              	.L90:
 1461              		.cfi_def_cfa_offset 264
 1462              		.cfi_offset 4, -32
 1463              		.cfi_offset 5, -28
 1464              		.cfi_offset 6, -24
 1465              		.cfi_offset 7, -20
 1466              		.cfi_offset 8, -16
 1467              		.cfi_offset 9, -12
 1468              		.cfi_offset 10, -8
 1469              		.cfi_offset 14, -4
 1470              		.cfi_offset 80, -48
 1471              		.cfi_offset 81, -44
 1472              		.cfi_offset 82, -40
 1473              		.cfi_offset 83, -36
 1474              		.loc 1 224 0
 1475 010e FFF7FEFF 		bl	mc_interface_get_configuration
 1476              	.LVL106:
 1477 0112 8D4B     		ldr	r3, .L200
 1478 0114 0146     		mov	r1, r0
 1479 0116 4FF4BA72 		mov	r2, #372
 1480 011a 1846     		mov	r0, r3
 1481 011c FFF7FEFF 		bl	memcpy
 1482              	.LVL107:
ARM GAS  C:\Users\CHRIST~1\AppData\Local\Temp\ccu8H79a.s 			page 27


 1483              		.loc 1 227 0
 1484 0120 8F49     		ldr	r1, .L200+24
 1485 0122 7B78     		ldrb	r3, [r7, #1]	@ zero_extendqisi2
 1486              		.loc 1 229 0
 1487 0124 8278     		ldrb	r2, [r0, #2]	@ zero_extendqisi2
 1488              		.loc 1 227 0
 1489 0126 0B70     		strb	r3, [r1]
 1490 0128 0121     		movs	r1, #1
 1491 012a 0291     		str	r1, [sp, #8]
 1492              		.loc 1 229 0
 1493 012c 32B9     		cbnz	r2, .L103
 1494              		.loc 1 230 0
 1495 012e 002B     		cmp	r3, #0
 1496 0130 01F05D82 		beq	.L197
 1497              		.loc 1 232 0
 1498 0134 012B     		cmp	r3, #1
 1499 0136 01D1     		bne	.L103
 1500              		.loc 1 233 0
 1501 0138 FFF7FEFF 		bl	mcpwm_set_detect
 1502              	.LVL108:
 1503              	.L103:
 1504              		.loc 1 797 0
 1505 013c FFF7FEFF 		bl	timeout_reset
 1506              	.LVL109:
 1507              		.loc 1 798 0
 1508 0140 DFE7     		b	.L75
 1509              	.L102:
 1510              	.LBB107:
 1511              	.LBB108:
 1512              		.file 3 "ChibiOS_3.0.2/os/ext/CMSIS/include/core_cmFunc.h"
 1513              		.loc 3 342 0
 1514              		.syntax unified
 1515              	@ 342 "ChibiOS_3.0.2/os/ext/CMSIS/include/core_cmFunc.h" 1
 1516 0142 72B6     		cpsid i
 1517              	@ 0 "" 2
 1518              		.thumb
 1519              		.syntax unified
 1520              	.L131:
 1521 0144 FEE7     		b	.L131
 1522              	.L101:
 1523              	.LBE108:
 1524              	.LBE107:
 1525              		.loc 1 750 0
 1526 0146 FFF7FEFF 		bl	mc_interface_get_configuration
 1527              	.LVL110:
 1528 014a 7F4D     		ldr	r5, .L200
 1529              	.LVL111:
 1530 014c 0146     		mov	r1, r0
 1531 014e 4FF4BA72 		mov	r2, #372
 1532 0152 2846     		mov	r0, r5
 1533 0154 FFF7FEFF 		bl	memcpy
 1534              	.LVL112:
 1535              		.loc 1 752 0
 1536 0158 95F85C81 		ldrb	r8, [r5, #348]	@ zero_extendqisi2
 1537              	.LVL113:
 1538 015c B8F1000F 		cmp	r8, #0
 1539 0160 41F06682 		bne	.L128
ARM GAS  C:\Users\CHRIST~1\AppData\Local\Temp\ccu8H79a.s 			page 28


 1540              	.LBB109:
 1541              		.loc 1 753 0
 1542 0164 4FF4BA72 		mov	r2, #372
 1543 0168 2946     		mov	r1, r5
 1544 016a 7A48     		ldr	r0, .L200+12
 1545              		.loc 1 757 0
 1546 016c 774E     		ldr	r6, .L200+4
 1547 016e 784F     		ldr	r7, .L200+8
 1548              		.loc 1 753 0
 1549 0170 FFF7FEFF 		bl	memcpy
 1550              	.LVL114:
 1551              		.loc 1 754 0
 1552 0174 36A9     		add	r1, sp, #216
 1553              		.loc 1 755 0
 1554 0176 2046     		mov	r0, r4
 1555              		.loc 1 754 0
 1556 0178 41F8D08D 		str	r8, [r1, #-208]!
 1557              		.loc 1 755 0
 1558 017c 9FED7D0A 		vldr.32	s0, .L200+44
 1559              		.loc 1 760 0
 1560 0180 784C     		ldr	r4, .L200+28
 1561              	.LVL115:
 1562              		.loc 1 755 0
 1563 0182 FFF7FEFF 		bl	buffer_get_float32
 1564              	.LVL116:
 1565              		.loc 1 757 0
 1566 0186 3368     		ldr	r3, [r6]
 1567              		.loc 1 761 0
 1568 0188 7749     		ldr	r1, .L200+32
 1569              		.loc 1 757 0
 1570 018a 3B60     		str	r3, [r7]
 1571              		.loc 1 759 0
 1572 018c 0222     		movs	r2, #2
 1573              		.loc 1 762 0
 1574 018e 774B     		ldr	r3, .L200+36
 1575              		.loc 1 761 0
 1576 0190 C5F8A410 		str	r1, [r5, #164]	@ float
 1577              		.loc 1 763 0
 1578 0194 2846     		mov	r0, r5
 1579              		.loc 1 755 0
 1580 0196 B0EE408A 		vmov.f32	s16, s0
 1581              	.LVL117:
 1582              		.loc 1 759 0
 1583 019a AA70     		strb	r2, [r5, #2]
 1584              		.loc 1 762 0
 1585 019c C5F8A830 		str	r3, [r5, #168]	@ float
 1586              		.loc 1 760 0
 1587 01a0 C5F8AC40 		str	r4, [r5, #172]	@ float
 1588              		.loc 1 763 0
 1589 01a4 FFF7FEFF 		bl	mc_interface_set_configuration
 1590              	.LVL118:
 1591              		.loc 1 766 0
 1592 01a8 B0EE480A 		vmov.f32	s0, s16
 1593 01ac 04A8     		add	r0, sp, #16
 1594 01ae FFF7FEFF 		bl	mcpwm_foc_hall_detect
 1595              	.LVL119:
 1596 01b2 0446     		mov	r4, r0
ARM GAS  C:\Users\CHRIST~1\AppData\Local\Temp\ccu8H79a.s 			page 29


 1597              	.LVL120:
 1598              		.loc 1 767 0
 1599 01b4 6748     		ldr	r0, .L200+12
 1600 01b6 FFF7FEFF 		bl	mc_interface_set_configuration
 1601              	.LVL121:
 1602              		.loc 1 770 0
 1603 01ba 674A     		ldr	r2, .L200+16
 1604              		.loc 1 775 0
 1605 01bc 3F68     		ldr	r7, [r7]
 1606              		.loc 1 770 0
 1607 01be 1546     		mov	r5, r2
 1608              		.loc 1 771 0
 1609 01c0 04AB     		add	r3, sp, #16
 1610 01c2 03CB     		ldmia	r3!, {r0, r1}
 1611              		.loc 1 770 0
 1612 01c4 1C23     		movs	r3, #28
 1613 01c6 05F8013B 		strb	r3, [r5], #1
 1614              		.loc 1 773 0
 1615 01ca 84F00104 		eor	r4, r4, #1
 1616              	.LVL122:
 1617 01ce 0A23     		movs	r3, #10
 1618              		.loc 1 771 0
 1619 01d0 C2F80100 		str	r0, [r2, #1]	@ unaligned
 1620              		.loc 1 773 0
 1621 01d4 0293     		str	r3, [sp, #8]
 1622              		.loc 1 771 0
 1623 01d6 6960     		str	r1, [r5, #4]	@ unaligned
 1624              		.loc 1 773 0
 1625 01d8 5472     		strb	r4, [r2, #9]
 1626              		.loc 1 775 0
 1627 01da 002F     		cmp	r7, #0
 1628 01dc 01F01F82 		beq	.L129
 1629              		.loc 1 776 0
 1630 01e0 1946     		mov	r1, r3
 1631 01e2 1046     		mov	r0, r2
 1632 01e4 B847     		blx	r7
 1633              	.LVL123:
 1634 01e6 8CE7     		b	.L75
 1635              	.LVL124:
 1636              	.L100:
 1637              	.LBE109:
 1638              		.loc 1 707 0
 1639 01e8 FFF7FEFF 		bl	encoder_is_configured
 1640              	.LVL125:
 1641 01ec 0646     		mov	r6, r0
 1642 01ee 0028     		cmp	r0, #0
 1643 01f0 01F02E82 		beq	.L125
 1644              	.LBB112:
 1645              		.loc 1 708 0
 1646 01f4 FFF7FEFF 		bl	mc_interface_get_configuration
 1647              	.LVL126:
 1648 01f8 534D     		ldr	r5, .L200
 1649              	.LVL127:
 1650              		.loc 1 711 0
 1651 01fa DFF85081 		ldr	r8, .L200+4
 1652              	.LVL128:
 1653 01fe DFF85091 		ldr	r9, .L200+8
ARM GAS  C:\Users\CHRIST~1\AppData\Local\Temp\ccu8H79a.s 			page 30


 1654              		.loc 1 729 0
 1655 0202 554E     		ldr	r6, .L200+16
 1656              		.loc 1 713 0
 1657 0204 36AF     		add	r7, sp, #216
 1658              		.loc 1 708 0
 1659 0206 0146     		mov	r1, r0
 1660 0208 4FF4BA72 		mov	r2, #372
 1661 020c 2846     		mov	r0, r5
 1662 020e FFF7FEFF 		bl	memcpy
 1663              	.LVL129:
 1664              		.loc 1 713 0
 1665 0212 4FF0000A 		mov	r10, #0
 1666              		.loc 1 709 0
 1667 0216 4FF4BA72 		mov	r2, #372
 1668 021a 2946     		mov	r1, r5
 1669 021c 4D48     		ldr	r0, .L200+12
 1670 021e FFF7FEFF 		bl	memcpy
 1671              	.LVL130:
 1672              		.loc 1 713 0
 1673 0222 47F8D0AD 		str	r10, [r7, #-208]!
 1674              		.loc 1 714 0
 1675 0226 2046     		mov	r0, r4
 1676              		.loc 1 711 0
 1677 0228 D8F80030 		ldr	r3, [r8]
 1678              		.loc 1 714 0
 1679 022c 9FED510A 		vldr.32	s0, .L200+44
 1680              		.loc 1 711 0
 1681 0230 C9F80030 		str	r3, [r9]
 1682              		.loc 1 714 0
 1683 0234 3946     		mov	r1, r7
 1684 0236 FFF7FEFF 		bl	buffer_get_float32
 1685              	.LVL131:
 1686              		.loc 1 717 0
 1687 023a 4A4B     		ldr	r3, .L200+28
 1688              		.loc 1 718 0
 1689 023c 4A4A     		ldr	r2, .L200+32
 1690              		.loc 1 717 0
 1691 023e C5F8AC30 		str	r3, [r5, #172]	@ float
 1692              		.loc 1 716 0
 1693 0242 0221     		movs	r1, #2
 1694              		.loc 1 719 0
 1695 0244 494B     		ldr	r3, .L200+36
 1696              		.loc 1 716 0
 1697 0246 A970     		strb	r1, [r5, #2]
 1698              		.loc 1 720 0
 1699 0248 2846     		mov	r0, r5
 1700              		.loc 1 714 0
 1701 024a B0EE408A 		vmov.f32	s16, s0
 1702              	.LVL132:
 1703              		.loc 1 718 0
 1704 024e C5F8A420 		str	r2, [r5, #164]	@ float
 1705              		.loc 1 719 0
 1706 0252 C5F8A830 		str	r3, [r5, #168]	@ float
 1707              		.loc 1 720 0
 1708 0256 FFF7FEFF 		bl	mc_interface_set_configuration
 1709              	.LVL133:
 1710              		.loc 1 724 0
ARM GAS  C:\Users\CHRIST~1\AppData\Local\Temp\ccu8H79a.s 			page 31


 1711 025a 36AB     		add	r3, sp, #216
 1712              		.loc 1 725 0
 1713 025c B0EE480A 		vmov.f32	s0, s16
 1714              		.loc 1 724 0
 1715 0260 03F8D1AD 		strb	r10, [r3, #-209]!
 1716              		.loc 1 725 0
 1717 0264 04AA     		add	r2, sp, #16
 1718 0266 03A9     		add	r1, sp, #12
 1719              		.loc 1 722 0
 1720 0268 0024     		movs	r4, #0
 1721              	.LVL134:
 1722              		.loc 1 725 0
 1723 026a 5046     		mov	r0, r10
 1724              		.loc 1 722 0
 1725 026c 0394     		str	r4, [sp, #12]	@ float
 1726              		.loc 1 723 0
 1727 026e 0494     		str	r4, [sp, #16]	@ float
 1728              		.loc 1 725 0
 1729 0270 FFF7FEFF 		bl	mcpwm_foc_encoder_detect
 1730              	.LVL135:
 1731              		.loc 1 726 0
 1732 0274 3748     		ldr	r0, .L200+12
 1733 0276 FFF7FEFF 		bl	mc_interface_set_configuration
 1734              	.LVL136:
 1735              		.loc 1 729 0
 1736 027a 1B22     		movs	r2, #27
 1737 027c 0123     		movs	r3, #1
 1738              		.loc 1 730 0
 1739 027e 3946     		mov	r1, r7
 1740 0280 3046     		mov	r0, r6
 1741 0282 DFED360A 		vldr.32	s1, .L200+20
 1742 0286 9DED030A 		vldr.32	s0, [sp, #12]
 1743              		.loc 1 729 0
 1744 028a 3270     		strb	r2, [r6]
 1745 028c 0293     		str	r3, [sp, #8]
 1746              		.loc 1 730 0
 1747 028e FFF7FEFF 		bl	buffer_append_float32
 1748              	.LVL137:
 1749              		.loc 1 731 0
 1750 0292 3946     		mov	r1, r7
 1751 0294 3046     		mov	r0, r6
 1752 0296 DFED310A 		vldr.32	s1, .L200+20
 1753 029a 9DED040A 		vldr.32	s0, [sp, #16]
 1754 029e FFF7FEFF 		bl	buffer_append_float32
 1755              	.LVL138:
 1756              		.loc 1 732 0
 1757 02a2 0299     		ldr	r1, [sp, #8]
 1758 02a4 9DF80720 		ldrb	r2, [sp, #7]	@ zero_extendqisi2
 1759              		.loc 1 733 0
 1760 02a8 D9F80030 		ldr	r3, [r9]
 1761              		.loc 1 732 0
 1762 02ac 7254     		strb	r2, [r6, r1]
 1763 02ae 0131     		adds	r1, r1, #1
 1764 02b0 0291     		str	r1, [sp, #8]
 1765              		.loc 1 733 0
 1766 02b2 002B     		cmp	r3, #0
 1767 02b4 01F0C581 		beq	.L126
ARM GAS  C:\Users\CHRIST~1\AppData\Local\Temp\ccu8H79a.s 			page 32


 1768              	.L192:
 1769              	.LBB113:
 1770              	.LBB114:
 1771              		.loc 1 92 0
 1772 02b8 3046     		mov	r0, r6
 1773 02ba 9847     		blx	r3
 1774              	.LVL139:
 1775 02bc 21E7     		b	.L75
 1776              	.LVL140:
 1777              	.L99:
 1778              	.LBE114:
 1779              	.LBE113:
 1780              	.LBE112:
 1781              	.LBB117:
 1782              		.loc 1 681 0
 1783 02be 02A9     		add	r1, sp, #8
 1784 02c0 2046     		mov	r0, r4
 1785 02c2 9FED2C0A 		vldr.32	s0, .L200+44
 1786              		.loc 1 686 0
 1787 02c6 214D     		ldr	r5, .L200+4
 1788              	.LVL141:
 1789 02c8 214E     		ldr	r6, .L200+8
 1790              		.loc 1 681 0
 1791 02ca FFF7FEFF 		bl	buffer_get_float32
 1792              	.LVL142:
 1793              		.loc 1 682 0
 1794 02ce 02A9     		add	r1, sp, #8
 1795              		.loc 1 681 0
 1796 02d0 B0EE408A 		vmov.f32	s16, s0
 1797              	.LVL143:
 1798              		.loc 1 682 0
 1799 02d4 2046     		mov	r0, r4
 1800 02d6 9FED270A 		vldr.32	s0, .L200+44
 1801              	.LVL144:
 1802 02da FFF7FEFF 		bl	buffer_get_float32
 1803              	.LVL145:
 1804              		.loc 1 683 0
 1805 02de 02A9     		add	r1, sp, #8
 1806              		.loc 1 682 0
 1807 02e0 B0EE409A 		vmov.f32	s18, s0
 1808              	.LVL146:
 1809              		.loc 1 683 0
 1810 02e4 2046     		mov	r0, r4
 1811 02e6 9FED230A 		vldr.32	s0, .L200+44
 1812              	.LVL147:
 1813 02ea FFF7FEFF 		bl	buffer_get_float32
 1814              	.LVL148:
 1815              		.loc 1 684 0
 1816 02ee 2046     		mov	r0, r4
 1817              		.loc 1 683 0
 1818 02f0 F0EE408A 		vmov.f32	s17, s0
 1819              	.LVL149:
 1820              		.loc 1 684 0
 1821 02f4 02A9     		add	r1, sp, #8
 1822 02f6 9FED190A 		vldr.32	s0, .L200+20
 1823              	.LVL150:
 1824 02fa FFF7FEFF 		bl	buffer_get_float32
ARM GAS  C:\Users\CHRIST~1\AppData\Local\Temp\ccu8H79a.s 			page 33


 1825              	.LVL151:
 1826              		.loc 1 686 0
 1827 02fe 2B68     		ldr	r3, [r5]
 1828 0300 3360     		str	r3, [r6]
 1829              		.loc 1 689 0
 1830 0302 F0EE401A 		vmov.f32	s3, s0
 1831 0306 B0EE491A 		vmov.f32	s2, s18
 1832 030a F0EE680A 		vmov.f32	s1, s17
 1833 030e B0EE480A 		vmov.f32	s0, s16
 1834              	.LVL152:
 1835 0312 04A8     		add	r0, sp, #16
 1836 0314 FFF7FEFF 		bl	conf_general_measure_flux_linkage
 1837              	.LVL153:
 1838              		.loc 1 691 0
 1839 0318 08B9     		cbnz	r0, .L122
 1840              		.loc 1 692 0
 1841 031a 0023     		movs	r3, #0
 1842 031c 0493     		str	r3, [sp, #16]	@ float
 1843              	.L122:
 1844              		.loc 1 696 0
 1845 031e 0E4C     		ldr	r4, .L200+16
 1846              	.LVL154:
 1847              		.loc 1 697 0
 1848 0320 DFED130A 		vldr.32	s1, .L200+40
 1849 0324 9DED040A 		vldr.32	s0, [sp, #16]
 1850              		.loc 1 696 0
 1851 0328 0123     		movs	r3, #1
 1852 032a 1A22     		movs	r2, #26
 1853              		.loc 1 697 0
 1854 032c 02A9     		add	r1, sp, #8
 1855 032e 2046     		mov	r0, r4
 1856              	.LVL155:
 1857              		.loc 1 696 0
 1858 0330 0293     		str	r3, [sp, #8]
 1859 0332 2270     		strb	r2, [r4]
 1860              		.loc 1 697 0
 1861 0334 FFF7FEFF 		bl	buffer_append_float32
 1862              	.LVL156:
 1863              		.loc 1 698 0
 1864 0338 3368     		ldr	r3, [r6]
 1865 033a 002B     		cmp	r3, #0
 1866 033c 3FF4DCAE 		beq	.L123
 1867              	.LVL157:
 1868              	.L191:
 1869              		.loc 1 699 0
 1870 0340 2046     		mov	r0, r4
 1871 0342 0299     		ldr	r1, [sp, #8]
 1872 0344 9847     		blx	r3
 1873              	.LVL158:
 1874 0346 DCE6     		b	.L75
 1875              	.L201:
 1876              		.align	2
 1877              	.L200:
 1878 0348 00000000 		.word	.LANCHOR15
 1879 034c 00000000 		.word	.LANCHOR10
 1880 0350 00000000 		.word	.LANCHOR9
 1881 0354 00000000 		.word	.LANCHOR16
ARM GAS  C:\Users\CHRIST~1\AppData\Local\Temp\ccu8H79a.s 			page 34


 1882 0358 00000000 		.word	.LANCHOR8
 1883 035c 00247449 		.word	1232348160
 1884 0360 00000000 		.word	.LANCHOR13
 1885 0364 00401C46 		.word	1176256512
 1886 0368 0AD7233C 		.word	1008981770
 1887 036c 00002041 		.word	1092616192
 1888 0370 8096184B 		.word	1259902592
 1889 0374 00007A44 		.word	1148846080
 1890              	.LVL159:
 1891              	.L97:
 1892              	.LBE117:
 1893              		.loc 1 639 0
 1894 0378 02A9     		add	r1, sp, #8
 1895 037a 2046     		mov	r0, r4
 1896 037c 1FED030A 		vldr.32	s0, .L200+44
 1897 0380 FFF7FEFF 		bl	buffer_get_float32
 1898              	.LVL160:
 1899 0384 214B     		ldr	r3, .L202
 1900              		.loc 1 640 0
 1901 0386 02A9     		add	r1, sp, #8
 1902              		.loc 1 639 0
 1903 0388 83ED000A 		vstr.32	s0, [r3]
 1904              		.loc 1 640 0
 1905 038c 2046     		mov	r0, r4
 1906 038e 9FED200A 		vldr.32	s0, .L202+4
 1907 0392 FFF7FEFF 		bl	buffer_get_float32
 1908              	.LVL161:
 1909 0396 1F4B     		ldr	r3, .L202+8
 1910              		.loc 1 641 0
 1911 0398 02A9     		add	r1, sp, #8
 1912 039a 2046     		mov	r0, r4
 1913              		.loc 1 640 0
 1914 039c 83ED000A 		vstr.32	s0, [r3]
 1915              		.loc 1 641 0
 1916 03a0 9FED1B0A 		vldr.32	s0, .L202+4
 1917 03a4 FFF7FEFF 		bl	buffer_get_float32
 1918              	.LVL162:
 1919 03a8 1B49     		ldr	r1, .L202+12
 1920              		.loc 1 643 0
 1921 03aa 1C4A     		ldr	r2, .L202+16
 1922              		.loc 1 645 0
 1923 03ac 1C48     		ldr	r0, .L202+20
 1924              		.loc 1 643 0
 1925 03ae 1D4B     		ldr	r3, .L202+24
 1926 03b0 1268     		ldr	r2, [r2]
 1927              		.loc 1 641 0
 1928 03b2 81ED000A 		vstr.32	s0, [r1]
 1929              		.loc 1 645 0
 1930 03b6 0068     		ldr	r0, [r0]
 1931              		.loc 1 643 0
 1932 03b8 1A60     		str	r2, [r3]
 1933              		.loc 1 645 0
 1934 03ba 0121     		movs	r1, #1
 1935 03bc FFF7FEFF 		bl	chEvtSignal
 1936              	.LVL163:
 1937              		.loc 1 646 0
 1938 03c0 9FE6     		b	.L75
ARM GAS  C:\Users\CHRIST~1\AppData\Local\Temp\ccu8H79a.s 			page 35


 1939              	.L96:
 1940              		.loc 1 633 0
 1941 03c2 0023     		movs	r3, #0
 1942              		.loc 1 634 0
 1943 03c4 2046     		mov	r0, r4
 1944              		.loc 1 633 0
 1945 03c6 7B54     		strb	r3, [r7, r1]
 1946              		.loc 1 634 0
 1947 03c8 FFF7FEFF 		bl	terminal_process_string
 1948              	.LVL164:
 1949              		.loc 1 635 0
 1950 03cc 99E6     		b	.L75
 1951              	.L95:
 1952              	.LBB118:
 1953              		.loc 1 626 0
 1954 03ce 36A9     		add	r1, sp, #216
 1955 03d0 0123     		movs	r3, #1
 1956 03d2 41F8D03D 		str	r3, [r1, #-208]!
 1957              		.loc 1 627 0
 1958 03d6 2046     		mov	r0, r4
 1959              		.loc 1 626 0
 1960 03d8 7D78     		ldrb	r5, [r7, #1]	@ zero_extendqisi2
 1961              	.LVL165:
 1962              		.loc 1 627 0
 1963 03da FFF7FEFF 		bl	buffer_get_uint16
 1964              	.LVL166:
 1965              		.loc 1 628 0
 1966 03de 029B     		ldr	r3, [sp, #8]
 1967              		.loc 1 629 0
 1968 03e0 0146     		mov	r1, r0
 1969 03e2 E25C     		ldrb	r2, [r4, r3]	@ zero_extendqisi2
 1970 03e4 2846     		mov	r0, r5
 1971              	.LVL167:
 1972              		.loc 1 628 0
 1973 03e6 0133     		adds	r3, r3, #1
 1974 03e8 0293     		str	r3, [sp, #8]
 1975              	.LVL168:
 1976              		.loc 1 629 0
 1977 03ea FFF7FEFF 		bl	mc_interface_sample_print_data
 1978              	.LVL169:
 1979              	.LBE118:
 1980              		.loc 1 630 0
 1981 03ee 88E6     		b	.L75
 1982              	.LVL170:
 1983              	.L94:
 1984              		.loc 1 611 0
 1985 03f0 B8F1110F 		cmp	r8, #17
 1986 03f4 01F0FF80 		beq	.L198
 1987              		.loc 1 614 0
 1988 03f8 04AC     		add	r4, sp, #16
 1989              	.LVL171:
 1990 03fa 2046     		mov	r0, r4
 1991              	.LVL172:
 1992 03fc FFF7FEFF 		bl	conf_general_get_default_app_configuration
 1993              	.LVL173:
 1994              	.L118:
 1995              		.loc 1 617 0
ARM GAS  C:\Users\CHRIST~1\AppData\Local\Temp\ccu8H79a.s 			page 36


 1996 0400 2146     		mov	r1, r4
 1997 0402 4046     		mov	r0, r8
 1998 0404 FFF7FEFF 		bl	commands_send_appconf
 1999              	.LVL174:
 2000              		.loc 1 618 0
 2001 0408 7BE6     		b	.L75
 2002              	.L203:
 2003 040a 00BF     		.align	2
 2004              	.L202:
 2005 040c 00000000 		.word	.LANCHOR7
 2006 0410 00007A44 		.word	1148846080
 2007 0414 00000000 		.word	.LANCHOR6
 2008 0418 00000000 		.word	.LANCHOR5
 2009 041c 00000000 		.word	.LANCHOR10
 2010 0420 00000000 		.word	.LANCHOR0
 2011 0424 00000000 		.word	.LANCHOR9
 2012              	.LVL175:
 2013              	.L93:
 2014              		.loc 1 523 0
 2015 0428 FFF7FEFF 		bl	app_get_configuration
 2016              	.LVL176:
 2017 042c C822     		movs	r2, #200
 2018 042e 0146     		mov	r1, r0
 2019 0430 04A8     		add	r0, sp, #16
 2020              		.loc 1 526 0
 2021 0432 0125     		movs	r5, #1
 2022              	.LVL177:
 2023              		.loc 1 523 0
 2024 0434 FFF7FEFF 		bl	memcpy
 2025              	.LVL178:
 2026              		.loc 1 526 0
 2027 0438 7B78     		ldrb	r3, [r7, #1]	@ zero_extendqisi2
 2028 043a 8DF81030 		strb	r3, [sp, #16]
 2029              		.loc 1 527 0
 2030 043e 02A9     		add	r1, sp, #8
 2031 0440 2046     		mov	r0, r4
 2032              		.loc 1 526 0
 2033 0442 0295     		str	r5, [sp, #8]
 2034              		.loc 1 527 0
 2035 0444 FFF7FEFF 		bl	buffer_get_uint32
 2036              	.LVL179:
 2037              		.loc 1 528 0
 2038 0448 02A9     		add	r1, sp, #8
 2039              		.loc 1 527 0
 2040 044a 0590     		str	r0, [sp, #20]
 2041              		.loc 1 528 0
 2042 044c 2046     		mov	r0, r4
 2043 044e FFF7FEFF 		bl	buffer_get_float32_auto
 2044              	.LVL180:
 2045              		.loc 1 529 0
 2046 0452 029B     		ldr	r3, [sp, #8]
 2047 0454 E25C     		ldrb	r2, [r4, r3]	@ zero_extendqisi2
 2048              		.loc 1 528 0
 2049 0456 8DED060A 		vstr.32	s0, [sp, #24]
 2050              		.loc 1 529 0
 2051 045a 0032     		adds	r2, r2, #0
 2052 045c 18BF     		it	ne
ARM GAS  C:\Users\CHRIST~1\AppData\Local\Temp\ccu8H79a.s 			page 37


 2053 045e 0122     		movne	r2, #1
 2054 0460 2B44     		add	r3, r3, r5
 2055              		.loc 1 530 0
 2056 0462 02A9     		add	r1, sp, #8
 2057 0464 2046     		mov	r0, r4
 2058              		.loc 1 529 0
 2059 0466 8DF81C20 		strb	r2, [sp, #28]
 2060 046a 0293     		str	r3, [sp, #8]
 2061              		.loc 1 530 0
 2062 046c FFF7FEFF 		bl	buffer_get_uint16
 2063              	.LVL181:
 2064              		.loc 1 531 0
 2065 0470 029B     		ldr	r3, [sp, #8]
 2066              		.loc 1 530 0
 2067 0472 0890     		str	r0, [sp, #32]
 2068              		.loc 1 531 0
 2069 0474 5A19     		adds	r2, r3, r5
 2070              		.loc 1 533 0
 2071 0476 991C     		adds	r1, r3, #2
 2072 0478 A25C     		ldrb	r2, [r4, r2]	@ zero_extendqisi2
 2073              		.loc 1 535 0
 2074 047a 615C     		ldrb	r1, [r4, r1]	@ zero_extendqisi2
 2075              		.loc 1 533 0
 2076 047c 8DF82520 		strb	r2, [sp, #37]
 2077              		.loc 1 531 0
 2078 0480 E25C     		ldrb	r2, [r4, r3]	@ zero_extendqisi2
 2079              		.loc 1 535 0
 2080 0482 8DF82810 		strb	r1, [sp, #40]
 2081 0486 0333     		adds	r3, r3, #3
 2082              		.loc 1 536 0
 2083 0488 2046     		mov	r0, r4
 2084 048a 02A9     		add	r1, sp, #8
 2085              		.loc 1 531 0
 2086 048c 8DF82420 		strb	r2, [sp, #36]
 2087              		.loc 1 535 0
 2088 0490 0293     		str	r3, [sp, #8]
 2089              		.loc 1 536 0
 2090 0492 FFF7FEFF 		bl	buffer_get_float32_auto
 2091              	.LVL182:
 2092              		.loc 1 537 0
 2093 0496 2046     		mov	r0, r4
 2094 0498 02A9     		add	r1, sp, #8
 2095              		.loc 1 536 0
 2096 049a 8DED0B0A 		vstr.32	s0, [sp, #44]
 2097              		.loc 1 537 0
 2098 049e FFF7FEFF 		bl	buffer_get_float32_auto
 2099              	.LVL183:
 2100              		.loc 1 538 0
 2101 04a2 2046     		mov	r0, r4
 2102 04a4 02A9     		add	r1, sp, #8
 2103              		.loc 1 537 0
 2104 04a6 8DED0C0A 		vstr.32	s0, [sp, #48]
 2105              		.loc 1 538 0
 2106 04aa FFF7FEFF 		bl	buffer_get_float32_auto
 2107              	.LVL184:
 2108              		.loc 1 539 0
 2109 04ae 2046     		mov	r0, r4
ARM GAS  C:\Users\CHRIST~1\AppData\Local\Temp\ccu8H79a.s 			page 38


 2110 04b0 02A9     		add	r1, sp, #8
 2111              		.loc 1 538 0
 2112 04b2 8DED0D0A 		vstr.32	s0, [sp, #52]
 2113              		.loc 1 539 0
 2114 04b6 FFF7FEFF 		bl	buffer_get_float32_auto
 2115              	.LVL185:
 2116              		.loc 1 540 0
 2117 04ba 2046     		mov	r0, r4
 2118 04bc 02A9     		add	r1, sp, #8
 2119              		.loc 1 539 0
 2120 04be 8DED0E0A 		vstr.32	s0, [sp, #56]
 2121              		.loc 1 540 0
 2122 04c2 FFF7FEFF 		bl	buffer_get_float32_auto
 2123              	.LVL186:
 2124              		.loc 1 541 0
 2125 04c6 029B     		ldr	r3, [sp, #8]
 2126 04c8 5919     		adds	r1, r3, r5
 2127 04ca E25C     		ldrb	r2, [r4, r3]	@ zero_extendqisi2
 2128              		.loc 1 542 0
 2129 04cc 615C     		ldrb	r1, [r4, r1]	@ zero_extendqisi2
 2130              		.loc 1 540 0
 2131 04ce 8DED0F0A 		vstr.32	s0, [sp, #60]
 2132              		.loc 1 541 0
 2133 04d2 0032     		adds	r2, r2, #0
 2134 04d4 18BF     		it	ne
 2135 04d6 0122     		movne	r2, #1
 2136              		.loc 1 542 0
 2137 04d8 0031     		adds	r1, r1, #0
 2138 04da 18BF     		it	ne
 2139 04dc 0121     		movne	r1, #1
 2140 04de 0233     		adds	r3, r3, #2
 2141              		.loc 1 543 0
 2142 04e0 2046     		mov	r0, r4
 2143              		.loc 1 542 0
 2144 04e2 8DF84110 		strb	r1, [sp, #65]
 2145              		.loc 1 543 0
 2146 04e6 02A9     		add	r1, sp, #8
 2147              		.loc 1 541 0
 2148 04e8 8DF84020 		strb	r2, [sp, #64]
 2149              		.loc 1 542 0
 2150 04ec 0293     		str	r3, [sp, #8]
 2151              		.loc 1 543 0
 2152 04ee FFF7FEFF 		bl	buffer_get_float32_auto
 2153              	.LVL187:
 2154              		.loc 1 544 0
 2155 04f2 2046     		mov	r0, r4
 2156 04f4 02A9     		add	r1, sp, #8
 2157              		.loc 1 543 0
 2158 04f6 8DED110A 		vstr.32	s0, [sp, #68]
 2159              		.loc 1 544 0
 2160 04fa FFF7FEFF 		bl	buffer_get_float32_auto
 2161              	.LVL188:
 2162              		.loc 1 545 0
 2163 04fe 029B     		ldr	r3, [sp, #8]
 2164              		.loc 1 546 0
 2165 0500 2046     		mov	r0, r4
 2166              		.loc 1 545 0
ARM GAS  C:\Users\CHRIST~1\AppData\Local\Temp\ccu8H79a.s 			page 39


 2167 0502 5A19     		adds	r2, r3, r5
 2168              		.loc 1 546 0
 2169 0504 02A9     		add	r1, sp, #8
 2170              		.loc 1 545 0
 2171 0506 E35C     		ldrb	r3, [r4, r3]	@ zero_extendqisi2
 2172 0508 8DF84C30 		strb	r3, [sp, #76]
 2173 050c 0292     		str	r2, [sp, #8]
 2174              		.loc 1 544 0
 2175 050e 8DED120A 		vstr.32	s0, [sp, #72]
 2176              		.loc 1 546 0
 2177 0512 FFF7FEFF 		bl	buffer_get_float32_auto
 2178              	.LVL189:
 2179              		.loc 1 547 0
 2180 0516 2046     		mov	r0, r4
 2181 0518 02A9     		add	r1, sp, #8
 2182              		.loc 1 546 0
 2183 051a 8DED140A 		vstr.32	s0, [sp, #80]
 2184              		.loc 1 547 0
 2185 051e FFF7FEFF 		bl	buffer_get_float32_auto
 2186              	.LVL190:
 2187              		.loc 1 548 0
 2188 0522 029B     		ldr	r3, [sp, #8]
 2189 0524 5919     		adds	r1, r3, r5
 2190 0526 E25C     		ldrb	r2, [r4, r3]	@ zero_extendqisi2
 2191              		.loc 1 549 0
 2192 0528 615C     		ldrb	r1, [r4, r1]	@ zero_extendqisi2
 2193              		.loc 1 547 0
 2194 052a 8DED150A 		vstr.32	s0, [sp, #84]
 2195              		.loc 1 548 0
 2196 052e 0032     		adds	r2, r2, #0
 2197 0530 18BF     		it	ne
 2198 0532 0122     		movne	r2, #1
 2199              		.loc 1 549 0
 2200 0534 0031     		adds	r1, r1, #0
 2201 0536 18BF     		it	ne
 2202 0538 0121     		movne	r1, #1
 2203 053a 0233     		adds	r3, r3, #2
 2204              		.loc 1 550 0
 2205 053c 2046     		mov	r0, r4
 2206              		.loc 1 549 0
 2207 053e 8DF85910 		strb	r1, [sp, #89]
 2208              		.loc 1 550 0
 2209 0542 02A9     		add	r1, sp, #8
 2210              		.loc 1 548 0
 2211 0544 8DF85820 		strb	r2, [sp, #88]
 2212              		.loc 1 549 0
 2213 0548 0293     		str	r3, [sp, #8]
 2214              		.loc 1 550 0
 2215 054a FFF7FEFF 		bl	buffer_get_float32_auto
 2216              	.LVL191:
 2217              		.loc 1 552 0
 2218 054e 029B     		ldr	r3, [sp, #8]
 2219              		.loc 1 553 0
 2220 0550 2046     		mov	r0, r4
 2221              		.loc 1 552 0
 2222 0552 5A19     		adds	r2, r3, r5
 2223              		.loc 1 553 0
ARM GAS  C:\Users\CHRIST~1\AppData\Local\Temp\ccu8H79a.s 			page 40


 2224 0554 02A9     		add	r1, sp, #8
 2225              		.loc 1 552 0
 2226 0556 E35C     		ldrb	r3, [r4, r3]	@ zero_extendqisi2
 2227 0558 8DF86030 		strb	r3, [sp, #96]
 2228 055c 0292     		str	r2, [sp, #8]
 2229              		.loc 1 550 0
 2230 055e 8DED170A 		vstr.32	s0, [sp, #92]
 2231              		.loc 1 553 0
 2232 0562 FFF7FEFF 		bl	buffer_get_float32_auto
 2233              	.LVL192:
 2234              		.loc 1 554 0
 2235 0566 2046     		mov	r0, r4
 2236 0568 02A9     		add	r1, sp, #8
 2237              		.loc 1 553 0
 2238 056a 8DED190A 		vstr.32	s0, [sp, #100]
 2239              		.loc 1 554 0
 2240 056e FFF7FEFF 		bl	buffer_get_float32_auto
 2241              	.LVL193:
 2242              		.loc 1 555 0
 2243 0572 2046     		mov	r0, r4
 2244 0574 02A9     		add	r1, sp, #8
 2245              		.loc 1 554 0
 2246 0576 8DED1A0A 		vstr.32	s0, [sp, #104]
 2247              		.loc 1 555 0
 2248 057a FFF7FEFF 		bl	buffer_get_float32_auto
 2249              	.LVL194:
 2250              		.loc 1 556 0
 2251 057e 2046     		mov	r0, r4
 2252 0580 02A9     		add	r1, sp, #8
 2253              		.loc 1 555 0
 2254 0582 8DED1B0A 		vstr.32	s0, [sp, #108]
 2255              		.loc 1 556 0
 2256 0586 FFF7FEFF 		bl	buffer_get_float32_auto
 2257              	.LVL195:
 2258              		.loc 1 557 0
 2259 058a 2046     		mov	r0, r4
 2260 058c 02A9     		add	r1, sp, #8
 2261              		.loc 1 556 0
 2262 058e 8DED1C0A 		vstr.32	s0, [sp, #112]
 2263              		.loc 1 557 0
 2264 0592 FFF7FEFF 		bl	buffer_get_float32_auto
 2265              	.LVL196:
 2266              		.loc 1 558 0
 2267 0596 2046     		mov	r0, r4
 2268 0598 02A9     		add	r1, sp, #8
 2269              		.loc 1 557 0
 2270 059a 8DED1D0A 		vstr.32	s0, [sp, #116]
 2271              		.loc 1 558 0
 2272 059e FFF7FEFF 		bl	buffer_get_float32_auto
 2273              	.LVL197:
 2274              		.loc 1 559 0
 2275 05a2 029B     		ldr	r3, [sp, #8]
 2276 05a4 5919     		adds	r1, r3, r5
 2277              		.loc 1 560 0
 2278 05a6 981C     		adds	r0, r3, #2
 2279 05a8 615C     		ldrb	r1, [r4, r1]	@ zero_extendqisi2
 2280              		.loc 1 561 0
ARM GAS  C:\Users\CHRIST~1\AppData\Local\Temp\ccu8H79a.s 			page 41


 2281 05aa 275C     		ldrb	r7, [r4, r0]	@ zero_extendqisi2
 2282              		.loc 1 560 0
 2283 05ac 0031     		adds	r1, r1, #0
 2284              		.loc 1 561 0
 2285 05ae 03F10302 		add	r2, r3, #3
 2286              		.loc 1 562 0
 2287 05b2 03F10400 		add	r0, r3, #4
 2288              		.loc 1 560 0
 2289 05b6 18BF     		it	ne
 2290 05b8 0121     		movne	r1, #1
 2291              		.loc 1 562 0
 2292 05ba A65C     		ldrb	r6, [r4, r2]	@ zero_extendqisi2
 2293              		.loc 1 563 0
 2294 05bc 205C     		ldrb	r0, [r4, r0]	@ zero_extendqisi2
 2295              		.loc 1 559 0
 2296 05be E25C     		ldrb	r2, [r4, r3]	@ zero_extendqisi2
 2297              		.loc 1 560 0
 2298 05c0 8DF87D10 		strb	r1, [sp, #125]
 2299              		.loc 1 563 0
 2300 05c4 591D     		adds	r1, r3, #5
 2301              		.loc 1 561 0
 2302 05c6 0037     		adds	r7, r7, #0
 2303              		.loc 1 564 0
 2304 05c8 615C     		ldrb	r1, [r4, r1]	@ zero_extendqisi2
 2305              		.loc 1 558 0
 2306 05ca 8DED1E0A 		vstr.32	s0, [sp, #120]
 2307              		.loc 1 561 0
 2308 05ce 18BF     		it	ne
 2309 05d0 0127     		movne	r7, #1
 2310              		.loc 1 562 0
 2311 05d2 0036     		adds	r6, r6, #0
 2312 05d4 18BF     		it	ne
 2313 05d6 0126     		movne	r6, #1
 2314              		.loc 1 563 0
 2315 05d8 0030     		adds	r0, r0, #0
 2316 05da 18BF     		it	ne
 2317 05dc 0120     		movne	r0, #1
 2318              		.loc 1 564 0
 2319 05de 0031     		adds	r1, r1, #0
 2320 05e0 18BF     		it	ne
 2321 05e2 0121     		movne	r1, #1
 2322              		.loc 1 559 0
 2323 05e4 0032     		adds	r2, r2, #0
 2324 05e6 18BF     		it	ne
 2325 05e8 0122     		movne	r2, #1
 2326              		.loc 1 564 0
 2327 05ea 0633     		adds	r3, r3, #6
 2328              		.loc 1 563 0
 2329 05ec 8DF88000 		strb	r0, [sp, #128]
 2330              		.loc 1 564 0
 2331 05f0 8DF88110 		strb	r1, [sp, #129]
 2332              		.loc 1 565 0
 2333 05f4 2046     		mov	r0, r4
 2334 05f6 02A9     		add	r1, sp, #8
 2335              		.loc 1 559 0
 2336 05f8 8DF87C20 		strb	r2, [sp, #124]
 2337              		.loc 1 564 0
ARM GAS  C:\Users\CHRIST~1\AppData\Local\Temp\ccu8H79a.s 			page 42


 2338 05fc 0293     		str	r3, [sp, #8]
 2339              		.loc 1 562 0
 2340 05fe 8DF87F60 		strb	r6, [sp, #127]
 2341              		.loc 1 561 0
 2342 0602 8DF87E70 		strb	r7, [sp, #126]
 2343              		.loc 1 565 0
 2344 0606 FFF7FEFF 		bl	buffer_get_float32_auto
 2345              	.LVL198:
 2346              		.loc 1 566 0
 2347 060a 2046     		mov	r0, r4
 2348 060c 02A9     		add	r1, sp, #8
 2349              		.loc 1 565 0
 2350 060e 8DED210A 		vstr.32	s0, [sp, #132]
 2351              		.loc 1 566 0
 2352 0612 FFF7FEFF 		bl	buffer_get_float32_auto
 2353              	.LVL199:
 2354              		.loc 1 567 0
 2355 0616 029B     		ldr	r3, [sp, #8]
 2356              		.loc 1 568 0
 2357 0618 2046     		mov	r0, r4
 2358              		.loc 1 567 0
 2359 061a 5A19     		adds	r2, r3, r5
 2360              		.loc 1 568 0
 2361 061c 02A9     		add	r1, sp, #8
 2362              		.loc 1 567 0
 2363 061e E35C     		ldrb	r3, [r4, r3]	@ zero_extendqisi2
 2364 0620 8DF88C30 		strb	r3, [sp, #140]
 2365 0624 0292     		str	r2, [sp, #8]
 2366              		.loc 1 566 0
 2367 0626 8DED220A 		vstr.32	s0, [sp, #136]
 2368              		.loc 1 568 0
 2369 062a FFF7FEFF 		bl	buffer_get_float32_auto
 2370              	.LVL200:
 2371              		.loc 1 569 0
 2372 062e 2046     		mov	r0, r4
 2373 0630 02A9     		add	r1, sp, #8
 2374              		.loc 1 568 0
 2375 0632 8DED240A 		vstr.32	s0, [sp, #144]
 2376              		.loc 1 569 0
 2377 0636 FFF7FEFF 		bl	buffer_get_float32_auto
 2378              	.LVL201:
 2379              		.loc 1 570 0
 2380 063a 029B     		ldr	r3, [sp, #8]
 2381 063c 5919     		adds	r1, r3, r5
 2382 063e E25C     		ldrb	r2, [r4, r3]	@ zero_extendqisi2
 2383              		.loc 1 571 0
 2384 0640 615C     		ldrb	r1, [r4, r1]	@ zero_extendqisi2
 2385              		.loc 1 569 0
 2386 0642 8DED250A 		vstr.32	s0, [sp, #148]
 2387              		.loc 1 570 0
 2388 0646 0032     		adds	r2, r2, #0
 2389 0648 18BF     		it	ne
 2390 064a 0122     		movne	r2, #1
 2391              		.loc 1 571 0
 2392 064c 0031     		adds	r1, r1, #0
 2393 064e 18BF     		it	ne
 2394 0650 0121     		movne	r1, #1
ARM GAS  C:\Users\CHRIST~1\AppData\Local\Temp\ccu8H79a.s 			page 43


 2395 0652 0233     		adds	r3, r3, #2
 2396              		.loc 1 572 0
 2397 0654 2046     		mov	r0, r4
 2398              		.loc 1 571 0
 2399 0656 8DF89910 		strb	r1, [sp, #153]
 2400              		.loc 1 572 0
 2401 065a 02A9     		add	r1, sp, #8
 2402              		.loc 1 570 0
 2403 065c 8DF89820 		strb	r2, [sp, #152]
 2404              		.loc 1 571 0
 2405 0660 0293     		str	r3, [sp, #8]
 2406              		.loc 1 572 0
 2407 0662 FFF7FEFF 		bl	buffer_get_float32_auto
 2408              	.LVL202:
 2409              		.loc 1 573 0
 2410 0666 02A9     		add	r1, sp, #8
 2411 0668 2046     		mov	r0, r4
 2412              		.loc 1 572 0
 2413 066a 8DED270A 		vstr.32	s0, [sp, #156]
 2414              		.loc 1 573 0
 2415 066e FFF7FEFF 		bl	buffer_get_uint16
 2416              	.LVL203:
 2417              		.loc 1 575 0
 2418 0672 02A9     		add	r1, sp, #8
 2419              		.loc 1 573 0
 2420 0674 2890     		str	r0, [sp, #160]
 2421              		.loc 1 575 0
 2422 0676 2046     		mov	r0, r4
 2423 0678 FFF7FEFF 		bl	buffer_get_uint32
 2424              	.LVL204:
 2425              		.loc 1 577 0
 2426 067c 029B     		ldr	r3, [sp, #8]
 2427              		.loc 1 575 0
 2428 067e 2990     		str	r0, [sp, #164]
 2429              		.loc 1 577 0
 2430 0680 5A19     		adds	r2, r3, r5
 2431              		.loc 1 578 0
 2432 0682 2046     		mov	r0, r4
 2433              		.loc 1 577 0
 2434 0684 E35C     		ldrb	r3, [r4, r3]	@ zero_extendqisi2
 2435 0686 8DF8A830 		strb	r3, [sp, #168]
 2436              		.loc 1 578 0
 2437 068a 02A9     		add	r1, sp, #8
 2438              		.loc 1 577 0
 2439 068c 0292     		str	r2, [sp, #8]
 2440              		.loc 1 578 0
 2441 068e FFF7FEFF 		bl	buffer_get_float32_auto
 2442              	.LVL205:
 2443              		.loc 1 579 0
 2444 0692 2046     		mov	r0, r4
 2445 0694 02A9     		add	r1, sp, #8
 2446              		.loc 1 578 0
 2447 0696 8DED2B0A 		vstr.32	s0, [sp, #172]
 2448              		.loc 1 579 0
 2449 069a FFF7FEFF 		bl	buffer_get_float32_auto
 2450              	.LVL206:
 2451              		.loc 1 580 0
ARM GAS  C:\Users\CHRIST~1\AppData\Local\Temp\ccu8H79a.s 			page 44


 2452 069e 2046     		mov	r0, r4
 2453 06a0 02A9     		add	r1, sp, #8
 2454              		.loc 1 579 0
 2455 06a2 8DED2C0A 		vstr.32	s0, [sp, #176]
 2456              		.loc 1 580 0
 2457 06a6 FFF7FEFF 		bl	buffer_get_float32_auto
 2458              	.LVL207:
 2459              		.loc 1 581 0
 2460 06aa 2046     		mov	r0, r4
 2461 06ac 02A9     		add	r1, sp, #8
 2462              		.loc 1 580 0
 2463 06ae 8DED2D0A 		vstr.32	s0, [sp, #180]
 2464              		.loc 1 581 0
 2465 06b2 FFF7FEFF 		bl	buffer_get_float32_auto
 2466              	.LVL208:
 2467              		.loc 1 582 0
 2468 06b6 2046     		mov	r0, r4
 2469 06b8 02A9     		add	r1, sp, #8
 2470              		.loc 1 581 0
 2471 06ba 8DED2E0A 		vstr.32	s0, [sp, #184]
 2472              		.loc 1 582 0
 2473 06be FFF7FEFF 		bl	buffer_get_float32_auto
 2474              	.LVL209:
 2475              		.loc 1 583 0
 2476 06c2 2046     		mov	r0, r4
 2477 06c4 02A9     		add	r1, sp, #8
 2478              		.loc 1 582 0
 2479 06c6 8DED2F0A 		vstr.32	s0, [sp, #188]
 2480              		.loc 1 583 0
 2481 06ca FFF7FEFF 		bl	buffer_get_float32_auto
 2482              	.LVL210:
 2483              		.loc 1 584 0
 2484 06ce 029B     		ldr	r3, [sp, #8]
 2485 06d0 5919     		adds	r1, r3, r5
 2486              		.loc 1 585 0
 2487 06d2 9A1C     		adds	r2, r3, #2
 2488 06d4 605C     		ldrb	r0, [r4, r1]	@ zero_extendqisi2
 2489              		.loc 1 586 0
 2490 06d6 A25C     		ldrb	r2, [r4, r2]	@ zero_extendqisi2
 2491              		.loc 1 584 0
 2492 06d8 E15C     		ldrb	r1, [r4, r3]	@ zero_extendqisi2
 2493 06da 8DF8C410 		strb	r1, [sp, #196]
 2494              		.loc 1 585 0
 2495 06de 0030     		adds	r0, r0, #0
 2496 06e0 18BF     		it	ne
 2497 06e2 0120     		movne	r0, #1
 2498              		.loc 1 586 0
 2499 06e4 0032     		adds	r2, r2, #0
 2500 06e6 18BF     		it	ne
 2501 06e8 0122     		movne	r2, #1
 2502 06ea 0333     		adds	r3, r3, #3
 2503              		.loc 1 587 0
 2504 06ec 02A9     		add	r1, sp, #8
 2505              		.loc 1 585 0
 2506 06ee 8DF8C500 		strb	r0, [sp, #197]
 2507              		.loc 1 587 0
 2508 06f2 2046     		mov	r0, r4
ARM GAS  C:\Users\CHRIST~1\AppData\Local\Temp\ccu8H79a.s 			page 45


 2509              		.loc 1 586 0
 2510 06f4 8DF8C620 		strb	r2, [sp, #198]
 2511 06f8 0293     		str	r3, [sp, #8]
 2512              		.loc 1 583 0
 2513 06fa 8DED300A 		vstr.32	s0, [sp, #192]
 2514              		.loc 1 587 0
 2515 06fe FFF7FEFF 		bl	buffer_get_float32_auto
 2516              	.LVL211:
 2517              		.loc 1 589 0
 2518 0702 029B     		ldr	r3, [sp, #8]
 2519              		.loc 1 587 0
 2520 0704 8DED320A 		vstr.32	s0, [sp, #200]
 2521              		.loc 1 589 0
 2522 0708 5919     		adds	r1, r3, r5
 2523              		.loc 1 590 0
 2524 070a 9A1C     		adds	r2, r3, #2
 2525              		.loc 1 591 0
 2526 070c DE1C     		adds	r6, r3, #3
 2527              		.loc 1 592 0
 2528 070e 181D     		adds	r0, r3, #4
 2529              		.loc 1 590 0
 2530 0710 615C     		ldrb	r1, [r4, r1]	@ zero_extendqisi2
 2531              		.loc 1 591 0
 2532 0712 A25C     		ldrb	r2, [r4, r2]	@ zero_extendqisi2
 2533              		.loc 1 593 0
 2534 0714 205C     		ldrb	r0, [r4, r0]	@ zero_extendqisi2
 2535              		.loc 1 592 0
 2536 0716 A65D     		ldrb	r6, [r4, r6]	@ zero_extendqisi2
 2537              		.loc 1 590 0
 2538 0718 8DF8CD10 		strb	r1, [sp, #205]
 2539              		.loc 1 593 0
 2540 071c 591D     		adds	r1, r3, #5
 2541              		.loc 1 591 0
 2542 071e 8DF8CE20 		strb	r2, [sp, #206]
 2543              		.loc 1 597 0
 2544 0722 E218     		adds	r2, r4, r3
 2545              		.loc 1 594 0
 2546 0724 615C     		ldrb	r1, [r4, r1]	@ zero_extendqisi2
 2547              		.loc 1 597 0
 2548 0726 527A     		ldrb	r2, [r2, #9]	@ zero_extendqisi2
 2549              		.loc 1 593 0
 2550 0728 8DF8D000 		strb	r0, [sp, #208]
 2551              		.loc 1 594 0
 2552 072c 8DF8D110 		strb	r1, [sp, #209]
 2553              		.loc 1 592 0
 2554 0730 8DF8CF60 		strb	r6, [sp, #207]
 2555              		.loc 1 594 0
 2556 0734 981D     		adds	r0, r3, #6
 2557              		.loc 1 595 0
 2558 0736 2118     		adds	r1, r4, r0
 2559              		.loc 1 589 0
 2560 0738 E45C     		ldrb	r4, [r4, r3]	@ zero_extendqisi2
 2561              	.LVL212:
 2562 073a 8DF8CC40 		strb	r4, [sp, #204]
 2563              		.loc 1 594 0
 2564 073e 0290     		str	r0, [sp, #8]
 2565              		.loc 1 597 0
ARM GAS  C:\Users\CHRIST~1\AppData\Local\Temp\ccu8H79a.s 			page 46


 2566 0740 0032     		adds	r2, r2, #0
 2567              		.loc 1 595 0
 2568 0742 8878     		ldrb	r0, [r1, #2]	@ zero_extendqisi2
 2569 0744 0988     		ldrh	r1, [r1]	@ unaligned
 2570 0746 8DF8D400 		strb	r0, [sp, #212]
 2571              		.loc 1 597 0
 2572 074a 18BF     		it	ne
 2573 074c 0122     		movne	r2, #1
 2574 074e 0A33     		adds	r3, r3, #10
 2575              		.loc 1 599 0
 2576 0750 04A8     		add	r0, sp, #16
 2577              		.loc 1 597 0
 2578 0752 8DF8D520 		strb	r2, [sp, #213]
 2579 0756 0293     		str	r3, [sp, #8]
 2580              		.loc 1 595 0
 2581 0758 ADF8D210 		strh	r1, [sp, #210]	@ unaligned
 2582              		.loc 1 599 0
 2583 075c FFF7FEFF 		bl	conf_general_store_app_configuration
 2584              	.LVL213:
 2585              		.loc 1 600 0
 2586 0760 04A8     		add	r0, sp, #16
 2587 0762 FFF7FEFF 		bl	app_set_configuration
 2588              	.LVL214:
 2589              		.loc 1 601 0
 2590 0766 9DED060A 		vldr.32	s0, [sp, #24]
 2591 076a 0598     		ldr	r0, [sp, #20]
 2592 076c FFF7FEFF 		bl	timeout_configure
 2593              	.LVL215:
 2594              		.loc 1 602 0
 2595 0770 4FF4FA60 		mov	r0, #2000
 2596 0774 FFF7FEFF 		bl	chThdSleep
 2597              	.LVL216:
 2598              	.LBB119:
 2599              	.LBB120:
 2600              		.loc 1 91 0
 2601 0778 054B     		ldr	r3, .L204
 2602              	.LBE120:
 2603              	.LBE119:
 2604              		.loc 1 605 0
 2605 077a 0648     		ldr	r0, .L204+4
 2606              	.LBB123:
 2607              	.LBB121:
 2608              		.loc 1 91 0
 2609 077c 1B68     		ldr	r3, [r3]
 2610              	.LBE121:
 2611              	.LBE123:
 2612              		.loc 1 605 0
 2613 077e 0295     		str	r5, [sp, #8]
 2614 0780 1022     		movs	r2, #16
 2615 0782 0270     		strb	r2, [r0]
 2616              	.LVL217:
 2617              	.LBB124:
 2618              	.LBB122:
 2619              		.loc 1 91 0
 2620 0784 002B     		cmp	r3, #0
 2621 0786 3FF4BCAC 		beq	.L75
 2622              		.loc 1 92 0
ARM GAS  C:\Users\CHRIST~1\AppData\Local\Temp\ccu8H79a.s 			page 47


 2623 078a 2946     		mov	r1, r5
 2624 078c 9847     		blx	r3
 2625              	.LVL218:
 2626 078e B8E4     		b	.L75
 2627              	.L205:
 2628              		.align	2
 2629              	.L204:
 2630 0790 00000000 		.word	.LANCHOR10
 2631 0794 00000000 		.word	.LANCHOR8
 2632              	.LVL219:
 2633              	.L92:
 2634              	.LBE122:
 2635              	.LBE124:
 2636              		.loc 1 408 0
 2637 0798 B8F10E0F 		cmp	r8, #14
 2638 079c 00F03587 		beq	.L199
 2639              		.loc 1 411 0
 2640 07a0 F148     		ldr	r0, .L206
 2641 07a2 FFF7FEFF 		bl	conf_general_get_default_mc_configuration
 2642              	.LVL220:
 2643              	.L116:
 2644              		.loc 1 420 0
 2645 07a6 36AE     		add	r6, sp, #216
 2646              		.loc 1 417 0
 2647 07a8 EF4D     		ldr	r5, .L206
 2648              	.LVL221:
 2649              		.loc 1 415 0
 2650 07aa F04C     		ldr	r4, .L206+4
 2651              	.LVL222:
 2652              		.loc 1 418 0
 2653 07ac 6878     		ldrb	r0, [r5, #1]	@ zero_extendqisi2
 2654              		.loc 1 419 0
 2655 07ae AA78     		ldrb	r2, [r5, #2]	@ zero_extendqisi2
 2656              		.loc 1 422 0
 2657 07b0 95ED010A 		vldr.32	s0, [r5, #4]
 2658              		.loc 1 418 0
 2659 07b4 A070     		strb	r0, [r4, #2]
 2660              		.loc 1 420 0
 2661 07b6 0523     		movs	r3, #5
 2662 07b8 46F8D03D 		str	r3, [r6, #-208]!
 2663              		.loc 1 417 0
 2664 07bc 2B78     		ldrb	r3, [r5]	@ zero_extendqisi2
 2665 07be 6370     		strb	r3, [r4, #1]
 2666              		.loc 1 422 0
 2667 07c0 3146     		mov	r1, r6
 2668              		.loc 1 420 0
 2669 07c2 EB78     		ldrb	r3, [r5, #3]	@ zero_extendqisi2
 2670              		.loc 1 419 0
 2671 07c4 E270     		strb	r2, [r4, #3]
 2672              		.loc 1 422 0
 2673 07c6 2046     		mov	r0, r4
 2674              		.loc 1 420 0
 2675 07c8 2371     		strb	r3, [r4, #4]
 2676              		.loc 1 415 0
 2677 07ca 84F80080 		strb	r8, [r4]
 2678              		.loc 1 422 0
 2679 07ce FFF7FEFF 		bl	buffer_append_float32_auto
ARM GAS  C:\Users\CHRIST~1\AppData\Local\Temp\ccu8H79a.s 			page 48


 2680              	.LVL223:
 2681              		.loc 1 423 0
 2682 07d2 3146     		mov	r1, r6
 2683 07d4 95ED020A 		vldr.32	s0, [r5, #8]
 2684 07d8 2046     		mov	r0, r4
 2685 07da FFF7FEFF 		bl	buffer_append_float32_auto
 2686              	.LVL224:
 2687              		.loc 1 424 0
 2688 07de 3146     		mov	r1, r6
 2689 07e0 95ED030A 		vldr.32	s0, [r5, #12]
 2690 07e4 2046     		mov	r0, r4
 2691 07e6 FFF7FEFF 		bl	buffer_append_float32_auto
 2692              	.LVL225:
 2693              		.loc 1 425 0
 2694 07ea 3146     		mov	r1, r6
 2695 07ec 95ED040A 		vldr.32	s0, [r5, #16]
 2696 07f0 2046     		mov	r0, r4
 2697 07f2 FFF7FEFF 		bl	buffer_append_float32_auto
 2698              	.LVL226:
 2699              		.loc 1 426 0
 2700 07f6 3146     		mov	r1, r6
 2701 07f8 95ED050A 		vldr.32	s0, [r5, #20]
 2702 07fc 2046     		mov	r0, r4
 2703 07fe FFF7FEFF 		bl	buffer_append_float32_auto
 2704              	.LVL227:
 2705              		.loc 1 427 0
 2706 0802 3146     		mov	r1, r6
 2707 0804 95ED060A 		vldr.32	s0, [r5, #24]
 2708 0808 2046     		mov	r0, r4
 2709 080a FFF7FEFF 		bl	buffer_append_float32_auto
 2710              	.LVL228:
 2711              		.loc 1 428 0
 2712 080e 3146     		mov	r1, r6
 2713 0810 95ED070A 		vldr.32	s0, [r5, #28]
 2714 0814 2046     		mov	r0, r4
 2715 0816 FFF7FEFF 		bl	buffer_append_float32_auto
 2716              	.LVL229:
 2717              		.loc 1 429 0
 2718 081a 3146     		mov	r1, r6
 2719 081c 95ED080A 		vldr.32	s0, [r5, #32]
 2720 0820 2046     		mov	r0, r4
 2721 0822 FFF7FEFF 		bl	buffer_append_float32_auto
 2722              	.LVL230:
 2723              		.loc 1 430 0
 2724 0826 3146     		mov	r1, r6
 2725 0828 95ED090A 		vldr.32	s0, [r5, #36]
 2726 082c 2046     		mov	r0, r4
 2727 082e FFF7FEFF 		bl	buffer_append_float32_auto
 2728              	.LVL231:
 2729              		.loc 1 431 0
 2730 0832 3146     		mov	r1, r6
 2731 0834 95ED0A0A 		vldr.32	s0, [r5, #40]
 2732 0838 2046     		mov	r0, r4
 2733 083a FFF7FEFF 		bl	buffer_append_float32_auto
 2734              	.LVL232:
 2735              		.loc 1 432 0
 2736 083e 3146     		mov	r1, r6
ARM GAS  C:\Users\CHRIST~1\AppData\Local\Temp\ccu8H79a.s 			page 49


 2737 0840 95ED0B0A 		vldr.32	s0, [r5, #44]
 2738 0844 2046     		mov	r0, r4
 2739 0846 FFF7FEFF 		bl	buffer_append_float32_auto
 2740              	.LVL233:
 2741              		.loc 1 433 0
 2742 084a 3146     		mov	r1, r6
 2743 084c 95ED0C0A 		vldr.32	s0, [r5, #48]
 2744 0850 2046     		mov	r0, r4
 2745 0852 FFF7FEFF 		bl	buffer_append_float32_auto
 2746              	.LVL234:
 2747              		.loc 1 434 0
 2748 0856 3146     		mov	r1, r6
 2749 0858 95ED0D0A 		vldr.32	s0, [r5, #52]
 2750 085c 2046     		mov	r0, r4
 2751 085e FFF7FEFF 		bl	buffer_append_float32_auto
 2752              	.LVL235:
 2753              		.loc 1 435 0
 2754 0862 3146     		mov	r1, r6
 2755 0864 95ED0E0A 		vldr.32	s0, [r5, #56]
 2756 0868 2046     		mov	r0, r4
 2757 086a FFF7FEFF 		bl	buffer_append_float32_auto
 2758              	.LVL236:
 2759              		.loc 1 436 0
 2760 086e 029B     		ldr	r3, [sp, #8]
 2761 0870 95F83C20 		ldrb	r2, [r5, #60]	@ zero_extendqisi2
 2762 0874 E254     		strb	r2, [r4, r3]
 2763              		.loc 1 437 0
 2764 0876 95ED100A 		vldr.32	s0, [r5, #64]
 2765              		.loc 1 436 0
 2766 087a 0133     		adds	r3, r3, #1
 2767              		.loc 1 437 0
 2768 087c 3146     		mov	r1, r6
 2769 087e 2046     		mov	r0, r4
 2770              		.loc 1 436 0
 2771 0880 0293     		str	r3, [sp, #8]
 2772              		.loc 1 437 0
 2773 0882 FFF7FEFF 		bl	buffer_append_float32_auto
 2774              	.LVL237:
 2775              		.loc 1 438 0
 2776 0886 3146     		mov	r1, r6
 2777 0888 95ED110A 		vldr.32	s0, [r5, #68]
 2778 088c 2046     		mov	r0, r4
 2779 088e FFF7FEFF 		bl	buffer_append_float32_auto
 2780              	.LVL238:
 2781              		.loc 1 439 0
 2782 0892 3146     		mov	r1, r6
 2783 0894 95ED120A 		vldr.32	s0, [r5, #72]
 2784 0898 2046     		mov	r0, r4
 2785 089a FFF7FEFF 		bl	buffer_append_float32_auto
 2786              	.LVL239:
 2787              		.loc 1 440 0
 2788 089e 3146     		mov	r1, r6
 2789 08a0 95ED130A 		vldr.32	s0, [r5, #76]
 2790 08a4 2046     		mov	r0, r4
 2791 08a6 FFF7FEFF 		bl	buffer_append_float32_auto
 2792              	.LVL240:
 2793              		.loc 1 441 0
ARM GAS  C:\Users\CHRIST~1\AppData\Local\Temp\ccu8H79a.s 			page 50


 2794 08aa 3146     		mov	r1, r6
 2795 08ac 95ED140A 		vldr.32	s0, [r5, #80]
 2796 08b0 2046     		mov	r0, r4
 2797 08b2 FFF7FEFF 		bl	buffer_append_float32_auto
 2798              	.LVL241:
 2799              		.loc 1 442 0
 2800 08b6 3146     		mov	r1, r6
 2801 08b8 95ED150A 		vldr.32	s0, [r5, #84]
 2802 08bc 2046     		mov	r0, r4
 2803 08be FFF7FEFF 		bl	buffer_append_float32_auto
 2804              	.LVL242:
 2805              		.loc 1 443 0
 2806 08c2 3146     		mov	r1, r6
 2807 08c4 95ED160A 		vldr.32	s0, [r5, #88]
 2808 08c8 2046     		mov	r0, r4
 2809 08ca FFF7FEFF 		bl	buffer_append_float32_auto
 2810              	.LVL243:
 2811              		.loc 1 444 0
 2812 08ce 3146     		mov	r1, r6
 2813 08d0 95ED170A 		vldr.32	s0, [r5, #92]
 2814 08d4 2046     		mov	r0, r4
 2815 08d6 FFF7FEFF 		bl	buffer_append_float32_auto
 2816              	.LVL244:
 2817              		.loc 1 445 0
 2818 08da 3146     		mov	r1, r6
 2819 08dc 95ED180A 		vldr.32	s0, [r5, #96]
 2820 08e0 2046     		mov	r0, r4
 2821 08e2 FFF7FEFF 		bl	buffer_append_float32_auto
 2822              	.LVL245:
 2823              		.loc 1 447 0
 2824 08e6 3146     		mov	r1, r6
 2825 08e8 95ED1F0A 		vldr.32	s0, [r5, #124]
 2826 08ec 2046     		mov	r0, r4
 2827 08ee FFF7FEFF 		bl	buffer_append_float32_auto
 2828              	.LVL246:
 2829              		.loc 1 448 0
 2830 08f2 3146     		mov	r1, r6
 2831 08f4 95ED200A 		vldr.32	s0, [r5, #128]
 2832 08f8 2046     		mov	r0, r4
 2833 08fa FFF7FEFF 		bl	buffer_append_float32_auto
 2834              	.LVL247:
 2835              		.loc 1 449 0
 2836 08fe 3146     		mov	r1, r6
 2837 0900 95ED210A 		vldr.32	s0, [r5, #132]
 2838 0904 2046     		mov	r0, r4
 2839 0906 FFF7FEFF 		bl	buffer_append_float32_auto
 2840              	.LVL248:
 2841              		.loc 1 450 0
 2842 090a 3146     		mov	r1, r6
 2843 090c 95ED220A 		vldr.32	s0, [r5, #136]
 2844 0910 2046     		mov	r0, r4
 2845 0912 FFF7FEFF 		bl	buffer_append_float32_auto
 2846              	.LVL249:
 2847              		.loc 1 451 0
 2848 0916 3146     		mov	r1, r6
 2849 0918 95ED230A 		vldr.32	s0, [r5, #140]
 2850 091c 2046     		mov	r0, r4
ARM GAS  C:\Users\CHRIST~1\AppData\Local\Temp\ccu8H79a.s 			page 51


 2851 091e FFF7FEFF 		bl	buffer_append_float32_auto
 2852              	.LVL250:
 2853              		.loc 1 452 0
 2854 0922 3146     		mov	r1, r6
 2855 0924 95ED240A 		vldr.32	s0, [r5, #144]
 2856 0928 2046     		mov	r0, r4
 2857 092a FFF7FEFF 		bl	buffer_append_float32_auto
 2858              	.LVL251:
 2859              		.loc 1 453 0
 2860 092e 3146     		mov	r1, r6
 2861 0930 95ED250A 		vldr.32	s0, [r5, #148]
 2862 0934 2046     		mov	r0, r4
 2863 0936 FFF7FEFF 		bl	buffer_append_float32_auto
 2864              	.LVL252:
 2865              		.loc 1 455 0
 2866 093a 029B     		ldr	r3, [sp, #8]
 2867              		.loc 1 457 0
 2868 093c 95ED280A 		vldr.32	s0, [r5, #160]
 2869              		.loc 1 455 0
 2870 0940 05F19802 		add	r2, r5, #152
 2871 0944 03CA     		ldmia	r2!, {r0, r1}
 2872 0946 E218     		adds	r2, r4, r3
 2873 0948 E050     		str	r0, [r4, r3]	@ unaligned
 2874              		.loc 1 456 0
 2875 094a 0833     		adds	r3, r3, #8
 2876              		.loc 1 455 0
 2877 094c 5160     		str	r1, [r2, #4]	@ unaligned
 2878              		.loc 1 457 0
 2879 094e 2046     		mov	r0, r4
 2880 0950 3146     		mov	r1, r6
 2881              		.loc 1 456 0
 2882 0952 0293     		str	r3, [sp, #8]
 2883              		.loc 1 457 0
 2884 0954 FFF7FEFF 		bl	buffer_append_float32_auto
 2885              	.LVL253:
 2886              		.loc 1 459 0
 2887 0958 3146     		mov	r1, r6
 2888 095a 95ED290A 		vldr.32	s0, [r5, #164]
 2889 095e 2046     		mov	r0, r4
 2890 0960 FFF7FEFF 		bl	buffer_append_float32_auto
 2891              	.LVL254:
 2892              		.loc 1 460 0
 2893 0964 3146     		mov	r1, r6
 2894 0966 95ED2A0A 		vldr.32	s0, [r5, #168]
 2895 096a 2046     		mov	r0, r4
 2896 096c FFF7FEFF 		bl	buffer_append_float32_auto
 2897              	.LVL255:
 2898              		.loc 1 461 0
 2899 0970 3146     		mov	r1, r6
 2900 0972 95ED2B0A 		vldr.32	s0, [r5, #172]
 2901 0976 2046     		mov	r0, r4
 2902 0978 FFF7FEFF 		bl	buffer_append_float32_auto
 2903              	.LVL256:
 2904              		.loc 1 462 0
 2905 097c 3146     		mov	r1, r6
 2906 097e 95ED2C0A 		vldr.32	s0, [r5, #176]
 2907 0982 2046     		mov	r0, r4
ARM GAS  C:\Users\CHRIST~1\AppData\Local\Temp\ccu8H79a.s 			page 52


 2908 0984 FFF7FEFF 		bl	buffer_append_float32_auto
 2909              	.LVL257:
 2910              		.loc 1 463 0
 2911 0988 029B     		ldr	r3, [sp, #8]
 2912 098a 95F8B820 		ldrb	r2, [r5, #184]	@ zero_extendqisi2
 2913 098e E254     		strb	r2, [r4, r3]
 2914              		.loc 1 464 0
 2915 0990 95ED2D0A 		vldr.32	s0, [r5, #180]
 2916              		.loc 1 463 0
 2917 0994 0133     		adds	r3, r3, #1
 2918              		.loc 1 464 0
 2919 0996 3146     		mov	r1, r6
 2920 0998 2046     		mov	r0, r4
 2921              		.loc 1 463 0
 2922 099a 0293     		str	r3, [sp, #8]
 2923              		.loc 1 464 0
 2924 099c FFF7FEFF 		bl	buffer_append_float32_auto
 2925              	.LVL258:
 2926              		.loc 1 465 0
 2927 09a0 3146     		mov	r1, r6
 2928 09a2 95ED2F0A 		vldr.32	s0, [r5, #188]
 2929 09a6 2046     		mov	r0, r4
 2930 09a8 FFF7FEFF 		bl	buffer_append_float32_auto
 2931              	.LVL259:
 2932              		.loc 1 466 0
 2933 09ac 029B     		ldr	r3, [sp, #8]
 2934 09ae 95F8F820 		ldrb	r2, [r5, #248]	@ zero_extendqisi2
 2935 09b2 E254     		strb	r2, [r4, r3]
 2936              		.loc 1 467 0
 2937 09b4 95ED350A 		vldr.32	s0, [r5, #212]
 2938              		.loc 1 466 0
 2939 09b8 0133     		adds	r3, r3, #1
 2940              		.loc 1 467 0
 2941 09ba 3146     		mov	r1, r6
 2942 09bc 2046     		mov	r0, r4
 2943              		.loc 1 466 0
 2944 09be 0293     		str	r3, [sp, #8]
 2945              		.loc 1 467 0
 2946 09c0 FFF7FEFF 		bl	buffer_append_float32_auto
 2947              	.LVL260:
 2948              		.loc 1 468 0
 2949 09c4 3146     		mov	r1, r6
 2950 09c6 95ED360A 		vldr.32	s0, [r5, #216]
 2951 09ca 2046     		mov	r0, r4
 2952 09cc FFF7FEFF 		bl	buffer_append_float32_auto
 2953              	.LVL261:
 2954              		.loc 1 469 0
 2955 09d0 3146     		mov	r1, r6
 2956 09d2 95ED300A 		vldr.32	s0, [r5, #192]
 2957 09d6 2046     		mov	r0, r4
 2958 09d8 FFF7FEFF 		bl	buffer_append_float32_auto
 2959              	.LVL262:
 2960              		.loc 1 470 0
 2961 09dc 3146     		mov	r1, r6
 2962 09de 95ED310A 		vldr.32	s0, [r5, #196]
 2963 09e2 2046     		mov	r0, r4
 2964 09e4 FFF7FEFF 		bl	buffer_append_float32_auto
ARM GAS  C:\Users\CHRIST~1\AppData\Local\Temp\ccu8H79a.s 			page 53


 2965              	.LVL263:
 2966              		.loc 1 471 0
 2967 09e8 3146     		mov	r1, r6
 2968 09ea 95ED320A 		vldr.32	s0, [r5, #200]
 2969 09ee 2046     		mov	r0, r4
 2970 09f0 FFF7FEFF 		bl	buffer_append_float32_auto
 2971              	.LVL264:
 2972              		.loc 1 472 0
 2973 09f4 3146     		mov	r1, r6
 2974 09f6 95ED330A 		vldr.32	s0, [r5, #204]
 2975 09fa 2046     		mov	r0, r4
 2976 09fc FFF7FEFF 		bl	buffer_append_float32_auto
 2977              	.LVL265:
 2978              		.loc 1 473 0
 2979 0a00 3146     		mov	r1, r6
 2980 0a02 95ED340A 		vldr.32	s0, [r5, #208]
 2981 0a06 2046     		mov	r0, r4
 2982 0a08 FFF7FEFF 		bl	buffer_append_float32_auto
 2983              	.LVL266:
 2984              		.loc 1 474 0
 2985 0a0c 3146     		mov	r1, r6
 2986 0a0e 95ED370A 		vldr.32	s0, [r5, #220]
 2987 0a12 2046     		mov	r0, r4
 2988 0a14 FFF7FEFF 		bl	buffer_append_float32_auto
 2989              	.LVL267:
 2990              		.loc 1 475 0
 2991 0a18 3146     		mov	r1, r6
 2992 0a1a 95ED380A 		vldr.32	s0, [r5, #224]
 2993 0a1e 2046     		mov	r0, r4
 2994 0a20 FFF7FEFF 		bl	buffer_append_float32_auto
 2995              	.LVL268:
 2996              		.loc 1 476 0
 2997 0a24 3146     		mov	r1, r6
 2998 0a26 95ED390A 		vldr.32	s0, [r5, #228]
 2999 0a2a 2046     		mov	r0, r4
 3000 0a2c FFF7FEFF 		bl	buffer_append_float32_auto
 3001              	.LVL269:
 3002              		.loc 1 477 0
 3003 0a30 3146     		mov	r1, r6
 3004 0a32 95ED3A0A 		vldr.32	s0, [r5, #232]
 3005 0a36 2046     		mov	r0, r4
 3006 0a38 FFF7FEFF 		bl	buffer_append_float32_auto
 3007              	.LVL270:
 3008              		.loc 1 478 0
 3009 0a3c 3146     		mov	r1, r6
 3010 0a3e 95ED3B0A 		vldr.32	s0, [r5, #236]
 3011 0a42 2046     		mov	r0, r4
 3012 0a44 FFF7FEFF 		bl	buffer_append_float32_auto
 3013              	.LVL271:
 3014              		.loc 1 479 0
 3015 0a48 3146     		mov	r1, r6
 3016 0a4a 95ED3C0A 		vldr.32	s0, [r5, #240]
 3017 0a4e 2046     		mov	r0, r4
 3018 0a50 FFF7FEFF 		bl	buffer_append_float32_auto
 3019              	.LVL272:
 3020              		.loc 1 480 0
 3021 0a54 3146     		mov	r1, r6
ARM GAS  C:\Users\CHRIST~1\AppData\Local\Temp\ccu8H79a.s 			page 54


 3022 0a56 95ED3D0A 		vldr.32	s0, [r5, #244]
 3023 0a5a 2046     		mov	r0, r4
 3024 0a5c FFF7FEFF 		bl	buffer_append_float32_auto
 3025              	.LVL273:
 3026              		.loc 1 481 0
 3027 0a60 2A46     		mov	r2, r5
 3028 0a62 029B     		ldr	r3, [sp, #8]
 3029 0a64 52F8F91F 		ldr	r1, [r2, #249]!	@ unaligned
 3030 0a68 E150     		str	r1, [r4, r3]	@ unaligned
 3031 0a6a 5068     		ldr	r0, [r2, #4]	@ unaligned
 3032              		.loc 1 483 0
 3033 0a6c 95ED410A 		vldr.32	s0, [r5, #260]
 3034              		.loc 1 481 0
 3035 0a70 E218     		adds	r2, r4, r3
 3036              		.loc 1 483 0
 3037 0a72 3146     		mov	r1, r6
 3038              		.loc 1 482 0
 3039 0a74 0833     		adds	r3, r3, #8
 3040              		.loc 1 481 0
 3041 0a76 5060     		str	r0, [r2, #4]	@ unaligned
 3042              		.loc 1 483 0
 3043 0a78 2046     		mov	r0, r4
 3044              		.loc 1 482 0
 3045 0a7a 0293     		str	r3, [sp, #8]
 3046              		.loc 1 483 0
 3047 0a7c FFF7FEFF 		bl	buffer_append_float32_auto
 3048              	.LVL274:
 3049              		.loc 1 484 0
 3050 0a80 029B     		ldr	r3, [sp, #8]
 3051 0a82 95F80821 		ldrb	r2, [r5, #264]	@ zero_extendqisi2
 3052 0a86 E254     		strb	r2, [r4, r3]
 3053              		.loc 1 485 0
 3054 0a88 E218     		adds	r2, r4, r3
 3055 0a8a 95F80971 		ldrb	r7, [r5, #265]	@ zero_extendqisi2
 3056              	.LVL275:
 3057              		.loc 1 486 0
 3058 0a8e 95ED430A 		vldr.32	s0, [r5, #268]
 3059              		.loc 1 485 0
 3060 0a92 5770     		strb	r7, [r2, #1]
 3061 0a94 0233     		adds	r3, r3, #2
 3062              		.loc 1 486 0
 3063 0a96 3146     		mov	r1, r6
 3064 0a98 2046     		mov	r0, r4
 3065              		.loc 1 485 0
 3066 0a9a 0293     		str	r3, [sp, #8]
 3067              		.loc 1 486 0
 3068 0a9c FFF7FEFF 		bl	buffer_append_float32_auto
 3069              	.LVL276:
 3070              		.loc 1 487 0
 3071 0aa0 029B     		ldr	r3, [sp, #8]
 3072 0aa2 95F81021 		ldrb	r2, [r5, #272]	@ zero_extendqisi2
 3073 0aa6 E254     		strb	r2, [r4, r3]
 3074              		.loc 1 488 0
 3075 0aa8 95ED450A 		vldr.32	s0, [r5, #276]
 3076              		.loc 1 487 0
 3077 0aac 0133     		adds	r3, r3, #1
 3078              		.loc 1 488 0
ARM GAS  C:\Users\CHRIST~1\AppData\Local\Temp\ccu8H79a.s 			page 55


 3079 0aae 3146     		mov	r1, r6
 3080 0ab0 2046     		mov	r0, r4
 3081              		.loc 1 487 0
 3082 0ab2 0293     		str	r3, [sp, #8]
 3083              		.loc 1 488 0
 3084 0ab4 FFF7FEFF 		bl	buffer_append_float32_auto
 3085              	.LVL277:
 3086              		.loc 1 490 0
 3087 0ab8 3146     		mov	r1, r6
 3088 0aba 95ED460A 		vldr.32	s0, [r5, #280]
 3089 0abe 2046     		mov	r0, r4
 3090 0ac0 FFF7FEFF 		bl	buffer_append_float32_auto
 3091              	.LVL278:
 3092              		.loc 1 491 0
 3093 0ac4 3146     		mov	r1, r6
 3094 0ac6 95ED470A 		vldr.32	s0, [r5, #284]
 3095 0aca 2046     		mov	r0, r4
 3096 0acc FFF7FEFF 		bl	buffer_append_float32_auto
 3097              	.LVL279:
 3098              		.loc 1 492 0
 3099 0ad0 3146     		mov	r1, r6
 3100 0ad2 95ED480A 		vldr.32	s0, [r5, #288]
 3101 0ad6 2046     		mov	r0, r4
 3102 0ad8 FFF7FEFF 		bl	buffer_append_float32_auto
 3103              	.LVL280:
 3104              		.loc 1 493 0
 3105 0adc 3146     		mov	r1, r6
 3106 0ade 95ED490A 		vldr.32	s0, [r5, #292]
 3107 0ae2 2046     		mov	r0, r4
 3108 0ae4 FFF7FEFF 		bl	buffer_append_float32_auto
 3109              	.LVL281:
 3110              		.loc 1 494 0
 3111 0ae8 029B     		ldr	r3, [sp, #8]
 3112 0aea 95F82821 		ldrb	r2, [r5, #296]	@ zero_extendqisi2
 3113 0aee E254     		strb	r2, [r4, r3]
 3114              		.loc 1 496 0
 3115 0af0 95ED4B0A 		vldr.32	s0, [r5, #300]
 3116              		.loc 1 494 0
 3117 0af4 0133     		adds	r3, r3, #1
 3118              		.loc 1 496 0
 3119 0af6 3146     		mov	r1, r6
 3120 0af8 2046     		mov	r0, r4
 3121              		.loc 1 494 0
 3122 0afa 0293     		str	r3, [sp, #8]
 3123              		.loc 1 496 0
 3124 0afc FFF7FEFF 		bl	buffer_append_float32_auto
 3125              	.LVL282:
 3126              		.loc 1 497 0
 3127 0b00 3146     		mov	r1, r6
 3128 0b02 95ED4C0A 		vldr.32	s0, [r5, #304]
 3129 0b06 2046     		mov	r0, r4
 3130 0b08 FFF7FEFF 		bl	buffer_append_float32_auto
 3131              	.LVL283:
 3132              		.loc 1 498 0
 3133 0b0c 3146     		mov	r1, r6
 3134 0b0e 95ED4D0A 		vldr.32	s0, [r5, #308]
 3135 0b12 2046     		mov	r0, r4
ARM GAS  C:\Users\CHRIST~1\AppData\Local\Temp\ccu8H79a.s 			page 56


 3136 0b14 FFF7FEFF 		bl	buffer_append_float32_auto
 3137              	.LVL284:
 3138              		.loc 1 499 0
 3139 0b18 3146     		mov	r1, r6
 3140 0b1a 95ED4E0A 		vldr.32	s0, [r5, #312]
 3141 0b1e 2046     		mov	r0, r4
 3142 0b20 FFF7FEFF 		bl	buffer_append_float32_auto
 3143              	.LVL285:
 3144              		.loc 1 501 0
 3145 0b24 3146     		mov	r1, r6
 3146 0b26 95ED4F0A 		vldr.32	s0, [r5, #316]
 3147 0b2a 2046     		mov	r0, r4
 3148 0b2c FFF7FEFF 		bl	buffer_append_float32_auto
 3149              	.LVL286:
 3150              		.loc 1 502 0
 3151 0b30 3146     		mov	r1, r6
 3152 0b32 95ED500A 		vldr.32	s0, [r5, #320]
 3153 0b36 2046     		mov	r0, r4
 3154 0b38 FFF7FEFF 		bl	buffer_append_float32_auto
 3155              	.LVL287:
 3156              		.loc 1 503 0
 3157 0b3c 3146     		mov	r1, r6
 3158 0b3e 95ED510A 		vldr.32	s0, [r5, #324]
 3159 0b42 2046     		mov	r0, r4
 3160 0b44 FFF7FEFF 		bl	buffer_append_float32_auto
 3161              	.LVL288:
 3162              		.loc 1 504 0
 3163 0b48 95ED520A 		vldr.32	s0, [r5, #328]
 3164 0b4c 3146     		mov	r1, r6
 3165 0b4e 2046     		mov	r0, r4
 3166 0b50 FFF7FEFF 		bl	buffer_append_float32_auto
 3167              	.LVL289:
 3168              		.loc 1 506 0
 3169 0b54 3246     		mov	r2, r6
 3170 0b56 D5F84C11 		ldr	r1, [r5, #332]
 3171 0b5a 2046     		mov	r0, r4
 3172 0b5c FFF7FEFF 		bl	buffer_append_int32
 3173              	.LVL290:
 3174              		.loc 1 507 0
 3175 0b60 3146     		mov	r1, r6
 3176 0b62 95ED540A 		vldr.32	s0, [r5, #336]
 3177 0b66 03E0     		b	.L207
 3178              	.L208:
 3179              		.align	2
 3180              	.L206:
 3181 0b68 00000000 		.word	.LANCHOR15
 3182 0b6c 00000000 		.word	.LANCHOR8
 3183              	.L207:
 3184 0b70 2046     		mov	r0, r4
 3185 0b72 FFF7FEFF 		bl	buffer_append_float32_auto
 3186              	.LVL291:
 3187              		.loc 1 508 0
 3188 0b76 95ED550A 		vldr.32	s0, [r5, #340]
 3189 0b7a 3146     		mov	r1, r6
 3190 0b7c 2046     		mov	r0, r4
 3191 0b7e FFF7FEFF 		bl	buffer_append_float32_auto
 3192              	.LVL292:
ARM GAS  C:\Users\CHRIST~1\AppData\Local\Temp\ccu8H79a.s 			page 57


 3193              		.loc 1 509 0
 3194 0b82 3246     		mov	r2, r6
 3195 0b84 D5F85811 		ldr	r1, [r5, #344]
 3196 0b88 2046     		mov	r0, r4
 3197 0b8a FFF7FEFF 		bl	buffer_append_uint32
 3198              	.LVL293:
 3199              		.loc 1 510 0
 3200 0b8e 029B     		ldr	r3, [sp, #8]
 3201 0b90 95F85C21 		ldrb	r2, [r5, #348]	@ zero_extendqisi2
 3202 0b94 E254     		strb	r2, [r4, r3]
 3203              		.loc 1 511 0
 3204 0b96 E218     		adds	r2, r4, r3
 3205              		.loc 1 512 0
 3206 0b98 95F85E01 		ldrb	r0, [r5, #350]	@ zero_extendqisi2
 3207 0b9c 9070     		strb	r0, [r2, #2]
 3208              		.loc 1 513 0
 3209 0b9e 0433     		adds	r3, r3, #4
 3210              		.loc 1 514 0
 3211 0ba0 95ED590A 		vldr.32	s0, [r5, #356]
 3212              		.loc 1 511 0
 3213 0ba4 95F85D71 		ldrb	r7, [r5, #349]	@ zero_extendqisi2
 3214              		.loc 1 513 0
 3215 0ba8 0293     		str	r3, [sp, #8]
 3216              		.loc 1 514 0
 3217 0baa 3146     		mov	r1, r6
 3218              		.loc 1 513 0
 3219 0bac D5F86031 		ldr	r3, [r5, #352]
 3220 0bb0 D370     		strb	r3, [r2, #3]
 3221              		.loc 1 514 0
 3222 0bb2 2046     		mov	r0, r4
 3223              		.loc 1 511 0
 3224 0bb4 5770     		strb	r7, [r2, #1]
 3225              		.loc 1 514 0
 3226 0bb6 FFF7FEFF 		bl	buffer_append_float32_auto
 3227              	.LVL294:
 3228              		.loc 1 515 0
 3229 0bba 3146     		mov	r1, r6
 3230 0bbc 95ED5A0A 		vldr.32	s0, [r5, #360]
 3231 0bc0 2046     		mov	r0, r4
 3232 0bc2 FFF7FEFF 		bl	buffer_append_float32_auto
 3233              	.LVL295:
 3234              		.loc 1 516 0
 3235 0bc6 3146     		mov	r1, r6
 3236 0bc8 95ED5B0A 		vldr.32	s0, [r5, #364]
 3237 0bcc 2046     		mov	r0, r4
 3238 0bce FFF7FEFF 		bl	buffer_append_float32_auto
 3239              	.LVL296:
 3240              		.loc 1 517 0
 3241 0bd2 3146     		mov	r1, r6
 3242 0bd4 95ED5C0A 		vldr.32	s0, [r5, #368]
 3243 0bd8 2046     		mov	r0, r4
 3244 0bda FFF7FEFF 		bl	buffer_append_float32_auto
 3245              	.LVL297:
 3246              	.LBB125:
 3247              	.LBB126:
 3248              		.loc 1 91 0
 3249 0bde 044B     		ldr	r3, .L209
ARM GAS  C:\Users\CHRIST~1\AppData\Local\Temp\ccu8H79a.s 			page 58


 3250              	.LBE126:
 3251              	.LBE125:
 3252              		.loc 1 519 0
 3253 0be0 0299     		ldr	r1, [sp, #8]
 3254              	.LVL298:
 3255              	.LBB128:
 3256              	.LBB127:
 3257              		.loc 1 91 0
 3258 0be2 1B68     		ldr	r3, [r3]
 3259 0be4 002B     		cmp	r3, #0
 3260 0be6 7FF48AAA 		bne	.L189
 3261 0bea FFF78ABA 		b	.L75
 3262              	.L210:
 3263 0bee 00BF     		.align	2
 3264              	.L209:
 3265 0bf0 00000000 		.word	.LANCHOR10
 3266              	.LVL299:
 3267              	.L91:
 3268              	.LBE127:
 3269              	.LBE128:
 3270              		.loc 1 252 0
 3271 0bf4 FFF7FEFF 		bl	mc_interface_get_configuration
 3272              	.LVL300:
 3273 0bf8 E44D     		ldr	r5, .L211
 3274              	.LVL301:
 3275              		.loc 1 258 0
 3276 0bfa 36AE     		add	r6, sp, #216
 3277              		.loc 1 252 0
 3278 0bfc 0146     		mov	r1, r0
 3279 0bfe 4FF4BA72 		mov	r2, #372
 3280 0c02 2846     		mov	r0, r5
 3281 0c04 FFF7FEFF 		bl	memcpy
 3282              	.LVL302:
 3283              		.loc 1 258 0
 3284 0c08 0423     		movs	r3, #4
 3285 0c0a 46F8D03D 		str	r3, [r6, #-208]!
 3286              		.loc 1 255 0
 3287 0c0e 7978     		ldrb	r1, [r7, #1]	@ zero_extendqisi2
 3288              		.loc 1 256 0
 3289 0c10 B878     		ldrb	r0, [r7, #2]	@ zero_extendqisi2
 3290              		.loc 1 257 0
 3291 0c12 FA78     		ldrb	r2, [r7, #3]	@ zero_extendqisi2
 3292              		.loc 1 258 0
 3293 0c14 3B79     		ldrb	r3, [r7, #4]	@ zero_extendqisi2
 3294              		.loc 1 255 0
 3295 0c16 2970     		strb	r1, [r5]
 3296              		.loc 1 256 0
 3297 0c18 6870     		strb	r0, [r5, #1]
 3298              		.loc 1 260 0
 3299 0c1a 3146     		mov	r1, r6
 3300 0c1c 2046     		mov	r0, r4
 3301              		.loc 1 257 0
 3302 0c1e AA70     		strb	r2, [r5, #2]
 3303              		.loc 1 258 0
 3304 0c20 EB70     		strb	r3, [r5, #3]
 3305              		.loc 1 260 0
 3306 0c22 FFF7FEFF 		bl	buffer_get_float32_auto
ARM GAS  C:\Users\CHRIST~1\AppData\Local\Temp\ccu8H79a.s 			page 59


 3307              	.LVL303:
 3308              		.loc 1 261 0
 3309 0c26 3146     		mov	r1, r6
 3310 0c28 2046     		mov	r0, r4
 3311              		.loc 1 260 0
 3312 0c2a 85ED010A 		vstr.32	s0, [r5, #4]
 3313              		.loc 1 261 0
 3314 0c2e FFF7FEFF 		bl	buffer_get_float32_auto
 3315              	.LVL304:
 3316              		.loc 1 262 0
 3317 0c32 3146     		mov	r1, r6
 3318 0c34 2046     		mov	r0, r4
 3319              		.loc 1 261 0
 3320 0c36 85ED020A 		vstr.32	s0, [r5, #8]
 3321              		.loc 1 262 0
 3322 0c3a FFF7FEFF 		bl	buffer_get_float32_auto
 3323              	.LVL305:
 3324              		.loc 1 263 0
 3325 0c3e 3146     		mov	r1, r6
 3326 0c40 2046     		mov	r0, r4
 3327              		.loc 1 262 0
 3328 0c42 85ED030A 		vstr.32	s0, [r5, #12]
 3329              		.loc 1 263 0
 3330 0c46 FFF7FEFF 		bl	buffer_get_float32_auto
 3331              	.LVL306:
 3332              		.loc 1 264 0
 3333 0c4a 3146     		mov	r1, r6
 3334 0c4c 2046     		mov	r0, r4
 3335              		.loc 1 263 0
 3336 0c4e 85ED040A 		vstr.32	s0, [r5, #16]
 3337              		.loc 1 264 0
 3338 0c52 FFF7FEFF 		bl	buffer_get_float32_auto
 3339              	.LVL307:
 3340              		.loc 1 265 0
 3341 0c56 3146     		mov	r1, r6
 3342 0c58 2046     		mov	r0, r4
 3343              		.loc 1 264 0
 3344 0c5a 85ED050A 		vstr.32	s0, [r5, #20]
 3345              		.loc 1 265 0
 3346 0c5e FFF7FEFF 		bl	buffer_get_float32_auto
 3347              	.LVL308:
 3348              		.loc 1 266 0
 3349 0c62 3146     		mov	r1, r6
 3350 0c64 2046     		mov	r0, r4
 3351              		.loc 1 265 0
 3352 0c66 85ED060A 		vstr.32	s0, [r5, #24]
 3353              		.loc 1 266 0
 3354 0c6a FFF7FEFF 		bl	buffer_get_float32_auto
 3355              	.LVL309:
 3356              		.loc 1 267 0
 3357 0c6e 3146     		mov	r1, r6
 3358 0c70 2046     		mov	r0, r4
 3359              		.loc 1 266 0
 3360 0c72 85ED070A 		vstr.32	s0, [r5, #28]
 3361              		.loc 1 267 0
 3362 0c76 FFF7FEFF 		bl	buffer_get_float32_auto
 3363              	.LVL310:
ARM GAS  C:\Users\CHRIST~1\AppData\Local\Temp\ccu8H79a.s 			page 60


 3364              		.loc 1 268 0
 3365 0c7a 3146     		mov	r1, r6
 3366 0c7c 2046     		mov	r0, r4
 3367              		.loc 1 267 0
 3368 0c7e 85ED080A 		vstr.32	s0, [r5, #32]
 3369              		.loc 1 268 0
 3370 0c82 FFF7FEFF 		bl	buffer_get_float32_auto
 3371              	.LVL311:
 3372              		.loc 1 269 0
 3373 0c86 3146     		mov	r1, r6
 3374 0c88 2046     		mov	r0, r4
 3375              		.loc 1 268 0
 3376 0c8a 85ED090A 		vstr.32	s0, [r5, #36]
 3377              		.loc 1 269 0
 3378 0c8e FFF7FEFF 		bl	buffer_get_float32_auto
 3379              	.LVL312:
 3380              		.loc 1 270 0
 3381 0c92 3146     		mov	r1, r6
 3382 0c94 2046     		mov	r0, r4
 3383              		.loc 1 269 0
 3384 0c96 85ED0A0A 		vstr.32	s0, [r5, #40]
 3385              		.loc 1 270 0
 3386 0c9a FFF7FEFF 		bl	buffer_get_float32_auto
 3387              	.LVL313:
 3388              		.loc 1 271 0
 3389 0c9e 3146     		mov	r1, r6
 3390 0ca0 2046     		mov	r0, r4
 3391              		.loc 1 270 0
 3392 0ca2 85ED0B0A 		vstr.32	s0, [r5, #44]
 3393              		.loc 1 271 0
 3394 0ca6 FFF7FEFF 		bl	buffer_get_float32_auto
 3395              	.LVL314:
 3396              		.loc 1 272 0
 3397 0caa 3146     		mov	r1, r6
 3398 0cac 2046     		mov	r0, r4
 3399              		.loc 1 271 0
 3400 0cae 85ED0C0A 		vstr.32	s0, [r5, #48]
 3401              		.loc 1 272 0
 3402 0cb2 FFF7FEFF 		bl	buffer_get_float32_auto
 3403              	.LVL315:
 3404              		.loc 1 273 0
 3405 0cb6 3146     		mov	r1, r6
 3406 0cb8 2046     		mov	r0, r4
 3407              		.loc 1 272 0
 3408 0cba 85ED0D0A 		vstr.32	s0, [r5, #52]
 3409              		.loc 1 273 0
 3410 0cbe FFF7FEFF 		bl	buffer_get_float32_auto
 3411              	.LVL316:
 3412              		.loc 1 274 0
 3413 0cc2 029B     		ldr	r3, [sp, #8]
 3414              		.loc 1 273 0
 3415 0cc4 85ED0E0A 		vstr.32	s0, [r5, #56]
 3416              		.loc 1 274 0
 3417 0cc8 E25C     		ldrb	r2, [r4, r3]	@ zero_extendqisi2
 3418 0cca 0032     		adds	r2, r2, #0
 3419 0ccc 18BF     		it	ne
 3420 0cce 0122     		movne	r2, #1
ARM GAS  C:\Users\CHRIST~1\AppData\Local\Temp\ccu8H79a.s 			page 61


 3421 0cd0 0133     		adds	r3, r3, #1
 3422              		.loc 1 275 0
 3423 0cd2 3146     		mov	r1, r6
 3424 0cd4 2046     		mov	r0, r4
 3425              		.loc 1 274 0
 3426 0cd6 85F83C20 		strb	r2, [r5, #60]
 3427 0cda 0293     		str	r3, [sp, #8]
 3428              		.loc 1 275 0
 3429 0cdc FFF7FEFF 		bl	buffer_get_float32_auto
 3430              	.LVL317:
 3431              		.loc 1 276 0
 3432 0ce0 3146     		mov	r1, r6
 3433 0ce2 2046     		mov	r0, r4
 3434              		.loc 1 275 0
 3435 0ce4 85ED100A 		vstr.32	s0, [r5, #64]
 3436              		.loc 1 276 0
 3437 0ce8 FFF7FEFF 		bl	buffer_get_float32_auto
 3438              	.LVL318:
 3439              		.loc 1 277 0
 3440 0cec 3146     		mov	r1, r6
 3441 0cee 2046     		mov	r0, r4
 3442              		.loc 1 276 0
 3443 0cf0 85ED110A 		vstr.32	s0, [r5, #68]
 3444              		.loc 1 277 0
 3445 0cf4 FFF7FEFF 		bl	buffer_get_float32_auto
 3446              	.LVL319:
 3447              		.loc 1 278 0
 3448 0cf8 3146     		mov	r1, r6
 3449 0cfa 2046     		mov	r0, r4
 3450              		.loc 1 277 0
 3451 0cfc 85ED120A 		vstr.32	s0, [r5, #72]
 3452              		.loc 1 278 0
 3453 0d00 FFF7FEFF 		bl	buffer_get_float32_auto
 3454              	.LVL320:
 3455              		.loc 1 279 0
 3456 0d04 3146     		mov	r1, r6
 3457 0d06 2046     		mov	r0, r4
 3458              		.loc 1 278 0
 3459 0d08 85ED130A 		vstr.32	s0, [r5, #76]
 3460              		.loc 1 279 0
 3461 0d0c FFF7FEFF 		bl	buffer_get_float32_auto
 3462              	.LVL321:
 3463              		.loc 1 280 0
 3464 0d10 3146     		mov	r1, r6
 3465 0d12 2046     		mov	r0, r4
 3466              		.loc 1 279 0
 3467 0d14 85ED140A 		vstr.32	s0, [r5, #80]
 3468              		.loc 1 280 0
 3469 0d18 FFF7FEFF 		bl	buffer_get_float32_auto
 3470              	.LVL322:
 3471              		.loc 1 281 0
 3472 0d1c 3146     		mov	r1, r6
 3473 0d1e 2046     		mov	r0, r4
 3474              		.loc 1 280 0
 3475 0d20 85ED150A 		vstr.32	s0, [r5, #84]
 3476              		.loc 1 281 0
 3477 0d24 FFF7FEFF 		bl	buffer_get_float32_auto
ARM GAS  C:\Users\CHRIST~1\AppData\Local\Temp\ccu8H79a.s 			page 62


 3478              	.LVL323:
 3479              		.loc 1 282 0
 3480 0d28 3146     		mov	r1, r6
 3481 0d2a 2046     		mov	r0, r4
 3482              		.loc 1 281 0
 3483 0d2c 85ED160A 		vstr.32	s0, [r5, #88]
 3484              		.loc 1 282 0
 3485 0d30 FFF7FEFF 		bl	buffer_get_float32_auto
 3486              	.LVL324:
 3487              		.loc 1 283 0
 3488 0d34 3146     		mov	r1, r6
 3489 0d36 2046     		mov	r0, r4
 3490              		.loc 1 282 0
 3491 0d38 85ED170A 		vstr.32	s0, [r5, #92]
 3492              		.loc 1 283 0
 3493 0d3c FFF7FEFF 		bl	buffer_get_float32_auto
 3494              	.LVL325:
 3495              		.loc 1 287 0
 3496 0d40 E968     		ldr	r1, [r5, #12]	@ float
 3497              		.loc 1 288 0
 3498 0d42 2869     		ldr	r0, [r5, #16]	@ float
 3499              		.loc 1 285 0
 3500 0d44 6A68     		ldr	r2, [r5, #4]	@ float
 3501              		.loc 1 286 0
 3502 0d46 AB68     		ldr	r3, [r5, #8]	@ float
 3503              		.loc 1 287 0
 3504 0d48 E966     		str	r1, [r5, #108]	@ float
 3505              		.loc 1 288 0
 3506 0d4a 2867     		str	r0, [r5, #112]	@ float
 3507              		.loc 1 292 0
 3508 0d4c 3146     		mov	r1, r6
 3509 0d4e 2046     		mov	r0, r4
 3510              		.loc 1 285 0
 3511 0d50 6A66     		str	r2, [r5, #100]	@ float
 3512              		.loc 1 289 0
 3513 0d52 6A67     		str	r2, [r5, #116]	@ float
 3514              		.loc 1 286 0
 3515 0d54 AB66     		str	r3, [r5, #104]	@ float
 3516              		.loc 1 290 0
 3517 0d56 AB67     		str	r3, [r5, #120]	@ float
 3518              		.loc 1 283 0
 3519 0d58 85ED180A 		vstr.32	s0, [r5, #96]
 3520              		.loc 1 292 0
 3521 0d5c FFF7FEFF 		bl	buffer_get_float32_auto
 3522              	.LVL326:
 3523              		.loc 1 293 0
 3524 0d60 3146     		mov	r1, r6
 3525 0d62 2046     		mov	r0, r4
 3526              		.loc 1 292 0
 3527 0d64 85ED1F0A 		vstr.32	s0, [r5, #124]
 3528              		.loc 1 293 0
 3529 0d68 FFF7FEFF 		bl	buffer_get_float32_auto
 3530              	.LVL327:
 3531              		.loc 1 294 0
 3532 0d6c 3146     		mov	r1, r6
 3533 0d6e 2046     		mov	r0, r4
 3534              		.loc 1 293 0
ARM GAS  C:\Users\CHRIST~1\AppData\Local\Temp\ccu8H79a.s 			page 63


 3535 0d70 85ED200A 		vstr.32	s0, [r5, #128]
 3536              		.loc 1 294 0
 3537 0d74 FFF7FEFF 		bl	buffer_get_float32_auto
 3538              	.LVL328:
 3539              		.loc 1 295 0
 3540 0d78 3146     		mov	r1, r6
 3541 0d7a 2046     		mov	r0, r4
 3542              		.loc 1 294 0
 3543 0d7c 85ED210A 		vstr.32	s0, [r5, #132]
 3544              		.loc 1 295 0
 3545 0d80 FFF7FEFF 		bl	buffer_get_float32_auto
 3546              	.LVL329:
 3547              		.loc 1 296 0
 3548 0d84 3146     		mov	r1, r6
 3549 0d86 2046     		mov	r0, r4
 3550              		.loc 1 295 0
 3551 0d88 85ED220A 		vstr.32	s0, [r5, #136]
 3552              		.loc 1 296 0
 3553 0d8c FFF7FEFF 		bl	buffer_get_float32_auto
 3554              	.LVL330:
 3555              		.loc 1 297 0
 3556 0d90 3146     		mov	r1, r6
 3557 0d92 2046     		mov	r0, r4
 3558              		.loc 1 296 0
 3559 0d94 85ED230A 		vstr.32	s0, [r5, #140]
 3560              		.loc 1 297 0
 3561 0d98 FFF7FEFF 		bl	buffer_get_float32_auto
 3562              	.LVL331:
 3563              		.loc 1 298 0
 3564 0d9c 3146     		mov	r1, r6
 3565 0d9e 2046     		mov	r0, r4
 3566              		.loc 1 297 0
 3567 0da0 85ED240A 		vstr.32	s0, [r5, #144]
 3568              		.loc 1 298 0
 3569 0da4 FFF7FEFF 		bl	buffer_get_float32_auto
 3570              	.LVL332:
 3571              		.loc 1 300 0
 3572 0da8 029B     		ldr	r3, [sp, #8]
 3573              		.loc 1 298 0
 3574 0daa 85ED250A 		vstr.32	s0, [r5, #148]
 3575              		.loc 1 300 0
 3576 0dae E118     		adds	r1, r4, r3
 3577 0db0 05F19802 		add	r2, r5, #152
 3578 0db4 0868     		ldr	r0, [r1]	@ unaligned
 3579 0db6 4968     		ldr	r1, [r1, #4]	@ unaligned
 3580              		.loc 1 301 0
 3581 0db8 0833     		adds	r3, r3, #8
 3582              		.loc 1 300 0
 3583 0dba 03C2     		stmia	r2!, {r0, r1}
 3584              		.loc 1 302 0
 3585 0dbc 3146     		mov	r1, r6
 3586 0dbe 2046     		mov	r0, r4
 3587              		.loc 1 301 0
 3588 0dc0 0293     		str	r3, [sp, #8]
 3589              		.loc 1 302 0
 3590 0dc2 FFF7FEFF 		bl	buffer_get_float32_auto
 3591              	.LVL333:
ARM GAS  C:\Users\CHRIST~1\AppData\Local\Temp\ccu8H79a.s 			page 64


 3592              		.loc 1 304 0
 3593 0dc6 3146     		mov	r1, r6
 3594 0dc8 2046     		mov	r0, r4
 3595              		.loc 1 302 0
 3596 0dca 85ED280A 		vstr.32	s0, [r5, #160]
 3597              		.loc 1 304 0
 3598 0dce FFF7FEFF 		bl	buffer_get_float32_auto
 3599              	.LVL334:
 3600              		.loc 1 305 0
 3601 0dd2 3146     		mov	r1, r6
 3602 0dd4 2046     		mov	r0, r4
 3603              		.loc 1 304 0
 3604 0dd6 85ED290A 		vstr.32	s0, [r5, #164]
 3605              		.loc 1 305 0
 3606 0dda FFF7FEFF 		bl	buffer_get_float32_auto
 3607              	.LVL335:
 3608              		.loc 1 306 0
 3609 0dde 3146     		mov	r1, r6
 3610 0de0 2046     		mov	r0, r4
 3611              		.loc 1 305 0
 3612 0de2 85ED2A0A 		vstr.32	s0, [r5, #168]
 3613              		.loc 1 306 0
 3614 0de6 FFF7FEFF 		bl	buffer_get_float32_auto
 3615              	.LVL336:
 3616              		.loc 1 307 0
 3617 0dea 3146     		mov	r1, r6
 3618 0dec 2046     		mov	r0, r4
 3619              		.loc 1 306 0
 3620 0dee 85ED2B0A 		vstr.32	s0, [r5, #172]
 3621              		.loc 1 307 0
 3622 0df2 FFF7FEFF 		bl	buffer_get_float32_auto
 3623              	.LVL337:
 3624              		.loc 1 308 0
 3625 0df6 029B     		ldr	r3, [sp, #8]
 3626              		.loc 1 307 0
 3627 0df8 85ED2C0A 		vstr.32	s0, [r5, #176]
 3628              		.loc 1 308 0
 3629 0dfc E25C     		ldrb	r2, [r4, r3]	@ zero_extendqisi2
 3630 0dfe 0032     		adds	r2, r2, #0
 3631 0e00 18BF     		it	ne
 3632 0e02 0122     		movne	r2, #1
 3633 0e04 0133     		adds	r3, r3, #1
 3634              		.loc 1 309 0
 3635 0e06 3146     		mov	r1, r6
 3636 0e08 2046     		mov	r0, r4
 3637              		.loc 1 308 0
 3638 0e0a 85F8B820 		strb	r2, [r5, #184]
 3639 0e0e 0293     		str	r3, [sp, #8]
 3640              		.loc 1 309 0
 3641 0e10 FFF7FEFF 		bl	buffer_get_float32_auto
 3642              	.LVL338:
 3643              		.loc 1 310 0
 3644 0e14 3146     		mov	r1, r6
 3645 0e16 2046     		mov	r0, r4
 3646              		.loc 1 309 0
 3647 0e18 85ED2D0A 		vstr.32	s0, [r5, #180]
 3648              		.loc 1 310 0
ARM GAS  C:\Users\CHRIST~1\AppData\Local\Temp\ccu8H79a.s 			page 65


 3649 0e1c FFF7FEFF 		bl	buffer_get_float32_auto
 3650              	.LVL339:
 3651              		.loc 1 311 0
 3652 0e20 029B     		ldr	r3, [sp, #8]
 3653              		.loc 1 310 0
 3654 0e22 85ED2F0A 		vstr.32	s0, [r5, #188]
 3655              		.loc 1 311 0
 3656 0e26 E25C     		ldrb	r2, [r4, r3]	@ zero_extendqisi2
 3657 0e28 85F8F820 		strb	r2, [r5, #248]
 3658 0e2c 0133     		adds	r3, r3, #1
 3659              		.loc 1 312 0
 3660 0e2e 3146     		mov	r1, r6
 3661 0e30 2046     		mov	r0, r4
 3662              		.loc 1 311 0
 3663 0e32 0293     		str	r3, [sp, #8]
 3664              		.loc 1 312 0
 3665 0e34 FFF7FEFF 		bl	buffer_get_float32_auto
 3666              	.LVL340:
 3667              		.loc 1 313 0
 3668 0e38 3146     		mov	r1, r6
 3669 0e3a 2046     		mov	r0, r4
 3670              		.loc 1 312 0
 3671 0e3c 85ED350A 		vstr.32	s0, [r5, #212]
 3672              		.loc 1 313 0
 3673 0e40 FFF7FEFF 		bl	buffer_get_float32_auto
 3674              	.LVL341:
 3675              		.loc 1 314 0
 3676 0e44 3146     		mov	r1, r6
 3677 0e46 2046     		mov	r0, r4
 3678              		.loc 1 313 0
 3679 0e48 85ED360A 		vstr.32	s0, [r5, #216]
 3680              		.loc 1 314 0
 3681 0e4c FFF7FEFF 		bl	buffer_get_float32_auto
 3682              	.LVL342:
 3683              		.loc 1 315 0
 3684 0e50 3146     		mov	r1, r6
 3685 0e52 2046     		mov	r0, r4
 3686              		.loc 1 314 0
 3687 0e54 85ED300A 		vstr.32	s0, [r5, #192]
 3688              		.loc 1 315 0
 3689 0e58 FFF7FEFF 		bl	buffer_get_float32_auto
 3690              	.LVL343:
 3691              		.loc 1 316 0
 3692 0e5c 3146     		mov	r1, r6
 3693 0e5e 2046     		mov	r0, r4
 3694              		.loc 1 315 0
 3695 0e60 85ED310A 		vstr.32	s0, [r5, #196]
 3696              		.loc 1 316 0
 3697 0e64 FFF7FEFF 		bl	buffer_get_float32_auto
 3698              	.LVL344:
 3699              		.loc 1 317 0
 3700 0e68 3146     		mov	r1, r6
 3701 0e6a 2046     		mov	r0, r4
 3702              		.loc 1 316 0
 3703 0e6c 85ED320A 		vstr.32	s0, [r5, #200]
 3704              		.loc 1 317 0
 3705 0e70 FFF7FEFF 		bl	buffer_get_float32_auto
ARM GAS  C:\Users\CHRIST~1\AppData\Local\Temp\ccu8H79a.s 			page 66


 3706              	.LVL345:
 3707              		.loc 1 318 0
 3708 0e74 3146     		mov	r1, r6
 3709 0e76 2046     		mov	r0, r4
 3710              		.loc 1 317 0
 3711 0e78 85ED330A 		vstr.32	s0, [r5, #204]
 3712              		.loc 1 318 0
 3713 0e7c FFF7FEFF 		bl	buffer_get_float32_auto
 3714              	.LVL346:
 3715              		.loc 1 319 0
 3716 0e80 3146     		mov	r1, r6
 3717 0e82 2046     		mov	r0, r4
 3718              		.loc 1 318 0
 3719 0e84 85ED340A 		vstr.32	s0, [r5, #208]
 3720              		.loc 1 319 0
 3721 0e88 FFF7FEFF 		bl	buffer_get_float32_auto
 3722              	.LVL347:
 3723              		.loc 1 320 0
 3724 0e8c 3146     		mov	r1, r6
 3725 0e8e 2046     		mov	r0, r4
 3726              		.loc 1 319 0
 3727 0e90 85ED370A 		vstr.32	s0, [r5, #220]
 3728              		.loc 1 320 0
 3729 0e94 FFF7FEFF 		bl	buffer_get_float32_auto
 3730              	.LVL348:
 3731              		.loc 1 321 0
 3732 0e98 3146     		mov	r1, r6
 3733 0e9a 2046     		mov	r0, r4
 3734              		.loc 1 320 0
 3735 0e9c 85ED380A 		vstr.32	s0, [r5, #224]
 3736              		.loc 1 321 0
 3737 0ea0 FFF7FEFF 		bl	buffer_get_float32_auto
 3738              	.LVL349:
 3739              		.loc 1 322 0
 3740 0ea4 3146     		mov	r1, r6
 3741 0ea6 2046     		mov	r0, r4
 3742              		.loc 1 321 0
 3743 0ea8 85ED390A 		vstr.32	s0, [r5, #228]
 3744              		.loc 1 322 0
 3745 0eac FFF7FEFF 		bl	buffer_get_float32_auto
 3746              	.LVL350:
 3747              		.loc 1 323 0
 3748 0eb0 3146     		mov	r1, r6
 3749 0eb2 2046     		mov	r0, r4
 3750              		.loc 1 322 0
 3751 0eb4 85ED3A0A 		vstr.32	s0, [r5, #232]
 3752              		.loc 1 323 0
 3753 0eb8 FFF7FEFF 		bl	buffer_get_float32_auto
 3754              	.LVL351:
 3755              		.loc 1 324 0
 3756 0ebc 3146     		mov	r1, r6
 3757 0ebe 2046     		mov	r0, r4
 3758              		.loc 1 323 0
 3759 0ec0 85ED3B0A 		vstr.32	s0, [r5, #236]
 3760              		.loc 1 324 0
 3761 0ec4 FFF7FEFF 		bl	buffer_get_float32_auto
 3762              	.LVL352:
ARM GAS  C:\Users\CHRIST~1\AppData\Local\Temp\ccu8H79a.s 			page 67


 3763              		.loc 1 325 0
 3764 0ec8 3146     		mov	r1, r6
 3765 0eca 2046     		mov	r0, r4
 3766              		.loc 1 324 0
 3767 0ecc 85ED3C0A 		vstr.32	s0, [r5, #240]
 3768              		.loc 1 325 0
 3769 0ed0 FFF7FEFF 		bl	buffer_get_float32_auto
 3770              	.LVL353:
 3771              		.loc 1 326 0
 3772 0ed4 029B     		ldr	r3, [sp, #8]
 3773              		.loc 1 325 0
 3774 0ed6 85ED3D0A 		vstr.32	s0, [r5, #244]
 3775              		.loc 1 326 0
 3776 0eda E218     		adds	r2, r4, r3
 3777              		.loc 1 328 0
 3778 0edc 3146     		mov	r1, r6
 3779              		.loc 1 326 0
 3780 0ede 1768     		ldr	r7, [r2]	@ unaligned
 3781 0ee0 5268     		ldr	r2, [r2, #4]	@ unaligned
 3782 0ee2 C5F8FD20 		str	r2, [r5, #253]	@ unaligned
 3783              		.loc 1 327 0
 3784 0ee6 0833     		adds	r3, r3, #8
 3785              		.loc 1 328 0
 3786 0ee8 2046     		mov	r0, r4
 3787              		.loc 1 326 0
 3788 0eea C5F8F970 		str	r7, [r5, #249]	@ unaligned
 3789              		.loc 1 327 0
 3790 0eee 0293     		str	r3, [sp, #8]
 3791              		.loc 1 328 0
 3792 0ef0 FFF7FEFF 		bl	buffer_get_float32_auto
 3793              	.LVL354:
 3794              		.loc 1 329 0
 3795 0ef4 029B     		ldr	r3, [sp, #8]
 3796              		.loc 1 328 0
 3797 0ef6 85ED410A 		vstr.32	s0, [r5, #260]
 3798              		.loc 1 329 0
 3799 0efa E25C     		ldrb	r2, [r4, r3]	@ zero_extendqisi2
 3800 0efc 0032     		adds	r2, r2, #0
 3801 0efe 03F10101 		add	r1, r3, #1
 3802 0f02 18BF     		it	ne
 3803 0f04 0122     		movne	r2, #1
 3804 0f06 85F80821 		strb	r2, [r5, #264]
 3805              		.loc 1 330 0
 3806 0f0a 625C     		ldrb	r2, [r4, r1]	@ zero_extendqisi2
 3807 0f0c 0032     		adds	r2, r2, #0
 3808 0f0e 18BF     		it	ne
 3809 0f10 0122     		movne	r2, #1
 3810 0f12 0233     		adds	r3, r3, #2
 3811              		.loc 1 331 0
 3812 0f14 3146     		mov	r1, r6
 3813 0f16 2046     		mov	r0, r4
 3814              		.loc 1 330 0
 3815 0f18 85F80921 		strb	r2, [r5, #265]
 3816 0f1c 0293     		str	r3, [sp, #8]
 3817              		.loc 1 331 0
 3818 0f1e FFF7FEFF 		bl	buffer_get_float32_auto
 3819              	.LVL355:
ARM GAS  C:\Users\CHRIST~1\AppData\Local\Temp\ccu8H79a.s 			page 68


 3820              		.loc 1 332 0
 3821 0f22 029B     		ldr	r3, [sp, #8]
 3822              		.loc 1 331 0
 3823 0f24 85ED430A 		vstr.32	s0, [r5, #268]
 3824              		.loc 1 332 0
 3825 0f28 E25C     		ldrb	r2, [r4, r3]	@ zero_extendqisi2
 3826 0f2a 0032     		adds	r2, r2, #0
 3827 0f2c 18BF     		it	ne
 3828 0f2e 0122     		movne	r2, #1
 3829 0f30 0133     		adds	r3, r3, #1
 3830              		.loc 1 333 0
 3831 0f32 3146     		mov	r1, r6
 3832 0f34 2046     		mov	r0, r4
 3833              		.loc 1 332 0
 3834 0f36 85F81021 		strb	r2, [r5, #272]
 3835 0f3a 0293     		str	r3, [sp, #8]
 3836              		.loc 1 333 0
 3837 0f3c FFF7FEFF 		bl	buffer_get_float32_auto
 3838              	.LVL356:
 3839              		.loc 1 335 0
 3840 0f40 3146     		mov	r1, r6
 3841 0f42 2046     		mov	r0, r4
 3842              		.loc 1 333 0
 3843 0f44 85ED450A 		vstr.32	s0, [r5, #276]
 3844              		.loc 1 335 0
 3845 0f48 FFF7FEFF 		bl	buffer_get_float32_auto
 3846              	.LVL357:
 3847              		.loc 1 336 0
 3848 0f4c 3146     		mov	r1, r6
 3849 0f4e 2046     		mov	r0, r4
 3850              		.loc 1 335 0
 3851 0f50 85ED460A 		vstr.32	s0, [r5, #280]
 3852              		.loc 1 336 0
 3853 0f54 FFF7FEFF 		bl	buffer_get_float32_auto
 3854              	.LVL358:
 3855              		.loc 1 337 0
 3856 0f58 3146     		mov	r1, r6
 3857 0f5a 2046     		mov	r0, r4
 3858              		.loc 1 336 0
 3859 0f5c 85ED470A 		vstr.32	s0, [r5, #284]
 3860              		.loc 1 337 0
 3861 0f60 FFF7FEFF 		bl	buffer_get_float32_auto
 3862              	.LVL359:
 3863              		.loc 1 338 0
 3864 0f64 3146     		mov	r1, r6
 3865 0f66 2046     		mov	r0, r4
 3866              		.loc 1 337 0
 3867 0f68 85ED480A 		vstr.32	s0, [r5, #288]
 3868              		.loc 1 338 0
 3869 0f6c FFF7FEFF 		bl	buffer_get_float32_auto
 3870              	.LVL360:
 3871              		.loc 1 339 0
 3872 0f70 029B     		ldr	r3, [sp, #8]
 3873              		.loc 1 338 0
 3874 0f72 85ED490A 		vstr.32	s0, [r5, #292]
 3875              		.loc 1 339 0
 3876 0f76 E25C     		ldrb	r2, [r4, r3]	@ zero_extendqisi2
ARM GAS  C:\Users\CHRIST~1\AppData\Local\Temp\ccu8H79a.s 			page 69


 3877 0f78 0032     		adds	r2, r2, #0
 3878 0f7a 18BF     		it	ne
 3879 0f7c 0122     		movne	r2, #1
 3880 0f7e 0133     		adds	r3, r3, #1
 3881              		.loc 1 341 0
 3882 0f80 3146     		mov	r1, r6
 3883 0f82 2046     		mov	r0, r4
 3884              		.loc 1 339 0
 3885 0f84 85F82821 		strb	r2, [r5, #296]
 3886 0f88 18E0     		b	.L212
 3887              	.L213:
 3888 0f8a 00BF     		.align	2
 3889              	.L211:
 3890 0f8c 00000000 		.word	.LANCHOR15
 3891 0f90 0000C842 		.word	1120403456
 3892 0f94 0000C8C2 		.word	-1027080192
 3893 0f98 00001643 		.word	1125515264
 3894 0f9c 00006442 		.word	1113849856
 3895 0fa0 00504348 		.word	1212370944
 3896 0fa4 005043C8 		.word	-935112704
 3897 0fa8 CDCCCC3D 		.word	1036831949
 3898 0fac 3333733F 		.word	1064514355
 3899 0fb0 00000000 		.word	0
 3900 0fb4 0000DC42 		.word	1121714176
 3901 0fb8 000020C2 		.word	-1038090240
 3902              	.L212:
 3903 0fbc 0293     		str	r3, [sp, #8]
 3904              		.loc 1 341 0
 3905 0fbe FFF7FEFF 		bl	buffer_get_float32_auto
 3906              	.LVL361:
 3907              		.loc 1 342 0
 3908 0fc2 3146     		mov	r1, r6
 3909 0fc4 2046     		mov	r0, r4
 3910              		.loc 1 341 0
 3911 0fc6 85ED4B0A 		vstr.32	s0, [r5, #300]
 3912              		.loc 1 342 0
 3913 0fca FFF7FEFF 		bl	buffer_get_float32_auto
 3914              	.LVL362:
 3915              		.loc 1 343 0
 3916 0fce 3146     		mov	r1, r6
 3917 0fd0 2046     		mov	r0, r4
 3918              		.loc 1 342 0
 3919 0fd2 85ED4C0A 		vstr.32	s0, [r5, #304]
 3920              		.loc 1 343 0
 3921 0fd6 FFF7FEFF 		bl	buffer_get_float32_auto
 3922              	.LVL363:
 3923              		.loc 1 344 0
 3924 0fda 3146     		mov	r1, r6
 3925 0fdc 2046     		mov	r0, r4
 3926              		.loc 1 343 0
 3927 0fde 85ED4D0A 		vstr.32	s0, [r5, #308]
 3928              		.loc 1 344 0
 3929 0fe2 FFF7FEFF 		bl	buffer_get_float32_auto
 3930              	.LVL364:
 3931              		.loc 1 346 0
 3932 0fe6 3146     		mov	r1, r6
 3933 0fe8 2046     		mov	r0, r4
ARM GAS  C:\Users\CHRIST~1\AppData\Local\Temp\ccu8H79a.s 			page 70


 3934              		.loc 1 344 0
 3935 0fea 85ED4E0A 		vstr.32	s0, [r5, #312]
 3936              		.loc 1 346 0
 3937 0fee FFF7FEFF 		bl	buffer_get_float32_auto
 3938              	.LVL365:
 3939              		.loc 1 347 0
 3940 0ff2 3146     		mov	r1, r6
 3941 0ff4 2046     		mov	r0, r4
 3942              		.loc 1 346 0
 3943 0ff6 85ED4F0A 		vstr.32	s0, [r5, #316]
 3944              		.loc 1 347 0
 3945 0ffa FFF7FEFF 		bl	buffer_get_float32_auto
 3946              	.LVL366:
 3947              		.loc 1 348 0
 3948 0ffe 3146     		mov	r1, r6
 3949 1000 2046     		mov	r0, r4
 3950              		.loc 1 347 0
 3951 1002 85ED500A 		vstr.32	s0, [r5, #320]
 3952              		.loc 1 348 0
 3953 1006 FFF7FEFF 		bl	buffer_get_float32_auto
 3954              	.LVL367:
 3955              		.loc 1 349 0
 3956 100a 3146     		mov	r1, r6
 3957 100c 2046     		mov	r0, r4
 3958              		.loc 1 348 0
 3959 100e 85ED510A 		vstr.32	s0, [r5, #324]
 3960              		.loc 1 349 0
 3961 1012 FFF7FEFF 		bl	buffer_get_float32_auto
 3962              	.LVL368:
 3963              		.loc 1 351 0
 3964 1016 3146     		mov	r1, r6
 3965 1018 2046     		mov	r0, r4
 3966              		.loc 1 349 0
 3967 101a 85ED520A 		vstr.32	s0, [r5, #328]
 3968              		.loc 1 351 0
 3969 101e FFF7FEFF 		bl	buffer_get_int32
 3970              	.LVL369:
 3971              		.loc 1 352 0
 3972 1022 3146     		mov	r1, r6
 3973              		.loc 1 351 0
 3974 1024 C5F84C01 		str	r0, [r5, #332]
 3975              		.loc 1 352 0
 3976 1028 2046     		mov	r0, r4
 3977 102a FFF7FEFF 		bl	buffer_get_float32_auto
 3978              	.LVL370:
 3979              		.loc 1 353 0
 3980 102e 3146     		mov	r1, r6
 3981 1030 2046     		mov	r0, r4
 3982              		.loc 1 352 0
 3983 1032 85ED540A 		vstr.32	s0, [r5, #336]
 3984              		.loc 1 353 0
 3985 1036 FFF7FEFF 		bl	buffer_get_float32_auto
 3986              	.LVL371:
 3987              		.loc 1 354 0
 3988 103a 3146     		mov	r1, r6
 3989 103c 2046     		mov	r0, r4
 3990              		.loc 1 353 0
ARM GAS  C:\Users\CHRIST~1\AppData\Local\Temp\ccu8H79a.s 			page 71


 3991 103e 85ED550A 		vstr.32	s0, [r5, #340]
 3992              		.loc 1 354 0
 3993 1042 FFF7FEFF 		bl	buffer_get_uint32
 3994              	.LVL372:
 3995              		.loc 1 355 0
 3996 1046 029B     		ldr	r3, [sp, #8]
 3997              		.loc 1 354 0
 3998 1048 C5F85801 		str	r0, [r5, #344]
 3999              		.loc 1 355 0
 4000 104c E25C     		ldrb	r2, [r4, r3]	@ zero_extendqisi2
 4001 104e 85F85C21 		strb	r2, [r5, #348]
 4002 1052 5A1C     		adds	r2, r3, #1
 4003              		.loc 1 356 0
 4004 1054 991C     		adds	r1, r3, #2
 4005 1056 A25C     		ldrb	r2, [r4, r2]	@ zero_extendqisi2
 4006 1058 0032     		adds	r2, r2, #0
 4007 105a 18BF     		it	ne
 4008 105c 0122     		movne	r2, #1
 4009 105e 85F85D21 		strb	r2, [r5, #349]
 4010              		.loc 1 357 0
 4011 1062 625C     		ldrb	r2, [r4, r1]	@ zero_extendqisi2
 4012 1064 85F85E21 		strb	r2, [r5, #350]
 4013 1068 DA1C     		adds	r2, r3, #3
 4014              		.loc 1 359 0
 4015 106a 3146     		mov	r1, r6
 4016              		.loc 1 358 0
 4017 106c A25C     		ldrb	r2, [r4, r2]	@ zero_extendqisi2
 4018 106e C5F86021 		str	r2, [r5, #352]
 4019 1072 0433     		adds	r3, r3, #4
 4020              		.loc 1 359 0
 4021 1074 2046     		mov	r0, r4
 4022              		.loc 1 358 0
 4023 1076 0293     		str	r3, [sp, #8]
 4024              		.loc 1 359 0
 4025 1078 FFF7FEFF 		bl	buffer_get_float32_auto
 4026              	.LVL373:
 4027              		.loc 1 360 0
 4028 107c 3146     		mov	r1, r6
 4029 107e 2046     		mov	r0, r4
 4030              		.loc 1 359 0
 4031 1080 85ED590A 		vstr.32	s0, [r5, #356]
 4032              		.loc 1 360 0
 4033 1084 FFF7FEFF 		bl	buffer_get_float32_auto
 4034              	.LVL374:
 4035              		.loc 1 361 0
 4036 1088 3146     		mov	r1, r6
 4037 108a 2046     		mov	r0, r4
 4038              		.loc 1 360 0
 4039 108c 85ED5A0A 		vstr.32	s0, [r5, #360]
 4040              		.loc 1 361 0
 4041 1090 FFF7FEFF 		bl	buffer_get_float32_auto
 4042              	.LVL375:
 4043              		.loc 1 362 0
 4044 1094 3146     		mov	r1, r6
 4045 1096 2046     		mov	r0, r4
 4046              		.loc 1 361 0
 4047 1098 85ED5B0A 		vstr.32	s0, [r5, #364]
ARM GAS  C:\Users\CHRIST~1\AppData\Local\Temp\ccu8H79a.s 			page 72


 4048              		.loc 1 362 0
 4049 109c FFF7FEFF 		bl	buffer_get_float32_auto
 4050              	.LVL376:
 4051              		.loc 1 367 0
 4052 10a0 5FED450A 		vldr.32	s1, .L211+4
 4053              		.loc 1 362 0
 4054 10a4 85ED5C0A 		vstr.32	s0, [r5, #368]
 4055              		.loc 1 367 0
 4056 10a8 281D     		adds	r0, r5, #4
 4057 10aa 1FED460A 		vldr.32	s0, .L211+8
 4058 10ae FFF7FEFF 		bl	utils_truncate_number
 4059              	.LVL377:
 4060              		.loc 1 368 0
 4061 10b2 5FED490A 		vldr.32	s1, .L211+4
 4062 10b6 1FED490A 		vldr.32	s0, .L211+8
 4063 10ba 05F10800 		add	r0, r5, #8
 4064 10be FFF7FEFF 		bl	utils_truncate_number
 4065              	.LVL378:
 4066              		.loc 1 371 0
 4067 10c2 5FED4D0A 		vldr.32	s1, .L211+4
 4068 10c6 1FED4D0A 		vldr.32	s0, .L211+8
 4069 10ca 05F10C00 		add	r0, r5, #12
 4070 10ce FFF7FEFF 		bl	utils_truncate_number
 4071              	.LVL379:
 4072              		.loc 1 372 0
 4073 10d2 5FED510A 		vldr.32	s1, .L211+4
 4074 10d6 1FED510A 		vldr.32	s0, .L211+8
 4075 10da 05F11000 		add	r0, r5, #16
 4076 10de FFF7FEFF 		bl	utils_truncate_number
 4077              	.LVL380:
 4078              		.loc 1 375 0
 4079 10e2 5FED530A 		vldr.32	s1, .L211+12
 4080 10e6 1FED4E0A 		vldr.32	s0, .L211+36
 4081 10ea 05F11400 		add	r0, r5, #20
 4082 10ee FFF7FEFF 		bl	utils_truncate_number
 4083              	.LVL381:
 4084              		.loc 1 378 0
 4085 10f2 5FED560A 		vldr.32	s1, .L211+16
 4086 10f6 B1EE080A 		vmov.f32	s0, #6.0e+0
 4087 10fa 05F13000 		add	r0, r5, #48
 4088 10fe FFF7FEFF 		bl	utils_truncate_number
 4089              	.LVL382:
 4090              		.loc 1 379 0
 4091 1102 5FED5A0A 		vldr.32	s1, .L211+16
 4092 1106 B1EE080A 		vmov.f32	s0, #6.0e+0
 4093 110a 05F12C00 		add	r0, r5, #44
 4094 110e FFF7FEFF 		bl	utils_truncate_number
 4095              	.LVL383:
 4096              		.loc 1 382 0
 4097 1112 5FED5D0A 		vldr.32	s1, .L211+20
 4098 1116 1FED5D0A 		vldr.32	s0, .L211+24
 4099 111a 05F11C00 		add	r0, r5, #28
 4100 111e FFF7FEFF 		bl	utils_truncate_number
 4101              	.LVL384:
 4102              		.loc 1 383 0
 4103 1122 5FED610A 		vldr.32	s1, .L211+20
 4104 1126 1FED610A 		vldr.32	s0, .L211+24
ARM GAS  C:\Users\CHRIST~1\AppData\Local\Temp\ccu8H79a.s 			page 73


 4105 112a 05F11800 		add	r0, r5, #24
 4106 112e FFF7FEFF 		bl	utils_truncate_number
 4107              	.LVL385:
 4108              		.loc 1 386 0
 4109 1132 5FED630A 		vldr.32	s1, .L211+28
 4110 1136 1FED620A 		vldr.32	s0, .L211+36
 4111 113a 05F15400 		add	r0, r5, #84
 4112 113e FFF7FEFF 		bl	utils_truncate_number
 4113              	.LVL386:
 4114              		.loc 1 389 0
 4115 1142 5FED660A 		vldr.32	s1, .L211+32
 4116 1146 1FED660A 		vldr.32	s0, .L211+36
 4117 114a 05F15800 		add	r0, r5, #88
 4118 114e FFF7FEFF 		bl	utils_truncate_number
 4119              	.LVL387:
 4120              		.loc 1 392 0
 4121 1152 5FED680A 		vldr.32	s1, .L211+40
 4122 1156 1FED680A 		vldr.32	s0, .L211+44
 4123 115a 05F14000 		add	r0, r5, #64
 4124 115e FFF7FEFF 		bl	utils_truncate_number
 4125              	.LVL388:
 4126              		.loc 1 393 0
 4127 1162 5FED6C0A 		vldr.32	s1, .L211+40
 4128 1166 1FED6C0A 		vldr.32	s0, .L211+44
 4129 116a 05F14400 		add	r0, r5, #68
 4130 116e FFF7FEFF 		bl	utils_truncate_number
 4131              	.LVL389:
 4132              		.loc 1 397 0
 4133 1172 2846     		mov	r0, r5
 4134 1174 FFF7FEFF 		bl	conf_general_store_mc_configuration
 4135              	.LVL390:
 4136              		.loc 1 398 0
 4137 1178 2846     		mov	r0, r5
 4138 117a FFF7FEFF 		bl	mc_interface_set_configuration
 4139              	.LVL391:
 4140              		.loc 1 399 0
 4141 117e 4FF4FA60 		mov	r0, #2000
 4142 1182 FFF7FEFF 		bl	chThdSleep
 4143              	.LVL392:
 4144              	.LBB129:
 4145              	.LBB130:
 4146              		.loc 1 91 0
 4147 1186 D74B     		ldr	r3, .L214
 4148              	.LBE130:
 4149              	.LBE129:
 4150              		.loc 1 402 0
 4151 1188 D748     		ldr	r0, .L214+4
 4152              	.LBB133:
 4153              	.LBB131:
 4154              		.loc 1 91 0
 4155 118a 1B68     		ldr	r3, [r3]
 4156              	.LBE131:
 4157              	.LBE133:
 4158              		.loc 1 402 0
 4159 118c 0D22     		movs	r2, #13
 4160 118e 0121     		movs	r1, #1
 4161 1190 0270     		strb	r2, [r0]
ARM GAS  C:\Users\CHRIST~1\AppData\Local\Temp\ccu8H79a.s 			page 74


 4162              	.LVL393:
 4163 1192 0291     		str	r1, [sp, #8]
 4164              	.LBB134:
 4165              	.LBB132:
 4166              		.loc 1 91 0
 4167 1194 002B     		cmp	r3, #0
 4168 1196 3EF4B4AF 		beq	.L75
 4169              	.LVL394:
 4170              	.L190:
 4171              	.LBE132:
 4172              	.LBE134:
 4173              	.LBB135:
 4174              	.LBB136:
 4175              		.loc 1 92 0
 4176 119a 9847     		blx	r3
 4177              	.LVL395:
 4178 119c FEF7B1BF 		b	.L75
 4179              	.LVL396:
 4180              	.L89:
 4181              	.LBE136:
 4182              	.LBE135:
 4183              		.loc 1 219 0
 4184 11a0 2046     		mov	r0, r4
 4185 11a2 02A9     		add	r1, sp, #8
 4186 11a4 9FEDD10A 		vldr.32	s0, .L214+8
 4187 11a8 FFF7FEFF 		bl	buffer_get_float32
 4188              	.LVL397:
 4189 11ac FFF7FEFF 		bl	mc_interface_set_handbrake
 4190              	.LVL398:
 4191              		.loc 1 220 0
 4192 11b0 FFF7FEFF 		bl	timeout_reset
 4193              	.LVL399:
 4194              		.loc 1 221 0
 4195 11b4 FEF7A5BF 		b	.L75
 4196              	.L88:
 4197              		.loc 1 213 0
 4198 11b8 02A9     		add	r1, sp, #8
 4199 11ba 2046     		mov	r0, r4
 4200 11bc FFF7FEFF 		bl	buffer_get_int32
 4201              	.LVL400:
 4202 11c0 07EE100A 		vmov	s14, r0	@ int
 4203 11c4 DFEDCA7A 		vldr.32	s15, .L214+12
 4204 11c8 B8EEC70A 		vcvt.f32.s32	s0, s14
 4205 11cc 80EE270A 		vdiv.f32	s0, s0, s15
 4206 11d0 FFF7FEFF 		bl	mc_interface_set_pid_pos
 4207              	.LVL401:
 4208              		.loc 1 214 0
 4209 11d4 FFF7FEFF 		bl	timeout_reset
 4210              	.LVL402:
 4211              		.loc 1 215 0
 4212 11d8 FEF793BF 		b	.L75
 4213              	.L87:
 4214              		.loc 1 207 0
 4215 11dc 02A9     		add	r1, sp, #8
 4216 11de 2046     		mov	r0, r4
 4217 11e0 FFF7FEFF 		bl	buffer_get_int32
 4218              	.LVL403:
ARM GAS  C:\Users\CHRIST~1\AppData\Local\Temp\ccu8H79a.s 			page 75


 4219 11e4 07EE900A 		vmov	s15, r0	@ int
 4220 11e8 B8EEE70A 		vcvt.f32.s32	s0, s15
 4221 11ec FFF7FEFF 		bl	mc_interface_set_pid_speed
 4222              	.LVL404:
 4223              		.loc 1 208 0
 4224 11f0 FFF7FEFF 		bl	timeout_reset
 4225              	.LVL405:
 4226              		.loc 1 209 0
 4227 11f4 FEF785BF 		b	.L75
 4228              	.L78:
 4229              		.loc 1 130 0
 4230 11f8 BE4A     		ldr	r2, .L214+16
 4231              		.loc 1 125 0
 4232 11fa BB4B     		ldr	r3, .L214+4
 4233              		.loc 1 130 0
 4234 11fc 1188     		ldrh	r1, [r2]	@ unaligned
 4235 11fe 9078     		ldrb	r0, [r2, #2]	@ zero_extendqisi2
 4236 1200 A3F80310 		strh	r1, [r3, #3]	@ unaligned
 4237              		.loc 1 126 0
 4238 1204 2222     		movs	r2, #34
 4239              		.loc 1 125 0
 4240 1206 4FF44071 		mov	r1, #768
 4241              		.loc 1 133 0
 4242 120a BB4C     		ldr	r4, .L214+20
 4243              	.LVL406:
 4244              		.loc 1 130 0
 4245 120c 5871     		strb	r0, [r3, #5]
 4246              		.loc 1 125 0
 4247 120e 1980     		strh	r1, [r3]	@ movhi
 4248              		.loc 1 126 0
 4249 1210 9A70     		strb	r2, [r3, #2]
 4250              		.loc 1 133 0
 4251 1212 07CC     		ldmia	r4!, {r0, r1, r2}
 4252              	.LBB140:
 4253              	.LBB141:
 4254              		.loc 1 91 0
 4255 1214 B34C     		ldr	r4, .L214
 4256              	.LBE141:
 4257              	.LBE140:
 4258              		.loc 1 133 0
 4259 1216 C3F80A10 		str	r1, [r3, #10]	@ unaligned
 4260              	.LBB144:
 4261              	.LBB142:
 4262              		.loc 1 91 0
 4263 121a 2468     		ldr	r4, [r4]
 4264              	.LBE142:
 4265              	.LBE144:
 4266              		.loc 1 133 0
 4267 121c C3F80600 		str	r0, [r3, #6]	@ unaligned
 4268              		.loc 1 134 0
 4269 1220 1221     		movs	r1, #18
 4270              		.loc 1 133 0
 4271 1222 C3F80E20 		str	r2, [r3, #14]	@ unaligned
 4272              		.loc 1 134 0
 4273 1226 0291     		str	r1, [sp, #8]
 4274              	.LVL407:
 4275              	.LBB145:
ARM GAS  C:\Users\CHRIST~1\AppData\Local\Temp\ccu8H79a.s 			page 76


 4276              	.LBB143:
 4277              		.loc 1 91 0
 4278 1228 002C     		cmp	r4, #0
 4279 122a 3EF46AAF 		beq	.L75
 4280              		.loc 1 92 0
 4281 122e 1846     		mov	r0, r3
 4282 1230 A047     		blx	r4
 4283              	.LVL408:
 4284 1232 FEF766BF 		b	.L75
 4285              	.LVL409:
 4286              	.L110:
 4287              	.LBE143:
 4288              	.LBE145:
 4289              		.loc 1 849 0
 4290 1236 02A9     		add	r1, sp, #8
 4291 1238 2046     		mov	r0, r4
 4292 123a FFF7FEFF 		bl	buffer_get_int32
 4293              	.LVL410:
 4294 123e FFF7FEFF 		bl	nrf_driver_start_pairing
 4295              	.LVL411:
 4296              	.LBB146:
 4297              	.LBB137:
 4298              		.loc 1 91 0
 4299 1242 A84B     		ldr	r3, .L214
 4300              	.LBE137:
 4301              	.LBE146:
 4302              		.loc 1 852 0
 4303 1244 A848     		ldr	r0, .L214+4
 4304              	.LBB147:
 4305              	.LBB138:
 4306              		.loc 1 91 0
 4307 1246 1B68     		ldr	r3, [r3]
 4308              	.LBE138:
 4309              	.LBE147:
 4310              		.loc 1 852 0
 4311 1248 2524     		movs	r4, #37
 4312              	.LVL412:
 4313              		.loc 1 853 0
 4314 124a 0022     		movs	r2, #0
 4315 124c 0221     		movs	r1, #2
 4316              		.loc 1 852 0
 4317 124e 0470     		strb	r4, [r0]
 4318              		.loc 1 853 0
 4319 1250 4270     		strb	r2, [r0, #1]
 4320              	.LVL413:
 4321 1252 0291     		str	r1, [sp, #8]
 4322              	.LBB148:
 4323              	.LBB139:
 4324              		.loc 1 91 0
 4325 1254 002B     		cmp	r3, #0
 4326 1256 A0D1     		bne	.L190
 4327 1258 FEF753BF 		b	.L75
 4328              	.LVL414:
 4329              	.L109:
 4330              	.LBE139:
 4331              	.LBE148:
 4332              		.loc 1 842 0
ARM GAS  C:\Users\CHRIST~1\AppData\Local\Temp\ccu8H79a.s 			page 77


 4333 125c A74B     		ldr	r3, .L214+24
 4334 125e 1B68     		ldr	r3, [r3]
 4335 1260 002B     		cmp	r3, #0
 4336 1262 3EF44EAF 		beq	.L75
 4337              		.loc 1 843 0
 4338 1266 2946     		mov	r1, r5
 4339 1268 FEF749BF 		b	.L189
 4340              	.L108:
 4341              		.loc 1 833 0
 4342 126c C278     		ldrb	r2, [r0, #3]	@ zero_extendqisi2
 4343              		.loc 1 834 0
 4344 126e 0379     		ldrb	r3, [r0, #4]	@ zero_extendqisi2
 4345              		.loc 1 831 0
 4346 1270 4178     		ldrb	r1, [r0, #1]	@ zero_extendqisi2
 4347              		.loc 1 832 0
 4348 1272 8578     		ldrb	r5, [r0, #2]	@ zero_extendqisi2
 4349              	.LVL415:
 4350              		.loc 1 831 0
 4351 1274 0491     		str	r1, [sp, #16]
 4352              		.loc 1 833 0
 4353 1276 0032     		adds	r2, r2, #0
 4354 1278 18BF     		it	ne
 4355 127a 0122     		movne	r2, #1
 4356              		.loc 1 834 0
 4357 127c 0033     		adds	r3, r3, #0
 4358 127e 18BF     		it	ne
 4359 1280 0123     		movne	r3, #1
 4360              		.loc 1 835 0
 4361 1282 02A9     		add	r1, sp, #8
 4362              		.loc 1 833 0
 4363 1284 8DF82420 		strb	r2, [sp, #36]
 4364              		.loc 1 835 0
 4365 1288 2046     		mov	r0, r4
 4366              		.loc 1 834 0
 4367 128a 0422     		movs	r2, #4
 4368 128c 8DF82530 		strb	r3, [sp, #37]
 4369 1290 0292     		str	r2, [sp, #8]
 4370              		.loc 1 832 0
 4371 1292 0595     		str	r5, [sp, #20]
 4372              		.loc 1 835 0
 4373 1294 FFF7FEFF 		bl	buffer_get_int16
 4374              	.LVL416:
 4375              		.loc 1 836 0
 4376 1298 02A9     		add	r1, sp, #8
 4377              		.loc 1 835 0
 4378 129a 0690     		str	r0, [sp, #24]
 4379              		.loc 1 836 0
 4380 129c 2046     		mov	r0, r4
 4381 129e FFF7FEFF 		bl	buffer_get_int16
 4382              	.LVL417:
 4383              		.loc 1 837 0
 4384 12a2 02A9     		add	r1, sp, #8
 4385              		.loc 1 836 0
 4386 12a4 0790     		str	r0, [sp, #28]
 4387              		.loc 1 837 0
 4388 12a6 2046     		mov	r0, r4
 4389 12a8 FFF7FEFF 		bl	buffer_get_int16
ARM GAS  C:\Users\CHRIST~1\AppData\Local\Temp\ccu8H79a.s 			page 78


 4390              	.LVL418:
 4391 12ac 0890     		str	r0, [sp, #32]
 4392              		.loc 1 838 0
 4393 12ae 04A8     		add	r0, sp, #16
 4394 12b0 FFF7FEFF 		bl	app_nunchuk_update_output
 4395              	.LVL419:
 4396              		.loc 1 839 0
 4397 12b4 FEF725BF 		b	.L75
 4398              	.LVL420:
 4399              	.L107:
 4400              		.loc 1 826 0
 4401 12b8 8A1E     		subs	r2, r1, #2
 4402 12ba 0023     		movs	r3, #0
 4403 12bc 811C     		adds	r1, r0, #2
 4404 12be 4078     		ldrb	r0, [r0, #1]	@ zero_extendqisi2
 4405 12c0 FFF7FEFF 		bl	comm_can_send_buffer
 4406              	.LVL421:
 4407              		.loc 1 827 0
 4408 12c4 FEF71DBF 		b	.L75
 4409              	.L106:
 4410              		.loc 1 820 0
 4411 12c8 36AD     		add	r5, sp, #216
 4412              	.LVL422:
 4413 12ca 874C     		ldr	r4, .L214+4
 4414              	.LVL423:
 4415 12cc 0122     		movs	r2, #1
 4416 12ce 2123     		movs	r3, #33
 4417 12d0 45F8D02D 		str	r2, [r5, #-208]!
 4418 12d4 2370     		strb	r3, [r4]
 4419              		.loc 1 821 0
 4420 12d6 FFF7FEFF 		bl	app_nunchuk_get_decoded_chuk
 4421              	.LVL424:
 4422 12da DFED857A 		vldr.32	s15, .L214+12
 4423 12de 60EE277A 		vmul.f32	s15, s0, s15
 4424 12e2 2A46     		mov	r2, r5
 4425 12e4 FDEEE77A 		vcvt.s32.f32	s15, s15
 4426              	.L194:
 4427 12e8 17EE901A 		vmov	r1, s15	@ int
 4428 12ec 2046     		mov	r0, r4
 4429 12ee FFF7FEFF 		bl	buffer_append_int32
 4430              	.LVL425:
 4431              	.LBB149:
 4432              	.LBB150:
 4433              		.loc 1 91 0
 4434 12f2 7C4B     		ldr	r3, .L214
 4435              	.LBE150:
 4436              	.LBE149:
 4437              		.loc 1 822 0
 4438 12f4 0299     		ldr	r1, [sp, #8]
 4439              	.LVL426:
 4440              	.LBB152:
 4441              	.LBB151:
 4442              		.loc 1 91 0
 4443 12f6 1B68     		ldr	r3, [r3]
 4444 12f8 002B     		cmp	r3, #0
 4445 12fa 7EF400AF 		bne	.L189
 4446 12fe FEF700BF 		b	.L75
ARM GAS  C:\Users\CHRIST~1\AppData\Local\Temp\ccu8H79a.s 			page 79


 4447              	.LVL427:
 4448              	.L105:
 4449              	.LBE151:
 4450              	.LBE152:
 4451              		.loc 1 810 0
 4452 1302 36AD     		add	r5, sp, #216
 4453              	.LVL428:
 4454 1304 784C     		ldr	r4, .L214+4
 4455              	.LVL429:
 4456              		.loc 1 811 0
 4457 1306 9FED7A8A 		vldr.32	s16, .L214+12
 4458              		.loc 1 810 0
 4459 130a 2023     		movs	r3, #32
 4460 130c 0122     		movs	r2, #1
 4461 130e 2370     		strb	r3, [r4]
 4462 1310 45F8D02D 		str	r2, [r5, #-208]!
 4463              		.loc 1 811 0
 4464 1314 FFF7FEFF 		bl	app_adc_get_decoded_level
 4465              	.LVL430:
 4466 1318 20EE080A 		vmul.f32	s0, s0, s16
 4467 131c 2A46     		mov	r2, r5
 4468 131e FDEEC07A 		vcvt.s32.f32	s15, s0
 4469 1322 2046     		mov	r0, r4
 4470 1324 17EE901A 		vmov	r1, s15	@ int
 4471 1328 FFF7FEFF 		bl	buffer_append_int32
 4472              	.LVL431:
 4473              		.loc 1 812 0
 4474 132c FFF7FEFF 		bl	app_adc_get_voltage
 4475              	.LVL432:
 4476 1330 20EE080A 		vmul.f32	s0, s0, s16
 4477 1334 2A46     		mov	r2, r5
 4478 1336 FDEEC07A 		vcvt.s32.f32	s15, s0
 4479 133a 2046     		mov	r0, r4
 4480 133c 17EE901A 		vmov	r1, s15	@ int
 4481 1340 FFF7FEFF 		bl	buffer_append_int32
 4482              	.LVL433:
 4483              		.loc 1 813 0
 4484 1344 FFF7FEFF 		bl	app_adc_get_decoded_level2
 4485              	.LVL434:
 4486 1348 20EE080A 		vmul.f32	s0, s0, s16
 4487 134c 2A46     		mov	r2, r5
 4488 134e FDEEC07A 		vcvt.s32.f32	s15, s0
 4489 1352 2046     		mov	r0, r4
 4490 1354 17EE901A 		vmov	r1, s15	@ int
 4491 1358 FFF7FEFF 		bl	buffer_append_int32
 4492              	.LVL435:
 4493              		.loc 1 814 0
 4494 135c FFF7FEFF 		bl	app_adc_get_voltage2
 4495              	.LVL436:
 4496 1360 20EE080A 		vmul.f32	s0, s0, s16
 4497 1364 2A46     		mov	r2, r5
 4498 1366 FDEEC07A 		vcvt.s32.f32	s15, s0
 4499 136a BDE7     		b	.L194
 4500              	.LVL437:
 4501              	.L104:
 4502              		.loc 1 802 0
 4503 136c 36AD     		add	r5, sp, #216
ARM GAS  C:\Users\CHRIST~1\AppData\Local\Temp\ccu8H79a.s 			page 80


 4504              	.LVL438:
 4505 136e 5E4C     		ldr	r4, .L214+4
 4506              	.LVL439:
 4507              		.loc 1 803 0
 4508 1370 9FED5F8A 		vldr.32	s16, .L214+12
 4509              		.loc 1 802 0
 4510 1374 1F23     		movs	r3, #31
 4511 1376 0122     		movs	r2, #1
 4512 1378 45F8D02D 		str	r2, [r5, #-208]!
 4513 137c 2370     		strb	r3, [r4]
 4514              		.loc 1 803 0
 4515 137e FFF7FEFF 		bl	app_ppm_get_decoded_level
 4516              	.LVL440:
 4517 1382 20EE080A 		vmul.f32	s0, s0, s16
 4518 1386 2A46     		mov	r2, r5
 4519 1388 FDEEC07A 		vcvt.s32.f32	s15, s0
 4520 138c 2046     		mov	r0, r4
 4521 138e 17EE901A 		vmov	r1, s15	@ int
 4522 1392 FFF7FEFF 		bl	buffer_append_int32
 4523              	.LVL441:
 4524              		.loc 1 804 0
 4525 1396 0020     		movs	r0, #0
 4526 1398 FFF7FEFF 		bl	servodec_get_last_pulse_len
 4527              	.LVL442:
 4528 139c 20EE080A 		vmul.f32	s0, s0, s16
 4529 13a0 2A46     		mov	r2, r5
 4530 13a2 FDEEC07A 		vcvt.s32.f32	s15, s0
 4531 13a6 9FE7     		b	.L194
 4532              	.LVL443:
 4533              	.L83:
 4534              		.loc 1 167 0
 4535 13a8 36AD     		add	r5, sp, #216
 4536              	.LVL444:
 4537 13aa 0123     		movs	r3, #1
 4538 13ac 45F8D03D 		str	r3, [r5, #-208]!
 4539 13b0 4D4C     		ldr	r4, .L214+4
 4540              	.LVL445:
 4541 13b2 0423     		movs	r3, #4
 4542 13b4 2370     		strb	r3, [r4]
 4543              		.loc 1 168 0
 4544 13b6 FFF7FEFF 		bl	mc_interface_temp_fet_filtered
 4545              	.LVL446:
 4546 13ba 2946     		mov	r1, r5
 4547 13bc 2046     		mov	r0, r4
 4548 13be F2EE040A 		vmov.f32	s1, #1.0e+1
 4549 13c2 FFF7FEFF 		bl	buffer_append_float16
 4550              	.LVL447:
 4551              		.loc 1 169 0
 4552 13c6 FFF7FEFF 		bl	mc_interface_temp_motor_filtered
 4553              	.LVL448:
 4554 13ca 2946     		mov	r1, r5
 4555 13cc 2046     		mov	r0, r4
 4556 13ce F2EE040A 		vmov.f32	s1, #1.0e+1
 4557 13d2 FFF7FEFF 		bl	buffer_append_float16
 4558              	.LVL449:
 4559              		.loc 1 170 0
 4560 13d6 FFF7FEFF 		bl	mc_interface_read_reset_avg_motor_current
ARM GAS  C:\Users\CHRIST~1\AppData\Local\Temp\ccu8H79a.s 			page 81


 4561              	.LVL450:
 4562 13da 2946     		mov	r1, r5
 4563 13dc 2046     		mov	r0, r4
 4564 13de DFED480A 		vldr.32	s1, .L214+28
 4565 13e2 FFF7FEFF 		bl	buffer_append_float32
 4566              	.LVL451:
 4567              		.loc 1 171 0
 4568 13e6 FFF7FEFF 		bl	mc_interface_read_reset_avg_input_current
 4569              	.LVL452:
 4570 13ea 2946     		mov	r1, r5
 4571 13ec 2046     		mov	r0, r4
 4572 13ee DFED440A 		vldr.32	s1, .L214+28
 4573 13f2 FFF7FEFF 		bl	buffer_append_float32
 4574              	.LVL453:
 4575              		.loc 1 172 0
 4576 13f6 FFF7FEFF 		bl	mc_interface_read_reset_avg_id
 4577              	.LVL454:
 4578 13fa 2946     		mov	r1, r5
 4579 13fc 2046     		mov	r0, r4
 4580 13fe DFED400A 		vldr.32	s1, .L214+28
 4581 1402 FFF7FEFF 		bl	buffer_append_float32
 4582              	.LVL455:
 4583              		.loc 1 173 0
 4584 1406 FFF7FEFF 		bl	mc_interface_read_reset_avg_iq
 4585              	.LVL456:
 4586 140a 2946     		mov	r1, r5
 4587 140c 2046     		mov	r0, r4
 4588 140e DFED3C0A 		vldr.32	s1, .L214+28
 4589 1412 FFF7FEFF 		bl	buffer_append_float32
 4590              	.LVL457:
 4591              		.loc 1 174 0
 4592 1416 FFF7FEFF 		bl	mc_interface_get_duty_cycle_now
 4593              	.LVL458:
 4594 141a 2946     		mov	r1, r5
 4595 141c 2046     		mov	r0, r4
 4596 141e DFED330A 		vldr.32	s1, .L214+8
 4597 1422 FFF7FEFF 		bl	buffer_append_float16
 4598              	.LVL459:
 4599              		.loc 1 175 0
 4600 1426 FFF7FEFF 		bl	mc_interface_get_rpm
 4601              	.LVL460:
 4602 142a 2946     		mov	r1, r5
 4603 142c 2046     		mov	r0, r4
 4604 142e F7EE000A 		vmov.f32	s1, #1.0e+0
 4605 1432 FFF7FEFF 		bl	buffer_append_float32
 4606              	.LVL461:
 4607              		.loc 1 176 0
 4608 1436 334B     		ldr	r3, .L214+32
 4609 1438 9FED337A 		vldr.32	s14, .L214+36
 4610 143c 1B8A     		ldrh	r3, [r3, #16]
 4611 143e 9FED330A 		vldr.32	s0, .L214+40
 4612 1442 07EE903A 		vmov	s15, r3	@ int
 4613 1446 F8EE677A 		vcvt.f32.u32	s15, s15
 4614 144a 2946     		mov	r1, r5
 4615 144c 67EE877A 		vmul.f32	s15, s15, s14
 4616 1450 F2EE040A 		vmov.f32	s1, #1.0e+1
 4617 1454 27EE800A 		vmul.f32	s0, s15, s0
ARM GAS  C:\Users\CHRIST~1\AppData\Local\Temp\ccu8H79a.s 			page 82


 4618 1458 2046     		mov	r0, r4
 4619 145a FFF7FEFF 		bl	buffer_append_float16
 4620              	.LVL462:
 4621              		.loc 1 177 0
 4622 145e 0020     		movs	r0, #0
 4623 1460 FFF7FEFF 		bl	mc_interface_get_amp_hours
 4624              	.LVL463:
 4625 1464 2946     		mov	r1, r5
 4626 1466 DFED2A0A 		vldr.32	s1, .L214+44
 4627 146a 2046     		mov	r0, r4
 4628 146c FFF7FEFF 		bl	buffer_append_float32
 4629              	.LVL464:
 4630              		.loc 1 178 0
 4631 1470 0020     		movs	r0, #0
 4632 1472 FFF7FEFF 		bl	mc_interface_get_amp_hours_charged
 4633              	.LVL465:
 4634 1476 2946     		mov	r1, r5
 4635 1478 DFED250A 		vldr.32	s1, .L214+44
 4636 147c 2046     		mov	r0, r4
 4637 147e FFF7FEFF 		bl	buffer_append_float32
 4638              	.LVL466:
 4639              		.loc 1 179 0
 4640 1482 0020     		movs	r0, #0
 4641 1484 FFF7FEFF 		bl	mc_interface_get_watt_hours
 4642              	.LVL467:
 4643 1488 2946     		mov	r1, r5
 4644 148a DFED210A 		vldr.32	s1, .L214+44
 4645 148e 2046     		mov	r0, r4
 4646 1490 FFF7FEFF 		bl	buffer_append_float32
 4647              	.LVL468:
 4648              		.loc 1 180 0
 4649 1494 0020     		movs	r0, #0
 4650 1496 FFF7FEFF 		bl	mc_interface_get_watt_hours_charged
 4651              	.LVL469:
 4652 149a DFED1D0A 		vldr.32	s1, .L214+44
 4653 149e 2946     		mov	r1, r5
 4654 14a0 2046     		mov	r0, r4
 4655 14a2 FFF7FEFF 		bl	buffer_append_float32
 4656              	.LVL470:
 4657              		.loc 1 181 0
 4658 14a6 0020     		movs	r0, #0
 4659 14a8 FFF7FEFF 		bl	mc_interface_get_tachometer_value
 4660              	.LVL471:
 4661 14ac 2A46     		mov	r2, r5
 4662 14ae 0146     		mov	r1, r0
 4663 14b0 2046     		mov	r0, r4
 4664 14b2 FFF7FEFF 		bl	buffer_append_int32
 4665              	.LVL472:
 4666              		.loc 1 182 0
 4667 14b6 0020     		movs	r0, #0
 4668 14b8 FFF7FEFF 		bl	mc_interface_get_tachometer_abs_value
 4669              	.LVL473:
 4670 14bc 2A46     		mov	r2, r5
 4671 14be 0146     		mov	r1, r0
 4672 14c0 2046     		mov	r0, r4
 4673 14c2 FFF7FEFF 		bl	buffer_append_int32
 4674              	.LVL474:
ARM GAS  C:\Users\CHRIST~1\AppData\Local\Temp\ccu8H79a.s 			page 83


 4675              		.loc 1 183 0
 4676 14c6 029D     		ldr	r5, [sp, #8]
 4677 14c8 6B1C     		adds	r3, r5, #1
 4678 14ca 0293     		str	r3, [sp, #8]
 4679 14cc FFF7FEFF 		bl	mc_interface_get_fault
 4680              	.LVL475:
 4681              	.LBB153:
 4682              	.LBB154:
 4683              		.loc 1 91 0
 4684 14d0 044B     		ldr	r3, .L214
 4685              	.LBE154:
 4686              	.LBE153:
 4687              		.loc 1 183 0
 4688 14d2 6055     		strb	r0, [r4, r5]
 4689              	.LBB157:
 4690              	.LBB155:
 4691              		.loc 1 91 0
 4692 14d4 1B68     		ldr	r3, [r3]
 4693              	.LBE155:
 4694              	.LBE157:
 4695              		.loc 1 184 0
 4696 14d6 0299     		ldr	r1, [sp, #8]
 4697              	.LVL476:
 4698              	.LBB158:
 4699              	.LBB156:
 4700              		.loc 1 91 0
 4701 14d8 002B     		cmp	r3, #0
 4702 14da 7EF410AE 		bne	.L189
 4703 14de FEF710BE 		b	.L75
 4704              	.L215:
 4705 14e2 00BF     		.align	2
 4706              	.L214:
 4707 14e4 00000000 		.word	.LANCHOR10
 4708 14e8 00000000 		.word	.LANCHOR8
 4709 14ec 00007A44 		.word	1148846080
 4710 14f0 00247449 		.word	1232348160
 4711 14f4 00000000 		.word	.LC1
 4712 14f8 107AFF1F 		.word	536836624
 4713 14fc 00000000 		.word	.LANCHOR14
 4714 1500 0000C842 		.word	1120403456
 4715 1504 00000000 		.word	ADC_Value
 4716 1508 6740533A 		.word	978534503
 4717 150c 74D19541 		.word	1100337524
 4718 1510 00401C46 		.word	1176256512
 4719              	.LVL477:
 4720              	.L82:
 4721              	.LBE156:
 4722              	.LBE158:
 4723              		.loc 1 156 0
 4724 1514 02A9     		add	r1, sp, #8
 4725 1516 2046     		mov	r0, r4
 4726 1518 FFF7FEFF 		bl	buffer_get_uint32
 4727              	.LVL478:
 4728              		.loc 1 157 0
 4729 151c 0299     		ldr	r1, [sp, #8]
 4730 151e 6A1A     		subs	r2, r5, r1
 4731 1520 2144     		add	r1, r1, r4
ARM GAS  C:\Users\CHRIST~1\AppData\Local\Temp\ccu8H79a.s 			page 84


 4732 1522 FFF7FEFF 		bl	flash_helper_write_new_app_data
 4733              	.LVL479:
 4734              	.LBB159:
 4735              	.LBB160:
 4736              		.loc 1 91 0
 4737 1526 5B4A     		ldr	r2, .L216
 4738              	.LBE160:
 4739              	.LBE159:
 4740              		.loc 1 160 0
 4741 1528 5B4B     		ldr	r3, .L216+4
 4742              	.LBB163:
 4743              	.LBB161:
 4744              		.loc 1 91 0
 4745 152a 1268     		ldr	r2, [r2]
 4746              	.LBE161:
 4747              	.LBE163:
 4748              		.loc 1 161 0
 4749 152c A0F10900 		sub	r0, #9
 4750              	.LVL480:
 4751 1530 B0FA80F0 		clz	r0, r0
 4752 1534 4009     		lsrs	r0, r0, #5
 4753              		.loc 1 160 0
 4754 1536 0324     		movs	r4, #3
 4755              	.LVL481:
 4756              		.loc 1 161 0
 4757 1538 0221     		movs	r1, #2
 4758 153a 5870     		strb	r0, [r3, #1]
 4759              	.LVL482:
 4760              		.loc 1 160 0
 4761 153c 1C70     		strb	r4, [r3]
 4762              		.loc 1 161 0
 4763 153e 0291     		str	r1, [sp, #8]
 4764              	.LBB164:
 4765              	.LBB162:
 4766              		.loc 1 91 0
 4767 1540 002A     		cmp	r2, #0
 4768 1542 3EF4DEAD 		beq	.L75
 4769              	.LVL483:
 4770              	.L188:
 4771              		.loc 1 92 0
 4772 1546 1846     		mov	r0, r3
 4773 1548 9047     		blx	r2
 4774              	.LVL484:
 4775 154a FEF7DABD 		b	.L75
 4776              	.LVL485:
 4777              	.L81:
 4778              	.LBE162:
 4779              	.LBE164:
 4780              		.loc 1 146 0
 4781 154e 02A9     		add	r1, sp, #8
 4782 1550 2046     		mov	r0, r4
 4783 1552 FFF7FEFF 		bl	buffer_get_uint32
 4784              	.LVL486:
 4785 1556 FFF7FEFF 		bl	flash_helper_erase_new_app
 4786              	.LVL487:
 4787              	.LBB165:
 4788              	.LBB166:
ARM GAS  C:\Users\CHRIST~1\AppData\Local\Temp\ccu8H79a.s 			page 85


 4789              		.loc 1 91 0
 4790 155a 4E4A     		ldr	r2, .L216
 4791              	.LBE166:
 4792              	.LBE165:
 4793              		.loc 1 149 0
 4794 155c 4E4B     		ldr	r3, .L216+4
 4795              	.LBB169:
 4796              	.LBB167:
 4797              		.loc 1 91 0
 4798 155e 1268     		ldr	r2, [r2]
 4799              	.LBE167:
 4800              	.LBE169:
 4801              		.loc 1 150 0
 4802 1560 A0F10900 		sub	r0, #9
 4803              	.LVL488:
 4804 1564 B0FA80F0 		clz	r0, r0
 4805              		.loc 1 149 0
 4806 1568 0221     		movs	r1, #2
 4807              		.loc 1 150 0
 4808 156a 4009     		lsrs	r0, r0, #5
 4809 156c 5870     		strb	r0, [r3, #1]
 4810              	.LVL489:
 4811              		.loc 1 149 0
 4812 156e 1970     		strb	r1, [r3]
 4813              		.loc 1 150 0
 4814 1570 0291     		str	r1, [sp, #8]
 4815              	.LBB170:
 4816              	.LBB168:
 4817              		.loc 1 91 0
 4818 1572 002A     		cmp	r2, #0
 4819 1574 E7D1     		bne	.L188
 4820 1576 FEF7C4BD 		b	.L75
 4821              	.LVL490:
 4822              	.L80:
 4823              	.LBE168:
 4824              	.LBE170:
 4825              		.loc 1 141 0
 4826 157a FFF7FEFF 		bl	flash_helper_jump_to_bootloader
 4827              	.LVL491:
 4828              		.loc 1 142 0
 4829 157e FEF7C0BD 		b	.L75
 4830              	.L85:
 4831              		.loc 1 195 0
 4832 1582 02A9     		add	r1, sp, #8
 4833 1584 2046     		mov	r0, r4
 4834 1586 FFF7FEFF 		bl	buffer_get_int32
 4835              	.LVL492:
 4836 158a 07EE100A 		vmov	s14, r0	@ int
 4837 158e DFED437A 		vldr.32	s15, .L216+8
 4838 1592 B8EEC70A 		vcvt.f32.s32	s0, s14
 4839 1596 80EE270A 		vdiv.f32	s0, s0, s15
 4840 159a FFF7FEFF 		bl	mc_interface_set_current
 4841              	.LVL493:
 4842              		.loc 1 196 0
 4843 159e FFF7FEFF 		bl	timeout_reset
 4844              	.LVL494:
 4845              		.loc 1 197 0
ARM GAS  C:\Users\CHRIST~1\AppData\Local\Temp\ccu8H79a.s 			page 86


 4846 15a2 FEF7AEBD 		b	.L75
 4847              	.L84:
 4848              		.loc 1 189 0
 4849 15a6 02A9     		add	r1, sp, #8
 4850 15a8 2046     		mov	r0, r4
 4851 15aa FFF7FEFF 		bl	buffer_get_int32
 4852              	.LVL495:
 4853 15ae 07EE100A 		vmov	s14, r0	@ int
 4854 15b2 DFED3B7A 		vldr.32	s15, .L216+12
 4855 15b6 B8EEC70A 		vcvt.f32.s32	s0, s14
 4856 15ba 80EE270A 		vdiv.f32	s0, s0, s15
 4857 15be FFF7FEFF 		bl	mc_interface_set_duty
 4858              	.LVL496:
 4859              		.loc 1 190 0
 4860 15c2 FFF7FEFF 		bl	timeout_reset
 4861              	.LVL497:
 4862              		.loc 1 191 0
 4863 15c6 FEF79CBD 		b	.L75
 4864              	.L86:
 4865              		.loc 1 201 0
 4866 15ca 02A9     		add	r1, sp, #8
 4867 15cc 2046     		mov	r0, r4
 4868 15ce FFF7FEFF 		bl	buffer_get_int32
 4869              	.LVL498:
 4870 15d2 07EE100A 		vmov	s14, r0	@ int
 4871 15d6 DFED317A 		vldr.32	s15, .L216+8
 4872 15da B8EEC70A 		vcvt.f32.s32	s0, s14
 4873 15de 80EE270A 		vdiv.f32	s0, s0, s15
 4874 15e2 FFF7FEFF 		bl	mc_interface_set_brake_current
 4875              	.LVL499:
 4876              		.loc 1 202 0
 4877 15e6 FFF7FEFF 		bl	timeout_reset
 4878              	.LVL500:
 4879              		.loc 1 203 0
 4880 15ea FEF78ABD 		b	.L75
 4881              	.L197:
 4882              		.loc 1 231 0
 4883 15ee FFF7FEFF 		bl	mc_interface_release_motor
 4884              	.LVL501:
 4885 15f2 FEF7A3BD 		b	.L103
 4886              	.L198:
 4887              		.loc 1 612 0
 4888 15f6 FFF7FEFF 		bl	app_get_configuration
 4889              	.LVL502:
 4890 15fa 04AC     		add	r4, sp, #16
 4891              	.LVL503:
 4892 15fc 0146     		mov	r1, r0
 4893 15fe C822     		movs	r2, #200
 4894 1600 2046     		mov	r0, r4
 4895 1602 FFF7FEFF 		bl	memcpy
 4896              	.LVL504:
 4897 1606 FEF7FBBE 		b	.L118
 4898              	.LVL505:
 4899              	.L199:
 4900              		.loc 1 409 0
 4901 160a FFF7FEFF 		bl	mc_interface_get_configuration
 4902              	.LVL506:
ARM GAS  C:\Users\CHRIST~1\AppData\Local\Temp\ccu8H79a.s 			page 87


 4903 160e 4FF4BA72 		mov	r2, #372
 4904 1612 0146     		mov	r1, r0
 4905 1614 2348     		ldr	r0, .L216+16
 4906 1616 FFF7FEFF 		bl	memcpy
 4907              	.LVL507:
 4908 161a FFF7C4B8 		b	.L116
 4909              	.LVL508:
 4910              	.L129:
 4911              	.LBB171:
 4912              	.LBB110:
 4913              	.LBB111:
 4914              		.loc 1 91 0
 4915 161e 3468     		ldr	r4, [r6]
 4916 1620 002C     		cmp	r4, #0
 4917 1622 3EF46EAD 		beq	.L75
 4918              		.loc 1 92 0
 4919 1626 1946     		mov	r1, r3
 4920 1628 1046     		mov	r0, r2
 4921 162a A047     		blx	r4
 4922              	.LVL509:
 4923 162c FEF769BD 		b	.L75
 4924              	.LVL510:
 4925              	.L128:
 4926              	.LBE111:
 4927              	.LBE110:
 4928              	.LBE171:
 4929              		.loc 1 783 0
 4930 1630 194B     		ldr	r3, .L216+4
 4931              		.loc 1 785 0
 4932 1632 0021     		movs	r1, #0
 4933              		.loc 1 783 0
 4934 1634 4FF0FF32 		mov	r2, #-1
 4935              		.loc 1 785 0
 4936 1638 5972     		strb	r1, [r3, #9]
 4937              		.loc 1 783 0
 4938 163a C3E90022 		strd	r2, r2, [r3]
 4939 163e FEF760BD 		b	.L75
 4940              	.LVL511:
 4941              	.L126:
 4942              	.LBB172:
 4943              	.LBB116:
 4944              	.LBB115:
 4945              		.loc 1 91 0
 4946 1642 D8F80030 		ldr	r3, [r8]
 4947 1646 002B     		cmp	r3, #0
 4948 1648 7EF436AE 		bne	.L192
 4949 164c FEF759BD 		b	.L75
 4950              	.LVL512:
 4951              	.L125:
 4952              	.LBE115:
 4953              	.LBE116:
 4954              	.LBE172:
 4955              		.loc 1 740 0
 4956 1650 36AD     		add	r5, sp, #216
 4957              	.LVL513:
 4958 1652 0123     		movs	r3, #1
 4959 1654 45F8D03D 		str	r3, [r5, #-208]!
ARM GAS  C:\Users\CHRIST~1\AppData\Local\Temp\ccu8H79a.s 			page 88


 4960 1658 0F4C     		ldr	r4, .L216+4
 4961              	.LVL514:
 4962              		.loc 1 741 0
 4963 165a DFED130A 		vldr.32	s1, .L216+20
 4964 165e 9FED130A 		vldr.32	s0, .L216+24
 4965              		.loc 1 740 0
 4966 1662 1B23     		movs	r3, #27
 4967              		.loc 1 741 0
 4968 1664 2946     		mov	r1, r5
 4969 1666 2046     		mov	r0, r4
 4970              		.loc 1 740 0
 4971 1668 2370     		strb	r3, [r4]
 4972              		.loc 1 741 0
 4973 166a FFF7FEFF 		bl	buffer_append_float32
 4974              	.LVL515:
 4975              		.loc 1 742 0
 4976 166e 2946     		mov	r1, r5
 4977 1670 2046     		mov	r0, r4
 4978 1672 DFED0D0A 		vldr.32	s1, .L216+20
 4979 1676 9FED0E0A 		vldr.32	s0, .L216+28
 4980 167a FFF7FEFF 		bl	buffer_append_float32
 4981              	.LVL516:
 4982              	.LBB173:
 4983              	.LBB174:
 4984              		.loc 1 91 0
 4985 167e 054B     		ldr	r3, .L216
 4986              	.LBE174:
 4987              	.LBE173:
 4988              		.loc 1 743 0
 4989 1680 0299     		ldr	r1, [sp, #8]
 4990              	.LBB177:
 4991              	.LBB175:
 4992              		.loc 1 91 0
 4993 1682 1B68     		ldr	r3, [r3]
 4994              	.LBE175:
 4995              	.LBE177:
 4996              		.loc 1 743 0
 4997 1684 6654     		strb	r6, [r4, r1]
 4998              	.LVL517:
 4999 1686 0131     		adds	r1, r1, #1
 5000              	.LVL518:
 5001 1688 0291     		str	r1, [sp, #8]
 5002              	.LBB178:
 5003              	.LBB176:
 5004              		.loc 1 91 0
 5005 168a 002B     		cmp	r3, #0
 5006 168c 7EF437AD 		bne	.L189
 5007 1690 FEF737BD 		b	.L75
 5008              	.L217:
 5009              		.align	2
 5010              	.L216:
 5011 1694 00000000 		.word	.LANCHOR10
 5012 1698 00000000 		.word	.LANCHOR8
 5013 169c 00007A44 		.word	1148846080
 5014 16a0 0050C347 		.word	1203982336
 5015 16a4 00000000 		.word	.LANCHOR15
 5016 16a8 00247449 		.word	1232348160
ARM GAS  C:\Users\CHRIST~1\AppData\Local\Temp\ccu8H79a.s 			page 89


 5017 16ac 00407A44 		.word	1148862464
 5018 16b0 00000000 		.word	0
 5019              	.LBE176:
 5020              	.LBE178:
 5021              		.cfi_endproc
 5022              	.LFE262:
 5023              		.size	commands_process_packet, .-commands_process_packet
 5024              		.section	.bss.appdata_func,"aw",%nobits
 5025              		.align	2
 5026              		.set	.LANCHOR14,. + 0
 5027              		.type	appdata_func, %object
 5028              		.size	appdata_func, 4
 5029              	appdata_func:
 5030 0000 00000000 		.space	4
 5031              		.section	.bss.detect_coupling_k,"aw",%nobits
 5032              		.align	2
 5033              		.set	.LANCHOR3,. + 0
 5034              		.type	detect_coupling_k, %object
 5035              		.size	detect_coupling_k, 4
 5036              	detect_coupling_k:
 5037 0000 00000000 		.space	4
 5038              		.section	.bss.detect_current,"aw",%nobits
 5039              		.align	2
 5040              		.set	.LANCHOR7,. + 0
 5041              		.type	detect_current, %object
 5042              		.size	detect_current, 4
 5043              	detect_current:
 5044 0000 00000000 		.space	4
 5045              		.section	.bss.detect_cycle_int_limit,"aw",%nobits
 5046              		.align	2
 5047              		.set	.LANCHOR4,. + 0
 5048              		.type	detect_cycle_int_limit, %object
 5049              		.size	detect_cycle_int_limit, 4
 5050              	detect_cycle_int_limit:
 5051 0000 00000000 		.space	4
 5052              		.section	.bss.detect_hall_res,"aw",%nobits
 5053              		.align	2
 5054              		.set	.LANCHOR1,. + 0
 5055              		.type	detect_hall_res, %object
 5056              		.size	detect_hall_res, 4
 5057              	detect_hall_res:
 5058 0000 00000000 		.space	4
 5059              		.section	.bss.detect_hall_table,"aw",%nobits
 5060              		.align	2
 5061              		.set	.LANCHOR2,. + 0
 5062              		.type	detect_hall_table, %object
 5063              		.size	detect_hall_table, 8
 5064              	detect_hall_table:
 5065 0000 00000000 		.space	8
 5065      00000000 
 5066              		.section	.bss.detect_low_duty,"aw",%nobits
 5067              		.align	2
 5068              		.set	.LANCHOR5,. + 0
 5069              		.type	detect_low_duty, %object
 5070              		.size	detect_low_duty, 4
 5071              	detect_low_duty:
 5072 0000 00000000 		.space	4
ARM GAS  C:\Users\CHRIST~1\AppData\Local\Temp\ccu8H79a.s 			page 90


 5073              		.section	.bss.detect_min_rpm,"aw",%nobits
 5074              		.align	2
 5075              		.set	.LANCHOR6,. + 0
 5076              		.type	detect_min_rpm, %object
 5077              		.size	detect_min_rpm, 4
 5078              	detect_min_rpm:
 5079 0000 00000000 		.space	4
 5080              		.section	.bss.detect_thread_wa,"aw",%nobits
 5081              		.align	3
 5082              		.set	.LANCHOR11,. + 0
 5083              		.type	detect_thread_wa, %object
 5084              		.size	detect_thread_wa, 2456
 5085              	detect_thread_wa:
 5086 0000 00000000 		.space	2456
 5086      00000000 
 5086      00000000 
 5086      00000000 
 5086      00000000 
 5087              		.section	.bss.detect_tp,"aw",%nobits
 5088              		.align	2
 5089              		.set	.LANCHOR0,. + 0
 5090              		.type	detect_tp, %object
 5091              		.size	detect_tp, 4
 5092              	detect_tp:
 5093 0000 00000000 		.space	4
 5094              		.section	.bss.display_position_mode,"aw",%nobits
 5095              		.set	.LANCHOR13,. + 0
 5096              		.type	display_position_mode, %object
 5097              		.size	display_position_mode, 1
 5098              	display_position_mode:
 5099 0000 00       		.space	1
 5100              		.section	.bss.mcconf.12967,"aw",%nobits
 5101              		.align	2
 5102              		.set	.LANCHOR15,. + 0
 5103              		.type	mcconf.12967, %object
 5104              		.size	mcconf.12967, 372
 5105              	mcconf.12967:
 5106 0000 00000000 		.space	372
 5106      00000000 
 5106      00000000 
 5106      00000000 
 5106      00000000 
 5107              		.section	.bss.mcconf_old.12968,"aw",%nobits
 5108              		.align	2
 5109              		.set	.LANCHOR16,. + 0
 5110              		.type	mcconf_old.12968, %object
 5111              		.size	mcconf_old.12968, 372
 5112              	mcconf_old.12968:
 5113 0000 00000000 		.space	372
 5113      00000000 
 5113      00000000 
 5113      00000000 
 5113      00000000 
 5114              		.section	.bss.print_buffer.13035,"aw",%nobits
 5115              		.align	2
 5116              		.set	.LANCHOR12,. + 0
 5117              		.type	print_buffer.13035, %object
ARM GAS  C:\Users\CHRIST~1\AppData\Local\Temp\ccu8H79a.s 			page 91


 5118              		.size	print_buffer.13035, 255
 5119              	print_buffer.13035:
 5120 0000 00000000 		.space	255
 5120      00000000 
 5120      00000000 
 5120      00000000 
 5120      00000000 
 5121              		.section	.bss.send_buffer,"aw",%nobits
 5122              		.align	2
 5123              		.set	.LANCHOR8,. + 0
 5124              		.type	send_buffer, %object
 5125              		.size	send_buffer, 1024
 5126              	send_buffer:
 5127 0000 00000000 		.space	1024
 5127      00000000 
 5127      00000000 
 5127      00000000 
 5127      00000000 
 5128              		.section	.bss.send_func,"aw",%nobits
 5129              		.align	2
 5130              		.set	.LANCHOR10,. + 0
 5131              		.type	send_func, %object
 5132              		.size	send_func, 4
 5133              	send_func:
 5134 0000 00000000 		.space	4
 5135              		.section	.bss.send_func_last,"aw",%nobits
 5136              		.align	2
 5137              		.set	.LANCHOR9,. + 0
 5138              		.type	send_func_last, %object
 5139              		.size	send_func_last, 4
 5140              	send_func_last:
 5141 0000 00000000 		.space	4
 5142              		.section	.rodata.commands_process_packet.str1.4,"aMS",%progbits,1
 5143              		.align	2
 5144              	.LC1:
 5145 0000 434600   		.ascii	"CF\000"
 5146              		.section	.rodata.detect_thread.str1.4,"aMS",%progbits,1
 5147              		.align	2
 5148              	.LC0:
 5149 0000 44657465 		.ascii	"Detect\000"
 5149      637400
 5150              		.text
 5151              	.Letext0:
 5152              		.file 4 "c:\\program files (x86)\\gnu tools arm embedded\\7 2017-q4-major\\arm-none-eabi\\include\
 5153              		.file 5 "c:\\program files (x86)\\gnu tools arm embedded\\7 2017-q4-major\\arm-none-eabi\\include\
 5154              		.file 6 "c:\\program files (x86)\\gnu tools arm embedded\\7 2017-q4-major\\lib\\gcc\\arm-none-eabi
 5155              		.file 7 "ChibiOS_3.0.2/os/rt/ports/ARMCMx/compilers/GCC/chtypes.h"
 5156              		.file 8 "ChibiOS_3.0.2/os/rt/include/chsystypes.h"
 5157              		.file 9 "ChibiOS_3.0.2/os/rt/include/chschd.h"
 5158              		.file 10 "ChibiOS_3.0.2/os/ext/CMSIS/include/core_cm4.h"
 5159              		.file 11 "ChibiOS_3.0.2/os/ext/CMSIS/ST/system_stm32f4xx.h"
 5160              		.file 12 "ChibiOS_3.0.2/os/ext/CMSIS/ST/stm32f407xx.h"
 5161              		.file 13 "ChibiOS_3.0.2/os/rt/ports/ARMCMx/chcore.h"
 5162              		.file 14 "ChibiOS_3.0.2/os/rt/ports/ARMCMx/chcore_v7m.h"
 5163              		.file 15 "ChibiOS_3.0.2/os/rt/include/chtm.h"
 5164              		.file 16 "ChibiOS_3.0.2/os/rt/include/chsem.h"
 5165              		.file 17 "ChibiOS_3.0.2/os/rt/include/chmtx.h"
ARM GAS  C:\Users\CHRIST~1\AppData\Local\Temp\ccu8H79a.s 			page 92


 5166              		.file 18 "ChibiOS_3.0.2/os/rt/include/chevents.h"
 5167              		.file 19 "ChibiOS_3.0.2/os/rt/include/chqueues.h"
 5168              		.file 20 "datatypes.h"
 5169              		.file 21 "./conf_general.h"
 5170              		.file 22 "ChibiOS_3.0.2/os/hal/ports/STM32/STM32F4xx/stm32_dma.h"
 5171              		.file 23 "ChibiOS_3.0.2/os/hal/ports/STM32/LLD/GPIOv2/pal_lld.h"
 5172              		.file 24 "ChibiOS_3.0.2/os/hal/include/can.h"
 5173              		.file 25 "ChibiOS_3.0.2/os/hal/ports/STM32/LLD/can_lld.h"
 5174              		.file 26 "ChibiOS_3.0.2/os/hal/include/i2c.h"
 5175              		.file 27 "ChibiOS_3.0.2/os/hal/ports/STM32/LLD/I2Cv1/i2c_lld.h"
 5176              		.file 28 "ChibiOS_3.0.2/os/hal/include/icu.h"
 5177              		.file 29 "ChibiOS_3.0.2/os/hal/ports/STM32/LLD/TIMv1/icu_lld.h"
 5178              		.file 30 "ChibiOS_3.0.2/os/hal/ports/STM32/LLD/TIMv1/stm32_tim.h"
 5179              		.file 31 "ChibiOS_3.0.2/os/hal/include/spi.h"
 5180              		.file 32 "ChibiOS_3.0.2/os/hal/ports/STM32/LLD/SPIv1/spi_lld.h"
 5181              		.file 33 "ChibiOS_3.0.2/os/hal/include/uart.h"
 5182              		.file 34 "ChibiOS_3.0.2/os/hal/ports/STM32/LLD/USARTv1/uart_lld.h"
 5183              		.file 35 "ChibiOS_3.0.2/os/hal/include/usb.h"
 5184              		.file 36 "ChibiOS_3.0.2/os/hal/ports/STM32/LLD/OTGv1/usb_lld.h"
 5185              		.file 37 "ChibiOS_3.0.2/os/hal/ports/STM32/LLD/OTGv1/stm32_otg.h"
 5186              		.file 38 "ChibiOS_3.0.2/ext/stdperiph_stm32f4/inc/stm32f4xx_flash.h"
 5187              		.file 39 "mc_interface.h"
 5188              		.file 40 "servo.h"
 5189              		.file 41 "mcpwm.h"
 5190              		.file 42 "c:\\program files (x86)\\gnu tools arm embedded\\7 2017-q4-major\\arm-none-eabi\\include
 5191              		.file 43 "c:\\program files (x86)\\gnu tools arm embedded\\7 2017-q4-major\\arm-none-eabi\\include
 5192              		.file 44 "c:\\program files (x86)\\gnu tools arm embedded\\7 2017-q4-major\\arm-none-eabi\\include
 5193              		.file 45 "c:\\program files (x86)\\gnu tools arm embedded\\7 2017-q4-major\\arm-none-eabi\\include
 5194              		.file 46 "c:\\program files (x86)\\gnu tools arm embedded\\7 2017-q4-major\\lib\\gcc\\arm-none-eab
 5195              		.file 47 "<built-in>"
 5196              		.file 48 "buffer.h"
 5197              		.file 49 "c:\\program files (x86)\\gnu tools arm embedded\\7 2017-q4-major\\arm-none-eabi\\include
 5198              		.file 50 "mcpwm_foc.h"
 5199              		.file 51 "timeout.h"
 5200              		.file 52 "encoder.h"
 5201              		.file 53 "terminal.h"
 5202              		.file 54 "applications/app.h"
 5203              		.file 55 "ChibiOS_3.0.2/os/rt/include/chthreads.h"
 5204              		.file 56 "utils.h"
 5205              		.file 57 "nrf/nrf_driver.h"
 5206              		.file 58 "comm_can.h"
 5207              		.file 59 "servo_dec.h"
 5208              		.file 60 "flash_helper.h"