ARM GAS  C:\Users\CHRIST~1\AppData\Local\Temp\cc3hHpQ9.s 			page 1


   1              		.cpu cortex-m4
   2              		.eabi_attribute 27, 1
   3              		.eabi_attribute 28, 1
   4              		.eabi_attribute 20, 1
   5              		.eabi_attribute 21, 1
   6              		.eabi_attribute 23, 3
   7              		.eabi_attribute 24, 1
   8              		.eabi_attribute 25, 1
   9              		.eabi_attribute 26, 1
  10              		.eabi_attribute 30, 2
  11              		.eabi_attribute 34, 1
  12              		.eabi_attribute 18, 4
  13              		.file	"icu.c"
  14              		.text
  15              	.Ltext0:
  16              		.cfi_sections	.debug_frame
  17              		.section	.text.icuInit,"ax",%progbits
  18              		.align	1
  19              		.p2align 4,,15
  20              		.global	icuInit
  21              		.syntax unified
  22              		.thumb
  23              		.thumb_func
  24              		.fpu fpv4-sp-d16
  25              		.type	icuInit, %function
  26              	icuInit:
  27              	.LFB256:
  28              		.file 1 "ChibiOS_3.0.2/os/hal/src/icu.c"
  29              		.loc 1 56 0
  30              		.cfi_startproc
  31              		@ args = 0, pretend = 0, frame = 0
  32              		@ frame_needed = 0, uses_anonymous_args = 0
  33              		@ link register save eliminated.
  34              		.loc 1 58 0
  35 0000 FFF7FEBF 		b	icu_lld_init
  36              	.LVL0:
  37              		.cfi_endproc
  38              	.LFE256:
  39              		.size	icuInit, .-icuInit
  40              		.section	.text.icuObjectInit,"ax",%progbits
  41              		.align	1
  42              		.p2align 4,,15
  43              		.global	icuObjectInit
  44              		.syntax unified
  45              		.thumb
  46              		.thumb_func
  47              		.fpu fpv4-sp-d16
  48              		.type	icuObjectInit, %function
  49              	icuObjectInit:
  50              	.LFB257:
  51              		.loc 1 68 0
  52              		.cfi_startproc
  53              		@ args = 0, pretend = 0, frame = 0
  54              		@ frame_needed = 0, uses_anonymous_args = 0
  55              		@ link register save eliminated.
  56              	.LVL1:
  57              		.loc 1 70 0
ARM GAS  C:\Users\CHRIST~1\AppData\Local\Temp\cc3hHpQ9.s 			page 2


  58 0000 0122     		movs	r2, #1
  59              		.loc 1 71 0
  60 0002 0023     		movs	r3, #0
  61              		.loc 1 70 0
  62 0004 0270     		strb	r2, [r0]
  63              		.loc 1 71 0
  64 0006 4360     		str	r3, [r0, #4]
  65              		.loc 1 72 0
  66 0008 7047     		bx	lr
  67              		.cfi_endproc
  68              	.LFE257:
  69              		.size	icuObjectInit, .-icuObjectInit
  70 000a 00BF     		.section	.text.icuStart,"ax",%progbits
  71              		.align	1
  72              		.p2align 4,,15
  73              		.global	icuStart
  74              		.syntax unified
  75              		.thumb
  76              		.thumb_func
  77              		.fpu fpv4-sp-d16
  78              		.type	icuStart, %function
  79              	icuStart:
  80              	.LFB258:
  81              		.loc 1 82 0
  82              		.cfi_startproc
  83              		@ args = 0, pretend = 0, frame = 0
  84              		@ frame_needed = 0, uses_anonymous_args = 0
  85              	.LVL2:
  86 0000 10B5     		push	{r4, lr}
  87              		.cfi_def_cfa_offset 8
  88              		.cfi_offset 4, -8
  89              		.cfi_offset 14, -4
  90              	.LBB115:
  91              	.LBB116:
  92              	.LBB117:
  93              	.LBB118:
  94              	.LBB119:
  95              		.file 2 "ChibiOS_3.0.2/os/ext/CMSIS/include/core_cmFunc.h"
  96              		.loc 2 546 0
  97 0002 2023     		movs	r3, #32
  98              	.LBE119:
  99              	.LBE118:
 100              	.LBE117:
 101              	.LBE116:
 102              	.LBE115:
 103              		.loc 1 82 0
 104 0004 0446     		mov	r4, r0
 105              	.LBB124:
 106              	.LBB123:
 107              	.LBB122:
 108              	.LBB121:
 109              	.LBB120:
 110              		.loc 2 546 0
 111              		.syntax unified
 112              	@ 546 "ChibiOS_3.0.2/os/ext/CMSIS/include/core_cmFunc.h" 1
 113 0006 83F31188 		MSR basepri, r3
 114              	@ 0 "" 2
ARM GAS  C:\Users\CHRIST~1\AppData\Local\Temp\cc3hHpQ9.s 			page 3


 115              	.LVL3:
 116              		.thumb
 117              		.syntax unified
 118              	.LBE120:
 119              	.LBE121:
 120              	.LBE122:
 121              	.LBE123:
 122              	.LBE124:
 123              		.loc 1 89 0
 124 000a 4160     		str	r1, [r0, #4]
 125              		.loc 1 90 0
 126 000c FFF7FEFF 		bl	icu_lld_start
 127              	.LVL4:
 128              		.loc 1 91 0
 129 0010 0223     		movs	r3, #2
 130 0012 2370     		strb	r3, [r4]
 131              	.LVL5:
 132              	.LBB125:
 133              	.LBB126:
 134              	.LBB127:
 135              	.LBB128:
 136              	.LBB129:
 137              	.LBB130:
 138              		.loc 2 546 0
 139 0014 0023     		movs	r3, #0
 140              		.syntax unified
 141              	@ 546 "ChibiOS_3.0.2/os/ext/CMSIS/include/core_cmFunc.h" 1
 142 0016 83F31188 		MSR basepri, r3
 143              	@ 0 "" 2
 144              	.LVL6:
 145              		.thumb
 146              		.syntax unified
 147              	.LBE130:
 148              	.LBE129:
 149              	.LBE128:
 150              	.LBE127:
 151              	.LBE126:
 152              	.LBE125:
 153              		.loc 1 93 0
 154 001a 10BD     		pop	{r4, pc}
 155              		.cfi_endproc
 156              	.LFE258:
 157              		.size	icuStart, .-icuStart
 158              		.section	.text.icuStop,"ax",%progbits
 159              		.align	1
 160              		.p2align 4,,15
 161              		.global	icuStop
 162              		.syntax unified
 163              		.thumb
 164              		.thumb_func
 165              		.fpu fpv4-sp-d16
 166              		.type	icuStop, %function
 167              	icuStop:
 168              	.LFB259:
 169              		.loc 1 102 0
 170              		.cfi_startproc
 171              		@ args = 0, pretend = 0, frame = 0
ARM GAS  C:\Users\CHRIST~1\AppData\Local\Temp\cc3hHpQ9.s 			page 4


 172              		@ frame_needed = 0, uses_anonymous_args = 0
 173              	.LVL7:
 174 0000 10B5     		push	{r4, lr}
 175              		.cfi_def_cfa_offset 8
 176              		.cfi_offset 4, -8
 177              		.cfi_offset 14, -4
 178              	.LBB131:
 179              	.LBB132:
 180              	.LBB133:
 181              	.LBB134:
 182              	.LBB135:
 183              		.loc 2 546 0
 184 0002 2023     		movs	r3, #32
 185              	.LBE135:
 186              	.LBE134:
 187              	.LBE133:
 188              	.LBE132:
 189              	.LBE131:
 190              		.loc 1 102 0
 191 0004 0446     		mov	r4, r0
 192              	.LBB140:
 193              	.LBB139:
 194              	.LBB138:
 195              	.LBB137:
 196              	.LBB136:
 197              		.loc 2 546 0
 198              		.syntax unified
 199              	@ 546 "ChibiOS_3.0.2/os/ext/CMSIS/include/core_cmFunc.h" 1
 200 0006 83F31188 		MSR basepri, r3
 201              	@ 0 "" 2
 202              	.LVL8:
 203              		.thumb
 204              		.syntax unified
 205              	.LBE136:
 206              	.LBE137:
 207              	.LBE138:
 208              	.LBE139:
 209              	.LBE140:
 210              		.loc 1 109 0
 211 000a FFF7FEFF 		bl	icu_lld_stop
 212              	.LVL9:
 213              		.loc 1 110 0
 214 000e 0123     		movs	r3, #1
 215 0010 2370     		strb	r3, [r4]
 216              	.LVL10:
 217              	.LBB141:
 218              	.LBB142:
 219              	.LBB143:
 220              	.LBB144:
 221              	.LBB145:
 222              	.LBB146:
 223              		.loc 2 546 0
 224 0012 0023     		movs	r3, #0
 225              		.syntax unified
 226              	@ 546 "ChibiOS_3.0.2/os/ext/CMSIS/include/core_cmFunc.h" 1
 227 0014 83F31188 		MSR basepri, r3
 228              	@ 0 "" 2
ARM GAS  C:\Users\CHRIST~1\AppData\Local\Temp\cc3hHpQ9.s 			page 5


 229              	.LVL11:
 230              		.thumb
 231              		.syntax unified
 232              	.LBE146:
 233              	.LBE145:
 234              	.LBE144:
 235              	.LBE143:
 236              	.LBE142:
 237              	.LBE141:
 238              		.loc 1 112 0
 239 0018 10BD     		pop	{r4, pc}
 240              		.cfi_endproc
 241              	.LFE259:
 242              		.size	icuStop, .-icuStop
 243 001a 00BF     		.section	.text.icuStartCapture,"ax",%progbits
 244              		.align	1
 245              		.p2align 4,,15
 246              		.global	icuStartCapture
 247              		.syntax unified
 248              		.thumb
 249              		.thumb_func
 250              		.fpu fpv4-sp-d16
 251              		.type	icuStartCapture, %function
 252              	icuStartCapture:
 253              	.LFB260:
 254              		.loc 1 121 0
 255              		.cfi_startproc
 256              		@ args = 0, pretend = 0, frame = 0
 257              		@ frame_needed = 0, uses_anonymous_args = 0
 258              	.LVL12:
 259 0000 10B5     		push	{r4, lr}
 260              		.cfi_def_cfa_offset 8
 261              		.cfi_offset 4, -8
 262              		.cfi_offset 14, -4
 263              	.LBB147:
 264              	.LBB148:
 265              	.LBB149:
 266              	.LBB150:
 267              	.LBB151:
 268              		.loc 2 546 0
 269 0002 2023     		movs	r3, #32
 270              	.LBE151:
 271              	.LBE150:
 272              	.LBE149:
 273              	.LBE148:
 274              	.LBE147:
 275              		.loc 1 121 0
 276 0004 0446     		mov	r4, r0
 277              	.LBB156:
 278              	.LBB155:
 279              	.LBB154:
 280              	.LBB153:
 281              	.LBB152:
 282              		.loc 2 546 0
 283              		.syntax unified
 284              	@ 546 "ChibiOS_3.0.2/os/ext/CMSIS/include/core_cmFunc.h" 1
 285 0006 83F31188 		MSR basepri, r3
ARM GAS  C:\Users\CHRIST~1\AppData\Local\Temp\cc3hHpQ9.s 			page 6


 286              	@ 0 "" 2
 287              	.LVL13:
 288              		.thumb
 289              		.syntax unified
 290              	.LBE152:
 291              	.LBE153:
 292              	.LBE154:
 293              	.LBE155:
 294              	.LBE156:
 295              		.loc 1 127 0
 296 000a FFF7FEFF 		bl	icu_lld_start_capture
 297              	.LVL14:
 298 000e 0323     		movs	r3, #3
 299 0010 2370     		strb	r3, [r4]
 300              	.LVL15:
 301              	.LBB157:
 302              	.LBB158:
 303              	.LBB159:
 304              	.LBB160:
 305              	.LBB161:
 306              	.LBB162:
 307              		.loc 2 546 0
 308 0012 0023     		movs	r3, #0
 309              		.syntax unified
 310              	@ 546 "ChibiOS_3.0.2/os/ext/CMSIS/include/core_cmFunc.h" 1
 311 0014 83F31188 		MSR basepri, r3
 312              	@ 0 "" 2
 313              	.LVL16:
 314              		.thumb
 315              		.syntax unified
 316              	.LBE162:
 317              	.LBE161:
 318              	.LBE160:
 319              	.LBE159:
 320              	.LBE158:
 321              	.LBE157:
 322              		.loc 1 129 0
 323 0018 10BD     		pop	{r4, pc}
 324              		.cfi_endproc
 325              	.LFE260:
 326              		.size	icuStartCapture, .-icuStartCapture
 327 001a 00BF     		.section	.text.icuWaitCapture,"ax",%progbits
 328              		.align	1
 329              		.p2align 4,,15
 330              		.global	icuWaitCapture
 331              		.syntax unified
 332              		.thumb
 333              		.thumb_func
 334              		.fpu fpv4-sp-d16
 335              		.type	icuWaitCapture, %function
 336              	icuWaitCapture:
 337              	.LFB261:
 338              		.loc 1 147 0
 339              		.cfi_startproc
 340              		@ args = 0, pretend = 0, frame = 0
 341              		@ frame_needed = 0, uses_anonymous_args = 0
 342              	.LVL17:
ARM GAS  C:\Users\CHRIST~1\AppData\Local\Temp\cc3hHpQ9.s 			page 7


 343 0000 10B5     		push	{r4, lr}
 344              		.cfi_def_cfa_offset 8
 345              		.cfi_offset 4, -8
 346              		.cfi_offset 14, -4
 347              	.LBB163:
 348              	.LBB164:
 349              	.LBB165:
 350              	.LBB166:
 351              	.LBB167:
 352              		.loc 2 546 0
 353 0002 2023     		movs	r3, #32
 354              	.LBE167:
 355              	.LBE166:
 356              	.LBE165:
 357              	.LBE164:
 358              	.LBE163:
 359              		.loc 1 147 0
 360 0004 0446     		mov	r4, r0
 361              	.LBB172:
 362              	.LBB171:
 363              	.LBB170:
 364              	.LBB169:
 365              	.LBB168:
 366              		.loc 2 546 0
 367              		.syntax unified
 368              	@ 546 "ChibiOS_3.0.2/os/ext/CMSIS/include/core_cmFunc.h" 1
 369 0006 83F31188 		MSR basepri, r3
 370              	@ 0 "" 2
 371              	.LVL18:
 372              		.thumb
 373              		.syntax unified
 374              	.LBE168:
 375              	.LBE169:
 376              	.LBE170:
 377              	.LBE171:
 378              	.LBE172:
 379              		.loc 1 157 0
 380 000a FFF7FEFF 		bl	icu_lld_wait_capture
 381              	.LVL19:
 382              		.loc 1 158 0
 383 000e 0028     		cmp	r0, #0
 384 0010 14BF     		ite	ne
 385 0012 0323     		movne	r3, #3
 386 0014 0423     		moveq	r3, #4
 387 0016 2370     		strb	r3, [r4]
 388              	.LVL20:
 389              	.LBB173:
 390              	.LBB174:
 391              	.LBB175:
 392              	.LBB176:
 393              	.LBB177:
 394              	.LBB178:
 395              		.loc 2 546 0
 396 0018 0023     		movs	r3, #0
 397              		.syntax unified
 398              	@ 546 "ChibiOS_3.0.2/os/ext/CMSIS/include/core_cmFunc.h" 1
 399 001a 83F31188 		MSR basepri, r3
ARM GAS  C:\Users\CHRIST~1\AppData\Local\Temp\cc3hHpQ9.s 			page 8


 400              	@ 0 "" 2
 401              	.LVL21:
 402              		.thumb
 403              		.syntax unified
 404              	.LBE178:
 405              	.LBE177:
 406              	.LBE176:
 407              	.LBE175:
 408              	.LBE174:
 409              	.LBE173:
 410              		.loc 1 162 0
 411 001e 10BD     		pop	{r4, pc}
 412              		.cfi_endproc
 413              	.LFE261:
 414              		.size	icuWaitCapture, .-icuWaitCapture
 415              		.section	.text.icuStopCapture,"ax",%progbits
 416              		.align	1
 417              		.p2align 4,,15
 418              		.global	icuStopCapture
 419              		.syntax unified
 420              		.thumb
 421              		.thumb_func
 422              		.fpu fpv4-sp-d16
 423              		.type	icuStopCapture, %function
 424              	icuStopCapture:
 425              	.LFB262:
 426              		.loc 1 171 0
 427              		.cfi_startproc
 428              		@ args = 0, pretend = 0, frame = 0
 429              		@ frame_needed = 0, uses_anonymous_args = 0
 430              	.LVL22:
 431 0000 10B5     		push	{r4, lr}
 432              		.cfi_def_cfa_offset 8
 433              		.cfi_offset 4, -8
 434              		.cfi_offset 14, -4
 435              	.LBB179:
 436              	.LBB180:
 437              	.LBB181:
 438              	.LBB182:
 439              	.LBB183:
 440              		.loc 2 546 0
 441 0002 2023     		movs	r3, #32
 442              	.LBE183:
 443              	.LBE182:
 444              	.LBE181:
 445              	.LBE180:
 446              	.LBE179:
 447              		.loc 1 171 0
 448 0004 0446     		mov	r4, r0
 449              	.LBB188:
 450              	.LBB187:
 451              	.LBB186:
 452              	.LBB185:
 453              	.LBB184:
 454              		.loc 2 546 0
 455              		.syntax unified
 456              	@ 546 "ChibiOS_3.0.2/os/ext/CMSIS/include/core_cmFunc.h" 1
ARM GAS  C:\Users\CHRIST~1\AppData\Local\Temp\cc3hHpQ9.s 			page 9


 457 0006 83F31188 		MSR basepri, r3
 458              	@ 0 "" 2
 459              	.LVL23:
 460              		.thumb
 461              		.syntax unified
 462              	.LBE184:
 463              	.LBE185:
 464              	.LBE186:
 465              	.LBE187:
 466              	.LBE188:
 467              		.loc 1 179 0
 468 000a FFF7FEFF 		bl	icu_lld_stop_capture
 469              	.LVL24:
 470 000e 0223     		movs	r3, #2
 471 0010 2370     		strb	r3, [r4]
 472              	.LVL25:
 473              	.LBB189:
 474              	.LBB190:
 475              	.LBB191:
 476              	.LBB192:
 477              	.LBB193:
 478              	.LBB194:
 479              		.loc 2 546 0
 480 0012 0023     		movs	r3, #0
 481              		.syntax unified
 482              	@ 546 "ChibiOS_3.0.2/os/ext/CMSIS/include/core_cmFunc.h" 1
 483 0014 83F31188 		MSR basepri, r3
 484              	@ 0 "" 2
 485              	.LVL26:
 486              		.thumb
 487              		.syntax unified
 488              	.LBE194:
 489              	.LBE193:
 490              	.LBE192:
 491              	.LBE191:
 492              	.LBE190:
 493              	.LBE189:
 494              		.loc 1 181 0
 495 0018 10BD     		pop	{r4, pc}
 496              		.cfi_endproc
 497              	.LFE262:
 498              		.size	icuStopCapture, .-icuStopCapture
 499 001a 00BF     		.section	.text.icuEnableNotifications,"ax",%progbits
 500              		.align	1
 501              		.p2align 4,,15
 502              		.global	icuEnableNotifications
 503              		.syntax unified
 504              		.thumb
 505              		.thumb_func
 506              		.fpu fpv4-sp-d16
 507              		.type	icuEnableNotifications, %function
 508              	icuEnableNotifications:
 509              	.LFB263:
 510              		.loc 1 192 0
 511              		.cfi_startproc
 512              		@ args = 0, pretend = 0, frame = 0
 513              		@ frame_needed = 0, uses_anonymous_args = 0
ARM GAS  C:\Users\CHRIST~1\AppData\Local\Temp\cc3hHpQ9.s 			page 10


 514              	.LVL27:
 515 0000 08B5     		push	{r3, lr}
 516              		.cfi_def_cfa_offset 8
 517              		.cfi_offset 3, -8
 518              		.cfi_offset 14, -4
 519              	.LBB195:
 520              	.LBB196:
 521              	.LBB197:
 522              	.LBB198:
 523              	.LBB199:
 524              		.loc 2 546 0
 525 0002 2023     		movs	r3, #32
 526              		.syntax unified
 527              	@ 546 "ChibiOS_3.0.2/os/ext/CMSIS/include/core_cmFunc.h" 1
 528 0004 83F31188 		MSR basepri, r3
 529              	@ 0 "" 2
 530              	.LVL28:
 531              		.thumb
 532              		.syntax unified
 533              	.LBE199:
 534              	.LBE198:
 535              	.LBE197:
 536              	.LBE196:
 537              	.LBE195:
 538              		.loc 1 199 0
 539 0008 FFF7FEFF 		bl	icu_lld_enable_notifications
 540              	.LVL29:
 541              	.LBB200:
 542              	.LBB201:
 543              	.LBB202:
 544              	.LBB203:
 545              	.LBB204:
 546              	.LBB205:
 547              		.loc 2 546 0
 548 000c 0023     		movs	r3, #0
 549              		.syntax unified
 550              	@ 546 "ChibiOS_3.0.2/os/ext/CMSIS/include/core_cmFunc.h" 1
 551 000e 83F31188 		MSR basepri, r3
 552              	@ 0 "" 2
 553              	.LVL30:
 554              		.thumb
 555              		.syntax unified
 556              	.LBE205:
 557              	.LBE204:
 558              	.LBE203:
 559              	.LBE202:
 560              	.LBE201:
 561              	.LBE200:
 562              		.loc 1 201 0
 563 0012 08BD     		pop	{r3, pc}
 564              		.cfi_endproc
 565              	.LFE263:
 566              		.size	icuEnableNotifications, .-icuEnableNotifications
 567              		.section	.text.icuDisableNotifications,"ax",%progbits
 568              		.align	1
 569              		.p2align 4,,15
 570              		.global	icuDisableNotifications
ARM GAS  C:\Users\CHRIST~1\AppData\Local\Temp\cc3hHpQ9.s 			page 11


 571              		.syntax unified
 572              		.thumb
 573              		.thumb_func
 574              		.fpu fpv4-sp-d16
 575              		.type	icuDisableNotifications, %function
 576              	icuDisableNotifications:
 577              	.LFB264:
 578              		.loc 1 212 0
 579              		.cfi_startproc
 580              		@ args = 0, pretend = 0, frame = 0
 581              		@ frame_needed = 0, uses_anonymous_args = 0
 582              	.LVL31:
 583 0000 08B5     		push	{r3, lr}
 584              		.cfi_def_cfa_offset 8
 585              		.cfi_offset 3, -8
 586              		.cfi_offset 14, -4
 587              	.LBB206:
 588              	.LBB207:
 589              	.LBB208:
 590              	.LBB209:
 591              	.LBB210:
 592              		.loc 2 546 0
 593 0002 2023     		movs	r3, #32
 594              		.syntax unified
 595              	@ 546 "ChibiOS_3.0.2/os/ext/CMSIS/include/core_cmFunc.h" 1
 596 0004 83F31188 		MSR basepri, r3
 597              	@ 0 "" 2
 598              	.LVL32:
 599              		.thumb
 600              		.syntax unified
 601              	.LBE210:
 602              	.LBE209:
 603              	.LBE208:
 604              	.LBE207:
 605              	.LBE206:
 606              		.loc 1 219 0
 607 0008 FFF7FEFF 		bl	icu_lld_disable_notifications
 608              	.LVL33:
 609              	.LBB211:
 610              	.LBB212:
 611              	.LBB213:
 612              	.LBB214:
 613              	.LBB215:
 614              	.LBB216:
 615              		.loc 2 546 0
 616 000c 0023     		movs	r3, #0
 617              		.syntax unified
 618              	@ 546 "ChibiOS_3.0.2/os/ext/CMSIS/include/core_cmFunc.h" 1
 619 000e 83F31188 		MSR basepri, r3
 620              	@ 0 "" 2
 621              	.LVL34:
 622              		.thumb
 623              		.syntax unified
 624              	.LBE216:
 625              	.LBE215:
 626              	.LBE214:
 627              	.LBE213:
ARM GAS  C:\Users\CHRIST~1\AppData\Local\Temp\cc3hHpQ9.s 			page 12


 628              	.LBE212:
 629              	.LBE211:
 630              		.loc 1 221 0
 631 0012 08BD     		pop	{r3, pc}
 632              		.cfi_endproc
 633              	.LFE264:
 634              		.size	icuDisableNotifications, .-icuDisableNotifications
 635              		.text
 636              	.Letext0:
 637              		.file 3 "c:\\program files (x86)\\gnu tools arm embedded\\7 2017-q4-major\\lib\\gcc\\arm-none-eabi
 638              		.file 4 "c:\\program files (x86)\\gnu tools arm embedded\\7 2017-q4-major\\arm-none-eabi\\include\
 639              		.file 5 "c:\\program files (x86)\\gnu tools arm embedded\\7 2017-q4-major\\arm-none-eabi\\include\
 640              		.file 6 "ChibiOS_3.0.2/os/rt/ports/ARMCMx/compilers/GCC/chtypes.h"
 641              		.file 7 "ChibiOS_3.0.2/os/rt/include/chsystypes.h"
 642              		.file 8 "ChibiOS_3.0.2/os/rt/include/chschd.h"
 643              		.file 9 "ChibiOS_3.0.2/os/ext/CMSIS/include/core_cm4.h"
 644              		.file 10 "ChibiOS_3.0.2/os/ext/CMSIS/ST/system_stm32f4xx.h"
 645              		.file 11 "ChibiOS_3.0.2/os/ext/CMSIS/ST/stm32f407xx.h"
 646              		.file 12 "ChibiOS_3.0.2/os/rt/ports/ARMCMx/chcore.h"
 647              		.file 13 "ChibiOS_3.0.2/os/rt/ports/ARMCMx/chcore_v7m.h"
 648              		.file 14 "ChibiOS_3.0.2/os/rt/include/chtm.h"
 649              		.file 15 "ChibiOS_3.0.2/os/rt/include/chsem.h"
 650              		.file 16 "ChibiOS_3.0.2/os/rt/include/chmtx.h"
 651              		.file 17 "ChibiOS_3.0.2/os/rt/include/chregistry.h"
 652              		.file 18 "ChibiOS_3.0.2/os/rt/include/chevents.h"
 653              		.file 19 "ChibiOS_3.0.2/os/rt/include/chqueues.h"
 654              		.file 20 "./conf_general.h"
 655              		.file 21 "ChibiOS_3.0.2/os/hal/ports/STM32/STM32F4xx/stm32_dma.h"
 656              		.file 22 "ChibiOS_3.0.2/os/hal/ports/STM32/LLD/GPIOv2/pal_lld.h"
 657              		.file 23 "ChibiOS_3.0.2/os/hal/include/can.h"
 658              		.file 24 "ChibiOS_3.0.2/os/hal/ports/STM32/LLD/can_lld.h"
 659              		.file 25 "ChibiOS_3.0.2/os/hal/include/i2c.h"
 660              		.file 26 "ChibiOS_3.0.2/os/hal/ports/STM32/LLD/I2Cv1/i2c_lld.h"
 661              		.file 27 "ChibiOS_3.0.2/os/hal/include/icu.h"
 662              		.file 28 "ChibiOS_3.0.2/os/hal/ports/STM32/LLD/TIMv1/icu_lld.h"
 663              		.file 29 "ChibiOS_3.0.2/os/hal/ports/STM32/LLD/TIMv1/stm32_tim.h"
 664              		.file 30 "ChibiOS_3.0.2/os/hal/include/spi.h"
 665              		.file 31 "ChibiOS_3.0.2/os/hal/ports/STM32/LLD/SPIv1/spi_lld.h"
 666              		.file 32 "ChibiOS_3.0.2/os/hal/include/uart.h"
 667              		.file 33 "ChibiOS_3.0.2/os/hal/ports/STM32/LLD/USARTv1/uart_lld.h"
 668              		.file 34 "ChibiOS_3.0.2/os/hal/include/usb.h"
 669              		.file 35 "ChibiOS_3.0.2/os/hal/ports/STM32/LLD/OTGv1/usb_lld.h"
 670              		.file 36 "ChibiOS_3.0.2/os/hal/ports/STM32/LLD/OTGv1/stm32_otg.h"
 671              		.file 37 "ChibiOS_3.0.2/os/hal/osal/rt/osal.h"
 672              		.file 38 "ChibiOS_3.0.2/os/rt/include/chsys.h"