ARM GAS  C:\Users\CHRIST~1\AppData\Local\Temp\ccb3oWGE.s 			page 1


   1              		.cpu cortex-m4
   2              		.eabi_attribute 27, 1
   3              		.eabi_attribute 28, 1
   4              		.eabi_attribute 20, 1
   5              		.eabi_attribute 21, 1
   6              		.eabi_attribute 23, 3
   7              		.eabi_attribute 24, 1
   8              		.eabi_attribute 25, 1
   9              		.eabi_attribute 26, 1
  10              		.eabi_attribute 30, 2
  11              		.eabi_attribute 34, 1
  12              		.eabi_attribute 18, 4
  13              		.file	"mc_interface.c"
  14              		.text
  15              	.Ltext0:
  16              		.cfi_sections	.debug_frame
  17              		.section	.text.sample_send_thread,"ax",%progbits
  18              		.align	1
  19              		.p2align 4,,15
  20              		.syntax unified
  21              		.thumb
  22              		.thumb_func
  23              		.fpu fpv4-sp-d16
  24              		.type	sample_send_thread, %function
  25              	sample_send_thread:
  26              	.LFB311:
  27              		.file 1 "mc_interface.c"
  28              		.loc 1 1496 0
  29              		.cfi_startproc
  30              		@ args = 0, pretend = 0, frame = 48
  31              		@ frame_needed = 0, uses_anonymous_args = 0
  32              	.LVL0:
  33 0000 2DE9F04F 		push	{r4, r5, r6, r7, r8, r9, r10, fp, lr}
  34              		.cfi_def_cfa_offset 36
  35              		.cfi_offset 4, -36
  36              		.cfi_offset 5, -32
  37              		.cfi_offset 6, -28
  38              		.cfi_offset 7, -24
  39              		.cfi_offset 8, -20
  40              		.cfi_offset 9, -16
  41              		.cfi_offset 10, -12
  42              		.cfi_offset 11, -8
  43              		.cfi_offset 14, -4
  44              	.LBB109:
  45              	.LBB110:
  46              		.file 2 "ChibiOS_3.0.2/os/rt/include/chregistry.h"
  47              		.loc 2 135 0
  48 0004 7B4B     		ldr	r3, .L21
  49              	.LBE110:
  50              	.LBE109:
  51              		.loc 1 1501 0
  52 0006 7C4A     		ldr	r2, .L21+4
  53              	.LBB113:
  54              	.LBB111:
  55              		.loc 2 135 0
  56 0008 9B69     		ldr	r3, [r3, #24]
  57 000a 7C49     		ldr	r1, .L21+8
ARM GAS  C:\Users\CHRIST~1\AppData\Local\Temp\ccb3oWGE.s 			page 2


  58 000c 7C4E     		ldr	r6, .L21+12
  59 000e DFF828B2 		ldr	fp, .L21+68
  60 0012 DFF828A2 		ldr	r10, .L21+72
  61              	.LBE111:
  62              	.LBE113:
  63              		.loc 1 1496 0
  64 0016 2DED068B 		vpush.64	{d8, d9, d10}
  65              		.cfi_def_cfa_offset 60
  66              		.cfi_offset 80, -60
  67              		.cfi_offset 81, -56
  68              		.cfi_offset 82, -52
  69              		.cfi_offset 83, -48
  70              		.cfi_offset 84, -44
  71              		.cfi_offset 85, -40
  72              	.LBB114:
  73              	.LBB115:
  74              	.LBB116:
  75              		.loc 1 1541 0
  76 001a DFED7A9A 		vldr.32	s19, .L21+16
  77              		.loc 1 1543 0
  78 001e 9FED7A9A 		vldr.32	s18, .L21+20
  79 0022 DFED7A8A 		vldr.32	s17, .L21+24
  80 0026 9FED7A8A 		vldr.32	s16, .L21+28
  81              		.loc 1 1547 0
  82 002a 9FED7AAA 		vldr.32	s20, .L21+32
  83              	.LBE116:
  84              	.LBE115:
  85              	.LBE114:
  86              	.LBB124:
  87              	.LBB112:
  88              		.loc 2 135 0
  89 002e 9961     		str	r1, [r3, #24]
  90              	.LVL1:
  91              	.LBE112:
  92              	.LBE124:
  93              		.loc 1 1496 0
  94 0030 8DB0     		sub	sp, sp, #52
  95              		.cfi_def_cfa_offset 112
  96              		.loc 1 1501 0
  97 0032 1360     		str	r3, [r2]
  98              	.LVL2:
  99              	.L13:
 100              	.LBB125:
 101              		.loc 1 1504 0
 102 0034 0120     		movs	r0, #1
 103 0036 FFF7FEFF 		bl	chEvtWaitAny
 104              	.LVL3:
 105              		.loc 1 1509 0
 106 003a 774B     		ldr	r3, .L21+36
 107 003c 1B78     		ldrb	r3, [r3]	@ zero_extendqisi2
 108 003e 013B     		subs	r3, r3, #1
 109 0040 052B     		cmp	r3, #5
 110 0042 F7D8     		bhi	.L13
 111 0044 DFE803F0 		tbb	[pc, r3]
 112              	.L4:
 113 0048 03       		.byte	(.L3-.L4)/2
 114 0049 03       		.byte	(.L3-.L4)/2
ARM GAS  C:\Users\CHRIST~1\AppData\Local\Temp\ccb3oWGE.s 			page 3


 115 004a CC       		.byte	(.L5-.L4)/2
 116 004b CC       		.byte	(.L5-.L4)/2
 117 004c CC       		.byte	(.L5-.L4)/2
 118 004d CC       		.byte	(.L5-.L4)/2
 119              		.p2align 1
 120              	.L3:
 121              		.loc 1 1512 0
 122 004e 734B     		ldr	r3, .L21+40
 123 0050 D3F80080 		ldr	r8, [r3]
 124              	.LVL4:
 125              	.LBB121:
 126              		.loc 1 1527 0
 127 0054 B8F1000F 		cmp	r8, #0
 128              	.LBE121:
 129              		.loc 1 1507 0
 130 0058 C8BF     		it	gt
 131 005a 4FF00009 		movgt	r9, #0
 132              	.LBB122:
 133              		.loc 1 1527 0
 134 005e E9DD     		ble	.L13
 135              	.LVL5:
 136              	.L6:
 137              	.LBB117:
 138              		.loc 1 1532 0
 139 0060 B9F5FA6F 		cmp	r9, #2000
 140              	.LBE117:
 141              	.LBE122:
 142              		.loc 1 1519 0
 143 0064 4FF00007 		mov	r7, #0
 144              	.LVL6:
 145              	.LBB123:
 146              	.LBB118:
 147              		.loc 1 1530 0
 148 0068 4C46     		mov	r4, r9
 149              	.LVL7:
 150              		.loc 1 1532 0
 151 006a C0F2B180 		blt	.L7
 152              	.L8:
 153              		.loc 1 1533 0
 154 006e A4F5FA64 		sub	r4, r4, #2000
 155              	.LVL8:
 156              		.loc 1 1532 0
 157 0072 B4F5FA6F 		cmp	r4, #2000
 158 0076 FADA     		bge	.L8
 159              	.L9:
 160              		.loc 1 1541 0 discriminator 2
 161 0078 36F81430 		ldrh	r3, [r6, r4, lsl #1]
 162 007c 1BB2     		sxth	r3, r3
 163 007e 07EE903A 		vmov	s15, r3	@ int
 164 0082 B8EEE70A 		vcvt.f32.s32	s0, s15
 165              		.loc 1 1540 0 discriminator 2
 166 0086 0122     		movs	r2, #1
 167              		.loc 1 1542 0 discriminator 2
 168 0088 04FA02F5 		lsl	r5, r4, r2
 169              		.loc 1 1540 0 discriminator 2
 170 008c 1323     		movs	r3, #19
 171              		.loc 1 1541 0 discriminator 2
ARM GAS  C:\Users\CHRIST~1\AppData\Local\Temp\ccb3oWGE.s 			page 4


 172 008e 20EE290A 		vmul.f32	s0, s0, s19
 173 0092 01A9     		add	r1, sp, #4
 174 0094 02A8     		add	r0, sp, #8
 175              		.loc 1 1540 0 discriminator 2
 176 0096 0192     		str	r2, [sp, #4]
 177 0098 8DF80830 		strb	r3, [sp, #8]
 178              		.loc 1 1541 0 discriminator 2
 179 009c FFF7FEFF 		bl	buffer_append_float32_auto
 180              	.LVL9:
 181              		.loc 1 1542 0 discriminator 2
 182 00a0 7319     		adds	r3, r6, r5
 183 00a2 01A9     		add	r1, sp, #4
 184 00a4 B3F8A03F 		ldrh	r3, [r3, #4000]
 185 00a8 1BB2     		sxth	r3, r3
 186 00aa 07EE903A 		vmov	s15, r3	@ int
 187 00ae B8EEE70A 		vcvt.f32.s32	s0, s15
 188 00b2 02A8     		add	r0, sp, #8
 189 00b4 20EE290A 		vmul.f32	s0, s0, s19
 190 00b8 FFF7FEFF 		bl	buffer_append_float32_auto
 191              	.LVL10:
 192              		.loc 1 1543 0 discriminator 2
 193 00bc 0BEB0503 		add	r3, fp, r5
 194 00c0 01A9     		add	r1, sp, #4
 195 00c2 B3F8483E 		ldrh	r3, [r3, #3656]
 196 00c6 1BB2     		sxth	r3, r3
 197 00c8 00EE103A 		vmov	s0, r3	@ int
 198 00cc B8EEC00A 		vcvt.f32.s32	s0, s0
 199 00d0 02A8     		add	r0, sp, #8
 200 00d2 20EE090A 		vmul.f32	s0, s0, s18
 201              	.LBE118:
 202              		.loc 1 1527 0 discriminator 2
 203 00d6 0137     		adds	r7, r7, #1
 204              	.LVL11:
 205              	.LBB119:
 206              		.loc 1 1543 0 discriminator 2
 207 00d8 20EE280A 		vmul.f32	s0, s0, s17
 208 00dc 09F10109 		add	r9, r9, #1
 209 00e0 20EE080A 		vmul.f32	s0, s0, s16
 210 00e4 FFF7FEFF 		bl	buffer_append_float32_auto
 211              	.LVL12:
 212              		.loc 1 1544 0 discriminator 2
 213 00e8 0AEB0503 		add	r3, r10, r5
 214 00ec 01A9     		add	r1, sp, #4
 215 00ee B3F8F03C 		ldrh	r3, [r3, #3312]
 216 00f2 1BB2     		sxth	r3, r3
 217 00f4 00EE103A 		vmov	s0, r3	@ int
 218 00f8 B8EEC00A 		vcvt.f32.s32	s0, s0
 219 00fc 02A8     		add	r0, sp, #8
 220 00fe 20EE090A 		vmul.f32	s0, s0, s18
 221 0102 20EE280A 		vmul.f32	s0, s0, s17
 222 0106 20EE080A 		vmul.f32	s0, s0, s16
 223 010a FFF7FEFF 		bl	buffer_append_float32_auto
 224              	.LVL13:
 225              		.loc 1 1545 0 discriminator 2
 226 010e 444B     		ldr	r3, .L21+44
 227 0110 2B44     		add	r3, r3, r5
 228 0112 01A9     		add	r1, sp, #4
ARM GAS  C:\Users\CHRIST~1\AppData\Local\Temp\ccb3oWGE.s 			page 5


 229 0114 B3F8983B 		ldrh	r3, [r3, #2968]
 230 0118 1BB2     		sxth	r3, r3
 231 011a 00EE103A 		vmov	s0, r3	@ int
 232 011e B8EEC00A 		vcvt.f32.s32	s0, s0
 233 0122 02A8     		add	r0, sp, #8
 234 0124 20EE090A 		vmul.f32	s0, s0, s18
 235 0128 20EE280A 		vmul.f32	s0, s0, s17
 236 012c 20EE080A 		vmul.f32	s0, s0, s16
 237 0130 FFF7FEFF 		bl	buffer_append_float32_auto
 238              	.LVL14:
 239              		.loc 1 1546 0 discriminator 2
 240 0134 3B4B     		ldr	r3, .L21+48
 241 0136 2B44     		add	r3, r3, r5
 242 0138 01A9     		add	r1, sp, #4
 243 013a B3F8403A 		ldrh	r3, [r3, #2624]
 244 013e 1BB2     		sxth	r3, r3
 245 0140 00EE103A 		vmov	s0, r3	@ int
 246 0144 B8EEC00A 		vcvt.f32.s32	s0, s0
 247 0148 02A8     		add	r0, sp, #8
 248 014a 20EE090A 		vmul.f32	s0, s0, s18
 249 014e 20EE280A 		vmul.f32	s0, s0, s17
 250 0152 20EE080A 		vmul.f32	s0, s0, s16
 251 0156 FFF7FEFF 		bl	buffer_append_float32_auto
 252              	.LVL15:
 253              		.loc 1 1547 0 discriminator 2
 254 015a 334B     		ldr	r3, .L21+52
 255 015c 2B44     		add	r3, r3, r5
 256 015e 01A9     		add	r1, sp, #4
 257 0160 B3F8E838 		ldrh	r3, [r3, #2280]
 258 0164 1BB2     		sxth	r3, r3
 259 0166 07EE903A 		vmov	s15, r3	@ int
 260 016a B8EEE70A 		vcvt.f32.s32	s0, s15
 261 016e 02A8     		add	r0, sp, #8
 262 0170 80EE0A0A 		vdiv.f32	s0, s0, s20
 263 0174 FFF7FEFF 		bl	buffer_append_float32_auto
 264              	.LVL16:
 265              		.loc 1 1548 0 discriminator 2
 266 0178 2C4B     		ldr	r3, .L21+56
 267 017a 1D44     		add	r5, r5, r3
 268 017c 01A9     		add	r1, sp, #4
 269 017e B5F89037 		ldrh	r3, [r5, #1936]
 270 0182 1BB2     		sxth	r3, r3
 271 0184 02A8     		add	r0, sp, #8
 272 0186 07EE903A 		vmov	s15, r3	@ int
 273 018a F8EEE77A 		vcvt.f32.s32	s15, s15
 274 018e B2EE040A 		vmov.f32	s0, #1.0e+1
 275 0192 27EE800A 		vmul.f32	s0, s15, s0
 276 0196 FFF7FEFF 		bl	buffer_append_float32_auto
 277              	.LVL17:
 278              		.loc 1 1549 0 discriminator 2
 279 019a 254A     		ldr	r2, .L21+60
 280 019c 019B     		ldr	r3, [sp, #4]
 281 019e 1444     		add	r4, r4, r2
 282              	.LVL18:
 283 01a0 0CAA     		add	r2, sp, #48
 284 01a2 1A44     		add	r2, r2, r3
 285 01a4 94F83816 		ldrb	r1, [r4, #1592]	@ zero_extendqisi2
ARM GAS  C:\Users\CHRIST~1\AppData\Local\Temp\ccb3oWGE.s 			page 6


 286 01a8 02F8281C 		strb	r1, [r2, #-40]
 287              		.loc 1 1550 0 discriminator 2
 288 01ac 0233     		adds	r3, r3, #2
 289 01ae 94F8084E 		ldrb	r4, [r4, #3592]	@ zero_extendqisi2
 290              	.LVL19:
 291 01b2 02F8274C 		strb	r4, [r2, #-39]
 292              		.loc 1 1552 0 discriminator 2
 293 01b6 1946     		mov	r1, r3
 294 01b8 02A8     		add	r0, sp, #8
 295              		.loc 1 1550 0 discriminator 2
 296 01ba 0193     		str	r3, [sp, #4]
 297              		.loc 1 1552 0 discriminator 2
 298 01bc FFF7FEFF 		bl	commands_send_packet
 299              	.LVL20:
 300              	.LBE119:
 301              		.loc 1 1527 0 discriminator 2
 302 01c0 4745     		cmp	r7, r8
 303 01c2 BFF637AF 		bge	.L13
 304              	.LBB120:
 305              		.loc 1 1532 0
 306 01c6 B9F5FA6F 		cmp	r9, #2000
 307              		.loc 1 1530 0
 308 01ca 4C46     		mov	r4, r9
 309              	.LVL21:
 310              		.loc 1 1532 0
 311 01cc BFF64FAF 		bge	.L8
 312              	.L7:
 313              		.loc 1 1536 0
 314 01d0 B9F1000F 		cmp	r9, #0
 315 01d4 BFF650AF 		bge	.L9
 316              	.L10:
 317              	.LVL22:
 318 01d8 14F5FA64 		adds	r4, r4, #2000
 319              	.LVL23:
 320 01dc FCD4     		bmi	.L10
 321 01de 4BE7     		b	.L9
 322              	.LVL24:
 323              	.L5:
 324              	.LBE120:
 325              	.LBE123:
 326              		.loc 1 1520 0
 327 01e0 144B     		ldr	r3, .L21+64
 328 01e2 0E4A     		ldr	r2, .L21+40
 329 01e4 1B68     		ldr	r3, [r3]
 330 01e6 1268     		ldr	r2, [r2]
 331              		.loc 1 1519 0
 332 01e8 4FF4FA68 		mov	r8, #2000
 333              		.loc 1 1520 0
 334 01ec A3EB0209 		sub	r9, r3, r2
 335              	.LVL25:
 336 01f0 36E7     		b	.L6
 337              	.L22:
 338 01f2 00BF     		.align	2
 339              	.L21:
 340 01f4 00000000 		.word	ch
 341 01f8 00000000 		.word	.LANCHOR0
 342 01fc 00000000 		.word	.LC0
ARM GAS  C:\Users\CHRIST~1\AppData\Local\Temp\ccb3oWGE.s 			page 7


 343 0200 00000000 		.word	.LANCHOR4
 344 0204 500AA53D 		.word	1034226256
 345 0208 00008039 		.word	964689920
 346 020c 33335340 		.word	1079194419
 347 0210 74D19541 		.word	1100337524
 348 0214 A48BC642 		.word	1120308132
 349 0218 00000000 		.word	.LANCHOR1
 350 021c 00000000 		.word	.LANCHOR2
 351 0220 E8320000 		.word	.LANCHOR7
 352 0224 E0430000 		.word	.LANCHOR8
 353 0228 D8540000 		.word	.LANCHOR9
 354 022c D0650000 		.word	.LANCHOR10
 355 0230 C8760000 		.word	.LANCHOR11
 356 0234 00000000 		.word	.LANCHOR3
 357 0238 F8100000 		.word	.LANCHOR5
 358 023c F0210000 		.word	.LANCHOR6
 359              	.LBE125:
 360              		.cfi_endproc
 361              	.LFE311:
 362              		.size	sample_send_thread, .-sample_send_thread
 363              		.section	.text.mc_interface_init,"ax",%progbits
 364              		.align	1
 365              		.p2align 4,,15
 366              		.global	mc_interface_init
 367              		.syntax unified
 368              		.thumb
 369              		.thumb_func
 370              		.fpu fpv4-sp-d16
 371              		.type	mc_interface_init, %function
 372              	mc_interface_init:
 373              	.LFB256:
 374              		.loc 1 99 0
 375              		.cfi_startproc
 376              		@ args = 0, pretend = 0, frame = 0
 377              		@ frame_needed = 0, uses_anonymous_args = 0
 378              	.LVL26:
 379 0000 F0B5     		push	{r4, r5, r6, r7, lr}
 380              		.cfi_def_cfa_offset 20
 381              		.cfi_offset 4, -20
 382              		.cfi_offset 5, -16
 383              		.cfi_offset 6, -12
 384              		.cfi_offset 7, -8
 385              		.cfi_offset 14, -4
 386              		.loc 1 100 0
 387 0002 3D4D     		ldr	r5, .L34
 388              		.loc 1 106 0
 389 0004 3D4E     		ldr	r6, .L34+4
 390              		.loc 1 123 0
 391 0006 3E4F     		ldr	r7, .L34+8
 392              		.loc 1 99 0
 393 0008 83B0     		sub	sp, sp, #12
 394              		.cfi_def_cfa_offset 32
 395              		.loc 1 100 0
 396 000a 0146     		mov	r1, r0
 397 000c 4FF4BA72 		mov	r2, #372
 398 0010 2846     		mov	r0, r5
 399              	.LVL27:
ARM GAS  C:\Users\CHRIST~1\AppData\Local\Temp\ccb3oWGE.s 			page 8


 400 0012 FFF7FEFF 		bl	memcpy
 401              	.LVL28:
 402              		.loc 1 103 0
 403 0016 3B48     		ldr	r0, .L34+12
 404              		.loc 1 104 0
 405 0018 3B49     		ldr	r1, .L34+16
 406              		.loc 1 105 0
 407 001a 3C4A     		ldr	r2, .L34+20
 408              		.loc 1 101 0
 409 001c 0024     		movs	r4, #0
 410              		.loc 1 131 0
 411 001e 0094     		str	r4, [sp]
 412              		.loc 1 103 0
 413 0020 0460     		str	r4, [r0]
 414              		.loc 1 107 0
 415 0022 3B48     		ldr	r0, .L34+24
 416              		.loc 1 104 0
 417 0024 0C70     		strb	r4, [r1]
 418              		.loc 1 106 0
 419 0026 0023     		movs	r3, #0
 420              		.loc 1 105 0
 421 0028 1470     		strb	r4, [r2]
 422              		.loc 1 108 0
 423 002a 3A49     		ldr	r1, .L34+28
 424              		.loc 1 109 0
 425 002c 3A4A     		ldr	r2, .L34+32
 426              		.loc 1 106 0
 427 002e 3360     		str	r3, [r6]	@ float
 428              		.loc 1 107 0
 429 0030 0360     		str	r3, [r0]	@ float
 430              		.loc 1 110 0
 431 0032 3A4E     		ldr	r6, .L34+36
 432              		.loc 1 111 0
 433 0034 3A48     		ldr	r0, .L34+40
 434              		.loc 1 108 0
 435 0036 0B60     		str	r3, [r1]	@ float
 436              		.loc 1 109 0
 437 0038 1360     		str	r3, [r2]	@ float
 438              		.loc 1 112 0
 439 003a 3A49     		ldr	r1, .L34+44
 440              		.loc 1 113 0
 441 003c 3A4A     		ldr	r2, .L34+48
 442              		.loc 1 110 0
 443 003e 3360     		str	r3, [r6]	@ float
 444              		.loc 1 111 0
 445 0040 0360     		str	r3, [r0]	@ float
 446              		.loc 1 114 0
 447 0042 3A4E     		ldr	r6, .L34+52
 448              		.loc 1 115 0
 449 0044 3A48     		ldr	r0, .L34+56
 450              		.loc 1 112 0
 451 0046 0B60     		str	r3, [r1]	@ float
 452              		.loc 1 113 0
 453 0048 1360     		str	r3, [r2]	@ float
 454              		.loc 1 116 0
 455 004a 3A49     		ldr	r1, .L34+60
 456              		.loc 1 117 0
ARM GAS  C:\Users\CHRIST~1\AppData\Local\Temp\ccb3oWGE.s 			page 9


 457 004c 3A4A     		ldr	r2, .L34+64
 458              		.loc 1 114 0
 459 004e 3360     		str	r3, [r6]	@ float
 460              		.loc 1 115 0
 461 0050 0360     		str	r3, [r0]	@ float
 462              		.loc 1 118 0
 463 0052 3A4E     		ldr	r6, .L34+68
 464              		.loc 1 119 0
 465 0054 3A48     		ldr	r0, .L34+72
 466              		.loc 1 116 0
 467 0056 0B60     		str	r3, [r1]	@ float
 468              		.loc 1 117 0
 469 0058 1360     		str	r3, [r2]	@ float
 470              		.loc 1 120 0
 471 005a 3A49     		ldr	r1, .L34+76
 472              		.loc 1 121 0
 473 005c 3A4A     		ldr	r2, .L34+80
 474              		.loc 1 118 0
 475 005e 3360     		str	r3, [r6]	@ float
 476              		.loc 1 123 0
 477 0060 4FF47A7C 		mov	ip, #1000
 478              		.loc 1 119 0
 479 0064 0360     		str	r3, [r0]	@ float
 480              		.loc 1 125 0
 481 0066 394E     		ldr	r6, .L34+84
 482              		.loc 1 124 0
 483 0068 3948     		ldr	r0, .L34+88
 484              		.loc 1 120 0
 485 006a 0B60     		str	r3, [r1]	@ float
 486              		.loc 1 121 0
 487 006c 1360     		str	r3, [r2]	@ float
 488              		.loc 1 123 0
 489 006e C7F800C0 		str	ip, [r7]
 490              		.loc 1 124 0
 491 0072 0127     		movs	r7, #1
 492 0074 0760     		str	r7, [r0]
 493              		.loc 1 126 0
 494 0076 374B     		ldr	r3, .L34+92
 495              		.loc 1 125 0
 496 0078 3460     		str	r4, [r6]
 497              		.loc 1 127 0
 498 007a 374A     		ldr	r2, .L34+96
 499              		.loc 1 101 0
 500 007c 3749     		ldr	r1, .L34+100
 501              		.loc 1 102 0
 502 007e 3848     		ldr	r0, .L34+104
 503              		.loc 1 128 0
 504 0080 384E     		ldr	r6, .L34+108
 505              		.loc 1 126 0
 506 0082 1C60     		str	r4, [r3]
 507              		.loc 1 101 0
 508 0084 0C70     		strb	r4, [r1]
 509              		.loc 1 127 0
 510 0086 1470     		strb	r4, [r2]
 511              		.loc 1 131 0
 512 0088 374B     		ldr	r3, .L34+112
 513              		.loc 1 102 0
ARM GAS  C:\Users\CHRIST~1\AppData\Local\Temp\ccb3oWGE.s 			page 10


 514 008a 0460     		str	r4, [r0]
 515              		.loc 1 131 0
 516 008c 4022     		movs	r2, #64
 517 008e 4FF4B361 		mov	r1, #1432
 518 0092 3648     		ldr	r0, .L34+116
 519              		.loc 1 128 0
 520 0094 3470     		strb	r4, [r6]
 521              		.loc 1 131 0
 522 0096 FFF7FEFF 		bl	chThdCreateStatic
 523              	.LVL29:
 524              		.loc 1 132 0
 525 009a 354B     		ldr	r3, .L34+120
 526 009c 0094     		str	r4, [sp]
 527 009e 3548     		ldr	r0, .L34+124
 528 00a0 3F22     		movs	r2, #63
 529 00a2 4FF4B361 		mov	r1, #1432
 530 00a6 FFF7FEFF 		bl	chThdCreateStatic
 531              	.LVL30:
 532              		.loc 1 141 0
 533 00aa 95F85C31 		ldrb	r3, [r5, #348]	@ zero_extendqisi2
 534 00ae DBB2     		uxtb	r3, r3
 535 00b0 BB42     		cmp	r3, r7
 536 00b2 1BD0     		beq	.L25
 537 00b4 022B     		cmp	r3, #2
 538 00b6 0BD0     		beq	.L26
 539              	.L24:
 540              		.loc 1 156 0
 541 00b8 AB78     		ldrb	r3, [r5, #2]	@ zero_extendqisi2
 542 00ba DBB2     		uxtb	r3, r3
 543 00bc 012B     		cmp	r3, #1
 544 00be 0DD9     		bls	.L28
 545              	.L33:
 546 00c0 022B     		cmp	r3, #2
 547 00c2 11D1     		bne	.L32
 548              		.loc 1 163 0
 549 00c4 0C48     		ldr	r0, .L34
 550              		.loc 1 169 0
 551 00c6 03B0     		add	sp, sp, #12
 552              		.cfi_remember_state
 553              		.cfi_def_cfa_offset 20
 554              		@ sp needed
 555 00c8 BDE8F040 		pop	{r4, r5, r6, r7, lr}
 556              		.cfi_restore 14
 557              		.cfi_restore 7
 558              		.cfi_restore 6
 559              		.cfi_restore 5
 560              		.cfi_restore 4
 561              		.cfi_def_cfa_offset 0
 562              		.loc 1 163 0
 563 00cc FFF7FEBF 		b	mcpwm_foc_init
 564              	.LVL31:
 565              	.L26:
 566              		.cfi_restore_state
 567              		.loc 1 147 0
 568 00d0 FFF7FEFF 		bl	encoder_init_as5047p_spi
 569              	.LVL32:
 570              		.loc 1 156 0
ARM GAS  C:\Users\CHRIST~1\AppData\Local\Temp\ccb3oWGE.s 			page 11


 571 00d4 AB78     		ldrb	r3, [r5, #2]	@ zero_extendqisi2
 572 00d6 DBB2     		uxtb	r3, r3
 573 00d8 012B     		cmp	r3, #1
 574 00da F1D8     		bhi	.L33
 575              	.L28:
 576              		.loc 1 159 0
 577 00dc 0648     		ldr	r0, .L34
 578              		.loc 1 169 0
 579 00de 03B0     		add	sp, sp, #12
 580              		.cfi_remember_state
 581              		.cfi_def_cfa_offset 20
 582              		@ sp needed
 583 00e0 BDE8F040 		pop	{r4, r5, r6, r7, lr}
 584              		.cfi_restore 14
 585              		.cfi_restore 7
 586              		.cfi_restore 6
 587              		.cfi_restore 5
 588              		.cfi_restore 4
 589              		.cfi_def_cfa_offset 0
 590              		.loc 1 159 0
 591 00e4 FFF7FEBF 		b	mcpwm_init
 592              	.LVL33:
 593              	.L32:
 594              		.cfi_restore_state
 595              		.loc 1 169 0
 596 00e8 03B0     		add	sp, sp, #12
 597              		.cfi_remember_state
 598              		.cfi_def_cfa_offset 20
 599              		@ sp needed
 600 00ea F0BD     		pop	{r4, r5, r6, r7, pc}
 601              	.L25:
 602              		.cfi_restore_state
 603              		.loc 1 143 0
 604 00ec D5F85801 		ldr	r0, [r5, #344]
 605 00f0 FFF7FEFF 		bl	encoder_init_abi
 606              	.LVL34:
 607              		.loc 1 144 0
 608 00f4 E0E7     		b	.L24
 609              	.L35:
 610 00f6 00BF     		.align	2
 611              	.L34:
 612 00f8 00000000 		.word	.LANCHOR12
 613 00fc 00000000 		.word	.LANCHOR18
 614 0100 00000000 		.word	.LANCHOR2
 615 0104 00000000 		.word	.LANCHOR15
 616 0108 00000000 		.word	.LANCHOR16
 617 010c 00000000 		.word	.LANCHOR17
 618 0110 00000000 		.word	.LANCHOR19
 619 0114 00000000 		.word	.LANCHOR20
 620 0118 00000000 		.word	.LANCHOR21
 621 011c 00000000 		.word	.LANCHOR22
 622 0120 00000000 		.word	.LANCHOR23
 623 0124 00000000 		.word	.LANCHOR24
 624 0128 00000000 		.word	.LANCHOR25
 625 012c 00000000 		.word	.LANCHOR26
 626 0130 00000000 		.word	.LANCHOR27
 627 0134 00000000 		.word	.LANCHOR28
ARM GAS  C:\Users\CHRIST~1\AppData\Local\Temp\ccb3oWGE.s 			page 12


 628 0138 00000000 		.word	.LANCHOR29
 629 013c 00000000 		.word	.LANCHOR30
 630 0140 00000000 		.word	.LANCHOR31
 631 0144 00000000 		.word	.LANCHOR32
 632 0148 00000000 		.word	.LANCHOR33
 633 014c 00000000 		.word	.LANCHOR35
 634 0150 00000000 		.word	.LANCHOR34
 635 0154 00000000 		.word	.LANCHOR3
 636 0158 00000000 		.word	.LANCHOR36
 637 015c 00000000 		.word	.LANCHOR13
 638 0160 00000000 		.word	.LANCHOR14
 639 0164 00000000 		.word	.LANCHOR1
 640 0168 00000000 		.word	timer_thread
 641 016c 00000000 		.word	.LANCHOR37
 642 0170 00000000 		.word	sample_send_thread
 643 0174 00000000 		.word	.LANCHOR38
 644              		.cfi_endproc
 645              	.LFE256:
 646              		.size	mc_interface_init, .-mc_interface_init
 647              		.section	.text.mc_interface_get_configuration,"ax",%progbits
 648              		.align	1
 649              		.p2align 4,,15
 650              		.global	mc_interface_get_configuration
 651              		.syntax unified
 652              		.thumb
 653              		.thumb_func
 654              		.fpu fpv4-sp-d16
 655              		.type	mc_interface_get_configuration, %function
 656              	mc_interface_get_configuration:
 657              	.LFB257:
 658              		.loc 1 171 0
 659              		.cfi_startproc
 660              		@ args = 0, pretend = 0, frame = 0
 661              		@ frame_needed = 0, uses_anonymous_args = 0
 662              		@ link register save eliminated.
 663              		.loc 1 173 0
 664 0000 0048     		ldr	r0, .L37
 665 0002 7047     		bx	lr
 666              	.L38:
 667              		.align	2
 668              	.L37:
 669 0004 00000000 		.word	.LANCHOR12
 670              		.cfi_endproc
 671              	.LFE257:
 672              		.size	mc_interface_get_configuration, .-mc_interface_get_configuration
 673              		.section	.text.mc_interface_dccal_done,"ax",%progbits
 674              		.align	1
 675              		.p2align 4,,15
 676              		.global	mc_interface_dccal_done
 677              		.syntax unified
 678              		.thumb
 679              		.thumb_func
 680              		.fpu fpv4-sp-d16
 681              		.type	mc_interface_dccal_done, %function
 682              	mc_interface_dccal_done:
 683              	.LFB259:
 684              		.loc 1 234 0
ARM GAS  C:\Users\CHRIST~1\AppData\Local\Temp\ccb3oWGE.s 			page 13


 685              		.cfi_startproc
 686              		@ args = 0, pretend = 0, frame = 0
 687              		@ frame_needed = 0, uses_anonymous_args = 0
 688              		@ link register save eliminated.
 689              	.LVL35:
 690              		.loc 1 236 0
 691 0000 064B     		ldr	r3, .L45
 692 0002 9B78     		ldrb	r3, [r3, #2]	@ zero_extendqisi2
 693 0004 DBB2     		uxtb	r3, r3
 694 0006 012B     		cmp	r3, #1
 695 0008 05D9     		bls	.L41
 696 000a 022B     		cmp	r3, #2
 697 000c 01D1     		bne	.L44
 698              		.loc 1 243 0
 699 000e FFF7FEBF 		b	mcpwm_foc_is_dccal_done
 700              	.LVL36:
 701              	.L44:
 702              		.loc 1 251 0
 703 0012 0020     		movs	r0, #0
 704 0014 7047     		bx	lr
 705              	.L41:
 706              		.loc 1 239 0
 707 0016 FFF7FEBF 		b	mcpwm_is_dccal_done
 708              	.LVL37:
 709              	.L46:
 710 001a 00BF     		.align	2
 711              	.L45:
 712 001c 00000000 		.word	.LANCHOR12
 713              		.cfi_endproc
 714              	.LFE259:
 715              		.size	mc_interface_dccal_done, .-mc_interface_dccal_done
 716              		.section	.text.mc_interface_set_pwm_callback,"ax",%progbits
 717              		.align	1
 718              		.p2align 4,,15
 719              		.global	mc_interface_set_pwm_callback
 720              		.syntax unified
 721              		.thumb
 722              		.thumb_func
 723              		.fpu fpv4-sp-d16
 724              		.type	mc_interface_set_pwm_callback, %function
 725              	mc_interface_set_pwm_callback:
 726              	.LFB260:
 727              		.loc 1 259 0
 728              		.cfi_startproc
 729              		@ args = 0, pretend = 0, frame = 0
 730              		@ frame_needed = 0, uses_anonymous_args = 0
 731              		@ link register save eliminated.
 732              	.LVL38:
 733              		.loc 1 260 0
 734 0000 014B     		ldr	r3, .L48
 735 0002 1860     		str	r0, [r3]
 736              		.loc 1 261 0
 737 0004 7047     		bx	lr
 738              	.L49:
 739 0006 00BF     		.align	2
 740              	.L48:
 741 0008 00000000 		.word	.LANCHOR39
ARM GAS  C:\Users\CHRIST~1\AppData\Local\Temp\ccb3oWGE.s 			page 14


 742              		.cfi_endproc
 743              	.LFE260:
 744              		.size	mc_interface_set_pwm_callback, .-mc_interface_set_pwm_callback
 745              		.section	.text.mc_interface_lock,"ax",%progbits
 746              		.align	1
 747              		.p2align 4,,15
 748              		.global	mc_interface_lock
 749              		.syntax unified
 750              		.thumb
 751              		.thumb_func
 752              		.fpu fpv4-sp-d16
 753              		.type	mc_interface_lock, %function
 754              	mc_interface_lock:
 755              	.LFB261:
 756              		.loc 1 266 0
 757              		.cfi_startproc
 758              		@ args = 0, pretend = 0, frame = 0
 759              		@ frame_needed = 0, uses_anonymous_args = 0
 760              		@ link register save eliminated.
 761              		.loc 1 267 0
 762 0000 014B     		ldr	r3, .L51
 763 0002 0122     		movs	r2, #1
 764 0004 1A70     		strb	r2, [r3]
 765              		.loc 1 268 0
 766 0006 7047     		bx	lr
 767              	.L52:
 768              		.align	2
 769              	.L51:
 770 0008 00000000 		.word	.LANCHOR16
 771              		.cfi_endproc
 772              	.LFE261:
 773              		.size	mc_interface_lock, .-mc_interface_lock
 774              		.section	.text.mc_interface_unlock,"ax",%progbits
 775              		.align	1
 776              		.p2align 4,,15
 777              		.global	mc_interface_unlock
 778              		.syntax unified
 779              		.thumb
 780              		.thumb_func
 781              		.fpu fpv4-sp-d16
 782              		.type	mc_interface_unlock, %function
 783              	mc_interface_unlock:
 784              	.LFB262:
 785              		.loc 1 273 0
 786              		.cfi_startproc
 787              		@ args = 0, pretend = 0, frame = 0
 788              		@ frame_needed = 0, uses_anonymous_args = 0
 789              		@ link register save eliminated.
 790              		.loc 1 274 0
 791 0000 014B     		ldr	r3, .L54
 792 0002 0022     		movs	r2, #0
 793 0004 1A70     		strb	r2, [r3]
 794              		.loc 1 275 0
 795 0006 7047     		bx	lr
 796              	.L55:
 797              		.align	2
 798              	.L54:
ARM GAS  C:\Users\CHRIST~1\AppData\Local\Temp\ccb3oWGE.s 			page 15


 799 0008 00000000 		.word	.LANCHOR16
 800              		.cfi_endproc
 801              	.LFE262:
 802              		.size	mc_interface_unlock, .-mc_interface_unlock
 803              		.section	.text.mc_interface_lock_override_once,"ax",%progbits
 804              		.align	1
 805              		.p2align 4,,15
 806              		.global	mc_interface_lock_override_once
 807              		.syntax unified
 808              		.thumb
 809              		.thumb_func
 810              		.fpu fpv4-sp-d16
 811              		.type	mc_interface_lock_override_once, %function
 812              	mc_interface_lock_override_once:
 813              	.LFB263:
 814              		.loc 1 280 0
 815              		.cfi_startproc
 816              		@ args = 0, pretend = 0, frame = 0
 817              		@ frame_needed = 0, uses_anonymous_args = 0
 818              		@ link register save eliminated.
 819              		.loc 1 281 0
 820 0000 014B     		ldr	r3, .L57
 821 0002 0122     		movs	r2, #1
 822 0004 1A70     		strb	r2, [r3]
 823              		.loc 1 282 0
 824 0006 7047     		bx	lr
 825              	.L58:
 826              		.align	2
 827              	.L57:
 828 0008 00000000 		.word	.LANCHOR17
 829              		.cfi_endproc
 830              	.LFE263:
 831              		.size	mc_interface_lock_override_once, .-mc_interface_lock_override_once
 832              		.section	.text.mc_interface_get_fault,"ax",%progbits
 833              		.align	1
 834              		.p2align 4,,15
 835              		.global	mc_interface_get_fault
 836              		.syntax unified
 837              		.thumb
 838              		.thumb_func
 839              		.fpu fpv4-sp-d16
 840              		.type	mc_interface_get_fault, %function
 841              	mc_interface_get_fault:
 842              	.LFB264:
 843              		.loc 1 284 0
 844              		.cfi_startproc
 845              		@ args = 0, pretend = 0, frame = 0
 846              		@ frame_needed = 0, uses_anonymous_args = 0
 847              		@ link register save eliminated.
 848              		.loc 1 285 0
 849 0000 014B     		ldr	r3, .L60
 850              		.loc 1 286 0
 851 0002 1878     		ldrb	r0, [r3]	@ zero_extendqisi2
 852 0004 7047     		bx	lr
 853              	.L61:
 854 0006 00BF     		.align	2
 855              	.L60:
ARM GAS  C:\Users\CHRIST~1\AppData\Local\Temp\ccb3oWGE.s 			page 16


 856 0008 00000000 		.word	.LANCHOR13
 857              		.cfi_endproc
 858              	.LFE264:
 859              		.size	mc_interface_get_fault, .-mc_interface_get_fault
 860              		.section	.text.mc_interface_fault_to_string,"ax",%progbits
 861              		.align	1
 862              		.p2align 4,,15
 863              		.global	mc_interface_fault_to_string
 864              		.syntax unified
 865              		.thumb
 866              		.thumb_func
 867              		.fpu fpv4-sp-d16
 868              		.type	mc_interface_fault_to_string, %function
 869              	mc_interface_fault_to_string:
 870              	.LFB265:
 871              		.loc 1 288 0
 872              		.cfi_startproc
 873              		@ args = 0, pretend = 0, frame = 0
 874              		@ frame_needed = 0, uses_anonymous_args = 0
 875              		@ link register save eliminated.
 876              	.LVL39:
 877 0000 0628     		cmp	r0, #6
 878 0002 9ABF     		itte	ls
 879 0004 024B     		ldrls	r3, .L65
 880 0006 53F82000 		ldrls	r0, [r3, r0, lsl #2]
 881              	.LVL40:
 882              		.loc 1 288 0
 883 000a 0248     		ldrhi	r0, .L65+4
 884              		.loc 1 299 0
 885 000c 7047     		bx	lr
 886              	.L66:
 887 000e 00BF     		.align	2
 888              	.L65:
 889 0010 00000000 		.word	.LANCHOR40
 890 0014 00000000 		.word	.LC1
 891              		.cfi_endproc
 892              	.LFE265:
 893              		.size	mc_interface_fault_to_string, .-mc_interface_fault_to_string
 894              		.section	.text.mc_interface_get_state,"ax",%progbits
 895              		.align	1
 896              		.p2align 4,,15
 897              		.global	mc_interface_get_state
 898              		.syntax unified
 899              		.thumb
 900              		.thumb_func
 901              		.fpu fpv4-sp-d16
 902              		.type	mc_interface_get_state, %function
 903              	mc_interface_get_state:
 904              	.LFB266:
 905              		.loc 1 301 0
 906              		.cfi_startproc
 907              		@ args = 0, pretend = 0, frame = 0
 908              		@ frame_needed = 0, uses_anonymous_args = 0
 909              		@ link register save eliminated.
 910              	.LVL41:
 911              		.loc 1 303 0
 912 0000 064B     		ldr	r3, .L73
ARM GAS  C:\Users\CHRIST~1\AppData\Local\Temp\ccb3oWGE.s 			page 17


 913 0002 9B78     		ldrb	r3, [r3, #2]	@ zero_extendqisi2
 914 0004 DBB2     		uxtb	r3, r3
 915 0006 012B     		cmp	r3, #1
 916 0008 05D9     		bls	.L69
 917 000a 022B     		cmp	r3, #2
 918 000c 01D1     		bne	.L72
 919              		.loc 1 310 0
 920 000e FFF7FEBF 		b	mcpwm_foc_get_state
 921              	.LVL42:
 922              	.L72:
 923              		.loc 1 318 0
 924 0012 0020     		movs	r0, #0
 925 0014 7047     		bx	lr
 926              	.L69:
 927              		.loc 1 306 0
 928 0016 FFF7FEBF 		b	mcpwm_get_state
 929              	.LVL43:
 930              	.L74:
 931 001a 00BF     		.align	2
 932              	.L73:
 933 001c 00000000 		.word	.LANCHOR12
 934              		.cfi_endproc
 935              	.LFE266:
 936              		.size	mc_interface_get_state, .-mc_interface_get_state
 937              		.section	.text.mc_interface_get_duty_cycle_set,"ax",%progbits
 938              		.align	1
 939              		.p2align 4,,15
 940              		.global	mc_interface_get_duty_cycle_set
 941              		.syntax unified
 942              		.thumb
 943              		.thumb_func
 944              		.fpu fpv4-sp-d16
 945              		.type	mc_interface_get_duty_cycle_set, %function
 946              	mc_interface_get_duty_cycle_set:
 947              	.LFB278:
 948              		.loc 1 501 0
 949              		.cfi_startproc
 950              		@ args = 0, pretend = 0, frame = 0
 951              		@ frame_needed = 0, uses_anonymous_args = 0
 952              	.LVL44:
 953 0000 10B5     		push	{r4, lr}
 954              		.cfi_def_cfa_offset 8
 955              		.cfi_offset 4, -8
 956              		.cfi_offset 14, -4
 957              		.loc 1 504 0
 958 0002 0B4C     		ldr	r4, .L87
 959 0004 A378     		ldrb	r3, [r4, #2]	@ zero_extendqisi2
 960 0006 DBB2     		uxtb	r3, r3
 961 0008 012B     		cmp	r3, #1
 962 000a 0DD9     		bls	.L77
 963 000c 022B     		cmp	r3, #2
 964 000e 08D0     		beq	.L78
 965              		.loc 1 502 0
 966 0010 9FED080A 		vldr.32	s0, .L87+4
 967              	.LVL45:
 968              	.L76:
 969              		.loc 1 518 0
ARM GAS  C:\Users\CHRIST~1\AppData\Local\Temp\ccb3oWGE.s 			page 18


 970 0014 94F85D31 		ldrb	r3, [r4, #349]	@ zero_extendqisi2
 971 0018 03B9     		cbnz	r3, .L86
 972              		.loc 1 519 0
 973 001a 10BD     		pop	{r4, pc}
 974              	.L86:
 975 001c B1EE400A 		vneg.f32	s0, s0
 976              	.LVL46:
 977 0020 10BD     		pop	{r4, pc}
 978              	.LVL47:
 979              	.L78:
 980              		.loc 1 511 0
 981 0022 FFF7FEFF 		bl	mcpwm_foc_get_duty_cycle_set
 982              	.LVL48:
 983              		.loc 1 512 0
 984 0026 F5E7     		b	.L76
 985              	.LVL49:
 986              	.L77:
 987              		.loc 1 507 0
 988 0028 FFF7FEFF 		bl	mcpwm_get_duty_cycle_set
 989              	.LVL50:
 990              		.loc 1 508 0
 991 002c F2E7     		b	.L76
 992              	.L88:
 993 002e 00BF     		.align	2
 994              	.L87:
 995 0030 00000000 		.word	.LANCHOR12
 996 0034 00000000 		.word	0
 997              		.cfi_endproc
 998              	.LFE278:
 999              		.size	mc_interface_get_duty_cycle_set, .-mc_interface_get_duty_cycle_set
 1000              		.section	.text.mc_interface_get_duty_cycle_now,"ax",%progbits
 1001              		.align	1
 1002              		.p2align 4,,15
 1003              		.global	mc_interface_get_duty_cycle_now
 1004              		.syntax unified
 1005              		.thumb
 1006              		.thumb_func
 1007              		.fpu fpv4-sp-d16
 1008              		.type	mc_interface_get_duty_cycle_now, %function
 1009              	mc_interface_get_duty_cycle_now:
 1010              	.LFB279:
 1011              		.loc 1 521 0
 1012              		.cfi_startproc
 1013              		@ args = 0, pretend = 0, frame = 0
 1014              		@ frame_needed = 0, uses_anonymous_args = 0
 1015              	.LVL51:
 1016 0000 10B5     		push	{r4, lr}
 1017              		.cfi_def_cfa_offset 8
 1018              		.cfi_offset 4, -8
 1019              		.cfi_offset 14, -4
 1020              		.loc 1 524 0
 1021 0002 0B4C     		ldr	r4, .L101
 1022 0004 A378     		ldrb	r3, [r4, #2]	@ zero_extendqisi2
 1023 0006 DBB2     		uxtb	r3, r3
 1024 0008 012B     		cmp	r3, #1
 1025 000a 0DD9     		bls	.L91
 1026 000c 022B     		cmp	r3, #2
ARM GAS  C:\Users\CHRIST~1\AppData\Local\Temp\ccb3oWGE.s 			page 19


 1027 000e 08D0     		beq	.L92
 1028              		.loc 1 522 0
 1029 0010 9FED080A 		vldr.32	s0, .L101+4
 1030              	.LVL52:
 1031              	.L90:
 1032              		.loc 1 538 0
 1033 0014 94F85D31 		ldrb	r3, [r4, #349]	@ zero_extendqisi2
 1034 0018 03B9     		cbnz	r3, .L100
 1035              		.loc 1 539 0
 1036 001a 10BD     		pop	{r4, pc}
 1037              	.L100:
 1038 001c B1EE400A 		vneg.f32	s0, s0
 1039              	.LVL53:
 1040 0020 10BD     		pop	{r4, pc}
 1041              	.LVL54:
 1042              	.L92:
 1043              		.loc 1 531 0
 1044 0022 FFF7FEFF 		bl	mcpwm_foc_get_duty_cycle_now
 1045              	.LVL55:
 1046              		.loc 1 532 0
 1047 0026 F5E7     		b	.L90
 1048              	.LVL56:
 1049              	.L91:
 1050              		.loc 1 527 0
 1051 0028 FFF7FEFF 		bl	mcpwm_get_duty_cycle_now
 1052              	.LVL57:
 1053              		.loc 1 528 0
 1054 002c F2E7     		b	.L90
 1055              	.L102:
 1056 002e 00BF     		.align	2
 1057              	.L101:
 1058 0030 00000000 		.word	.LANCHOR12
 1059 0034 00000000 		.word	0
 1060              		.cfi_endproc
 1061              	.LFE279:
 1062              		.size	mc_interface_get_duty_cycle_now, .-mc_interface_get_duty_cycle_now
 1063              		.section	.text.mc_interface_get_sampling_frequency_now,"ax",%progbits
 1064              		.align	1
 1065              		.p2align 4,,15
 1066              		.global	mc_interface_get_sampling_frequency_now
 1067              		.syntax unified
 1068              		.thumb
 1069              		.thumb_func
 1070              		.fpu fpv4-sp-d16
 1071              		.type	mc_interface_get_sampling_frequency_now, %function
 1072              	mc_interface_get_sampling_frequency_now:
 1073              	.LFB280:
 1074              		.loc 1 541 0
 1075              		.cfi_startproc
 1076              		@ args = 0, pretend = 0, frame = 0
 1077              		@ frame_needed = 0, uses_anonymous_args = 0
 1078              		@ link register save eliminated.
 1079              	.LVL58:
 1080              		.loc 1 544 0
 1081 0000 064B     		ldr	r3, .L109
 1082 0002 9B78     		ldrb	r3, [r3, #2]	@ zero_extendqisi2
 1083 0004 DBB2     		uxtb	r3, r3
ARM GAS  C:\Users\CHRIST~1\AppData\Local\Temp\ccb3oWGE.s 			page 20


 1084 0006 012B     		cmp	r3, #1
 1085 0008 06D9     		bls	.L105
 1086 000a 022B     		cmp	r3, #2
 1087 000c 01D1     		bne	.L108
 1088              		.loc 1 551 0
 1089 000e FFF7FEBF 		b	mcpwm_foc_get_sampling_frequency_now
 1090              	.LVL59:
 1091              	.L108:
 1092              		.loc 1 559 0
 1093 0012 9FED030A 		vldr.32	s0, .L109+4
 1094 0016 7047     		bx	lr
 1095              	.L105:
 1096              		.loc 1 547 0
 1097 0018 FFF7FEBF 		b	mcpwm_get_switching_frequency_now
 1098              	.LVL60:
 1099              	.L110:
 1100              		.align	2
 1101              	.L109:
 1102 001c 00000000 		.word	.LANCHOR12
 1103 0020 00000000 		.word	0
 1104              		.cfi_endproc
 1105              	.LFE280:
 1106              		.size	mc_interface_get_sampling_frequency_now, .-mc_interface_get_sampling_frequency_now
 1107              		.section	.text.mc_interface_get_rpm,"ax",%progbits
 1108              		.align	1
 1109              		.p2align 4,,15
 1110              		.global	mc_interface_get_rpm
 1111              		.syntax unified
 1112              		.thumb
 1113              		.thumb_func
 1114              		.fpu fpv4-sp-d16
 1115              		.type	mc_interface_get_rpm, %function
 1116              	mc_interface_get_rpm:
 1117              	.LFB281:
 1118              		.loc 1 561 0
 1119              		.cfi_startproc
 1120              		@ args = 0, pretend = 0, frame = 0
 1121              		@ frame_needed = 0, uses_anonymous_args = 0
 1122              	.LVL61:
 1123 0000 10B5     		push	{r4, lr}
 1124              		.cfi_def_cfa_offset 8
 1125              		.cfi_offset 4, -8
 1126              		.cfi_offset 14, -4
 1127              		.loc 1 564 0
 1128 0002 0B4C     		ldr	r4, .L123
 1129 0004 A378     		ldrb	r3, [r4, #2]	@ zero_extendqisi2
 1130 0006 DBB2     		uxtb	r3, r3
 1131 0008 012B     		cmp	r3, #1
 1132 000a 0DD9     		bls	.L113
 1133 000c 022B     		cmp	r3, #2
 1134 000e 08D0     		beq	.L114
 1135              		.loc 1 562 0
 1136 0010 9FED080A 		vldr.32	s0, .L123+4
 1137              	.LVL62:
 1138              	.L112:
 1139              		.loc 1 578 0
 1140 0014 94F85D31 		ldrb	r3, [r4, #349]	@ zero_extendqisi2
ARM GAS  C:\Users\CHRIST~1\AppData\Local\Temp\ccb3oWGE.s 			page 21


 1141 0018 03B9     		cbnz	r3, .L122
 1142              		.loc 1 579 0
 1143 001a 10BD     		pop	{r4, pc}
 1144              	.L122:
 1145 001c B1EE400A 		vneg.f32	s0, s0
 1146              	.LVL63:
 1147 0020 10BD     		pop	{r4, pc}
 1148              	.LVL64:
 1149              	.L114:
 1150              		.loc 1 571 0
 1151 0022 FFF7FEFF 		bl	mcpwm_foc_get_rpm
 1152              	.LVL65:
 1153              		.loc 1 572 0
 1154 0026 F5E7     		b	.L112
 1155              	.LVL66:
 1156              	.L113:
 1157              		.loc 1 567 0
 1158 0028 FFF7FEFF 		bl	mcpwm_get_rpm
 1159              	.LVL67:
 1160              		.loc 1 568 0
 1161 002c F2E7     		b	.L112
 1162              	.L124:
 1163 002e 00BF     		.align	2
 1164              	.L123:
 1165 0030 00000000 		.word	.LANCHOR12
 1166 0034 00000000 		.word	0
 1167              		.cfi_endproc
 1168              	.LFE281:
 1169              		.size	mc_interface_get_rpm, .-mc_interface_get_rpm
 1170              		.section	.text.mc_interface_get_amp_hours,"ax",%progbits
 1171              		.align	1
 1172              		.p2align 4,,15
 1173              		.global	mc_interface_get_amp_hours
 1174              		.syntax unified
 1175              		.thumb
 1176              		.thumb_func
 1177              		.fpu fpv4-sp-d16
 1178              		.type	mc_interface_get_amp_hours, %function
 1179              	mc_interface_get_amp_hours:
 1180              	.LFB282:
 1181              		.loc 1 590 0
 1182              		.cfi_startproc
 1183              		@ args = 0, pretend = 0, frame = 0
 1184              		@ frame_needed = 0, uses_anonymous_args = 0
 1185              		@ link register save eliminated.
 1186              	.LVL68:
 1187              		.loc 1 591 0
 1188 0000 054B     		ldr	r3, .L130
 1189 0002 DFED067A 		vldr.32	s15, .L130+4
 1190 0006 93ED007A 		vldr.32	s14, [r3]
 1191 000a 87EE270A 		vdiv.f32	s0, s14, s15
 1192              	.LVL69:
 1193              		.loc 1 593 0
 1194 000e 08B1     		cbz	r0, .L125
 1195              		.loc 1 594 0
 1196 0010 0022     		movs	r2, #0
 1197 0012 1A60     		str	r2, [r3]	@ float
ARM GAS  C:\Users\CHRIST~1\AppData\Local\Temp\ccb3oWGE.s 			page 22


 1198              	.L125:
 1199              		.loc 1 598 0
 1200 0014 7047     		bx	lr
 1201              	.L131:
 1202 0016 00BF     		.align	2
 1203              	.L130:
 1204 0018 00000000 		.word	.LANCHOR26
 1205 001c 00006145 		.word	1163984896
 1206              		.cfi_endproc
 1207              	.LFE282:
 1208              		.size	mc_interface_get_amp_hours, .-mc_interface_get_amp_hours
 1209              		.section	.text.mc_interface_get_amp_hours_charged,"ax",%progbits
 1210              		.align	1
 1211              		.p2align 4,,15
 1212              		.global	mc_interface_get_amp_hours_charged
 1213              		.syntax unified
 1214              		.thumb
 1215              		.thumb_func
 1216              		.fpu fpv4-sp-d16
 1217              		.type	mc_interface_get_amp_hours_charged, %function
 1218              	mc_interface_get_amp_hours_charged:
 1219              	.LFB283:
 1220              		.loc 1 609 0
 1221              		.cfi_startproc
 1222              		@ args = 0, pretend = 0, frame = 0
 1223              		@ frame_needed = 0, uses_anonymous_args = 0
 1224              		@ link register save eliminated.
 1225              	.LVL70:
 1226              		.loc 1 610 0
 1227 0000 054B     		ldr	r3, .L137
 1228 0002 DFED067A 		vldr.32	s15, .L137+4
 1229 0006 93ED007A 		vldr.32	s14, [r3]
 1230 000a 87EE270A 		vdiv.f32	s0, s14, s15
 1231              	.LVL71:
 1232              		.loc 1 612 0
 1233 000e 08B1     		cbz	r0, .L132
 1234              		.loc 1 613 0
 1235 0010 0022     		movs	r2, #0
 1236 0012 1A60     		str	r2, [r3]	@ float
 1237              	.L132:
 1238              		.loc 1 617 0
 1239 0014 7047     		bx	lr
 1240              	.L138:
 1241 0016 00BF     		.align	2
 1242              	.L137:
 1243 0018 00000000 		.word	.LANCHOR27
 1244 001c 00006145 		.word	1163984896
 1245              		.cfi_endproc
 1246              	.LFE283:
 1247              		.size	mc_interface_get_amp_hours_charged, .-mc_interface_get_amp_hours_charged
 1248              		.section	.text.mc_interface_get_watt_hours,"ax",%progbits
 1249              		.align	1
 1250              		.p2align 4,,15
 1251              		.global	mc_interface_get_watt_hours
 1252              		.syntax unified
 1253              		.thumb
 1254              		.thumb_func
ARM GAS  C:\Users\CHRIST~1\AppData\Local\Temp\ccb3oWGE.s 			page 23


 1255              		.fpu fpv4-sp-d16
 1256              		.type	mc_interface_get_watt_hours, %function
 1257              	mc_interface_get_watt_hours:
 1258              	.LFB284:
 1259              		.loc 1 628 0
 1260              		.cfi_startproc
 1261              		@ args = 0, pretend = 0, frame = 0
 1262              		@ frame_needed = 0, uses_anonymous_args = 0
 1263              		@ link register save eliminated.
 1264              	.LVL72:
 1265              		.loc 1 629 0
 1266 0000 054B     		ldr	r3, .L144
 1267 0002 DFED067A 		vldr.32	s15, .L144+4
 1268 0006 93ED007A 		vldr.32	s14, [r3]
 1269 000a 87EE270A 		vdiv.f32	s0, s14, s15
 1270              	.LVL73:
 1271              		.loc 1 631 0
 1272 000e 08B1     		cbz	r0, .L139
 1273              		.loc 1 632 0
 1274 0010 0022     		movs	r2, #0
 1275 0012 1A60     		str	r2, [r3]	@ float
 1276              	.L139:
 1277              		.loc 1 636 0
 1278 0014 7047     		bx	lr
 1279              	.L145:
 1280 0016 00BF     		.align	2
 1281              	.L144:
 1282 0018 00000000 		.word	.LANCHOR28
 1283 001c 00006145 		.word	1163984896
 1284              		.cfi_endproc
 1285              	.LFE284:
 1286              		.size	mc_interface_get_watt_hours, .-mc_interface_get_watt_hours
 1287              		.section	.text.mc_interface_get_watt_hours_charged,"ax",%progbits
 1288              		.align	1
 1289              		.p2align 4,,15
 1290              		.global	mc_interface_get_watt_hours_charged
 1291              		.syntax unified
 1292              		.thumb
 1293              		.thumb_func
 1294              		.fpu fpv4-sp-d16
 1295              		.type	mc_interface_get_watt_hours_charged, %function
 1296              	mc_interface_get_watt_hours_charged:
 1297              	.LFB285:
 1298              		.loc 1 647 0
 1299              		.cfi_startproc
 1300              		@ args = 0, pretend = 0, frame = 0
 1301              		@ frame_needed = 0, uses_anonymous_args = 0
 1302              		@ link register save eliminated.
 1303              	.LVL74:
 1304              		.loc 1 648 0
 1305 0000 054B     		ldr	r3, .L151
 1306 0002 DFED067A 		vldr.32	s15, .L151+4
 1307 0006 93ED007A 		vldr.32	s14, [r3]
 1308 000a 87EE270A 		vdiv.f32	s0, s14, s15
 1309              	.LVL75:
 1310              		.loc 1 650 0
 1311 000e 08B1     		cbz	r0, .L146
ARM GAS  C:\Users\CHRIST~1\AppData\Local\Temp\ccb3oWGE.s 			page 24


 1312              		.loc 1 651 0
 1313 0010 0022     		movs	r2, #0
 1314 0012 1A60     		str	r2, [r3]	@ float
 1315              	.L146:
 1316              		.loc 1 655 0
 1317 0014 7047     		bx	lr
 1318              	.L152:
 1319 0016 00BF     		.align	2
 1320              	.L151:
 1321 0018 00000000 		.word	.LANCHOR29
 1322 001c 00006145 		.word	1163984896
 1323              		.cfi_endproc
 1324              	.LFE285:
 1325              		.size	mc_interface_get_watt_hours_charged, .-mc_interface_get_watt_hours_charged
 1326              		.section	.text.mc_interface_get_tot_current,"ax",%progbits
 1327              		.align	1
 1328              		.p2align 4,,15
 1329              		.global	mc_interface_get_tot_current
 1330              		.syntax unified
 1331              		.thumb
 1332              		.thumb_func
 1333              		.fpu fpv4-sp-d16
 1334              		.type	mc_interface_get_tot_current, %function
 1335              	mc_interface_get_tot_current:
 1336              	.LFB286:
 1337              		.loc 1 657 0
 1338              		.cfi_startproc
 1339              		@ args = 0, pretend = 0, frame = 0
 1340              		@ frame_needed = 0, uses_anonymous_args = 0
 1341              		@ link register save eliminated.
 1342              	.LVL76:
 1343              		.loc 1 660 0
 1344 0000 064B     		ldr	r3, .L159
 1345 0002 9B78     		ldrb	r3, [r3, #2]	@ zero_extendqisi2
 1346 0004 DBB2     		uxtb	r3, r3
 1347 0006 012B     		cmp	r3, #1
 1348 0008 06D9     		bls	.L155
 1349 000a 022B     		cmp	r3, #2
 1350 000c 01D1     		bne	.L158
 1351              		.loc 1 667 0
 1352 000e FFF7FEBF 		b	mcpwm_foc_get_tot_current
 1353              	.LVL77:
 1354              	.L158:
 1355              		.loc 1 675 0
 1356 0012 9FED030A 		vldr.32	s0, .L159+4
 1357 0016 7047     		bx	lr
 1358              	.L155:
 1359              		.loc 1 663 0
 1360 0018 FFF7FEBF 		b	mcpwm_get_tot_current
 1361              	.LVL78:
 1362              	.L160:
 1363              		.align	2
 1364              	.L159:
 1365 001c 00000000 		.word	.LANCHOR12
 1366 0020 00000000 		.word	0
 1367              		.cfi_endproc
 1368              	.LFE286:
ARM GAS  C:\Users\CHRIST~1\AppData\Local\Temp\ccb3oWGE.s 			page 25


 1369              		.size	mc_interface_get_tot_current, .-mc_interface_get_tot_current
 1370              		.section	.text.mc_interface_get_tot_current_filtered,"ax",%progbits
 1371              		.align	1
 1372              		.p2align 4,,15
 1373              		.global	mc_interface_get_tot_current_filtered
 1374              		.syntax unified
 1375              		.thumb
 1376              		.thumb_func
 1377              		.fpu fpv4-sp-d16
 1378              		.type	mc_interface_get_tot_current_filtered, %function
 1379              	mc_interface_get_tot_current_filtered:
 1380              	.LFB287:
 1381              		.loc 1 677 0
 1382              		.cfi_startproc
 1383              		@ args = 0, pretend = 0, frame = 0
 1384              		@ frame_needed = 0, uses_anonymous_args = 0
 1385              		@ link register save eliminated.
 1386              	.LVL79:
 1387              		.loc 1 680 0
 1388 0000 064B     		ldr	r3, .L167
 1389 0002 9B78     		ldrb	r3, [r3, #2]	@ zero_extendqisi2
 1390 0004 DBB2     		uxtb	r3, r3
 1391 0006 012B     		cmp	r3, #1
 1392 0008 06D9     		bls	.L163
 1393 000a 022B     		cmp	r3, #2
 1394 000c 01D1     		bne	.L166
 1395              		.loc 1 687 0
 1396 000e FFF7FEBF 		b	mcpwm_foc_get_tot_current_filtered
 1397              	.LVL80:
 1398              	.L166:
 1399              		.loc 1 695 0
 1400 0012 9FED030A 		vldr.32	s0, .L167+4
 1401 0016 7047     		bx	lr
 1402              	.L163:
 1403              		.loc 1 683 0
 1404 0018 FFF7FEBF 		b	mcpwm_get_tot_current_filtered
 1405              	.LVL81:
 1406              	.L168:
 1407              		.align	2
 1408              	.L167:
 1409 001c 00000000 		.word	.LANCHOR12
 1410 0020 00000000 		.word	0
 1411              		.cfi_endproc
 1412              	.LFE287:
 1413              		.size	mc_interface_get_tot_current_filtered, .-mc_interface_get_tot_current_filtered
 1414              		.section	.text.mc_interface_get_tot_current_directional,"ax",%progbits
 1415              		.align	1
 1416              		.p2align 4,,15
 1417              		.global	mc_interface_get_tot_current_directional
 1418              		.syntax unified
 1419              		.thumb
 1420              		.thumb_func
 1421              		.fpu fpv4-sp-d16
 1422              		.type	mc_interface_get_tot_current_directional, %function
 1423              	mc_interface_get_tot_current_directional:
 1424              	.LFB288:
 1425              		.loc 1 697 0
ARM GAS  C:\Users\CHRIST~1\AppData\Local\Temp\ccb3oWGE.s 			page 26


 1426              		.cfi_startproc
 1427              		@ args = 0, pretend = 0, frame = 0
 1428              		@ frame_needed = 0, uses_anonymous_args = 0
 1429              	.LVL82:
 1430 0000 10B5     		push	{r4, lr}
 1431              		.cfi_def_cfa_offset 8
 1432              		.cfi_offset 4, -8
 1433              		.cfi_offset 14, -4
 1434              		.loc 1 700 0
 1435 0002 0B4C     		ldr	r4, .L181
 1436 0004 A378     		ldrb	r3, [r4, #2]	@ zero_extendqisi2
 1437 0006 DBB2     		uxtb	r3, r3
 1438 0008 012B     		cmp	r3, #1
 1439 000a 0DD9     		bls	.L171
 1440 000c 022B     		cmp	r3, #2
 1441 000e 08D0     		beq	.L172
 1442              		.loc 1 698 0
 1443 0010 9FED080A 		vldr.32	s0, .L181+4
 1444              	.LVL83:
 1445              	.L170:
 1446              		.loc 1 714 0
 1447 0014 94F85D31 		ldrb	r3, [r4, #349]	@ zero_extendqisi2
 1448 0018 03B9     		cbnz	r3, .L180
 1449              		.loc 1 715 0
 1450 001a 10BD     		pop	{r4, pc}
 1451              	.L180:
 1452 001c B1EE400A 		vneg.f32	s0, s0
 1453              	.LVL84:
 1454 0020 10BD     		pop	{r4, pc}
 1455              	.LVL85:
 1456              	.L172:
 1457              		.loc 1 707 0
 1458 0022 FFF7FEFF 		bl	mcpwm_foc_get_tot_current_directional
 1459              	.LVL86:
 1460              		.loc 1 708 0
 1461 0026 F5E7     		b	.L170
 1462              	.LVL87:
 1463              	.L171:
 1464              		.loc 1 703 0
 1465 0028 FFF7FEFF 		bl	mcpwm_get_tot_current_directional
 1466              	.LVL88:
 1467              		.loc 1 704 0
 1468 002c F2E7     		b	.L170
 1469              	.L182:
 1470 002e 00BF     		.align	2
 1471              	.L181:
 1472 0030 00000000 		.word	.LANCHOR12
 1473 0034 00000000 		.word	0
 1474              		.cfi_endproc
 1475              	.LFE288:
 1476              		.size	mc_interface_get_tot_current_directional, .-mc_interface_get_tot_current_directional
 1477              		.section	.text.mc_interface_get_tot_current_directional_filtered,"ax",%progbits
 1478              		.align	1
 1479              		.p2align 4,,15
 1480              		.global	mc_interface_get_tot_current_directional_filtered
 1481              		.syntax unified
 1482              		.thumb
ARM GAS  C:\Users\CHRIST~1\AppData\Local\Temp\ccb3oWGE.s 			page 27


 1483              		.thumb_func
 1484              		.fpu fpv4-sp-d16
 1485              		.type	mc_interface_get_tot_current_directional_filtered, %function
 1486              	mc_interface_get_tot_current_directional_filtered:
 1487              	.LFB289:
 1488              		.loc 1 717 0
 1489              		.cfi_startproc
 1490              		@ args = 0, pretend = 0, frame = 0
 1491              		@ frame_needed = 0, uses_anonymous_args = 0
 1492              	.LVL89:
 1493 0000 10B5     		push	{r4, lr}
 1494              		.cfi_def_cfa_offset 8
 1495              		.cfi_offset 4, -8
 1496              		.cfi_offset 14, -4
 1497              		.loc 1 720 0
 1498 0002 0B4C     		ldr	r4, .L195
 1499 0004 A378     		ldrb	r3, [r4, #2]	@ zero_extendqisi2
 1500 0006 DBB2     		uxtb	r3, r3
 1501 0008 012B     		cmp	r3, #1
 1502 000a 0DD9     		bls	.L185
 1503 000c 022B     		cmp	r3, #2
 1504 000e 08D0     		beq	.L186
 1505              		.loc 1 718 0
 1506 0010 9FED080A 		vldr.32	s0, .L195+4
 1507              	.LVL90:
 1508              	.L184:
 1509              		.loc 1 734 0
 1510 0014 94F85D31 		ldrb	r3, [r4, #349]	@ zero_extendqisi2
 1511 0018 03B9     		cbnz	r3, .L194
 1512              		.loc 1 735 0
 1513 001a 10BD     		pop	{r4, pc}
 1514              	.L194:
 1515 001c B1EE400A 		vneg.f32	s0, s0
 1516              	.LVL91:
 1517 0020 10BD     		pop	{r4, pc}
 1518              	.LVL92:
 1519              	.L186:
 1520              		.loc 1 727 0
 1521 0022 FFF7FEFF 		bl	mcpwm_foc_get_tot_current_directional_filtered
 1522              	.LVL93:
 1523              		.loc 1 728 0
 1524 0026 F5E7     		b	.L184
 1525              	.LVL94:
 1526              	.L185:
 1527              		.loc 1 723 0
 1528 0028 FFF7FEFF 		bl	mcpwm_get_tot_current_directional_filtered
 1529              	.LVL95:
 1530              		.loc 1 724 0
 1531 002c F2E7     		b	.L184
 1532              	.L196:
 1533 002e 00BF     		.align	2
 1534              	.L195:
 1535 0030 00000000 		.word	.LANCHOR12
 1536 0034 00000000 		.word	0
 1537              		.cfi_endproc
 1538              	.LFE289:
 1539              		.size	mc_interface_get_tot_current_directional_filtered, .-mc_interface_get_tot_current_directiona
ARM GAS  C:\Users\CHRIST~1\AppData\Local\Temp\ccb3oWGE.s 			page 28


 1540              		.section	.text.mc_interface_get_tot_current_in,"ax",%progbits
 1541              		.align	1
 1542              		.p2align 4,,15
 1543              		.global	mc_interface_get_tot_current_in
 1544              		.syntax unified
 1545              		.thumb
 1546              		.thumb_func
 1547              		.fpu fpv4-sp-d16
 1548              		.type	mc_interface_get_tot_current_in, %function
 1549              	mc_interface_get_tot_current_in:
 1550              	.LFB290:
 1551              		.loc 1 737 0
 1552              		.cfi_startproc
 1553              		@ args = 0, pretend = 0, frame = 0
 1554              		@ frame_needed = 0, uses_anonymous_args = 0
 1555              		@ link register save eliminated.
 1556              	.LVL96:
 1557              		.loc 1 740 0
 1558 0000 064B     		ldr	r3, .L203
 1559 0002 9B78     		ldrb	r3, [r3, #2]	@ zero_extendqisi2
 1560 0004 DBB2     		uxtb	r3, r3
 1561 0006 012B     		cmp	r3, #1
 1562 0008 06D9     		bls	.L199
 1563 000a 022B     		cmp	r3, #2
 1564 000c 01D1     		bne	.L202
 1565              		.loc 1 747 0
 1566 000e FFF7FEBF 		b	mcpwm_foc_get_tot_current_in
 1567              	.LVL97:
 1568              	.L202:
 1569              		.loc 1 755 0
 1570 0012 9FED030A 		vldr.32	s0, .L203+4
 1571 0016 7047     		bx	lr
 1572              	.L199:
 1573              		.loc 1 743 0
 1574 0018 FFF7FEBF 		b	mcpwm_get_tot_current_in
 1575              	.LVL98:
 1576              	.L204:
 1577              		.align	2
 1578              	.L203:
 1579 001c 00000000 		.word	.LANCHOR12
 1580 0020 00000000 		.word	0
 1581              		.cfi_endproc
 1582              	.LFE290:
 1583              		.size	mc_interface_get_tot_current_in, .-mc_interface_get_tot_current_in
 1584              		.section	.text.mc_interface_get_tot_current_in_filtered,"ax",%progbits
 1585              		.align	1
 1586              		.p2align 4,,15
 1587              		.global	mc_interface_get_tot_current_in_filtered
 1588              		.syntax unified
 1589              		.thumb
 1590              		.thumb_func
 1591              		.fpu fpv4-sp-d16
 1592              		.type	mc_interface_get_tot_current_in_filtered, %function
 1593              	mc_interface_get_tot_current_in_filtered:
 1594              	.LFB291:
 1595              		.loc 1 757 0
 1596              		.cfi_startproc
ARM GAS  C:\Users\CHRIST~1\AppData\Local\Temp\ccb3oWGE.s 			page 29


 1597              		@ args = 0, pretend = 0, frame = 0
 1598              		@ frame_needed = 0, uses_anonymous_args = 0
 1599              		@ link register save eliminated.
 1600              	.LVL99:
 1601              		.loc 1 760 0
 1602 0000 064B     		ldr	r3, .L211
 1603 0002 9B78     		ldrb	r3, [r3, #2]	@ zero_extendqisi2
 1604 0004 DBB2     		uxtb	r3, r3
 1605 0006 012B     		cmp	r3, #1
 1606 0008 06D9     		bls	.L207
 1607 000a 022B     		cmp	r3, #2
 1608 000c 01D1     		bne	.L210
 1609              		.loc 1 767 0
 1610 000e FFF7FEBF 		b	mcpwm_foc_get_tot_current_in_filtered
 1611              	.LVL100:
 1612              	.L210:
 1613              		.loc 1 775 0
 1614 0012 9FED030A 		vldr.32	s0, .L211+4
 1615 0016 7047     		bx	lr
 1616              	.L207:
 1617              		.loc 1 763 0
 1618 0018 FFF7FEBF 		b	mcpwm_get_tot_current_in_filtered
 1619              	.LVL101:
 1620              	.L212:
 1621              		.align	2
 1622              	.L211:
 1623 001c 00000000 		.word	.LANCHOR12
 1624 0020 00000000 		.word	0
 1625              		.cfi_endproc
 1626              	.LFE291:
 1627              		.size	mc_interface_get_tot_current_in_filtered, .-mc_interface_get_tot_current_in_filtered
 1628              		.section	.text.mc_interface_get_tachometer_value,"ax",%progbits
 1629              		.align	1
 1630              		.p2align 4,,15
 1631              		.global	mc_interface_get_tachometer_value
 1632              		.syntax unified
 1633              		.thumb
 1634              		.thumb_func
 1635              		.fpu fpv4-sp-d16
 1636              		.type	mc_interface_get_tachometer_value, %function
 1637              	mc_interface_get_tachometer_value:
 1638              	.LFB292:
 1639              		.loc 1 777 0
 1640              		.cfi_startproc
 1641              		@ args = 0, pretend = 0, frame = 0
 1642              		@ frame_needed = 0, uses_anonymous_args = 0
 1643              	.LVL102:
 1644 0000 10B5     		push	{r4, lr}
 1645              		.cfi_def_cfa_offset 8
 1646              		.cfi_offset 4, -8
 1647              		.cfi_offset 14, -4
 1648              		.loc 1 780 0
 1649 0002 104C     		ldr	r4, .L224
 1650 0004 A378     		ldrb	r3, [r4, #2]	@ zero_extendqisi2
 1651 0006 DBB2     		uxtb	r3, r3
 1652 0008 012B     		cmp	r3, #1
 1653 000a 14D9     		bls	.L215
ARM GAS  C:\Users\CHRIST~1\AppData\Local\Temp\ccb3oWGE.s 			page 30


 1654 000c 022B     		cmp	r3, #2
 1655 000e 0BD0     		beq	.L216
 1656 0010 DFED0D7A 		vldr.32	s15, .L224+4
 1657              	.LVL103:
 1658              	.L214:
 1659              		.loc 1 794 0
 1660 0014 94F85D31 		ldrb	r3, [r4, #349]	@ zero_extendqisi2
 1661 0018 0BB1     		cbz	r3, .L217
 1662 001a F1EE677A 		vneg.f32	s15, s15
 1663              	.L217:
 1664              		.loc 1 795 0 discriminator 4
 1665 001e FDEEE77A 		vcvt.s32.f32	s15, s15
 1666 0022 17EE900A 		vmov	r0, s15	@ int
 1667 0026 10BD     		pop	{r4, pc}
 1668              	.LVL104:
 1669              	.L216:
 1670              		.loc 1 787 0
 1671 0028 FFF7FEFF 		bl	mcpwm_foc_get_tachometer_value
 1672              	.LVL105:
 1673 002c 07EE900A 		vmov	s15, r0	@ int
 1674 0030 F8EEE77A 		vcvt.f32.s32	s15, s15
 1675              		.loc 1 788 0
 1676 0034 EEE7     		b	.L214
 1677              	.LVL106:
 1678              	.L215:
 1679              		.loc 1 783 0
 1680 0036 FFF7FEFF 		bl	mcpwm_get_tachometer_value
 1681              	.LVL107:
 1682 003a 07EE900A 		vmov	s15, r0	@ int
 1683 003e F8EEE77A 		vcvt.f32.s32	s15, s15
 1684              		.loc 1 784 0
 1685 0042 E7E7     		b	.L214
 1686              	.L225:
 1687              		.align	2
 1688              	.L224:
 1689 0044 00000000 		.word	.LANCHOR12
 1690 0048 00000000 		.word	0
 1691              		.cfi_endproc
 1692              	.LFE292:
 1693              		.size	mc_interface_get_tachometer_value, .-mc_interface_get_tachometer_value
 1694              		.section	.text.mc_interface_fault_stop.part.3,"ax",%progbits
 1695              		.align	1
 1696              		.p2align 4,,15
 1697              		.syntax unified
 1698              		.thumb
 1699              		.thumb_func
 1700              		.fpu fpv4-sp-d16
 1701              		.type	mc_interface_fault_stop.part.3, %function
 1702              	mc_interface_fault_stop.part.3:
 1703              	.LFB315:
 1704              		.loc 1 991 0
 1705              		.cfi_startproc
 1706              		@ args = 0, pretend = 0, frame = 72
 1707              		@ frame_needed = 0, uses_anonymous_args = 0
 1708              	.LVL108:
 1709 0000 F0B5     		push	{r4, r5, r6, r7, lr}
 1710              		.cfi_def_cfa_offset 20
ARM GAS  C:\Users\CHRIST~1\AppData\Local\Temp\ccb3oWGE.s 			page 31


 1711              		.cfi_offset 4, -20
 1712              		.cfi_offset 5, -16
 1713              		.cfi_offset 6, -12
 1714              		.cfi_offset 7, -8
 1715              		.cfi_offset 14, -4
 1716 0002 93B0     		sub	sp, sp, #76
 1717              		.cfi_def_cfa_offset 96
 1718              		.loc 1 991 0
 1719 0004 0546     		mov	r5, r0
 1720              		.loc 1 997 0
 1721 0006 FFF7FEFF 		bl	mc_interface_dccal_done
 1722              	.LVL109:
 1723 000a 3F4C     		ldr	r4, .L236
 1724 000c 08B1     		cbz	r0, .L227
 1725 000e 2678     		ldrb	r6, [r4]	@ zero_extendqisi2
 1726 0010 A6B1     		cbz	r6, .L235
 1727              	.L227:
 1728              		.loc 1 1028 0
 1729 0012 3E4B     		ldr	r3, .L236+4
 1730 0014 3E4A     		ldr	r2, .L236+8
 1731 0016 D3F84C11 		ldr	r1, [r3, #332]
 1732              		.loc 1 1030 0
 1733 001a 9B78     		ldrb	r3, [r3, #2]	@ zero_extendqisi2
 1734              		.loc 1 1028 0
 1735 001c 1160     		str	r1, [r2]
 1736              		.loc 1 1030 0
 1737 001e DBB2     		uxtb	r3, r3
 1738 0020 012B     		cmp	r3, #1
 1739 0022 06D9     		bls	.L229
 1740 0024 022B     		cmp	r3, #2
 1741 0026 01D1     		bne	.L228
 1742              		.loc 1 1037 0
 1743 0028 FFF7FEFF 		bl	mcpwm_foc_stop_pwm
 1744              	.LVL110:
 1745              	.L228:
 1746              		.loc 1 1044 0
 1747 002c 2570     		strb	r5, [r4]
 1748              		.loc 1 1045 0
 1749 002e 13B0     		add	sp, sp, #76
 1750              		.cfi_remember_state
 1751              		.cfi_def_cfa_offset 20
 1752              		@ sp needed
 1753 0030 F0BD     		pop	{r4, r5, r6, r7, pc}
 1754              	.L229:
 1755              		.cfi_restore_state
 1756              		.loc 1 1033 0
 1757 0032 FFF7FEFF 		bl	mcpwm_stop_pwm
 1758              	.LVL111:
 1759              		.loc 1 1044 0
 1760 0036 2570     		strb	r5, [r4]
 1761              		.loc 1 1045 0
 1762 0038 13B0     		add	sp, sp, #76
 1763              		.cfi_remember_state
 1764              		.cfi_def_cfa_offset 20
 1765              		@ sp needed
 1766 003a F0BD     		pop	{r4, r5, r6, r7, pc}
 1767              	.L235:
ARM GAS  C:\Users\CHRIST~1\AppData\Local\Temp\ccb3oWGE.s 			page 32


 1768              		.cfi_restore_state
 1769              	.LBB126:
 1770              		.loc 1 1000 0
 1771 003c FFF7FEFF 		bl	utils_sys_lock_cnt
 1772              	.LVL112:
 1773              		.loc 1 1001 0
 1774 0040 344A     		ldr	r2, .L236+12
 1775              		.loc 1 1002 0
 1776 0042 354B     		ldr	r3, .L236+16
 1777              		.loc 1 1001 0
 1778 0044 526B     		ldr	r2, [r2, #52]
 1779 0046 0192     		str	r2, [sp, #4]
 1780              		.loc 1 1002 0
 1781 0048 1A6C     		ldr	r2, [r3, #64]
 1782 004a 0292     		str	r2, [sp, #8]
 1783              		.loc 1 1003 0
 1784 004c DB6A     		ldr	r3, [r3, #44]
 1785 004e 0393     		str	r3, [sp, #12]
 1786              		.loc 1 1004 0
 1787 0050 FFF7FEFF 		bl	utils_sys_unlock_cnt
 1788              	.LVL113:
 1789              		.loc 1 1007 0
 1790 0054 8DF81050 		strb	r5, [sp, #16]
 1791              		.loc 1 1008 0
 1792 0058 FFF7FEFF 		bl	mc_interface_get_tot_current
 1793              	.LVL114:
 1794              		.loc 1 1010 0
 1795 005c 2F4F     		ldr	r7, .L236+20
 1796              		.loc 1 1008 0
 1797 005e 8DED050A 		vstr.32	s0, [sp, #20]
 1798              		.loc 1 1009 0
 1799 0062 FFF7FEFF 		bl	mc_interface_get_tot_current_filtered
 1800              	.LVL115:
 1801              		.loc 1 1010 0
 1802 0066 3B8A     		ldrh	r3, [r7, #16]
 1803 0068 DFED2D6A 		vldr.32	s13, .L236+24
 1804 006c 9FED2D7A 		vldr.32	s14, .L236+28
 1805              		.loc 1 1009 0
 1806 0070 8DED060A 		vstr.32	s0, [sp, #24]
 1807              		.loc 1 1010 0
 1808 0074 07EE903A 		vmov	s15, r3	@ int
 1809 0078 F8EE677A 		vcvt.f32.u32	s15, s15
 1810 007c 67EEA67A 		vmul.f32	s15, s15, s13
 1811 0080 67EE877A 		vmul.f32	s15, s15, s14
 1812 0084 CDED077A 		vstr.32	s15, [sp, #28]
 1813              		.loc 1 1011 0
 1814 0088 FFF7FEFF 		bl	mc_interface_get_duty_cycle_now
 1815              	.LVL116:
 1816 008c 8DED080A 		vstr.32	s0, [sp, #32]
 1817              		.loc 1 1012 0
 1818 0090 FFF7FEFF 		bl	mc_interface_get_rpm
 1819              	.LVL117:
 1820              		.loc 1 1013 0
 1821 0094 3046     		mov	r0, r6
 1822              		.loc 1 1012 0
 1823 0096 8DED090A 		vstr.32	s0, [sp, #36]
 1824              		.loc 1 1013 0
ARM GAS  C:\Users\CHRIST~1\AppData\Local\Temp\ccb3oWGE.s 			page 33


 1825 009a FFF7FEFF 		bl	mc_interface_get_tachometer_value
 1826              	.LVL118:
 1827              		.loc 1 1014 0
 1828 009e 224B     		ldr	r3, .L236+32
 1829              		.loc 1 1013 0
 1830 00a0 0A90     		str	r0, [sp, #40]
 1831              		.loc 1 1014 0
 1832 00a2 1B68     		ldr	r3, [r3]
 1833              		.loc 1 1015 0
 1834 00a4 0199     		ldr	r1, [sp, #4]
 1835              		.loc 1 1016 0
 1836 00a6 029A     		ldr	r2, [sp, #8]
 1837              		.loc 1 1014 0
 1838 00a8 0B93     		str	r3, [sp, #44]
 1839              		.loc 1 1017 0
 1840 00aa 039B     		ldr	r3, [sp, #12]
 1841 00ac 0E93     		str	r3, [sp, #56]
 1842              		.loc 1 1016 0
 1843 00ae CDE90C12 		strd	r1, r2, [sp, #48]
 1844              		.loc 1 1018 0
 1845 00b2 FFF7FEFF 		bl	mcpwm_get_comm_step
 1846              	.LVL119:
 1847              		.loc 1 1019 0
 1848 00b6 7B89     		ldrh	r3, [r7, #10]
 1849 00b8 DFED1C6A 		vldr.32	s13, .L236+36
 1850 00bc 9FED1C0A 		vldr.32	s0, .L236+40
 1851              		.loc 1 1018 0
 1852 00c0 0F90     		str	r0, [sp, #60]
 1853              		.loc 1 1019 0
 1854 00c2 07EE103A 		vmov	s14, r3	@ int
 1855 00c6 B8EEC77A 		vcvt.f32.s32	s14, s14
 1856 00ca C6EE877A 		vdiv.f32	s15, s13, s14
 1857 00ce 77EEC07A 		vsub.f32	s15, s15, s0
 1858 00d2 87EE800A 		vdiv.f32	s0, s15, s0
 1859 00d6 FFF7FEFF 		bl	logf
 1860              	.LVL120:
 1861              		.loc 1 1025 0
 1862 00da 04A8     		add	r0, sp, #16
 1863              		.loc 1 1019 0
 1864 00dc DFED156A 		vldr.32	s13, .L236+44
 1865 00e0 DFED157A 		vldr.32	s15, .L236+48
 1866 00e4 9FED157A 		vldr.32	s14, .L236+52
 1867 00e8 80EE260A 		vdiv.f32	s0, s0, s13
 1868 00ec F7EE006A 		vmov.f32	s13, #1.0e+0
 1869 00f0 30EE270A 		vadd.f32	s0, s0, s15
 1870 00f4 C6EE807A 		vdiv.f32	s15, s13, s0
 1871 00f8 77EEC77A 		vsub.f32	s15, s15, s14
 1872 00fc CDED107A 		vstr.32	s15, [sp, #64]
 1873              		.loc 1 1025 0
 1874 0100 FFF7FEFF 		bl	terminal_add_fault_data
 1875              	.LVL121:
 1876 0104 85E7     		b	.L227
 1877              	.L237:
 1878 0106 00BF     		.align	2
 1879              	.L236:
 1880 0108 00000000 		.word	.LANCHOR13
 1881 010c 00000000 		.word	.LANCHOR12
ARM GAS  C:\Users\CHRIST~1\AppData\Local\Temp\ccb3oWGE.s 			page 34


 1882 0110 00000000 		.word	.LANCHOR14
 1883 0114 00040140 		.word	1073808384
 1884 0118 00000140 		.word	1073807360
 1885 011c 00000000 		.word	.LANCHOR41
 1886 0120 6740533A 		.word	978534503
 1887 0124 74D19541 		.word	1100337524
 1888 0128 00000000 		.word	.LANCHOR15
 1889 012c 3C361C4C 		.word	1276917308
 1890 0130 00401C46 		.word	1176256512
 1891 0134 00A05645 		.word	1163304960
 1892 0138 0FCF5B3B 		.word	995872527
 1893 013c 33938843 		.word	1133024051
 1894              	.LBE126:
 1895              		.cfi_endproc
 1896              	.LFE315:
 1897              		.size	mc_interface_fault_stop.part.3, .-mc_interface_fault_stop.part.3
 1898              		.section	.text.update_override_limits.constprop.4,"ax",%progbits
 1899              		.align	1
 1900              		.p2align 4,,15
 1901              		.syntax unified
 1902              		.thumb
 1903              		.thumb_func
 1904              		.fpu fpv4-sp-d16
 1905              		.type	update_override_limits.constprop.4, %function
 1906              	update_override_limits.constprop.4:
 1907              	.LFB316:
 1908              		.loc 1 1301 0
 1909              		.cfi_startproc
 1910              		@ args = 0, pretend = 0, frame = 0
 1911              		@ frame_needed = 0, uses_anonymous_args = 0
 1912              	.LVL122:
 1913 0000 F8B5     		push	{r3, r4, r5, r6, r7, lr}
 1914              		.cfi_def_cfa_offset 24
 1915              		.cfi_offset 3, -24
 1916              		.cfi_offset 4, -20
 1917              		.cfi_offset 5, -16
 1918              		.cfi_offset 6, -12
 1919              		.cfi_offset 7, -8
 1920              		.cfi_offset 14, -4
 1921              		.loc 1 1302 0
 1922 0002 DC4F     		ldr	r7, .L344
 1923 0004 9FEDDC7A 		vldr.32	s14, .L344+4
 1924 0008 3B8A     		ldrh	r3, [r7, #16]
 1925              		.loc 1 1305 0
 1926 000a DC4E     		ldr	r6, .L344+8
 1927              		.loc 1 1302 0
 1928 000c DFEDDC7A 		vldr.32	s15, .L344+12
 1929              		.loc 1 1306 0
 1930 0010 DC4D     		ldr	r5, .L344+16
 1931 0012 DD4C     		ldr	r4, .L344+20
 1932              		.loc 1 1301 0
 1933 0014 2DED0A8B 		vpush.64	{d8, d9, d10, d11, d12}
 1934              		.cfi_def_cfa_offset 64
 1935              		.cfi_offset 80, -64
 1936              		.cfi_offset 81, -60
 1937              		.cfi_offset 82, -56
 1938              		.cfi_offset 83, -52
ARM GAS  C:\Users\CHRIST~1\AppData\Local\Temp\ccb3oWGE.s 			page 35


 1939              		.cfi_offset 84, -48
 1940              		.cfi_offset 85, -44
 1941              		.cfi_offset 86, -40
 1942              		.cfi_offset 87, -36
 1943              		.cfi_offset 88, -32
 1944              		.cfi_offset 89, -28
 1945              		.loc 1 1302 0
 1946 0018 08EE103A 		vmov	s16, r3	@ int
 1947 001c B8EE488A 		vcvt.f32.u32	s16, s16
 1948              		.loc 1 1305 0
 1949 0020 DFEDDA8A 		vldr.32	s17, .L344+24
 1950 0024 DFEDDABA 		vldr.32	s23, .L344+28
 1951 0028 9FEDDABA 		vldr.32	s22, .L344+32
 1952 002c DFEDDAAA 		vldr.32	s21, .L344+36
 1953              		.loc 1 1302 0
 1954 0030 28EE078A 		vmul.f32	s16, s16, s14
 1955              		.loc 1 1305 0
 1956 0034 B7EE00AA 		vmov.f32	s20, #1.0e+0
 1957              		.loc 1 1302 0
 1958 0038 28EE278A 		vmul.f32	s16, s16, s15
 1959              	.LVL123:
 1960              		.loc 1 1303 0
 1961 003c FFF7FEFF 		bl	mc_interface_get_rpm
 1962              	.LVL124:
 1963              		.loc 1 1305 0
 1964 0040 D6ED009A 		vldr.32	s19, [r6]
 1965 0044 7B89     		ldrh	r3, [r7, #10]
 1966 0046 9FEDD57A 		vldr.32	s14, .L344+40
 1967 004a 07EE903A 		vmov	s15, r3	@ int
 1968 004e F8EEE77A 		vcvt.f32.s32	s15, s15
 1969              		.loc 1 1303 0
 1970 0052 B0EE409A 		vmov.f32	s18, s0
 1971              	.LVL125:
 1972              		.loc 1 1305 0
 1973 0056 87EE270A 		vdiv.f32	s0, s14, s15
 1974              	.LVL126:
 1975 005a 30EE680A 		vsub.f32	s0, s0, s17
 1976 005e 80EE280A 		vdiv.f32	s0, s0, s17
 1977 0062 FFF7FEFF 		bl	logf
 1978              	.LVL127:
 1979 0066 9FEDCE7A 		vldr.32	s14, .L344+44
 1980 006a D6ED007A 		vldr.32	s15, [r6]
 1981              		.loc 1 1306 0
 1982 006e DFEDCD6A 		vldr.32	s13, .L344+48
 1983              		.loc 1 1305 0
 1984 0072 80EE070A 		vdiv.f32	s0, s0, s14
 1985 0076 30EE2B0A 		vadd.f32	s0, s0, s23
 1986 007a 8AEE007A 		vdiv.f32	s14, s20, s0
 1987 007e 37EE4B7A 		vsub.f32	s14, s14, s22
 1988 0082 79EEC79A 		vsub.f32	s19, s19, s14
 1989 0086 E9EEEA7A 		vfms.f32	s15, s19, s21
 1990 008a C6ED007A 		vstr.32	s15, [r6]
 1991              		.loc 1 1306 0
 1992 008e D5ED009A 		vldr.32	s19, [r5]
 1993 0092 FB8A     		ldrh	r3, [r7, #22]
 1994 0094 07EE103A 		vmov	s14, r3	@ int
 1995 0098 B8EE477A 		vcvt.f32.u32	s14, s14
ARM GAS  C:\Users\CHRIST~1\AppData\Local\Temp\ccb3oWGE.s 			page 36


 1996 009c C6EE877A 		vdiv.f32	s15, s13, s14
 1997 00a0 77EECA7A 		vsub.f32	s15, s15, s20
 1998 00a4 88EEA70A 		vdiv.f32	s0, s17, s15
 1999 00a8 80EE280A 		vdiv.f32	s0, s0, s17
 2000 00ac FFF7FEFF 		bl	logf
 2001              	.LVL128:
 2002 00b0 94ED5C7A 		vldr.32	s14, [r4, #368]
 2003 00b4 D5ED007A 		vldr.32	s15, [r5]
 2004 00b8 80EE070A 		vdiv.f32	s0, s0, s14
 2005 00bc 30EE2B0A 		vadd.f32	s0, s0, s23
 2006 00c0 8AEE007A 		vdiv.f32	s14, s20, s0
 2007 00c4 37EE4B7A 		vsub.f32	s14, s14, s22
 2008 00c8 79EEC79A 		vsub.f32	s19, s19, s14
 2009 00cc E9EEEA7A 		vfms.f32	s15, s19, s21
 2010 00d0 C5ED007A 		vstr.32	s15, [r5]
 2011              	.LVL129:
 2012              		.loc 1 1311 0
 2013 00d4 94ED107A 		vldr.32	s14, [r4, #64]
 2014 00d8 D6ED007A 		vldr.32	s15, [r6]
 2015 00dc B4EEE77A 		vcmpe.f32	s14, s15
 2016 00e0 F1EE10FA 		vmrs	APSR_nzcv, FPSCR
 2017 00e4 40F3F080 		ble	.L320
 2018              		.loc 1 1312 0
 2019 00e8 D4ED028A 		vldr.32	s17, [r4, #8]
 2020              	.LVL130:
 2021              		.loc 1 1313 0
 2022 00ec 94ED01BA 		vldr.32	s22, [r4, #4]
 2023              	.LVL131:
 2024              	.L241:
 2025              		.loc 1 1338 0
 2026 00f0 94ED127A 		vldr.32	s14, [r4, #72]
 2027 00f4 D5ED007A 		vldr.32	s15, [r5]
 2028 00f8 B4EEE77A 		vcmpe.f32	s14, s15
 2029 00fc F1EE10FA 		vmrs	APSR_nzcv, FPSCR
 2030 0100 40F32181 		ble	.L325
 2031              		.loc 1 1339 0
 2032 0104 D4ED029A 		vldr.32	s19, [r4, #8]
 2033              	.LVL132:
 2034              		.loc 1 1340 0
 2035 0108 94ED01CA 		vldr.32	s24, [r4, #4]
 2036              	.LVL133:
 2037              	.L256:
 2038              		.loc 1 1364 0
 2039 010c 94ED140A 		vldr.32	s0, [r4, #80]
 2040 0110 DFEDA70A 		vldr.32	s1, .L344+60
 2041 0114 D4ED101A 		vldr.32	s3, [r4, #64]
 2042 0118 B3EE092A 		vmov.f32	s4, #2.5e+1
 2043 011c B7EE001A 		vmov.f32	s2, #1.0e+0
 2044 0120 FFF7FEFF 		bl	utils_map
 2045              	.LVL134:
 2046              		.loc 1 1365 0
 2047 0124 DFEDA20A 		vldr.32	s1, .L344+60
 2048              		.loc 1 1364 0
 2049 0128 F0EE40AA 		vmov.f32	s21, s0
 2050              	.LVL135:
 2051              		.loc 1 1365 0
 2052 012c B3EE092A 		vmov.f32	s4, #2.5e+1
ARM GAS  C:\Users\CHRIST~1\AppData\Local\Temp\ccb3oWGE.s 			page 37


 2053 0130 94ED140A 		vldr.32	s0, [r4, #80]
 2054              	.LVL136:
 2055 0134 D4ED111A 		vldr.32	s3, [r4, #68]
 2056 0138 B7EE001A 		vmov.f32	s2, #1.0e+0
 2057 013c FFF7FEFF 		bl	utils_map
 2058              	.LVL137:
 2059              		.loc 1 1366 0
 2060 0140 DFED9B0A 		vldr.32	s1, .L344+60
 2061 0144 B3EE092A 		vmov.f32	s4, #2.5e+1
 2062 0148 B7EE001A 		vmov.f32	s2, #1.0e+0
 2063              		.loc 1 1365 0
 2064 014c F0EE40CA 		vmov.f32	s25, s0
 2065              	.LVL138:
 2066              		.loc 1 1366 0
 2067 0150 94ED140A 		vldr.32	s0, [r4, #80]
 2068              	.LVL139:
 2069 0154 D4ED121A 		vldr.32	s3, [r4, #72]
 2070 0158 FFF7FEFF 		bl	utils_map
 2071              	.LVL140:
 2072              		.loc 1 1367 0
 2073 015c DFED940A 		vldr.32	s1, .L344+60
 2074              		.loc 1 1366 0
 2075 0160 B0EE40AA 		vmov.f32	s20, s0
 2076              	.LVL141:
 2077              		.loc 1 1367 0
 2078 0164 B3EE092A 		vmov.f32	s4, #2.5e+1
 2079 0168 94ED140A 		vldr.32	s0, [r4, #80]
 2080              	.LVL142:
 2081 016c D4ED131A 		vldr.32	s3, [r4, #76]
 2082 0170 B7EE001A 		vmov.f32	s2, #1.0e+0
 2083 0174 FFF7FEFF 		bl	utils_map
 2084              	.LVL143:
 2085              		.loc 1 1370 0
 2086 0178 D6ED007A 		vldr.32	s15, [r6]
 2087 017c F4EEE7AA 		vcmpe.f32	s21, s15
 2088 0180 F1EE10FA 		vmrs	APSR_nzcv, FPSCR
 2089              		.loc 1 1367 0
 2090 0184 F0EE40BA 		vmov.f32	s23, s0
 2091              	.LVL144:
 2092              		.loc 1 1370 0
 2093 0188 40F3D280 		ble	.L330
 2094              		.loc 1 1371 0
 2095 018c D4ED01AA 		vldr.32	s21, [r4, #4]
 2096              	.LVL145:
 2097              	.L271:
 2098              		.loc 1 1380 0
 2099 0190 D5ED007A 		vldr.32	s15, [r5]
 2100 0194 B4EEE7AA 		vcmpe.f32	s20, s15
 2101 0198 F1EE10FA 		vmrs	APSR_nzcv, FPSCR
 2102 019c 40F3BD80 		ble	.L331
 2103              		.loc 1 1381 0
 2104 01a0 94ED01AA 		vldr.32	s20, [r4, #4]
 2105              	.LVL146:
 2106              	.L274:
 2107              		.loc 1 1391 0
 2108 01a4 D4ED070A 		vldr.32	s1, [r4, #28]
 2109 01a8 D4ED087A 		vldr.32	s15, [r4, #32]
ARM GAS  C:\Users\CHRIST~1\AppData\Local\Temp\ccb3oWGE.s 			page 38


 2110              		.loc 1 1392 0
 2111 01ac 94ED071A 		vldr.32	s2, [r4, #28]
 2112              		.loc 1 1391 0
 2113 01b0 60EEA70A 		vmul.f32	s1, s1, s15
 2114              	.LVL147:
 2115              		.loc 1 1393 0
 2116 01b4 B4EEE09A 		vcmpe.f32	s18, s1
 2117 01b8 F1EE10FA 		vmrs	APSR_nzcv, FPSCR
 2118 01bc 40F1A480 		bpl	.L332
 2119              		.loc 1 1394 0
 2120 01c0 D4ED01BA 		vldr.32	s23, [r4, #4]
 2121              	.LVL148:
 2122              	.L277:
 2123              		.loc 1 1403 0
 2124 01c4 D4ED060A 		vldr.32	s1, [r4, #24]
 2125 01c8 D4ED087A 		vldr.32	s15, [r4, #32]
 2126              		.loc 1 1404 0
 2127 01cc 94ED061A 		vldr.32	s2, [r4, #24]
 2128              		.loc 1 1403 0
 2129 01d0 60EEA70A 		vmul.f32	s1, s1, s15
 2130              	.LVL149:
 2131              		.loc 1 1405 0
 2132 01d4 B4EEE09A 		vcmpe.f32	s18, s1
 2133 01d8 F1EE10FA 		vmrs	APSR_nzcv, FPSCR
 2134 01dc 40F38B80 		ble	.L333
 2135              		.loc 1 1406 0
 2136 01e0 94ED019A 		vldr.32	s18, [r4, #4]
 2137              	.LVL150:
 2138              	.L280:
 2139              		.loc 1 1413 0
 2140 01e4 F0EE4C0A 		vmov.f32	s1, s24
 2141 01e8 B0EE4B0A 		vmov.f32	s0, s22
 2142 01ec FFF7FEFF 		bl	utils_min_abs
 2143              	.LVL151:
 2144              		.loc 1 1414 0
 2145 01f0 F0EE690A 		vmov.f32	s1, s19
 2146              		.loc 1 1413 0
 2147 01f4 B0EE40BA 		vmov.f32	s22, s0
 2148              	.LVL152:
 2149              		.loc 1 1414 0
 2150 01f8 B0EE680A 		vmov.f32	s0, s17
 2151              	.LVL153:
 2152 01fc FFF7FEFF 		bl	utils_min_abs
 2153              	.LVL154:
 2154              		.loc 1 1416 0
 2155 0200 F0EE6B0A 		vmov.f32	s1, s23
 2156              		.loc 1 1414 0
 2157 0204 F0EE408A 		vmov.f32	s17, s0
 2158              	.LVL155:
 2159              		.loc 1 1416 0
 2160 0208 B0EE4B0A 		vmov.f32	s0, s22
 2161              	.LVL156:
 2162 020c FFF7FEFF 		bl	utils_min_abs
 2163              	.LVL157:
 2164              		.loc 1 1417 0
 2165 0210 F0EE490A 		vmov.f32	s1, s18
 2166 0214 FFF7FEFF 		bl	utils_min_abs
ARM GAS  C:\Users\CHRIST~1\AppData\Local\Temp\ccb3oWGE.s 			page 39


 2167              	.LVL158:
 2168              		.loc 1 1418 0
 2169 0218 F0EE6A0A 		vmov.f32	s1, s21
 2170 021c FFF7FEFF 		bl	utils_min_abs
 2171              	.LVL159:
 2172              		.loc 1 1419 0
 2173 0220 F0EE4A0A 		vmov.f32	s1, s20
 2174 0224 FFF7FEFF 		bl	utils_min_abs
 2175              	.LVL160:
 2176              		.loc 1 1421 0
 2177 0228 D4ED507A 		vldr.32	s15, [r4, #320]
 2178 022c B4EEE70A 		vcmpe.f32	s0, s15
 2179 0230 F1EE10FA 		vmrs	APSR_nzcv, FPSCR
 2180              		.loc 1 1422 0
 2181 0234 48BF     		it	mi
 2182 0236 94ED500A 		vldrmi.32	s0, [r4, #320]
 2183              	.LVL161:
 2184              		.loc 1 1425 0
 2185 023a D4ED507A 		vldr.32	s15, [r4, #320]
 2186 023e F1EE677A 		vneg.f32	s15, s15
 2187 0242 F4EEE78A 		vcmpe.f32	s17, s15
 2188 0246 F1EE10FA 		vmrs	APSR_nzcv, FPSCR
 2189              		.loc 1 1426 0
 2190 024a C8BF     		it	gt
 2191 024c D4ED508A 		vldrgt.32	s17, [r4, #320]
 2192              	.LVL162:
 2193              		.loc 1 1429 0
 2194 0250 84ED190A 		vstr.32	s0, [r4, #100]
 2195              		.loc 1 1426 0
 2196 0254 C8BF     		it	gt
 2197 0256 F1EE688A 		vneggt.f32	s17, s17
 2198              	.LVL163:
 2199              		.loc 1 1430 0
 2200 025a C4ED1A8A 		vstr.32	s17, [r4, #104]
 2201              	.LVL164:
 2202              		.loc 1 1434 0
 2203 025e D4ED0D7A 		vldr.32	s15, [r4, #52]
 2204 0262 B4EEE78A 		vcmpe.f32	s16, s15
 2205 0266 F1EE10FA 		vmrs	APSR_nzcv, FPSCR
 2206 026a 00F31F81 		bgt	.L336
 2207              		.loc 1 1436 0
 2208 026e D4ED0E7A 		vldr.32	s15, [r4, #56]
 2209 0272 B4EEE78A 		vcmpe.f32	s16, s15
 2210 0276 F1EE10FA 		vmrs	APSR_nzcv, FPSCR
 2211 027a 40F11A81 		bpl	.L337
 2212              		.loc 1 1437 0
 2213 027e DFED4C0A 		vldr.32	s1, .L344+60
 2214              	.LVL165:
 2215              	.L287:
 2216              		.loc 1 1444 0
 2217 0282 94ED170A 		vldr.32	s0, [r4, #92]
 2218              	.LVL166:
 2219              		.loc 1 1445 0
 2220 0286 94ED187A 		vldr.32	s14, [r4, #96]
 2221 028a C7EE088A 		vdiv.f32	s17, s14, s16
 2222              	.LVL167:
 2223              		.loc 1 1447 0
ARM GAS  C:\Users\CHRIST~1\AppData\Local\Temp\ccb3oWGE.s 			page 40


 2224 028e 80EE080A 		vdiv.f32	s0, s0, s16
 2225              	.LVL168:
 2226 0292 FFF7FEFF 		bl	utils_min_abs
 2227              	.LVL169:
 2228              		.loc 1 1450 0
 2229 0296 D4ED037A 		vldr.32	s15, [r4, #12]
 2230 029a F0EE400A 		vmov.f32	s1, s0
 2231 029e B0EE670A 		vmov.f32	s0, s15
 2232              	.LVL170:
 2233 02a2 FFF7FEFF 		bl	utils_min_abs
 2234              	.LVL171:
 2235 02a6 84ED1B0A 		vstr.32	s0, [r4, #108]
 2236              		.loc 1 1451 0
 2237 02aa F0EE680A 		vmov.f32	s1, s17
 2238 02ae 94ED040A 		vldr.32	s0, [r4, #16]
 2239 02b2 FFF7FEFF 		bl	utils_min_abs
 2240              	.LVL172:
 2241              		.loc 1 1473 0
 2242 02b6 BDEC0A8B 		vldm	sp!, {d8-d12}
 2243              		.cfi_remember_state
 2244              		.cfi_restore 88
 2245              		.cfi_restore 89
 2246              		.cfi_restore 86
 2247              		.cfi_restore 87
 2248              		.cfi_restore 84
 2249              		.cfi_restore 85
 2250              		.cfi_restore 82
 2251              		.cfi_restore 83
 2252              		.cfi_restore 80
 2253              		.cfi_restore 81
 2254              		.cfi_def_cfa_offset 24
 2255              	.LVL173:
 2256              		.loc 1 1451 0
 2257 02ba 84ED1C0A 		vstr.32	s0, [r4, #112]
 2258              		.loc 1 1471 0
 2259 02be 636E     		ldr	r3, [r4, #100]	@ float
 2260 02c0 6367     		str	r3, [r4, #116]	@ float
 2261              		.loc 1 1472 0
 2262 02c2 A36E     		ldr	r3, [r4, #104]	@ float
 2263 02c4 A367     		str	r3, [r4, #120]	@ float
 2264              		.loc 1 1473 0
 2265 02c6 F8BD     		pop	{r3, r4, r5, r6, r7, pc}
 2266              	.LVL174:
 2267              	.L320:
 2268              		.cfi_restore_state
 2269              		.loc 1 1314 0
 2270 02c8 94ED117A 		vldr.32	s14, [r4, #68]
 2271 02cc D6ED007A 		vldr.32	s15, [r6]
 2272 02d0 B4EEE77A 		vcmpe.f32	s14, s15
 2273 02d4 F1EE10FA 		vmrs	APSR_nzcv, FPSCR
 2274 02d8 6CD5     		bpl	.L321
 2275              	.LVL175:
 2276              	.LBB127:
 2277              	.LBB128:
 2278              		.loc 1 992 0
 2279 02da 334B     		ldr	r3, .L344+52
 2280 02dc 1B78     		ldrb	r3, [r3]	@ zero_extendqisi2
ARM GAS  C:\Users\CHRIST~1\AppData\Local\Temp\ccb3oWGE.s 			page 41


 2281 02de 052B     		cmp	r3, #5
 2282 02e0 40F04A81 		bne	.L244
 2283              		.loc 1 993 0
 2284 02e4 314B     		ldr	r3, .L344+56
 2285              	.LBE128:
 2286              	.LBE127:
 2287              		.loc 1 1315 0
 2288 02e6 DFED328A 		vldr.32	s17, .L344+60
 2289              	.LBB132:
 2290              	.LBB129:
 2291              		.loc 1 993 0
 2292 02ea D4F84C21 		ldr	r2, [r4, #332]
 2293 02ee 1A60     		str	r2, [r3]
 2294              	.LBE129:
 2295              	.LBE132:
 2296              		.loc 1 1316 0
 2297 02f0 B0EE68BA 		vmov.f32	s22, s17
 2298 02f4 FCE6     		b	.L241
 2299              	.LVL176:
 2300              	.L333:
 2301              		.loc 1 1407 0
 2302 02f6 B4EEC19A 		vcmpe.f32	s18, s2
 2303 02fa F1EE10FA 		vmrs	APSR_nzcv, FPSCR
 2304 02fe 40F11081 		bpl	.L338
 2305              		.loc 1 1408 0
 2306 0302 9FED2B9A 		vldr.32	s18, .L344+60
 2307              	.LVL177:
 2308 0306 6DE7     		b	.L280
 2309              	.LVL178:
 2310              	.L332:
 2311              		.loc 1 1395 0
 2312 0308 B4EEC19A 		vcmpe.f32	s18, s2
 2313 030c F1EE10FA 		vmrs	APSR_nzcv, FPSCR
 2314 0310 40F3DE80 		ble	.L339
 2315              		.loc 1 1396 0
 2316 0314 DFED26BA 		vldr.32	s23, .L344+60
 2317              	.LVL179:
 2318 0318 54E7     		b	.L277
 2319              	.LVL180:
 2320              	.L331:
 2321              		.loc 1 1382 0
 2322 031a D5ED007A 		vldr.32	s15, [r5]
 2323 031e F4EEE7BA 		vcmpe.f32	s23, s15
 2324 0322 F1EE10FA 		vmrs	APSR_nzcv, FPSCR
 2325 0326 40F1DE80 		bpl	.L340
 2326              		.loc 1 1383 0
 2327 032a 9FED21AA 		vldr.32	s20, .L344+60
 2328              	.LVL181:
 2329 032e 39E7     		b	.L274
 2330              	.LVL182:
 2331              	.L330:
 2332              		.loc 1 1372 0
 2333 0330 D6ED007A 		vldr.32	s15, [r6]
 2334 0334 F4EEE7CA 		vcmpe.f32	s25, s15
 2335 0338 F1EE10FA 		vmrs	APSR_nzcv, FPSCR
 2336 033c 40F1E280 		bpl	.L341
 2337              		.loc 1 1373 0
ARM GAS  C:\Users\CHRIST~1\AppData\Local\Temp\ccb3oWGE.s 			page 42


 2338 0340 DFED1BAA 		vldr.32	s21, .L344+60
 2339              	.LVL183:
 2340 0344 24E7     		b	.L271
 2341              	.LVL184:
 2342              	.L325:
 2343              		.loc 1 1341 0
 2344 0346 94ED137A 		vldr.32	s14, [r4, #76]
 2345 034a D5ED007A 		vldr.32	s15, [r5]
 2346 034e B4EEE77A 		vcmpe.f32	s14, s15
 2347 0352 F1EE10FA 		vmrs	APSR_nzcv, FPSCR
 2348 0356 6CD5     		bpl	.L326
 2349              	.LVL185:
 2350              	.LBB133:
 2351              	.LBB134:
 2352              		.loc 1 992 0
 2353 0358 134B     		ldr	r3, .L344+52
 2354 035a 1B78     		ldrb	r3, [r3]	@ zero_extendqisi2
 2355 035c 062B     		cmp	r3, #6
 2356 035e 40F00381 		bne	.L259
 2357              		.loc 1 993 0
 2358 0362 124B     		ldr	r3, .L344+56
 2359              	.LBE134:
 2360              	.LBE133:
 2361              		.loc 1 1342 0
 2362 0364 DFED129A 		vldr.32	s19, .L344+60
 2363              	.LBB138:
 2364              	.LBB135:
 2365              		.loc 1 993 0
 2366 0368 D4F84C21 		ldr	r2, [r4, #332]
 2367 036c 1A60     		str	r2, [r3]
 2368              	.LBE135:
 2369              	.LBE138:
 2370              		.loc 1 1343 0
 2371 036e B0EE69CA 		vmov.f32	s24, s19
 2372 0372 CBE6     		b	.L256
 2373              	.L345:
 2374              		.align	2
 2375              	.L344:
 2376 0374 00000000 		.word	.LANCHOR41
 2377 0378 6740533A 		.word	978534503
 2378 037c 00000000 		.word	.LANCHOR32
 2379 0380 74D19541 		.word	1100337524
 2380 0384 00000000 		.word	.LANCHOR33
 2381 0388 00000000 		.word	.LANCHOR12
 2382 038c 00401C46 		.word	1176256512
 2383 0390 0FCF5B3B 		.word	995872527
 2384 0394 33938843 		.word	1133024051
 2385 0398 CDCCCC3D 		.word	1036831949
 2386 039c 3C361C4C 		.word	1276917308
 2387 03a0 00A05645 		.word	1163304960
 2388 03a4 00F07F45 		.word	1166012416
 2389 03a8 00000000 		.word	.LANCHOR13
 2390 03ac 00000000 		.word	.LANCHOR14
 2391 03b0 00000000 		.word	0
 2392              	.LVL186:
 2393              	.L321:
 2394              	.LBB139:
ARM GAS  C:\Users\CHRIST~1\AppData\Local\Temp\ccb3oWGE.s 			page 43


 2395              		.loc 1 1319 0
 2396 03b4 D4ED011A 		vldr.32	s3, [r4, #4]
 2397              		.loc 1 1320 0
 2398 03b8 D4ED027A 		vldr.32	s15, [r4, #8]
 2399              		.loc 1 1324 0
 2400 03bc 1FED042A 		vldr.32	s4, .L344+60
 2401              		.loc 1 1319 0
 2402 03c0 F0EEE11A 		vabs.f32	s3, s3
 2403              	.LVL187:
 2404              		.loc 1 1320 0
 2405 03c4 F0EEE77A 		vabs.f32	s15, s15
 2406 03c8 F4EEE71A 		vcmpe.f32	s3, s15
 2407 03cc F1EE10FA 		vmrs	APSR_nzcv, FPSCR
 2408              		.loc 1 1321 0
 2409 03d0 48BF     		it	mi
 2410 03d2 D4ED021A 		vldrmi.32	s3, [r4, #8]
 2411              	.LVL188:
 2412              		.loc 1 1324 0
 2413 03d6 96ED000A 		vldr.32	s0, [r6]
 2414 03da D4ED100A 		vldr.32	s1, [r4, #64]
 2415 03de 94ED111A 		vldr.32	s2, [r4, #68]
 2416              		.loc 1 1321 0
 2417 03e2 48BF     		it	mi
 2418 03e4 F0EEE11A 		vabsmi.f32	s3, s3
 2419              	.LVL189:
 2420              		.loc 1 1324 0
 2421 03e8 FFF7FEFF 		bl	utils_map
 2422              	.LVL190:
 2423              		.loc 1 1326 0
 2424 03ec D4ED017A 		vldr.32	s15, [r4, #4]
 2425 03f0 F0EEE77A 		vabs.f32	s15, s15
 2426 03f4 B4EEE70A 		vcmpe.f32	s0, s15
 2427 03f8 F1EE10FA 		vmrs	APSR_nzcv, FPSCR
 2428              		.loc 1 1324 0
 2429 03fc F0EE408A 		vmov.f32	s17, s0
 2430              	.LVL191:
 2431              		.loc 1 1326 0
 2432 0400 00F1A680 		bmi	.L342
 2433              	.LBE139:
 2434              		.loc 1 1309 0
 2435 0404 1FED16BA 		vldr.32	s22, .L344+60
 2436              	.LVL192:
 2437              	.L247:
 2438              	.LBB140:
 2439              		.loc 1 1330 0
 2440 0408 D4ED027A 		vldr.32	s15, [r4, #8]
 2441 040c F0EEE77A 		vabs.f32	s15, s15
 2442 0410 F4EEE78A 		vcmpe.f32	s17, s15
 2443 0414 F1EE10FA 		vmrs	APSR_nzcv, FPSCR
 2444 0418 40F1B980 		bpl	.L324
 2445              		.loc 1 1331 0
 2446 041c D4ED027A 		vldr.32	s15, [r4, #8]
 2447 0420 F5EEC07A 		vcmpe.f32	s15, #0
 2448 0424 F1EE10FA 		vmrs	APSR_nzcv, FPSCR
 2449 0428 7FF562AE 		bpl	.L241
 2450 042c F1EE688A 		vneg.f32	s17, s17
 2451              	.LVL193:
ARM GAS  C:\Users\CHRIST~1\AppData\Local\Temp\ccb3oWGE.s 			page 44


 2452 0430 5EE6     		b	.L241
 2453              	.LVL194:
 2454              	.L326:
 2455              	.LBE140:
 2456              	.LBB141:
 2457              		.loc 1 1346 0
 2458 0432 D4ED011A 		vldr.32	s3, [r4, #4]
 2459              		.loc 1 1347 0
 2460 0436 D4ED027A 		vldr.32	s15, [r4, #8]
 2461              		.loc 1 1351 0
 2462 043a 1FED232A 		vldr.32	s4, .L344+60
 2463              		.loc 1 1346 0
 2464 043e F0EEE11A 		vabs.f32	s3, s3
 2465              	.LVL195:
 2466              		.loc 1 1347 0
 2467 0442 F0EEE77A 		vabs.f32	s15, s15
 2468 0446 F4EEE71A 		vcmpe.f32	s3, s15
 2469 044a F1EE10FA 		vmrs	APSR_nzcv, FPSCR
 2470              		.loc 1 1348 0
 2471 044e 48BF     		it	mi
 2472 0450 D4ED021A 		vldrmi.32	s3, [r4, #8]
 2473              	.LVL196:
 2474              		.loc 1 1351 0
 2475 0454 95ED000A 		vldr.32	s0, [r5]
 2476 0458 D4ED120A 		vldr.32	s1, [r4, #72]
 2477 045c 94ED131A 		vldr.32	s2, [r4, #76]
 2478              		.loc 1 1348 0
 2479 0460 48BF     		it	mi
 2480 0462 F0EEE11A 		vabsmi.f32	s3, s3
 2481              	.LVL197:
 2482              		.loc 1 1351 0
 2483 0466 FFF7FEFF 		bl	utils_map
 2484              	.LVL198:
 2485              		.loc 1 1353 0
 2486 046a D4ED017A 		vldr.32	s15, [r4, #4]
 2487 046e F0EEE77A 		vabs.f32	s15, s15
 2488 0472 B4EEE70A 		vcmpe.f32	s0, s15
 2489 0476 F1EE10FA 		vmrs	APSR_nzcv, FPSCR
 2490              		.loc 1 1351 0
 2491 047a F0EE409A 		vmov.f32	s19, s0
 2492              	.LVL199:
 2493              		.loc 1 1353 0
 2494 047e 5BD4     		bmi	.L343
 2495              	.LBE141:
 2496              		.loc 1 1336 0
 2497 0480 1FED35CA 		vldr.32	s24, .L344+60
 2498              	.LVL200:
 2499              	.L262:
 2500              	.LBB142:
 2501              		.loc 1 1357 0
 2502 0484 D4ED027A 		vldr.32	s15, [r4, #8]
 2503 0488 F0EEE77A 		vabs.f32	s15, s15
 2504 048c F4EEE79A 		vcmpe.f32	s19, s15
 2505 0490 F1EE10FA 		vmrs	APSR_nzcv, FPSCR
 2506 0494 78D5     		bpl	.L329
 2507              		.loc 1 1358 0
 2508 0496 D4ED027A 		vldr.32	s15, [r4, #8]
ARM GAS  C:\Users\CHRIST~1\AppData\Local\Temp\ccb3oWGE.s 			page 45


 2509 049a F5EEC07A 		vcmpe.f32	s15, #0
 2510 049e F1EE10FA 		vmrs	APSR_nzcv, FPSCR
 2511 04a2 7FF533AE 		bpl	.L256
 2512 04a6 F1EE699A 		vneg.f32	s19, s19
 2513              	.LVL201:
 2514 04aa 2FE6     		b	.L256
 2515              	.LVL202:
 2516              	.L336:
 2517              	.LBE142:
 2518              		.loc 1 1435 0
 2519 04ac D4ED030A 		vldr.32	s1, [r4, #12]
 2520              	.LVL203:
 2521 04b0 E7E6     		b	.L287
 2522              	.LVL204:
 2523              	.L337:
 2524              		.loc 1 1439 0
 2525 04b2 D4ED0D0A 		vldr.32	s1, [r4, #52]
 2526 04b6 1FED422A 		vldr.32	s4, .L344+60
 2527 04ba 94ED0E1A 		vldr.32	s2, [r4, #56]
 2528 04be D4ED031A 		vldr.32	s3, [r4, #12]
 2529 04c2 B0EE480A 		vmov.f32	s0, s16
 2530              	.LVL205:
 2531 04c6 FFF7FEFF 		bl	utils_map
 2532              	.LVL206:
 2533 04ca F0EE400A 		vmov.f32	s1, s0
 2534              	.LVL207:
 2535 04ce D8E6     		b	.L287
 2536              	.LVL208:
 2537              	.L339:
 2538              		.loc 1 1398 0
 2539 04d0 D4ED011A 		vldr.32	s3, [r4, #4]
 2540 04d4 1FED4A2A 		vldr.32	s4, .L344+60
 2541 04d8 B0EE490A 		vmov.f32	s0, s18
 2542 04dc FFF7FEFF 		bl	utils_map
 2543              	.LVL209:
 2544 04e0 F0EE40BA 		vmov.f32	s23, s0
 2545              	.LVL210:
 2546 04e4 6EE6     		b	.L277
 2547              	.LVL211:
 2548              	.L340:
 2549              		.loc 1 1385 0
 2550 04e6 95ED000A 		vldr.32	s0, [r5]
 2551 04ea 1FED4F2A 		vldr.32	s4, .L344+60
 2552 04ee D4ED011A 		vldr.32	s3, [r4, #4]
 2553 04f2 F0EE4A0A 		vmov.f32	s1, s20
 2554 04f6 B0EE6B1A 		vmov.f32	s2, s23
 2555 04fa FFF7FEFF 		bl	utils_map
 2556              	.LVL212:
 2557 04fe B0EE40AA 		vmov.f32	s20, s0
 2558              	.LVL213:
 2559 0502 4FE6     		b	.L274
 2560              	.LVL214:
 2561              	.L341:
 2562              		.loc 1 1375 0
 2563 0504 96ED000A 		vldr.32	s0, [r6]
 2564              	.LVL215:
 2565 0508 1FED572A 		vldr.32	s4, .L344+60
ARM GAS  C:\Users\CHRIST~1\AppData\Local\Temp\ccb3oWGE.s 			page 46


 2566 050c D4ED011A 		vldr.32	s3, [r4, #4]
 2567 0510 F0EE6A0A 		vmov.f32	s1, s21
 2568 0514 B0EE6C1A 		vmov.f32	s2, s25
 2569 0518 FFF7FEFF 		bl	utils_map
 2570              	.LVL216:
 2571 051c F0EE40AA 		vmov.f32	s21, s0
 2572              	.LVL217:
 2573 0520 36E6     		b	.L271
 2574              	.LVL218:
 2575              	.L338:
 2576              		.loc 1 1410 0
 2577 0522 B0EE490A 		vmov.f32	s0, s18
 2578 0526 D4ED011A 		vldr.32	s3, [r4, #4]
 2579 052a 1FED5F2A 		vldr.32	s4, .L344+60
 2580 052e FFF7FEFF 		bl	utils_map
 2581              	.LVL219:
 2582 0532 B0EE409A 		vmov.f32	s18, s0
 2583              	.LVL220:
 2584 0536 55E6     		b	.L280
 2585              	.LVL221:
 2586              	.L343:
 2587              	.LBB143:
 2588              		.loc 1 1354 0
 2589 0538 D4ED017A 		vldr.32	s15, [r4, #4]
 2590 053c F5EEC07A 		vcmpe.f32	s15, #0
 2591 0540 F1EE10FA 		vmrs	APSR_nzcv, FPSCR
 2592 0544 4CBF     		ite	mi
 2593 0546 B1EE40CA 		vnegmi.f32	s24, s0
 2594 054a B0EE40CA 		vmovpl.f32	s24, s0
 2595              	.LVL222:
 2596 054e 99E7     		b	.L262
 2597              	.LVL223:
 2598              	.L342:
 2599              	.LBE143:
 2600              	.LBB144:
 2601              		.loc 1 1327 0
 2602 0550 D4ED017A 		vldr.32	s15, [r4, #4]
 2603 0554 F5EEC07A 		vcmpe.f32	s15, #0
 2604 0558 F1EE10FA 		vmrs	APSR_nzcv, FPSCR
 2605 055c 4CBF     		ite	mi
 2606 055e B1EE40BA 		vnegmi.f32	s22, s0
 2607 0562 B0EE40BA 		vmovpl.f32	s22, s0
 2608              	.LVL224:
 2609 0566 4FE7     		b	.L247
 2610              	.LVL225:
 2611              	.L259:
 2612              	.LBE144:
 2613              		.loc 1 1342 0
 2614 0568 5FED6F9A 		vldr.32	s19, .L344+60
 2615              	.LBB145:
 2616              	.LBB136:
 2617 056c 0620     		movs	r0, #6
 2618              	.LBE136:
 2619              	.LBE145:
 2620              		.loc 1 1343 0
 2621 056e B0EE69CA 		vmov.f32	s24, s19
 2622              	.LBB146:
ARM GAS  C:\Users\CHRIST~1\AppData\Local\Temp\ccb3oWGE.s 			page 47


 2623              	.LBB137:
 2624 0572 FFF7FEFF 		bl	mc_interface_fault_stop.part.3
 2625              	.LVL226:
 2626 0576 C9E5     		b	.L256
 2627              	.LVL227:
 2628              	.L244:
 2629              	.LBE137:
 2630              	.LBE146:
 2631              		.loc 1 1315 0
 2632 0578 5FED738A 		vldr.32	s17, .L344+60
 2633              	.LBB147:
 2634              	.LBB130:
 2635 057c 0520     		movs	r0, #5
 2636              	.LBE130:
 2637              	.LBE147:
 2638              		.loc 1 1316 0
 2639 057e B0EE68BA 		vmov.f32	s22, s17
 2640              	.LBB148:
 2641              	.LBB131:
 2642 0582 FFF7FEFF 		bl	mc_interface_fault_stop.part.3
 2643              	.LVL228:
 2644 0586 B3E5     		b	.L241
 2645              	.LVL229:
 2646              	.L329:
 2647              	.LBE131:
 2648              	.LBE148:
 2649              		.loc 1 1337 0
 2650 0588 5FED779A 		vldr.32	s19, .L344+60
 2651 058c BEE5     		b	.L256
 2652              	.LVL230:
 2653              	.L324:
 2654              		.loc 1 1310 0
 2655 058e 5FED788A 		vldr.32	s17, .L344+60
 2656 0592 ADE5     		b	.L241
 2657              		.cfi_endproc
 2658              	.LFE316:
 2659              		.size	update_override_limits.constprop.4, .-update_override_limits.constprop.4
 2660              		.section	.text.mc_interface_set_configuration,"ax",%progbits
 2661              		.align	1
 2662              		.p2align 4,,15
 2663              		.global	mc_interface_set_configuration
 2664              		.syntax unified
 2665              		.thumb
 2666              		.thumb_func
 2667              		.fpu fpv4-sp-d16
 2668              		.type	mc_interface_set_configuration, %function
 2669              	mc_interface_set_configuration:
 2670              	.LFB258:
 2671              		.loc 1 175 0
 2672              		.cfi_startproc
 2673              		@ args = 0, pretend = 0, frame = 0
 2674              		@ frame_needed = 0, uses_anonymous_args = 0
 2675              	.LVL231:
 2676 0000 38B5     		push	{r3, r4, r5, lr}
 2677              		.cfi_def_cfa_offset 16
 2678              		.cfi_offset 3, -16
 2679              		.cfi_offset 4, -12
ARM GAS  C:\Users\CHRIST~1\AppData\Local\Temp\ccb3oWGE.s 			page 48


 2680              		.cfi_offset 5, -8
 2681              		.cfi_offset 14, -4
 2682              		.loc 1 177 0
 2683 0002 354D     		ldr	r5, .L370
 2684 0004 90F85C31 		ldrb	r3, [r0, #348]	@ zero_extendqisi2
 2685 0008 95F85C21 		ldrb	r2, [r5, #348]	@ zero_extendqisi2
 2686 000c 9A42     		cmp	r2, r3
 2687              		.loc 1 175 0
 2688 000e 0446     		mov	r4, r0
 2689              		.loc 1 177 0
 2690 0010 1ED1     		bne	.L364
 2691              	.LVL232:
 2692              	.L347:
 2693              		.loc 1 193 0
 2694 0012 012B     		cmp	r3, #1
 2695 0014 2AD0     		beq	.L365
 2696              	.L348:
 2697              		.loc 1 203 0
 2698 0016 AB78     		ldrb	r3, [r5, #2]	@ zero_extendqisi2
 2699 0018 022B     		cmp	r3, #2
 2700 001a 2ED0     		beq	.L366
 2701              	.L351:
 2702              		.loc 1 208 0
 2703 001c AB78     		ldrb	r3, [r5, #2]	@ zero_extendqisi2
 2704 001e 022B     		cmp	r3, #2
 2705 0020 02D0     		beq	.L354
 2706              		.loc 1 209 0
 2707 0022 A378     		ldrb	r3, [r4, #2]	@ zero_extendqisi2
 2708 0024 022B     		cmp	r3, #2
 2709 0026 2ED0     		beq	.L358
 2710              	.L354:
 2711              		.loc 1 214 0
 2712 0028 2146     		mov	r1, r4
 2713 002a 4FF4BA72 		mov	r2, #372
 2714 002e 2A48     		ldr	r0, .L370
 2715 0030 FFF7FEFF 		bl	memcpy
 2716              	.LVL233:
 2717              	.L353:
 2718              		.loc 1 217 0
 2719 0034 FFF7FEFF 		bl	update_override_limits.constprop.4
 2720              	.LVL234:
 2721              		.loc 1 219 0
 2722 0038 AB78     		ldrb	r3, [r5, #2]	@ zero_extendqisi2
 2723 003a DBB2     		uxtb	r3, r3
 2724 003c 012B     		cmp	r3, #1
 2725 003e 33D9     		bls	.L356
 2726              	.L369:
 2727 0040 022B     		cmp	r3, #2
 2728 0042 04D1     		bne	.L367
 2729              		.loc 1 226 0
 2730 0044 2448     		ldr	r0, .L370
 2731              		.loc 1 232 0
 2732 0046 BDE83840 		pop	{r3, r4, r5, lr}
 2733              		.cfi_remember_state
 2734              		.cfi_restore 14
 2735              		.cfi_restore 5
 2736              		.cfi_restore 4
ARM GAS  C:\Users\CHRIST~1\AppData\Local\Temp\ccb3oWGE.s 			page 49


 2737              		.cfi_restore 3
 2738              		.cfi_def_cfa_offset 0
 2739              	.LVL235:
 2740              		.loc 1 226 0
 2741 004a FFF7FEBF 		b	mcpwm_foc_set_configuration
 2742              	.LVL236:
 2743              	.L367:
 2744              		.cfi_restore_state
 2745              		.loc 1 232 0
 2746 004e 38BD     		pop	{r3, r4, r5, pc}
 2747              	.LVL237:
 2748              	.L364:
 2749              		.loc 1 178 0
 2750 0050 FFF7FEFF 		bl	encoder_deinit
 2751              	.LVL238:
 2752              		.loc 1 179 0
 2753 0054 94F85C31 		ldrb	r3, [r4, #348]	@ zero_extendqisi2
 2754 0058 012B     		cmp	r3, #1
 2755 005a 36D0     		beq	.L349
 2756 005c 022B     		cmp	r3, #2
 2757 005e DAD1     		bne	.L348
 2758              		.loc 1 185 0
 2759 0060 FFF7FEFF 		bl	encoder_init_as5047p_spi
 2760              	.LVL239:
 2761 0064 94F85C31 		ldrb	r3, [r4, #348]	@ zero_extendqisi2
 2762              		.loc 1 193 0
 2763 0068 012B     		cmp	r3, #1
 2764 006a D4D1     		bne	.L348
 2765              	.L365:
 2766              		.loc 1 194 0
 2767 006c D4F85801 		ldr	r0, [r4, #344]
 2768 0070 FFF7FEFF 		bl	encoder_set_counts
 2769              	.LVL240:
 2770              		.loc 1 203 0
 2771 0074 AB78     		ldrb	r3, [r5, #2]	@ zero_extendqisi2
 2772 0076 022B     		cmp	r3, #2
 2773 0078 D0D1     		bne	.L351
 2774              	.L366:
 2775              		.loc 1 204 0
 2776 007a A378     		ldrb	r3, [r4, #2]	@ zero_extendqisi2
 2777 007c 022B     		cmp	r3, #2
 2778 007e 18D1     		bne	.L368
 2779              		.loc 1 208 0
 2780 0080 AB78     		ldrb	r3, [r5, #2]	@ zero_extendqisi2
 2781 0082 022B     		cmp	r3, #2
 2782 0084 D0D0     		beq	.L354
 2783              	.L358:
 2784              		.loc 1 210 0
 2785 0086 FFF7FEFF 		bl	mcpwm_deinit
 2786              	.LVL241:
 2787              		.loc 1 211 0
 2788 008a 2146     		mov	r1, r4
 2789 008c 4FF4BA72 		mov	r2, #372
 2790 0090 1148     		ldr	r0, .L370
 2791 0092 FFF7FEFF 		bl	memcpy
 2792              	.LVL242:
 2793              		.loc 1 212 0
ARM GAS  C:\Users\CHRIST~1\AppData\Local\Temp\ccb3oWGE.s 			page 50


 2794 0096 1048     		ldr	r0, .L370
 2795 0098 FFF7FEFF 		bl	mcpwm_foc_init
 2796              	.LVL243:
 2797              		.loc 1 217 0
 2798 009c FFF7FEFF 		bl	update_override_limits.constprop.4
 2799              	.LVL244:
 2800              		.loc 1 219 0
 2801 00a0 AB78     		ldrb	r3, [r5, #2]	@ zero_extendqisi2
 2802 00a2 DBB2     		uxtb	r3, r3
 2803 00a4 012B     		cmp	r3, #1
 2804 00a6 CBD8     		bhi	.L369
 2805              	.L356:
 2806              		.loc 1 222 0
 2807 00a8 0B48     		ldr	r0, .L370
 2808              		.loc 1 232 0
 2809 00aa BDE83840 		pop	{r3, r4, r5, lr}
 2810              		.cfi_remember_state
 2811              		.cfi_restore 14
 2812              		.cfi_restore 5
 2813              		.cfi_restore 4
 2814              		.cfi_restore 3
 2815              		.cfi_def_cfa_offset 0
 2816              	.LVL245:
 2817              		.loc 1 222 0
 2818 00ae FFF7FEBF 		b	mcpwm_set_configuration
 2819              	.LVL246:
 2820              	.L368:
 2821              		.cfi_restore_state
 2822              		.loc 1 205 0
 2823 00b2 FFF7FEFF 		bl	mcpwm_foc_deinit
 2824              	.LVL247:
 2825              		.loc 1 206 0
 2826 00b6 2146     		mov	r1, r4
 2827 00b8 4FF4BA72 		mov	r2, #372
 2828 00bc 0648     		ldr	r0, .L370
 2829 00be FFF7FEFF 		bl	memcpy
 2830              	.LVL248:
 2831              		.loc 1 207 0
 2832 00c2 0548     		ldr	r0, .L370
 2833 00c4 FFF7FEFF 		bl	mcpwm_init
 2834              	.LVL249:
 2835 00c8 B4E7     		b	.L353
 2836              	.L349:
 2837              		.loc 1 181 0
 2838 00ca D4F85801 		ldr	r0, [r4, #344]
 2839 00ce FFF7FEFF 		bl	encoder_init_abi
 2840              	.LVL250:
 2841 00d2 94F85C31 		ldrb	r3, [r4, #348]	@ zero_extendqisi2
 2842              		.loc 1 182 0
 2843 00d6 9CE7     		b	.L347
 2844              	.L371:
 2845              		.align	2
 2846              	.L370:
 2847 00d8 00000000 		.word	.LANCHOR12
 2848              		.cfi_endproc
 2849              	.LFE258:
 2850              		.size	mc_interface_set_configuration, .-mc_interface_set_configuration
ARM GAS  C:\Users\CHRIST~1\AppData\Local\Temp\ccb3oWGE.s 			page 51


 2851              		.section	.text.timer_thread,"ax",%progbits
 2852              		.align	1
 2853              		.p2align 4,,15
 2854              		.syntax unified
 2855              		.thumb
 2856              		.thumb_func
 2857              		.fpu fpv4-sp-d16
 2858              		.type	timer_thread, %function
 2859              	timer_thread:
 2860              	.LFB310:
 2861              		.loc 1 1475 0
 2862              		.cfi_startproc
 2863              		@ Volatile: function does not return.
 2864              		@ args = 0, pretend = 0, frame = 0
 2865              		@ frame_needed = 0, uses_anonymous_args = 0
 2866              	.LVL251:
 2867              	.LBB149:
 2868              	.LBB150:
 2869              		.loc 2 135 0
 2870 0000 0C4B     		ldr	r3, .L381
 2871 0002 0D4A     		ldr	r2, .L381+4
 2872 0004 9B69     		ldr	r3, [r3, #24]
 2873 0006 0D4C     		ldr	r4, .L381+8
 2874              	.LBE150:
 2875              	.LBE149:
 2876              		.loc 1 1485 0
 2877 0008 0D4D     		ldr	r5, .L381+12
 2878              		.loc 1 1475 0
 2879 000a 80B5     		push	{r7, lr}
 2880              		.cfi_def_cfa_offset 8
 2881              		.cfi_offset 7, -8
 2882              		.cfi_offset 14, -4
 2883              		.loc 1 1486 0
 2884 000c 0026     		movs	r6, #0
 2885 000e 0D4F     		ldr	r7, .L381+16
 2886              	.LBB152:
 2887              	.LBB151:
 2888              		.loc 2 135 0
 2889 0010 9A61     		str	r2, [r3, #24]
 2890 0012 05E0     		b	.L375
 2891              	.LVL252:
 2892              	.L380:
 2893              	.LBE151:
 2894              	.LBE152:
 2895              		.loc 1 1483 0
 2896 0014 2360     		str	r3, [r4]
 2897              	.L374:
 2898              		.loc 1 1490 0
 2899 0016 FFF7FEFF 		bl	update_override_limits.constprop.4
 2900              	.LVL253:
 2901              		.loc 1 1492 0
 2902 001a 0A20     		movs	r0, #10
 2903 001c FFF7FEFF 		bl	chThdSleep
 2904              	.LVL254:
 2905              	.L375:
 2906              		.loc 1 1482 0
 2907 0020 2368     		ldr	r3, [r4]
ARM GAS  C:\Users\CHRIST~1\AppData\Local\Temp\ccb3oWGE.s 			page 52


 2908 0022 002B     		cmp	r3, #0
 2909              		.loc 1 1483 0
 2910 0024 03F1FF33 		add	r3, r3, #-1
 2911              		.loc 1 1482 0
 2912 0028 F4DC     		bgt	.L380
 2913              		.loc 1 1485 0
 2914 002a 2B69     		ldr	r3, [r5, #16]
 2915 002c DB04     		lsls	r3, r3, #19
 2916              		.loc 1 1486 0
 2917 002e 48BF     		it	mi
 2918 0030 3E70     		strbmi	r6, [r7]
 2919 0032 F0E7     		b	.L374
 2920              	.L382:
 2921              		.align	2
 2922              	.L381:
 2923 0034 00000000 		.word	ch
 2924 0038 00000000 		.word	.LC2
 2925 003c 00000000 		.word	.LANCHOR14
 2926 0040 00080240 		.word	1073874944
 2927 0044 00000000 		.word	.LANCHOR13
 2928              		.cfi_endproc
 2929              	.LFE310:
 2930              		.size	timer_thread, .-timer_thread
 2931              		.section	.text.mc_interface_get_tachometer_abs_value,"ax",%progbits
 2932              		.align	1
 2933              		.p2align 4,,15
 2934              		.global	mc_interface_get_tachometer_abs_value
 2935              		.syntax unified
 2936              		.thumb
 2937              		.thumb_func
 2938              		.fpu fpv4-sp-d16
 2939              		.type	mc_interface_get_tachometer_abs_value, %function
 2940              	mc_interface_get_tachometer_abs_value:
 2941              	.LFB293:
 2942              		.loc 1 797 0
 2943              		.cfi_startproc
 2944              		@ args = 0, pretend = 0, frame = 0
 2945              		@ frame_needed = 0, uses_anonymous_args = 0
 2946              		@ link register save eliminated.
 2947              	.LVL255:
 2948              		.loc 1 800 0
 2949 0000 064B     		ldr	r3, .L389
 2950 0002 9B78     		ldrb	r3, [r3, #2]	@ zero_extendqisi2
 2951 0004 DBB2     		uxtb	r3, r3
 2952 0006 012B     		cmp	r3, #1
 2953 0008 05D9     		bls	.L385
 2954 000a 022B     		cmp	r3, #2
 2955 000c 01D1     		bne	.L388
 2956              		.loc 1 807 0
 2957 000e FFF7FEBF 		b	mcpwm_foc_get_tachometer_abs_value
 2958              	.LVL256:
 2959              	.L388:
 2960              		.loc 1 815 0
 2961 0012 0020     		movs	r0, #0
 2962              	.LVL257:
 2963 0014 7047     		bx	lr
 2964              	.LVL258:
ARM GAS  C:\Users\CHRIST~1\AppData\Local\Temp\ccb3oWGE.s 			page 53


 2965              	.L385:
 2966              		.loc 1 803 0
 2967 0016 FFF7FEBF 		b	mcpwm_get_tachometer_abs_value
 2968              	.LVL259:
 2969              	.L390:
 2970 001a 00BF     		.align	2
 2971              	.L389:
 2972 001c 00000000 		.word	.LANCHOR12
 2973              		.cfi_endproc
 2974              	.LFE293:
 2975              		.size	mc_interface_get_tachometer_abs_value, .-mc_interface_get_tachometer_abs_value
 2976              		.section	.text.mc_interface_get_last_inj_adc_isr_duration,"ax",%progbits
 2977              		.align	1
 2978              		.p2align 4,,15
 2979              		.global	mc_interface_get_last_inj_adc_isr_duration
 2980              		.syntax unified
 2981              		.thumb
 2982              		.thumb_func
 2983              		.fpu fpv4-sp-d16
 2984              		.type	mc_interface_get_last_inj_adc_isr_duration, %function
 2985              	mc_interface_get_last_inj_adc_isr_duration:
 2986              	.LFB294:
 2987              		.loc 1 817 0
 2988              		.cfi_startproc
 2989              		@ args = 0, pretend = 0, frame = 0
 2990              		@ frame_needed = 0, uses_anonymous_args = 0
 2991              		@ link register save eliminated.
 2992              	.LVL260:
 2993              		.loc 1 820 0
 2994 0000 064B     		ldr	r3, .L397
 2995 0002 9B78     		ldrb	r3, [r3, #2]	@ zero_extendqisi2
 2996 0004 DBB2     		uxtb	r3, r3
 2997 0006 012B     		cmp	r3, #1
 2998 0008 06D9     		bls	.L393
 2999 000a 022B     		cmp	r3, #2
 3000 000c 01D1     		bne	.L396
 3001              		.loc 1 827 0
 3002 000e FFF7FEBF 		b	mcpwm_foc_get_last_inj_adc_isr_duration
 3003              	.LVL261:
 3004              	.L396:
 3005              		.loc 1 835 0
 3006 0012 9FED030A 		vldr.32	s0, .L397+4
 3007 0016 7047     		bx	lr
 3008              	.L393:
 3009              		.loc 1 823 0
 3010 0018 FFF7FEBF 		b	mcpwm_get_last_inj_adc_isr_duration
 3011              	.LVL262:
 3012              	.L398:
 3013              		.align	2
 3014              	.L397:
 3015 001c 00000000 		.word	.LANCHOR12
 3016 0020 00000000 		.word	0
 3017              		.cfi_endproc
 3018              	.LFE294:
 3019              		.size	mc_interface_get_last_inj_adc_isr_duration, .-mc_interface_get_last_inj_adc_isr_duration
 3020              		.section	.text.mc_interface_read_reset_avg_motor_current,"ax",%progbits
 3021              		.align	1
ARM GAS  C:\Users\CHRIST~1\AppData\Local\Temp\ccb3oWGE.s 			page 54


 3022              		.p2align 4,,15
 3023              		.global	mc_interface_read_reset_avg_motor_current
 3024              		.syntax unified
 3025              		.thumb
 3026              		.thumb_func
 3027              		.fpu fpv4-sp-d16
 3028              		.type	mc_interface_read_reset_avg_motor_current, %function
 3029              	mc_interface_read_reset_avg_motor_current:
 3030              	.LFB295:
 3031              		.loc 1 837 0
 3032              		.cfi_startproc
 3033              		@ args = 0, pretend = 0, frame = 0
 3034              		@ frame_needed = 0, uses_anonymous_args = 0
 3035              		@ link register save eliminated.
 3036              		.loc 1 838 0
 3037 0000 0549     		ldr	r1, .L400
 3038 0002 064B     		ldr	r3, .L400+4
 3039 0004 91ED000A 		vldr.32	s0, [r1]
 3040 0008 D3ED007A 		vldr.32	s15, [r3]
 3041              	.LVL263:
 3042              		.loc 1 839 0
 3043 000c 0022     		movs	r2, #0
 3044 000e 0A60     		str	r2, [r1]	@ float
 3045              		.loc 1 842 0
 3046 0010 80EE270A 		vdiv.f32	s0, s0, s15
 3047              	.LVL264:
 3048              		.loc 1 840 0
 3049 0014 1A60     		str	r2, [r3]	@ float
 3050              		.loc 1 842 0
 3051 0016 7047     		bx	lr
 3052              	.L401:
 3053              		.align	2
 3054              	.L400:
 3055 0018 00000000 		.word	.LANCHOR18
 3056 001c 00000000 		.word	.LANCHOR20
 3057              		.cfi_endproc
 3058              	.LFE295:
 3059              		.size	mc_interface_read_reset_avg_motor_current, .-mc_interface_read_reset_avg_motor_current
 3060              		.section	.text.mc_interface_read_reset_avg_input_current,"ax",%progbits
 3061              		.align	1
 3062              		.p2align 4,,15
 3063              		.global	mc_interface_read_reset_avg_input_current
 3064              		.syntax unified
 3065              		.thumb
 3066              		.thumb_func
 3067              		.fpu fpv4-sp-d16
 3068              		.type	mc_interface_read_reset_avg_input_current, %function
 3069              	mc_interface_read_reset_avg_input_current:
 3070              	.LFB296:
 3071              		.loc 1 844 0
 3072              		.cfi_startproc
 3073              		@ args = 0, pretend = 0, frame = 0
 3074              		@ frame_needed = 0, uses_anonymous_args = 0
 3075              		@ link register save eliminated.
 3076              		.loc 1 845 0
 3077 0000 0549     		ldr	r1, .L403
 3078 0002 064B     		ldr	r3, .L403+4
ARM GAS  C:\Users\CHRIST~1\AppData\Local\Temp\ccb3oWGE.s 			page 55


 3079 0004 91ED000A 		vldr.32	s0, [r1]
 3080 0008 D3ED007A 		vldr.32	s15, [r3]
 3081              	.LVL265:
 3082              		.loc 1 846 0
 3083 000c 0022     		movs	r2, #0
 3084 000e 0A60     		str	r2, [r1]	@ float
 3085              		.loc 1 849 0
 3086 0010 80EE270A 		vdiv.f32	s0, s0, s15
 3087              	.LVL266:
 3088              		.loc 1 847 0
 3089 0014 1A60     		str	r2, [r3]	@ float
 3090              		.loc 1 849 0
 3091 0016 7047     		bx	lr
 3092              	.L404:
 3093              		.align	2
 3094              	.L403:
 3095 0018 00000000 		.word	.LANCHOR19
 3096 001c 00000000 		.word	.LANCHOR21
 3097              		.cfi_endproc
 3098              	.LFE296:
 3099              		.size	mc_interface_read_reset_avg_input_current, .-mc_interface_read_reset_avg_input_current
 3100              		.section	.text.mc_interface_read_reset_avg_id,"ax",%progbits
 3101              		.align	1
 3102              		.p2align 4,,15
 3103              		.global	mc_interface_read_reset_avg_id
 3104              		.syntax unified
 3105              		.thumb
 3106              		.thumb_func
 3107              		.fpu fpv4-sp-d16
 3108              		.type	mc_interface_read_reset_avg_id, %function
 3109              	mc_interface_read_reset_avg_id:
 3110              	.LFB297:
 3111              		.loc 1 857 0
 3112              		.cfi_startproc
 3113              		@ args = 0, pretend = 0, frame = 0
 3114              		@ frame_needed = 0, uses_anonymous_args = 0
 3115              		@ link register save eliminated.
 3116              		.loc 1 858 0
 3117 0000 084B     		ldr	r3, .L410
 3118 0002 0949     		ldr	r1, .L410+4
 3119              		.loc 1 861 0
 3120 0004 0948     		ldr	r0, .L410+8
 3121              		.loc 1 858 0
 3122 0006 91ED007A 		vldr.32	s14, [r1]
 3123 000a D3ED007A 		vldr.32	s15, [r3]
 3124              		.loc 1 859 0
 3125 000e 0022     		movs	r2, #0
 3126 0010 0A60     		str	r2, [r1]	@ float
 3127              		.loc 1 860 0
 3128 0012 1A60     		str	r2, [r3]	@ float
 3129              		.loc 1 861 0
 3130 0014 90F85D31 		ldrb	r3, [r0, #349]	@ zero_extendqisi2
 3131              		.loc 1 858 0
 3132 0018 87EE270A 		vdiv.f32	s0, s14, s15
 3133              	.LVL267:
 3134              		.loc 1 861 0
 3135 001c 0BB1     		cbz	r3, .L405
ARM GAS  C:\Users\CHRIST~1\AppData\Local\Temp\ccb3oWGE.s 			page 56


 3136 001e B1EE400A 		vneg.f32	s0, s0
 3137              	.LVL268:
 3138              	.L405:
 3139              		.loc 1 862 0
 3140 0022 7047     		bx	lr
 3141              	.L411:
 3142              		.align	2
 3143              	.L410:
 3144 0024 00000000 		.word	.LANCHOR24
 3145 0028 00000000 		.word	.LANCHOR22
 3146 002c 00000000 		.word	.LANCHOR12
 3147              		.cfi_endproc
 3148              	.LFE297:
 3149              		.size	mc_interface_read_reset_avg_id, .-mc_interface_read_reset_avg_id
 3150              		.section	.text.mc_interface_read_reset_avg_iq,"ax",%progbits
 3151              		.align	1
 3152              		.p2align 4,,15
 3153              		.global	mc_interface_read_reset_avg_iq
 3154              		.syntax unified
 3155              		.thumb
 3156              		.thumb_func
 3157              		.fpu fpv4-sp-d16
 3158              		.type	mc_interface_read_reset_avg_iq, %function
 3159              	mc_interface_read_reset_avg_iq:
 3160              	.LFB298:
 3161              		.loc 1 870 0
 3162              		.cfi_startproc
 3163              		@ args = 0, pretend = 0, frame = 0
 3164              		@ frame_needed = 0, uses_anonymous_args = 0
 3165              		@ link register save eliminated.
 3166              		.loc 1 871 0
 3167 0000 084B     		ldr	r3, .L417
 3168 0002 0949     		ldr	r1, .L417+4
 3169              		.loc 1 874 0
 3170 0004 0948     		ldr	r0, .L417+8
 3171              		.loc 1 871 0
 3172 0006 91ED007A 		vldr.32	s14, [r1]
 3173 000a D3ED007A 		vldr.32	s15, [r3]
 3174              		.loc 1 872 0
 3175 000e 0022     		movs	r2, #0
 3176 0010 0A60     		str	r2, [r1]	@ float
 3177              		.loc 1 873 0
 3178 0012 1A60     		str	r2, [r3]	@ float
 3179              		.loc 1 874 0
 3180 0014 90F85D31 		ldrb	r3, [r0, #349]	@ zero_extendqisi2
 3181              		.loc 1 871 0
 3182 0018 87EE270A 		vdiv.f32	s0, s14, s15
 3183              	.LVL269:
 3184              		.loc 1 874 0
 3185 001c 0BB1     		cbz	r3, .L412
 3186 001e B1EE400A 		vneg.f32	s0, s0
 3187              	.LVL270:
 3188              	.L412:
 3189              		.loc 1 875 0
 3190 0022 7047     		bx	lr
 3191              	.L418:
 3192              		.align	2
ARM GAS  C:\Users\CHRIST~1\AppData\Local\Temp\ccb3oWGE.s 			page 57


 3193              	.L417:
 3194 0024 00000000 		.word	.LANCHOR25
 3195 0028 00000000 		.word	.LANCHOR23
 3196 002c 00000000 		.word	.LANCHOR12
 3197              		.cfi_endproc
 3198              	.LFE298:
 3199              		.size	mc_interface_read_reset_avg_iq, .-mc_interface_read_reset_avg_iq
 3200              		.section	.text.mc_interface_get_pid_pos_set,"ax",%progbits
 3201              		.align	1
 3202              		.p2align 4,,15
 3203              		.global	mc_interface_get_pid_pos_set
 3204              		.syntax unified
 3205              		.thumb
 3206              		.thumb_func
 3207              		.fpu fpv4-sp-d16
 3208              		.type	mc_interface_get_pid_pos_set, %function
 3209              	mc_interface_get_pid_pos_set:
 3210              	.LFB299:
 3211              		.loc 1 877 0
 3212              		.cfi_startproc
 3213              		@ args = 0, pretend = 0, frame = 0
 3214              		@ frame_needed = 0, uses_anonymous_args = 0
 3215              		@ link register save eliminated.
 3216              		.loc 1 878 0
 3217 0000 014B     		ldr	r3, .L420
 3218 0002 93ED000A 		vldr.32	s0, [r3]
 3219              		.loc 1 879 0
 3220 0006 7047     		bx	lr
 3221              	.L421:
 3222              		.align	2
 3223              	.L420:
 3224 0008 00000000 		.word	.LANCHOR30
 3225              		.cfi_endproc
 3226              	.LFE299:
 3227              		.size	mc_interface_get_pid_pos_set, .-mc_interface_get_pid_pos_set
 3228              		.section	.text.mc_interface_get_pid_pos_now,"ax",%progbits
 3229              		.align	1
 3230              		.p2align 4,,15
 3231              		.global	mc_interface_get_pid_pos_now
 3232              		.syntax unified
 3233              		.thumb
 3234              		.thumb_func
 3235              		.fpu fpv4-sp-d16
 3236              		.type	mc_interface_get_pid_pos_now, %function
 3237              	mc_interface_get_pid_pos_now:
 3238              	.LFB300:
 3239              		.loc 1 881 0
 3240              		.cfi_startproc
 3241              		@ args = 0, pretend = 0, frame = 0
 3242              		@ frame_needed = 0, uses_anonymous_args = 0
 3243              	.LVL271:
 3244 0000 10B5     		push	{r4, lr}
 3245              		.cfi_def_cfa_offset 8
 3246              		.cfi_offset 4, -8
 3247              		.cfi_offset 14, -4
 3248              		.loc 1 884 0
 3249 0002 0B4C     		ldr	r4, .L434
ARM GAS  C:\Users\CHRIST~1\AppData\Local\Temp\ccb3oWGE.s 			page 58


 3250 0004 A378     		ldrb	r3, [r4, #2]	@ zero_extendqisi2
 3251 0006 DBB2     		uxtb	r3, r3
 3252 0008 012B     		cmp	r3, #1
 3253 000a 0DD9     		bls	.L424
 3254 000c 022B     		cmp	r3, #2
 3255 000e 08D0     		beq	.L425
 3256              		.loc 1 882 0
 3257 0010 9FED080A 		vldr.32	s0, .L434+4
 3258              	.LVL272:
 3259              	.L423:
 3260              		.loc 1 898 0
 3261 0014 94F85D31 		ldrb	r3, [r4, #349]	@ zero_extendqisi2
 3262 0018 03B9     		cbnz	r3, .L433
 3263              		.loc 1 899 0
 3264 001a 10BD     		pop	{r4, pc}
 3265              	.L433:
 3266 001c B1EE400A 		vneg.f32	s0, s0
 3267              	.LVL273:
 3268 0020 10BD     		pop	{r4, pc}
 3269              	.LVL274:
 3270              	.L425:
 3271              		.loc 1 891 0
 3272 0022 FFF7FEFF 		bl	mcpwm_foc_get_pid_pos_now
 3273              	.LVL275:
 3274              		.loc 1 892 0
 3275 0026 F5E7     		b	.L423
 3276              	.LVL276:
 3277              	.L424:
 3278              		.loc 1 887 0
 3279 0028 FFF7FEFF 		bl	encoder_read_deg
 3280              	.LVL277:
 3281              		.loc 1 888 0
 3282 002c F2E7     		b	.L423
 3283              	.L435:
 3284 002e 00BF     		.align	2
 3285              	.L434:
 3286 0030 00000000 		.word	.LANCHOR12
 3287 0034 00000000 		.word	0
 3288              		.cfi_endproc
 3289              	.LFE300:
 3290              		.size	mc_interface_get_pid_pos_now, .-mc_interface_get_pid_pos_now
 3291              		.section	.text.mc_interface_get_last_sample_adc_isr_duration,"ax",%progbits
 3292              		.align	1
 3293              		.p2align 4,,15
 3294              		.global	mc_interface_get_last_sample_adc_isr_duration
 3295              		.syntax unified
 3296              		.thumb
 3297              		.thumb_func
 3298              		.fpu fpv4-sp-d16
 3299              		.type	mc_interface_get_last_sample_adc_isr_duration, %function
 3300              	mc_interface_get_last_sample_adc_isr_duration:
 3301              	.LFB301:
 3302              		.loc 1 901 0
 3303              		.cfi_startproc
 3304              		@ args = 0, pretend = 0, frame = 0
 3305              		@ frame_needed = 0, uses_anonymous_args = 0
 3306              		@ link register save eliminated.
ARM GAS  C:\Users\CHRIST~1\AppData\Local\Temp\ccb3oWGE.s 			page 59


 3307              		.loc 1 902 0
 3308 0000 014B     		ldr	r3, .L437
 3309 0002 93ED000A 		vldr.32	s0, [r3]
 3310              		.loc 1 903 0
 3311 0006 7047     		bx	lr
 3312              	.L438:
 3313              		.align	2
 3314              	.L437:
 3315 0008 00000000 		.word	.LANCHOR31
 3316              		.cfi_endproc
 3317              	.LFE301:
 3318              		.size	mc_interface_get_last_sample_adc_isr_duration, .-mc_interface_get_last_sample_adc_isr_durati
 3319              		.section	.text.mc_interface_sample_print_data,"ax",%progbits
 3320              		.align	1
 3321              		.p2align 4,,15
 3322              		.global	mc_interface_sample_print_data
 3323              		.syntax unified
 3324              		.thumb
 3325              		.thumb_func
 3326              		.fpu fpv4-sp-d16
 3327              		.type	mc_interface_sample_print_data, %function
 3328              	mc_interface_sample_print_data:
 3329              	.LFB302:
 3330              		.loc 1 905 0
 3331              		.cfi_startproc
 3332              		@ args = 0, pretend = 0, frame = 0
 3333              		@ frame_needed = 0, uses_anonymous_args = 0
 3334              		@ link register save eliminated.
 3335              	.LVL278:
 3336 0000 B1F5FA6F 		cmp	r1, #2000
 3337 0004 28BF     		it	cs
 3338 0006 4FF4FA61 		movcs	r1, #2000
 3339              	.LVL279:
 3340              		.loc 1 910 0
 3341 000a 0728     		cmp	r0, #7
 3342 000c 0FD0     		beq	.L443
 3343              		.loc 1 905 0
 3344 000e F0B4     		push	{r4, r5, r6, r7}
 3345              		.cfi_def_cfa_offset 16
 3346              		.cfi_offset 4, -16
 3347              		.cfi_offset 5, -12
 3348              		.cfi_offset 6, -8
 3349              		.cfi_offset 7, -4
 3350              		.loc 1 913 0
 3351 0010 094E     		ldr	r6, .L444
 3352              		.loc 1 914 0
 3353 0012 0A4B     		ldr	r3, .L444+4
 3354              		.loc 1 915 0
 3355 0014 0A4D     		ldr	r5, .L444+8
 3356              		.loc 1 916 0
 3357 0016 0B4C     		ldr	r4, .L444+12
 3358              		.loc 1 913 0
 3359 0018 4FF0FF37 		mov	r7, #-1
 3360 001c 3760     		str	r7, [r6]
 3361              		.loc 1 914 0
 3362 001e 0026     		movs	r6, #0
 3363 0020 1E60     		str	r6, [r3]
ARM GAS  C:\Users\CHRIST~1\AppData\Local\Temp\ccb3oWGE.s 			page 60


 3364              		.loc 1 917 0
 3365 0022 094B     		ldr	r3, .L444+16
 3366              		.loc 1 915 0
 3367 0024 2960     		str	r1, [r5]
 3368              		.loc 1 916 0
 3369 0026 2260     		str	r2, [r4]
 3370              		.loc 1 917 0
 3371 0028 1870     		strb	r0, [r3]
 3372              		.loc 1 919 0
 3373 002a F0BC     		pop	{r4, r5, r6, r7}
 3374              		.cfi_restore 7
 3375              		.cfi_restore 6
 3376              		.cfi_restore 5
 3377              		.cfi_restore 4
 3378              		.cfi_def_cfa_offset 0
 3379 002c 7047     		bx	lr
 3380              	.L443:
 3381              		.loc 1 911 0
 3382 002e 074B     		ldr	r3, .L444+20
 3383 0030 0121     		movs	r1, #1
 3384              	.LVL280:
 3385 0032 1868     		ldr	r0, [r3]
 3386              	.LVL281:
 3387 0034 FFF7FEBF 		b	chEvtSignal
 3388              	.LVL282:
 3389              	.L445:
 3390              		.align	2
 3391              	.L444:
 3392 0038 00000000 		.word	.LANCHOR3
 3393 003c 00000000 		.word	.LANCHOR35
 3394 0040 00000000 		.word	.LANCHOR2
 3395 0044 00000000 		.word	.LANCHOR34
 3396 0048 00000000 		.word	.LANCHOR36
 3397 004c 00000000 		.word	.LANCHOR0
 3398              		.cfi_endproc
 3399              	.LFE302:
 3400              		.size	mc_interface_sample_print_data, .-mc_interface_sample_print_data
 3401              		.section	.text.mc_interface_temp_fet_filtered,"ax",%progbits
 3402              		.align	1
 3403              		.p2align 4,,15
 3404              		.global	mc_interface_temp_fet_filtered
 3405              		.syntax unified
 3406              		.thumb
 3407              		.thumb_func
 3408              		.fpu fpv4-sp-d16
 3409              		.type	mc_interface_temp_fet_filtered, %function
 3410              	mc_interface_temp_fet_filtered:
 3411              	.LFB303:
 3412              		.loc 1 928 0
 3413              		.cfi_startproc
 3414              		@ args = 0, pretend = 0, frame = 0
 3415              		@ frame_needed = 0, uses_anonymous_args = 0
 3416              		@ link register save eliminated.
 3417              		.loc 1 929 0
 3418 0000 014B     		ldr	r3, .L447
 3419 0002 93ED000A 		vldr.32	s0, [r3]
 3420              		.loc 1 930 0
ARM GAS  C:\Users\CHRIST~1\AppData\Local\Temp\ccb3oWGE.s 			page 61


 3421 0006 7047     		bx	lr
 3422              	.L448:
 3423              		.align	2
 3424              	.L447:
 3425 0008 00000000 		.word	.LANCHOR32
 3426              		.cfi_endproc
 3427              	.LFE303:
 3428              		.size	mc_interface_temp_fet_filtered, .-mc_interface_temp_fet_filtered
 3429              		.section	.text.mc_interface_temp_motor_filtered,"ax",%progbits
 3430              		.align	1
 3431              		.p2align 4,,15
 3432              		.global	mc_interface_temp_motor_filtered
 3433              		.syntax unified
 3434              		.thumb
 3435              		.thumb_func
 3436              		.fpu fpv4-sp-d16
 3437              		.type	mc_interface_temp_motor_filtered, %function
 3438              	mc_interface_temp_motor_filtered:
 3439              	.LFB304:
 3440              		.loc 1 939 0
 3441              		.cfi_startproc
 3442              		@ args = 0, pretend = 0, frame = 0
 3443              		@ frame_needed = 0, uses_anonymous_args = 0
 3444              		@ link register save eliminated.
 3445              		.loc 1 940 0
 3446 0000 014B     		ldr	r3, .L450
 3447 0002 93ED000A 		vldr.32	s0, [r3]
 3448              		.loc 1 941 0
 3449 0006 7047     		bx	lr
 3450              	.L451:
 3451              		.align	2
 3452              	.L450:
 3453 0008 00000000 		.word	.LANCHOR33
 3454              		.cfi_endproc
 3455              	.LFE304:
 3456              		.size	mc_interface_temp_motor_filtered, .-mc_interface_temp_motor_filtered
 3457              		.section	.text.mc_interface_try_input,"ax",%progbits
 3458              		.align	1
 3459              		.p2align 4,,15
 3460              		.global	mc_interface_try_input
 3461              		.syntax unified
 3462              		.thumb
 3463              		.thumb_func
 3464              		.fpu fpv4-sp-d16
 3465              		.type	mc_interface_try_input, %function
 3466              	mc_interface_try_input:
 3467              	.LFB305:
 3468              		.loc 1 953 0
 3469              		.cfi_startproc
 3470              		@ args = 0, pretend = 0, frame = 0
 3471              		@ frame_needed = 0, uses_anonymous_args = 0
 3472 0000 10B5     		push	{r4, lr}
 3473              		.cfi_def_cfa_offset 8
 3474              		.cfi_offset 4, -8
 3475              		.cfi_offset 14, -4
 3476              		.loc 1 955 0
 3477 0002 FFF7FEFF 		bl	mc_interface_get_state
ARM GAS  C:\Users\CHRIST~1\AppData\Local\Temp\ccb3oWGE.s 			page 62


 3478              	.LVL283:
 3479 0006 0128     		cmp	r0, #1
 3480 0008 22D0     		beq	.L467
 3481              		.loc 1 960 0
 3482 000a 164B     		ldr	r3, .L471
 3483 000c 1C68     		ldr	r4, [r3]
 3484              	.LVL284:
 3485              		.loc 1 962 0
 3486 000e 14B9     		cbnz	r4, .L454
 3487              		.loc 1 962 0 is_stmt 0 discriminator 1
 3488 0010 154B     		ldr	r3, .L471+4
 3489 0012 1B78     		ldrb	r3, [r3]	@ zero_extendqisi2
 3490 0014 63B9     		cbnz	r3, .L468
 3491              	.LVL285:
 3492              	.L454:
 3493              		.loc 1 970 0 is_stmt 1
 3494 0016 154B     		ldr	r3, .L471+8
 3495 0018 9B78     		ldrb	r3, [r3, #2]	@ zero_extendqisi2
 3496 001a DBB2     		uxtb	r3, r3
 3497 001c 012B     		cmp	r3, #1
 3498 001e 11D9     		bls	.L456
 3499              	.L470:
 3500 0020 022B     		cmp	r3, #2
 3501 0022 03D1     		bne	.L452
 3502              		.loc 1 979 0
 3503 0024 FFF7FEFF 		bl	mcpwm_foc_init_done
 3504              	.LVL286:
 3505 0028 00B9     		cbnz	r0, .L452
 3506              	.LVL287:
 3507              		.loc 1 974 0
 3508 002a 0124     		movs	r4, #1
 3509              	.LVL288:
 3510              	.L452:
 3511              		.loc 1 989 0
 3512 002c 2046     		mov	r0, r4
 3513 002e 10BD     		pop	{r4, pc}
 3514              	.LVL289:
 3515              	.L468:
 3516              		.loc 1 963 0
 3517 0030 0F4B     		ldr	r3, .L471+12
 3518 0032 1A78     		ldrb	r2, [r3]	@ zero_extendqisi2
 3519 0034 9AB9     		cbnz	r2, .L469
 3520              		.loc 1 970 0
 3521 0036 0D4B     		ldr	r3, .L471+8
 3522 0038 9B78     		ldrb	r3, [r3, #2]	@ zero_extendqisi2
 3523 003a DBB2     		uxtb	r3, r3
 3524 003c 012B     		cmp	r3, #1
 3525              		.loc 1 964 0
 3526 003e 4FF00104 		mov	r4, #1
 3527              	.LVL290:
 3528              		.loc 1 970 0
 3529 0042 EDD8     		bhi	.L470
 3530              	.L456:
 3531              		.loc 1 973 0
 3532 0044 FFF7FEFF 		bl	mcpwm_init_done
 3533              	.LVL291:
 3534 0048 0028     		cmp	r0, #0
ARM GAS  C:\Users\CHRIST~1\AppData\Local\Temp\ccb3oWGE.s 			page 63


 3535 004a EFD1     		bne	.L452
 3536              	.LVL292:
 3537              		.loc 1 974 0
 3538 004c 0124     		movs	r4, #1
 3539 004e EDE7     		b	.L452
 3540              	.LVL293:
 3541              	.L467:
 3542              		.loc 1 956 0
 3543 0050 FFF7FEFF 		bl	mcpwm_stop_pwm
 3544              	.LVL294:
 3545              		.loc 1 957 0
 3546 0054 034B     		ldr	r3, .L471
 3547 0056 4FF4FA74 		mov	r4, #500
 3548 005a 1C60     		str	r4, [r3]
 3549              	.LVL295:
 3550 005c DBE7     		b	.L454
 3551              	.LVL296:
 3552              	.L469:
 3553              		.loc 1 966 0
 3554 005e 1C70     		strb	r4, [r3]
 3555 0060 D9E7     		b	.L454
 3556              	.L472:
 3557 0062 00BF     		.align	2
 3558              	.L471:
 3559 0064 00000000 		.word	.LANCHOR14
 3560 0068 00000000 		.word	.LANCHOR16
 3561 006c 00000000 		.word	.LANCHOR12
 3562 0070 00000000 		.word	.LANCHOR17
 3563              		.cfi_endproc
 3564              	.LFE305:
 3565              		.size	mc_interface_try_input, .-mc_interface_try_input
 3566              		.section	.text.mc_interface_set_duty,"ax",%progbits
 3567              		.align	1
 3568              		.p2align 4,,15
 3569              		.global	mc_interface_set_duty
 3570              		.syntax unified
 3571              		.thumb
 3572              		.thumb_func
 3573              		.fpu fpv4-sp-d16
 3574              		.type	mc_interface_set_duty, %function
 3575              	mc_interface_set_duty:
 3576              	.LFB267:
 3577              		.loc 1 320 0
 3578              		.cfi_startproc
 3579              		@ args = 0, pretend = 0, frame = 0
 3580              		@ frame_needed = 0, uses_anonymous_args = 0
 3581              	.LVL297:
 3582 0000 08B5     		push	{r3, lr}
 3583              		.cfi_def_cfa_offset 8
 3584              		.cfi_offset 3, -8
 3585              		.cfi_offset 14, -4
 3586 0002 2DED028B 		vpush.64	{d8}
 3587              		.cfi_def_cfa_offset 16
 3588              		.cfi_offset 80, -16
 3589              		.cfi_offset 81, -12
 3590              		.loc 1 320 0
 3591 0006 B0EE408A 		vmov.f32	s16, s0
ARM GAS  C:\Users\CHRIST~1\AppData\Local\Temp\ccb3oWGE.s 			page 64


 3592              		.loc 1 321 0
 3593 000a FFF7FEFF 		bl	mc_interface_try_input
 3594              	.LVL298:
 3595 000e 98B9     		cbnz	r0, .L473
 3596              		.loc 1 325 0
 3597 0010 114A     		ldr	r2, .L486
 3598 0012 9378     		ldrb	r3, [r2, #2]	@ zero_extendqisi2
 3599 0014 DBB2     		uxtb	r3, r3
 3600 0016 012B     		cmp	r3, #1
 3601 0018 11D9     		bls	.L475
 3602 001a 022B     		cmp	r3, #2
 3603 001c 0CD1     		bne	.L473
 3604              		.loc 1 332 0
 3605 001e 92F85D31 		ldrb	r3, [r2, #349]	@ zero_extendqisi2
 3606 0022 0BB1     		cbz	r3, .L478
 3607 0024 B1EE488A 		vneg.f32	s16, s16
 3608              	.LVL299:
 3609              	.L478:
 3610              		.loc 1 332 0 is_stmt 0 discriminator 4
 3611 0028 B0EE480A 		vmov.f32	s0, s16
 3612              		.loc 1 338 0 is_stmt 1 discriminator 4
 3613 002c BDEC028B 		vldm	sp!, {d8}
 3614              		.cfi_remember_state
 3615              		.cfi_restore 80
 3616              		.cfi_restore 81
 3617              		.cfi_def_cfa_offset 8
 3618 0030 BDE80840 		pop	{r3, lr}
 3619              		.cfi_restore 14
 3620              		.cfi_restore 3
 3621              		.cfi_def_cfa_offset 0
 3622              		.loc 1 332 0 discriminator 4
 3623 0034 FFF7FEBF 		b	mcpwm_foc_set_duty
 3624              	.LVL300:
 3625              	.L473:
 3626              		.cfi_restore_state
 3627              		.loc 1 338 0
 3628 0038 BDEC028B 		vldm	sp!, {d8}
 3629              		.cfi_remember_state
 3630              		.cfi_restore 80
 3631              		.cfi_restore 81
 3632              		.cfi_def_cfa_offset 8
 3633              	.LVL301:
 3634 003c 08BD     		pop	{r3, pc}
 3635              	.LVL302:
 3636              	.L475:
 3637              		.cfi_restore_state
 3638              	.LBB155:
 3639              	.LBB156:
 3640              		.loc 1 328 0
 3641 003e 92F85D31 		ldrb	r3, [r2, #349]	@ zero_extendqisi2
 3642 0042 0BB1     		cbz	r3, .L477
 3643 0044 B1EE488A 		vneg.f32	s16, s16
 3644              	.LVL303:
 3645              	.L477:
 3646 0048 B0EE480A 		vmov.f32	s0, s16
 3647              	.LBE156:
 3648              	.LBE155:
ARM GAS  C:\Users\CHRIST~1\AppData\Local\Temp\ccb3oWGE.s 			page 65


 3649              		.loc 1 338 0
 3650 004c BDEC028B 		vldm	sp!, {d8}
 3651              		.cfi_restore 80
 3652              		.cfi_restore 81
 3653              		.cfi_def_cfa_offset 8
 3654 0050 BDE80840 		pop	{r3, lr}
 3655              		.cfi_restore 14
 3656              		.cfi_restore 3
 3657              		.cfi_def_cfa_offset 0
 3658              	.LBB158:
 3659              	.LBB157:
 3660              		.loc 1 328 0
 3661 0054 FFF7FEBF 		b	mcpwm_set_duty
 3662              	.LVL304:
 3663              	.L487:
 3664              		.align	2
 3665              	.L486:
 3666 0058 00000000 		.word	.LANCHOR12
 3667              	.LBE157:
 3668              	.LBE158:
 3669              		.cfi_endproc
 3670              	.LFE267:
 3671              		.size	mc_interface_set_duty, .-mc_interface_set_duty
 3672              		.section	.text.mc_interface_brake_now,"ax",%progbits
 3673              		.align	1
 3674              		.p2align 4,,15
 3675              		.global	mc_interface_brake_now
 3676              		.syntax unified
 3677              		.thumb
 3678              		.thumb_func
 3679              		.fpu fpv4-sp-d16
 3680              		.type	mc_interface_brake_now, %function
 3681              	mc_interface_brake_now:
 3682              	.LFB276:
 3683              		.loc 1 487 0
 3684              		.cfi_startproc
 3685              		@ args = 0, pretend = 0, frame = 0
 3686              		@ frame_needed = 0, uses_anonymous_args = 0
 3687              		@ link register save eliminated.
 3688              		.loc 1 488 0
 3689 0000 9FED010A 		vldr.32	s0, .L489
 3690 0004 FFF7FEBF 		b	mc_interface_set_duty
 3691              	.LVL305:
 3692              	.L490:
 3693              		.align	2
 3694              	.L489:
 3695 0008 00000000 		.word	0
 3696              		.cfi_endproc
 3697              	.LFE276:
 3698              		.size	mc_interface_brake_now, .-mc_interface_brake_now
 3699              		.section	.text.mc_interface_set_duty_noramp,"ax",%progbits
 3700              		.align	1
 3701              		.p2align 4,,15
 3702              		.global	mc_interface_set_duty_noramp
 3703              		.syntax unified
 3704              		.thumb
 3705              		.thumb_func
ARM GAS  C:\Users\CHRIST~1\AppData\Local\Temp\ccb3oWGE.s 			page 66


 3706              		.fpu fpv4-sp-d16
 3707              		.type	mc_interface_set_duty_noramp, %function
 3708              	mc_interface_set_duty_noramp:
 3709              	.LFB268:
 3710              		.loc 1 340 0
 3711              		.cfi_startproc
 3712              		@ args = 0, pretend = 0, frame = 0
 3713              		@ frame_needed = 0, uses_anonymous_args = 0
 3714              	.LVL306:
 3715 0000 08B5     		push	{r3, lr}
 3716              		.cfi_def_cfa_offset 8
 3717              		.cfi_offset 3, -8
 3718              		.cfi_offset 14, -4
 3719 0002 2DED028B 		vpush.64	{d8}
 3720              		.cfi_def_cfa_offset 16
 3721              		.cfi_offset 80, -16
 3722              		.cfi_offset 81, -12
 3723              		.loc 1 340 0
 3724 0006 B0EE408A 		vmov.f32	s16, s0
 3725              		.loc 1 341 0
 3726 000a FFF7FEFF 		bl	mc_interface_try_input
 3727              	.LVL307:
 3728 000e 98B9     		cbnz	r0, .L491
 3729              		.loc 1 345 0
 3730 0010 114A     		ldr	r2, .L504
 3731 0012 9378     		ldrb	r3, [r2, #2]	@ zero_extendqisi2
 3732 0014 DBB2     		uxtb	r3, r3
 3733 0016 012B     		cmp	r3, #1
 3734 0018 11D9     		bls	.L493
 3735 001a 022B     		cmp	r3, #2
 3736 001c 0CD1     		bne	.L491
 3737              		.loc 1 352 0
 3738 001e 92F85D31 		ldrb	r3, [r2, #349]	@ zero_extendqisi2
 3739 0022 0BB1     		cbz	r3, .L496
 3740 0024 B1EE488A 		vneg.f32	s16, s16
 3741              	.LVL308:
 3742              	.L496:
 3743              		.loc 1 352 0 is_stmt 0 discriminator 4
 3744 0028 B0EE480A 		vmov.f32	s0, s16
 3745              		.loc 1 358 0 is_stmt 1 discriminator 4
 3746 002c BDEC028B 		vldm	sp!, {d8}
 3747              		.cfi_remember_state
 3748              		.cfi_restore 80
 3749              		.cfi_restore 81
 3750              		.cfi_def_cfa_offset 8
 3751 0030 BDE80840 		pop	{r3, lr}
 3752              		.cfi_restore 14
 3753              		.cfi_restore 3
 3754              		.cfi_def_cfa_offset 0
 3755              		.loc 1 352 0 discriminator 4
 3756 0034 FFF7FEBF 		b	mcpwm_foc_set_duty_noramp
 3757              	.LVL309:
 3758              	.L491:
 3759              		.cfi_restore_state
 3760              		.loc 1 358 0
 3761 0038 BDEC028B 		vldm	sp!, {d8}
 3762              		.cfi_remember_state
ARM GAS  C:\Users\CHRIST~1\AppData\Local\Temp\ccb3oWGE.s 			page 67


 3763              		.cfi_restore 80
 3764              		.cfi_restore 81
 3765              		.cfi_def_cfa_offset 8
 3766              	.LVL310:
 3767 003c 08BD     		pop	{r3, pc}
 3768              	.LVL311:
 3769              	.L493:
 3770              		.cfi_restore_state
 3771              		.loc 1 348 0
 3772 003e 92F85D31 		ldrb	r3, [r2, #349]	@ zero_extendqisi2
 3773 0042 0BB1     		cbz	r3, .L495
 3774 0044 B1EE488A 		vneg.f32	s16, s16
 3775              	.LVL312:
 3776              	.L495:
 3777              		.loc 1 348 0 is_stmt 0 discriminator 4
 3778 0048 B0EE480A 		vmov.f32	s0, s16
 3779              		.loc 1 358 0 is_stmt 1 discriminator 4
 3780 004c BDEC028B 		vldm	sp!, {d8}
 3781              		.cfi_restore 80
 3782              		.cfi_restore 81
 3783              		.cfi_def_cfa_offset 8
 3784 0050 BDE80840 		pop	{r3, lr}
 3785              		.cfi_restore 14
 3786              		.cfi_restore 3
 3787              		.cfi_def_cfa_offset 0
 3788              		.loc 1 348 0 discriminator 4
 3789 0054 FFF7FEBF 		b	mcpwm_set_duty_noramp
 3790              	.LVL313:
 3791              	.L505:
 3792              		.align	2
 3793              	.L504:
 3794 0058 00000000 		.word	.LANCHOR12
 3795              		.cfi_endproc
 3796              	.LFE268:
 3797              		.size	mc_interface_set_duty_noramp, .-mc_interface_set_duty_noramp
 3798              		.section	.text.mc_interface_set_pid_speed,"ax",%progbits
 3799              		.align	1
 3800              		.p2align 4,,15
 3801              		.global	mc_interface_set_pid_speed
 3802              		.syntax unified
 3803              		.thumb
 3804              		.thumb_func
 3805              		.fpu fpv4-sp-d16
 3806              		.type	mc_interface_set_pid_speed, %function
 3807              	mc_interface_set_pid_speed:
 3808              	.LFB269:
 3809              		.loc 1 360 0
 3810              		.cfi_startproc
 3811              		@ args = 0, pretend = 0, frame = 0
 3812              		@ frame_needed = 0, uses_anonymous_args = 0
 3813              	.LVL314:
 3814 0000 08B5     		push	{r3, lr}
 3815              		.cfi_def_cfa_offset 8
 3816              		.cfi_offset 3, -8
 3817              		.cfi_offset 14, -4
 3818 0002 2DED028B 		vpush.64	{d8}
 3819              		.cfi_def_cfa_offset 16
ARM GAS  C:\Users\CHRIST~1\AppData\Local\Temp\ccb3oWGE.s 			page 68


 3820              		.cfi_offset 80, -16
 3821              		.cfi_offset 81, -12
 3822              		.loc 1 360 0
 3823 0006 B0EE408A 		vmov.f32	s16, s0
 3824              		.loc 1 361 0
 3825 000a FFF7FEFF 		bl	mc_interface_try_input
 3826              	.LVL315:
 3827 000e 98B9     		cbnz	r0, .L506
 3828              		.loc 1 365 0
 3829 0010 114A     		ldr	r2, .L519
 3830 0012 9378     		ldrb	r3, [r2, #2]	@ zero_extendqisi2
 3831 0014 DBB2     		uxtb	r3, r3
 3832 0016 012B     		cmp	r3, #1
 3833 0018 11D9     		bls	.L508
 3834 001a 022B     		cmp	r3, #2
 3835 001c 0CD1     		bne	.L506
 3836              		.loc 1 372 0
 3837 001e 92F85D31 		ldrb	r3, [r2, #349]	@ zero_extendqisi2
 3838 0022 0BB1     		cbz	r3, .L511
 3839 0024 B1EE488A 		vneg.f32	s16, s16
 3840              	.LVL316:
 3841              	.L511:
 3842              		.loc 1 372 0 is_stmt 0 discriminator 4
 3843 0028 B0EE480A 		vmov.f32	s0, s16
 3844              		.loc 1 378 0 is_stmt 1 discriminator 4
 3845 002c BDEC028B 		vldm	sp!, {d8}
 3846              		.cfi_remember_state
 3847              		.cfi_restore 80
 3848              		.cfi_restore 81
 3849              		.cfi_def_cfa_offset 8
 3850 0030 BDE80840 		pop	{r3, lr}
 3851              		.cfi_restore 14
 3852              		.cfi_restore 3
 3853              		.cfi_def_cfa_offset 0
 3854              		.loc 1 372 0 discriminator 4
 3855 0034 FFF7FEBF 		b	mcpwm_foc_set_pid_speed
 3856              	.LVL317:
 3857              	.L506:
 3858              		.cfi_restore_state
 3859              		.loc 1 378 0
 3860 0038 BDEC028B 		vldm	sp!, {d8}
 3861              		.cfi_remember_state
 3862              		.cfi_restore 80
 3863              		.cfi_restore 81
 3864              		.cfi_def_cfa_offset 8
 3865              	.LVL318:
 3866 003c 08BD     		pop	{r3, pc}
 3867              	.LVL319:
 3868              	.L508:
 3869              		.cfi_restore_state
 3870              		.loc 1 368 0
 3871 003e 92F85D31 		ldrb	r3, [r2, #349]	@ zero_extendqisi2
 3872 0042 0BB1     		cbz	r3, .L510
 3873 0044 B1EE488A 		vneg.f32	s16, s16
 3874              	.LVL320:
 3875              	.L510:
 3876              		.loc 1 368 0 is_stmt 0 discriminator 4
ARM GAS  C:\Users\CHRIST~1\AppData\Local\Temp\ccb3oWGE.s 			page 69


 3877 0048 B0EE480A 		vmov.f32	s0, s16
 3878              		.loc 1 378 0 is_stmt 1 discriminator 4
 3879 004c BDEC028B 		vldm	sp!, {d8}
 3880              		.cfi_restore 80
 3881              		.cfi_restore 81
 3882              		.cfi_def_cfa_offset 8
 3883 0050 BDE80840 		pop	{r3, lr}
 3884              		.cfi_restore 14
 3885              		.cfi_restore 3
 3886              		.cfi_def_cfa_offset 0
 3887              		.loc 1 368 0 discriminator 4
 3888 0054 FFF7FEBF 		b	mcpwm_set_pid_speed
 3889              	.LVL321:
 3890              	.L520:
 3891              		.align	2
 3892              	.L519:
 3893 0058 00000000 		.word	.LANCHOR12
 3894              		.cfi_endproc
 3895              	.LFE269:
 3896              		.size	mc_interface_set_pid_speed, .-mc_interface_set_pid_speed
 3897              		.section	.text.mc_interface_set_pid_pos,"ax",%progbits
 3898              		.align	1
 3899              		.p2align 4,,15
 3900              		.global	mc_interface_set_pid_pos
 3901              		.syntax unified
 3902              		.thumb
 3903              		.thumb_func
 3904              		.fpu fpv4-sp-d16
 3905              		.type	mc_interface_set_pid_pos, %function
 3906              	mc_interface_set_pid_pos:
 3907              	.LFB270:
 3908              		.loc 1 380 0
 3909              		.cfi_startproc
 3910              		@ args = 0, pretend = 0, frame = 0
 3911              		@ frame_needed = 0, uses_anonymous_args = 0
 3912              	.LVL322:
 3913 0000 08B5     		push	{r3, lr}
 3914              		.cfi_def_cfa_offset 8
 3915              		.cfi_offset 3, -8
 3916              		.cfi_offset 14, -4
 3917 0002 2DED028B 		vpush.64	{d8}
 3918              		.cfi_def_cfa_offset 16
 3919              		.cfi_offset 80, -16
 3920              		.cfi_offset 81, -12
 3921              		.loc 1 380 0
 3922 0006 B0EE408A 		vmov.f32	s16, s0
 3923              		.loc 1 381 0
 3924 000a FFF7FEFF 		bl	mc_interface_try_input
 3925              	.LVL323:
 3926 000e E8B9     		cbnz	r0, .L521
 3927              		.loc 1 385 0
 3928 0010 1A4A     		ldr	r2, .L530
 3929              		.loc 1 387 0
 3930 0012 1B49     		ldr	r1, .L530+4
 3931              		.loc 1 385 0
 3932 0014 82ED008A 		vstr.32	s16, [r2]
 3933              		.loc 1 387 0
ARM GAS  C:\Users\CHRIST~1\AppData\Local\Temp\ccb3oWGE.s 			page 70


 3934 0018 8B78     		ldrb	r3, [r1, #2]	@ zero_extendqisi2
 3935 001a DBB2     		uxtb	r3, r3
 3936 001c 012B     		cmp	r3, #1
 3937 001e 18D9     		bls	.L523
 3938 0020 022B     		cmp	r3, #2
 3939 0022 13D1     		bne	.L521
 3940              		.loc 1 400 0
 3941 0024 BDEC028B 		vldm	sp!, {d8}
 3942              		.cfi_remember_state
 3943              		.cfi_restore 80
 3944              		.cfi_restore 81
 3945              		.cfi_def_cfa_offset 8
 3946              	.LVL324:
 3947              		.loc 1 394 0
 3948 0028 91F85D31 		ldrb	r3, [r1, #349]	@ zero_extendqisi2
 3949 002c 92ED000A 		vldr.32	s0, [r2]
 3950 0030 002B     		cmp	r3, #0
 3951 0032 FFEE007A 		vmov.f32	s15, #-1.0e+0
 3952 0036 B7EE007A 		vmov.f32	s14, #1.0e+0
 3953 003a 08BF     		it	eq
 3954 003c F0EE477A 		vmoveq.f32	s15, s14
 3955 0040 20EE270A 		vmul.f32	s0, s0, s15
 3956              		.loc 1 400 0
 3957 0044 BDE80840 		pop	{r3, lr}
 3958              		.cfi_restore 14
 3959              		.cfi_restore 3
 3960              		.cfi_def_cfa_offset 0
 3961              		.loc 1 394 0
 3962 0048 FFF7FEBF 		b	mcpwm_foc_set_pid_pos
 3963              	.LVL325:
 3964              	.L521:
 3965              		.cfi_restore_state
 3966              		.loc 1 400 0
 3967 004c BDEC028B 		vldm	sp!, {d8}
 3968              		.cfi_remember_state
 3969              		.cfi_restore 80
 3970              		.cfi_restore 81
 3971              		.cfi_def_cfa_offset 8
 3972              	.LVL326:
 3973 0050 08BD     		pop	{r3, pc}
 3974              	.LVL327:
 3975              	.L523:
 3976              		.cfi_restore_state
 3977 0052 BDEC028B 		vldm	sp!, {d8}
 3978              		.cfi_restore 80
 3979              		.cfi_restore 81
 3980              		.cfi_def_cfa_offset 8
 3981              	.LVL328:
 3982              		.loc 1 390 0
 3983 0056 91F85D31 		ldrb	r3, [r1, #349]	@ zero_extendqisi2
 3984 005a 92ED000A 		vldr.32	s0, [r2]
 3985 005e 002B     		cmp	r3, #0
 3986 0060 FFEE007A 		vmov.f32	s15, #-1.0e+0
 3987 0064 B7EE007A 		vmov.f32	s14, #1.0e+0
 3988 0068 08BF     		it	eq
 3989 006a F0EE477A 		vmoveq.f32	s15, s14
 3990 006e 20EE270A 		vmul.f32	s0, s0, s15
ARM GAS  C:\Users\CHRIST~1\AppData\Local\Temp\ccb3oWGE.s 			page 71


 3991              		.loc 1 400 0
 3992 0072 BDE80840 		pop	{r3, lr}
 3993              		.cfi_restore 14
 3994              		.cfi_restore 3
 3995              		.cfi_def_cfa_offset 0
 3996              		.loc 1 390 0
 3997 0076 FFF7FEBF 		b	mcpwm_set_pid_pos
 3998              	.LVL329:
 3999              	.L531:
 4000 007a 00BF     		.align	2
 4001              	.L530:
 4002 007c 00000000 		.word	.LANCHOR30
 4003 0080 00000000 		.word	.LANCHOR12
 4004              		.cfi_endproc
 4005              	.LFE270:
 4006              		.size	mc_interface_set_pid_pos, .-mc_interface_set_pid_pos
 4007              		.section	.text.mc_interface_set_current,"ax",%progbits
 4008              		.align	1
 4009              		.p2align 4,,15
 4010              		.global	mc_interface_set_current
 4011              		.syntax unified
 4012              		.thumb
 4013              		.thumb_func
 4014              		.fpu fpv4-sp-d16
 4015              		.type	mc_interface_set_current, %function
 4016              	mc_interface_set_current:
 4017              	.LFB271:
 4018              		.loc 1 402 0
 4019              		.cfi_startproc
 4020              		@ args = 0, pretend = 0, frame = 0
 4021              		@ frame_needed = 0, uses_anonymous_args = 0
 4022              	.LVL330:
 4023 0000 08B5     		push	{r3, lr}
 4024              		.cfi_def_cfa_offset 8
 4025              		.cfi_offset 3, -8
 4026              		.cfi_offset 14, -4
 4027 0002 2DED028B 		vpush.64	{d8}
 4028              		.cfi_def_cfa_offset 16
 4029              		.cfi_offset 80, -16
 4030              		.cfi_offset 81, -12
 4031              		.loc 1 402 0
 4032 0006 B0EE408A 		vmov.f32	s16, s0
 4033              		.loc 1 403 0
 4034 000a FFF7FEFF 		bl	mc_interface_try_input
 4035              	.LVL331:
 4036 000e 98B9     		cbnz	r0, .L532
 4037              		.loc 1 407 0
 4038 0010 114A     		ldr	r2, .L545
 4039 0012 9378     		ldrb	r3, [r2, #2]	@ zero_extendqisi2
 4040 0014 DBB2     		uxtb	r3, r3
 4041 0016 012B     		cmp	r3, #1
 4042 0018 11D9     		bls	.L534
 4043 001a 022B     		cmp	r3, #2
 4044 001c 0CD1     		bne	.L532
 4045              		.loc 1 414 0
 4046 001e 92F85D31 		ldrb	r3, [r2, #349]	@ zero_extendqisi2
 4047 0022 0BB1     		cbz	r3, .L537
ARM GAS  C:\Users\CHRIST~1\AppData\Local\Temp\ccb3oWGE.s 			page 72


 4048 0024 B1EE488A 		vneg.f32	s16, s16
 4049              	.LVL332:
 4050              	.L537:
 4051              		.loc 1 414 0 is_stmt 0 discriminator 4
 4052 0028 B0EE480A 		vmov.f32	s0, s16
 4053              		.loc 1 420 0 is_stmt 1 discriminator 4
 4054 002c BDEC028B 		vldm	sp!, {d8}
 4055              		.cfi_remember_state
 4056              		.cfi_restore 80
 4057              		.cfi_restore 81
 4058              		.cfi_def_cfa_offset 8
 4059 0030 BDE80840 		pop	{r3, lr}
 4060              		.cfi_restore 14
 4061              		.cfi_restore 3
 4062              		.cfi_def_cfa_offset 0
 4063              		.loc 1 414 0 discriminator 4
 4064 0034 FFF7FEBF 		b	mcpwm_foc_set_current
 4065              	.LVL333:
 4066              	.L532:
 4067              		.cfi_restore_state
 4068              		.loc 1 420 0
 4069 0038 BDEC028B 		vldm	sp!, {d8}
 4070              		.cfi_remember_state
 4071              		.cfi_restore 80
 4072              		.cfi_restore 81
 4073              		.cfi_def_cfa_offset 8
 4074              	.LVL334:
 4075 003c 08BD     		pop	{r3, pc}
 4076              	.LVL335:
 4077              	.L534:
 4078              		.cfi_restore_state
 4079              	.LBB161:
 4080              	.LBB162:
 4081              		.loc 1 410 0
 4082 003e 92F85D31 		ldrb	r3, [r2, #349]	@ zero_extendqisi2
 4083 0042 0BB1     		cbz	r3, .L536
 4084 0044 B1EE488A 		vneg.f32	s16, s16
 4085              	.LVL336:
 4086              	.L536:
 4087 0048 B0EE480A 		vmov.f32	s0, s16
 4088              	.LBE162:
 4089              	.LBE161:
 4090              		.loc 1 420 0
 4091 004c BDEC028B 		vldm	sp!, {d8}
 4092              		.cfi_restore 80
 4093              		.cfi_restore 81
 4094              		.cfi_def_cfa_offset 8
 4095 0050 BDE80840 		pop	{r3, lr}
 4096              		.cfi_restore 14
 4097              		.cfi_restore 3
 4098              		.cfi_def_cfa_offset 0
 4099              	.LBB164:
 4100              	.LBB163:
 4101              		.loc 1 410 0
 4102 0054 FFF7FEBF 		b	mcpwm_set_current
 4103              	.LVL337:
 4104              	.L546:
ARM GAS  C:\Users\CHRIST~1\AppData\Local\Temp\ccb3oWGE.s 			page 73


 4105              		.align	2
 4106              	.L545:
 4107 0058 00000000 		.word	.LANCHOR12
 4108              	.LBE163:
 4109              	.LBE164:
 4110              		.cfi_endproc
 4111              	.LFE271:
 4112              		.size	mc_interface_set_current, .-mc_interface_set_current
 4113              		.section	.text.mc_interface_set_current_rel,"ax",%progbits
 4114              		.align	1
 4115              		.p2align 4,,15
 4116              		.global	mc_interface_set_current_rel
 4117              		.syntax unified
 4118              		.thumb
 4119              		.thumb_func
 4120              		.fpu fpv4-sp-d16
 4121              		.type	mc_interface_set_current_rel, %function
 4122              	mc_interface_set_current_rel:
 4123              	.LFB273:
 4124              		.loc 1 448 0
 4125              		.cfi_startproc
 4126              		@ args = 0, pretend = 0, frame = 0
 4127              		@ frame_needed = 0, uses_anonymous_args = 0
 4128              		@ link register save eliminated.
 4129              	.LVL338:
 4130              		.loc 1 449 0
 4131 0000 B5EEC00A 		vcmpe.f32	s0, #0
 4132 0004 F1EE10FA 		vmrs	APSR_nzcv, FPSCR
 4133              		.loc 1 450 0
 4134 0008 074B     		ldr	r3, .L552
 4135              		.loc 1 449 0
 4136 000a 05DD     		ble	.L551
 4137              		.loc 1 450 0
 4138 000c D3ED1D7A 		vldr.32	s15, [r3, #116]
 4139 0010 27EE800A 		vmul.f32	s0, s15, s0
 4140              	.LVL339:
 4141 0014 FFF7FEBF 		b	mc_interface_set_current
 4142              	.LVL340:
 4143              	.L551:
 4144              		.loc 1 452 0
 4145 0018 D3ED1E7A 		vldr.32	s15, [r3, #120]
 4146 001c F0EEE77A 		vabs.f32	s15, s15
 4147 0020 27EE800A 		vmul.f32	s0, s15, s0
 4148              	.LVL341:
 4149 0024 FFF7FEBF 		b	mc_interface_set_current
 4150              	.LVL342:
 4151              	.L553:
 4152              		.align	2
 4153              	.L552:
 4154 0028 00000000 		.word	.LANCHOR12
 4155              		.cfi_endproc
 4156              	.LFE273:
 4157              		.size	mc_interface_set_current_rel, .-mc_interface_set_current_rel
 4158              		.section	.text.mc_interface_release_motor,"ax",%progbits
 4159              		.align	1
 4160              		.p2align 4,,15
 4161              		.global	mc_interface_release_motor
ARM GAS  C:\Users\CHRIST~1\AppData\Local\Temp\ccb3oWGE.s 			page 74


 4162              		.syntax unified
 4163              		.thumb
 4164              		.thumb_func
 4165              		.fpu fpv4-sp-d16
 4166              		.type	mc_interface_release_motor, %function
 4167              	mc_interface_release_motor:
 4168              	.LFB277:
 4169              		.loc 1 494 0
 4170              		.cfi_startproc
 4171              		@ args = 0, pretend = 0, frame = 0
 4172              		@ frame_needed = 0, uses_anonymous_args = 0
 4173              		@ link register save eliminated.
 4174              		.loc 1 495 0
 4175 0000 9FED010A 		vldr.32	s0, .L555
 4176 0004 FFF7FEBF 		b	mc_interface_set_current
 4177              	.LVL343:
 4178              	.L556:
 4179              		.align	2
 4180              	.L555:
 4181 0008 00000000 		.word	0
 4182              		.cfi_endproc
 4183              	.LFE277:
 4184              		.size	mc_interface_release_motor, .-mc_interface_release_motor
 4185              		.section	.text.mc_interface_set_brake_current,"ax",%progbits
 4186              		.align	1
 4187              		.p2align 4,,15
 4188              		.global	mc_interface_set_brake_current
 4189              		.syntax unified
 4190              		.thumb
 4191              		.thumb_func
 4192              		.fpu fpv4-sp-d16
 4193              		.type	mc_interface_set_brake_current, %function
 4194              	mc_interface_set_brake_current:
 4195              	.LFB272:
 4196              		.loc 1 422 0
 4197              		.cfi_startproc
 4198              		@ args = 0, pretend = 0, frame = 0
 4199              		@ frame_needed = 0, uses_anonymous_args = 0
 4200              	.LVL344:
 4201 0000 08B5     		push	{r3, lr}
 4202              		.cfi_def_cfa_offset 8
 4203              		.cfi_offset 3, -8
 4204              		.cfi_offset 14, -4
 4205 0002 2DED028B 		vpush.64	{d8}
 4206              		.cfi_def_cfa_offset 16
 4207              		.cfi_offset 80, -16
 4208              		.cfi_offset 81, -12
 4209              		.loc 1 422 0
 4210 0006 B0EE408A 		vmov.f32	s16, s0
 4211              		.loc 1 423 0
 4212 000a FFF7FEFF 		bl	mc_interface_try_input
 4213              	.LVL345:
 4214 000e 98B9     		cbnz	r0, .L557
 4215              		.loc 1 427 0
 4216 0010 114A     		ldr	r2, .L570
 4217 0012 9378     		ldrb	r3, [r2, #2]	@ zero_extendqisi2
 4218 0014 DBB2     		uxtb	r3, r3
ARM GAS  C:\Users\CHRIST~1\AppData\Local\Temp\ccb3oWGE.s 			page 75


 4219 0016 012B     		cmp	r3, #1
 4220 0018 11D9     		bls	.L559
 4221 001a 022B     		cmp	r3, #2
 4222 001c 0CD1     		bne	.L557
 4223              		.loc 1 434 0
 4224 001e 92F85D31 		ldrb	r3, [r2, #349]	@ zero_extendqisi2
 4225 0022 0BB1     		cbz	r3, .L562
 4226 0024 B1EE488A 		vneg.f32	s16, s16
 4227              	.LVL346:
 4228              	.L562:
 4229              		.loc 1 434 0 is_stmt 0 discriminator 4
 4230 0028 B0EE480A 		vmov.f32	s0, s16
 4231              		.loc 1 440 0 is_stmt 1 discriminator 4
 4232 002c BDEC028B 		vldm	sp!, {d8}
 4233              		.cfi_remember_state
 4234              		.cfi_restore 80
 4235              		.cfi_restore 81
 4236              		.cfi_def_cfa_offset 8
 4237 0030 BDE80840 		pop	{r3, lr}
 4238              		.cfi_restore 14
 4239              		.cfi_restore 3
 4240              		.cfi_def_cfa_offset 0
 4241              		.loc 1 434 0 discriminator 4
 4242 0034 FFF7FEBF 		b	mcpwm_foc_set_brake_current
 4243              	.LVL347:
 4244              	.L557:
 4245              		.cfi_restore_state
 4246              		.loc 1 440 0
 4247 0038 BDEC028B 		vldm	sp!, {d8}
 4248              		.cfi_remember_state
 4249              		.cfi_restore 80
 4250              		.cfi_restore 81
 4251              		.cfi_def_cfa_offset 8
 4252              	.LVL348:
 4253 003c 08BD     		pop	{r3, pc}
 4254              	.LVL349:
 4255              	.L559:
 4256              		.cfi_restore_state
 4257              	.LBB167:
 4258              	.LBB168:
 4259              		.loc 1 430 0
 4260 003e 92F85D31 		ldrb	r3, [r2, #349]	@ zero_extendqisi2
 4261 0042 0BB1     		cbz	r3, .L561
 4262 0044 B1EE488A 		vneg.f32	s16, s16
 4263              	.LVL350:
 4264              	.L561:
 4265 0048 B0EE480A 		vmov.f32	s0, s16
 4266              	.LBE168:
 4267              	.LBE167:
 4268              		.loc 1 440 0
 4269 004c BDEC028B 		vldm	sp!, {d8}
 4270              		.cfi_restore 80
 4271              		.cfi_restore 81
 4272              		.cfi_def_cfa_offset 8
 4273 0050 BDE80840 		pop	{r3, lr}
 4274              		.cfi_restore 14
 4275              		.cfi_restore 3
ARM GAS  C:\Users\CHRIST~1\AppData\Local\Temp\ccb3oWGE.s 			page 76


 4276              		.cfi_def_cfa_offset 0
 4277              	.LBB170:
 4278              	.LBB169:
 4279              		.loc 1 430 0
 4280 0054 FFF7FEBF 		b	mcpwm_set_brake_current
 4281              	.LVL351:
 4282              	.L571:
 4283              		.align	2
 4284              	.L570:
 4285 0058 00000000 		.word	.LANCHOR12
 4286              	.LBE169:
 4287              	.LBE170:
 4288              		.cfi_endproc
 4289              	.LFE272:
 4290              		.size	mc_interface_set_brake_current, .-mc_interface_set_brake_current
 4291              		.section	.text.mc_interface_set_brake_current_rel,"ax",%progbits
 4292              		.align	1
 4293              		.p2align 4,,15
 4294              		.global	mc_interface_set_brake_current_rel
 4295              		.syntax unified
 4296              		.thumb
 4297              		.thumb_func
 4298              		.fpu fpv4-sp-d16
 4299              		.type	mc_interface_set_brake_current_rel, %function
 4300              	mc_interface_set_brake_current_rel:
 4301              	.LFB274:
 4302              		.loc 1 462 0
 4303              		.cfi_startproc
 4304              		@ args = 0, pretend = 0, frame = 0
 4305              		@ frame_needed = 0, uses_anonymous_args = 0
 4306              		@ link register save eliminated.
 4307              	.LVL352:
 4308              		.loc 1 463 0
 4309 0000 034B     		ldr	r3, .L573
 4310 0002 D3ED1D7A 		vldr.32	s15, [r3, #116]
 4311 0006 27EE800A 		vmul.f32	s0, s15, s0
 4312              	.LVL353:
 4313 000a FFF7FEBF 		b	mc_interface_set_brake_current
 4314              	.LVL354:
 4315              	.L574:
 4316 000e 00BF     		.align	2
 4317              	.L573:
 4318 0010 00000000 		.word	.LANCHOR12
 4319              		.cfi_endproc
 4320              	.LFE274:
 4321              		.size	mc_interface_set_brake_current_rel, .-mc_interface_set_brake_current_rel
 4322              		.section	.text.mc_interface_set_handbrake,"ax",%progbits
 4323              		.align	1
 4324              		.p2align 4,,15
 4325              		.global	mc_interface_set_handbrake
 4326              		.syntax unified
 4327              		.thumb
 4328              		.thumb_func
 4329              		.fpu fpv4-sp-d16
 4330              		.type	mc_interface_set_handbrake, %function
 4331              	mc_interface_set_handbrake:
 4332              	.LFB275:
ARM GAS  C:\Users\CHRIST~1\AppData\Local\Temp\ccb3oWGE.s 			page 77


 4333              		.loc 1 466 0
 4334              		.cfi_startproc
 4335              		@ args = 0, pretend = 0, frame = 0
 4336              		@ frame_needed = 0, uses_anonymous_args = 0
 4337              	.LVL355:
 4338 0000 08B5     		push	{r3, lr}
 4339              		.cfi_def_cfa_offset 8
 4340              		.cfi_offset 3, -8
 4341              		.cfi_offset 14, -4
 4342 0002 2DED028B 		vpush.64	{d8}
 4343              		.cfi_def_cfa_offset 16
 4344              		.cfi_offset 80, -16
 4345              		.cfi_offset 81, -12
 4346              		.loc 1 466 0
 4347 0006 B0EE408A 		vmov.f32	s16, s0
 4348              		.loc 1 467 0
 4349 000a FFF7FEFF 		bl	mc_interface_try_input
 4350              	.LVL356:
 4351 000e 70B9     		cbnz	r0, .L575
 4352              		.loc 1 471 0
 4353 0010 0C4B     		ldr	r3, .L580
 4354 0012 9B78     		ldrb	r3, [r3, #2]	@ zero_extendqisi2
 4355 0014 DBB2     		uxtb	r3, r3
 4356 0016 012B     		cmp	r3, #1
 4357 0018 0CD9     		bls	.L577
 4358 001a 022B     		cmp	r3, #2
 4359 001c 07D1     		bne	.L575
 4360              		.loc 1 479 0
 4361 001e B0EE480A 		vmov.f32	s0, s16
 4362              		.loc 1 485 0
 4363 0022 BDEC028B 		vldm	sp!, {d8}
 4364              		.cfi_remember_state
 4365              		.cfi_restore 80
 4366              		.cfi_restore 81
 4367              		.cfi_def_cfa_offset 8
 4368              	.LVL357:
 4369 0026 BDE80840 		pop	{r3, lr}
 4370              		.cfi_restore 14
 4371              		.cfi_restore 3
 4372              		.cfi_def_cfa_offset 0
 4373              		.loc 1 479 0
 4374 002a FFF7FEBF 		b	mcpwm_foc_set_handbrake
 4375              	.LVL358:
 4376              	.L575:
 4377              		.cfi_restore_state
 4378              		.loc 1 485 0
 4379 002e BDEC028B 		vldm	sp!, {d8}
 4380              		.cfi_remember_state
 4381              		.cfi_restore 80
 4382              		.cfi_restore 81
 4383              		.cfi_def_cfa_offset 8
 4384              	.LVL359:
 4385 0032 08BD     		pop	{r3, pc}
 4386              	.LVL360:
 4387              	.L577:
 4388              		.cfi_restore_state
 4389              		.loc 1 475 0
ARM GAS  C:\Users\CHRIST~1\AppData\Local\Temp\ccb3oWGE.s 			page 78


 4390 0034 B0EE480A 		vmov.f32	s0, s16
 4391              		.loc 1 485 0
 4392 0038 BDEC028B 		vldm	sp!, {d8}
 4393              		.cfi_restore 80
 4394              		.cfi_restore 81
 4395              		.cfi_def_cfa_offset 8
 4396              	.LVL361:
 4397 003c BDE80840 		pop	{r3, lr}
 4398              		.cfi_restore 14
 4399              		.cfi_restore 3
 4400              		.cfi_def_cfa_offset 0
 4401              		.loc 1 475 0
 4402 0040 FFF7FEBF 		b	mcpwm_set_brake_current
 4403              	.LVL362:
 4404              	.L581:
 4405              		.align	2
 4406              	.L580:
 4407 0044 00000000 		.word	.LANCHOR12
 4408              		.cfi_endproc
 4409              	.LFE275:
 4410              		.size	mc_interface_set_handbrake, .-mc_interface_set_handbrake
 4411              		.section	.text.mc_interface_fault_stop,"ax",%progbits
 4412              		.align	1
 4413              		.p2align 4,,15
 4414              		.global	mc_interface_fault_stop
 4415              		.syntax unified
 4416              		.thumb
 4417              		.thumb_func
 4418              		.fpu fpv4-sp-d16
 4419              		.type	mc_interface_fault_stop, %function
 4420              	mc_interface_fault_stop:
 4421              	.LFB306:
 4422              		.loc 1 991 0
 4423              		.cfi_startproc
 4424              		@ args = 0, pretend = 0, frame = 0
 4425              		@ frame_needed = 0, uses_anonymous_args = 0
 4426              		@ link register save eliminated.
 4427              	.LVL363:
 4428              		.loc 1 992 0
 4429 0000 054B     		ldr	r3, .L587
 4430 0002 1B78     		ldrb	r3, [r3]	@ zero_extendqisi2
 4431 0004 8342     		cmp	r3, r0
 4432 0006 01D0     		beq	.L586
 4433 0008 FFF7FEBF 		b	mc_interface_fault_stop.part.3
 4434              	.LVL364:
 4435              	.L586:
 4436              		.loc 1 993 0
 4437 000c 034A     		ldr	r2, .L587+4
 4438 000e 044B     		ldr	r3, .L587+8
 4439 0010 D2F84C21 		ldr	r2, [r2, #332]
 4440 0014 1A60     		str	r2, [r3]
 4441              		.loc 1 1045 0
 4442 0016 7047     		bx	lr
 4443              	.L588:
 4444              		.align	2
 4445              	.L587:
 4446 0018 00000000 		.word	.LANCHOR13
ARM GAS  C:\Users\CHRIST~1\AppData\Local\Temp\ccb3oWGE.s 			page 79


 4447 001c 00000000 		.word	.LANCHOR12
 4448 0020 00000000 		.word	.LANCHOR14
 4449              		.cfi_endproc
 4450              	.LFE306:
 4451              		.size	mc_interface_fault_stop, .-mc_interface_fault_stop
 4452              		.section	.text.mc_interface_mc_timer_isr,"ax",%progbits
 4453              		.align	1
 4454              		.p2align 4,,15
 4455              		.global	mc_interface_mc_timer_isr
 4456              		.syntax unified
 4457              		.thumb
 4458              		.thumb_func
 4459              		.fpu fpv4-sp-d16
 4460              		.type	mc_interface_mc_timer_isr, %function
 4461              	mc_interface_mc_timer_isr:
 4462              	.LFB307:
 4463              		.loc 1 1047 0
 4464              		.cfi_startproc
 4465              		@ args = 0, pretend = 0, frame = 8
 4466              		@ frame_needed = 0, uses_anonymous_args = 0
 4467 0000 2DE9F043 		push	{r4, r5, r6, r7, r8, r9, lr}
 4468              		.cfi_def_cfa_offset 28
 4469              		.cfi_offset 4, -28
 4470              		.cfi_offset 5, -24
 4471              		.cfi_offset 6, -20
 4472              		.cfi_offset 7, -16
 4473              		.cfi_offset 8, -12
 4474              		.cfi_offset 9, -8
 4475              		.cfi_offset 14, -4
 4476 0004 2DED048B 		vpush.64	{d8, d9}
 4477              		.cfi_def_cfa_offset 44
 4478              		.cfi_offset 80, -44
 4479              		.cfi_offset 81, -40
 4480              		.cfi_offset 82, -36
 4481              		.cfi_offset 83, -32
 4482              		.loc 1 1050 0
 4483 0008 7E4E     		ldr	r6, .L687
 4484              		.loc 1 1054 0
 4485 000a 7F4C     		ldr	r4, .L687+4
 4486              		.loc 1 1047 0
 4487 000c 83B0     		sub	sp, sp, #12
 4488              		.cfi_def_cfa_offset 56
 4489              		.loc 1 1048 0
 4490 000e FFF7FEFF 		bl	ledpwm_update_pwm
 4491              	.LVL365:
 4492              		.loc 1 1050 0
 4493 0012 338A     		ldrh	r3, [r6, #16]
 4494 0014 DFED7D6A 		vldr.32	s13, .L687+8
 4495 0018 9FED7D7A 		vldr.32	s14, .L687+12
 4496              		.loc 1 1054 0
 4497 001c D4ED0B7A 		vldr.32	s15, [r4, #44]
 4498              		.loc 1 1050 0
 4499 0020 08EE103A 		vmov	s16, r3	@ int
 4500 0024 B8EE488A 		vcvt.f32.u32	s16, s16
 4501 0028 28EE268A 		vmul.f32	s16, s16, s13
 4502 002c 28EE078A 		vmul.f32	s16, s16, s14
 4503              	.LVL366:
ARM GAS  C:\Users\CHRIST~1\AppData\Local\Temp\ccb3oWGE.s 			page 80


 4504              		.loc 1 1054 0
 4505 0030 F4EEC87A 		vcmpe.f32	s15, s16
 4506 0034 F1EE10FA 		vmrs	APSR_nzcv, FPSCR
 4507 0038 07DC     		bgt	.L590
 4508              		.loc 1 1055 0 discriminator 1
 4509 003a D4ED0C7A 		vldr.32	s15, [r4, #48]
 4510              		.loc 1 1054 0 discriminator 1
 4511 003e F4EEC87A 		vcmpe.f32	s15, s16
 4512 0042 F1EE10FA 		vmrs	APSR_nzcv, FPSCR
 4513 0046 40F1D881 		bpl	.L665
 4514              	.L590:
 4515              		.loc 1 1056 0
 4516 004a 724A     		ldr	r2, .L687+16
 4517 004c 1368     		ldr	r3, [r2]
 4518 004e 0133     		adds	r3, r3, #1
 4519              		.loc 1 1058 0
 4520 0050 072B     		cmp	r3, #7
 4521              		.loc 1 1056 0
 4522 0052 1360     		str	r3, [r2]
 4523              		.loc 1 1058 0
 4524 0054 00F3B681 		bgt	.L676
 4525              	.L593:
 4526              		.loc 1 1066 0
 4527 0058 FFF7FEFF 		bl	mc_interface_get_state
 4528              	.LVL367:
 4529 005c 0228     		cmp	r0, #2
 4530 005e 00F0C781 		beq	.L677
 4531              	.L597:
 4532              		.loc 1 1069 0
 4533 0062 6D4B     		ldr	r3, .L687+20
 4534 0064 0022     		movs	r2, #0
 4535 0066 1A60     		str	r2, [r3]
 4536              	.L598:
 4537              		.loc 1 1072 0
 4538 0068 6C4B     		ldr	r3, .L687+24
 4539 006a 1B68     		ldr	r3, [r3]
 4540 006c 03B1     		cbz	r3, .L599
 4541              		.loc 1 1073 0
 4542 006e 9847     		blx	r3
 4543              	.LVL368:
 4544              	.L599:
 4545              		.loc 1 1076 0
 4546 0070 FFF7FEFF 		bl	mc_interface_get_tot_current_filtered
 4547              	.LVL369:
 4548 0074 F0EE408A 		vmov.f32	s17, s0
 4549              	.LVL370:
 4550              		.loc 1 1077 0
 4551 0078 FFF7FEFF 		bl	mc_interface_get_tot_current_in_filtered
 4552              	.LVL371:
 4553              		.loc 1 1078 0
 4554 007c 6848     		ldr	r0, .L687+28
 4555              		.loc 1 1079 0
 4556 007e 6949     		ldr	r1, .L687+32
 4557              		.loc 1 1078 0
 4558 0080 D0ED007A 		vldr.32	s15, [r0]
 4559              		.loc 1 1080 0
 4560 0084 684A     		ldr	r2, .L687+36
ARM GAS  C:\Users\CHRIST~1\AppData\Local\Temp\ccb3oWGE.s 			page 81


 4561              		.loc 1 1081 0
 4562 0086 694B     		ldr	r3, .L687+40
 4563              		.loc 1 1078 0
 4564 0088 77EEA87A 		vadd.f32	s15, s15, s17
 4565              		.loc 1 1080 0
 4566 008c B7EE009A 		vmov.f32	s18, #1.0e+0
 4567              		.loc 1 1078 0
 4568 0090 C0ED007A 		vstr.32	s15, [r0]
 4569              		.loc 1 1079 0
 4570 0094 D1ED007A 		vldr.32	s15, [r1]
 4571 0098 77EE807A 		vadd.f32	s15, s15, s0
 4572              		.loc 1 1077 0
 4573 009c F0EE409A 		vmov.f32	s19, s0
 4574              	.LVL372:
 4575              		.loc 1 1079 0
 4576 00a0 C1ED007A 		vstr.32	s15, [r1]
 4577              		.loc 1 1080 0
 4578 00a4 D2ED007A 		vldr.32	s15, [r2]
 4579 00a8 77EE897A 		vadd.f32	s15, s15, s18
 4580 00ac C2ED007A 		vstr.32	s15, [r2]
 4581              		.loc 1 1081 0
 4582 00b0 D3ED007A 		vldr.32	s15, [r3]
 4583 00b4 77EE897A 		vadd.f32	s15, s15, s18
 4584 00b8 C3ED007A 		vstr.32	s15, [r3]
 4585              		.loc 1 1083 0
 4586 00bc FFF7FEFF 		bl	mcpwm_foc_get_id
 4587              	.LVL373:
 4588 00c0 5B4B     		ldr	r3, .L687+44
 4589 00c2 D3ED007A 		vldr.32	s15, [r3]
 4590 00c6 37EE800A 		vadd.f32	s0, s15, s0
 4591 00ca 83ED000A 		vstr.32	s0, [r3]
 4592              		.loc 1 1084 0
 4593 00ce FFF7FEFF 		bl	mcpwm_foc_get_iq
 4594              	.LVL374:
 4595 00d2 5849     		ldr	r1, .L687+48
 4596              		.loc 1 1085 0
 4597 00d4 584A     		ldr	r2, .L687+52
 4598              		.loc 1 1084 0
 4599 00d6 D1ED007A 		vldr.32	s15, [r1]
 4600              		.loc 1 1086 0
 4601 00da 584B     		ldr	r3, .L687+56
 4602              		.loc 1 1084 0
 4603 00dc 37EE800A 		vadd.f32	s0, s15, s0
 4604 00e0 81ED000A 		vstr.32	s0, [r1]
 4605              		.loc 1 1085 0
 4606 00e4 D2ED007A 		vldr.32	s15, [r2]
 4607 00e8 77EE897A 		vadd.f32	s15, s15, s18
 4608 00ec C2ED007A 		vstr.32	s15, [r2]
 4609              		.loc 1 1086 0
 4610 00f0 D3ED007A 		vldr.32	s15, [r3]
 4611 00f4 37EE899A 		vadd.f32	s18, s15, s18
 4612 00f8 83ED009A 		vstr.32	s18, [r3]
 4613              		.loc 1 1088 0
 4614 00fc FFF7FEFF 		bl	mc_interface_get_tot_current
 4615              	.LVL375:
 4616              		.loc 1 1090 0
 4617 0100 A378     		ldrb	r3, [r4, #2]	@ zero_extendqisi2
ARM GAS  C:\Users\CHRIST~1\AppData\Local\Temp\ccb3oWGE.s 			page 82


 4618 0102 022B     		cmp	r3, #2
 4619              		.loc 1 1088 0
 4620 0104 B0EE409A 		vmov.f32	s18, s0
 4621              	.LVL376:
 4622              		.loc 1 1090 0
 4623 0108 00F0CB81 		beq	.L678
 4624              		.loc 1 1089 0
 4625 010c B0EE680A 		vmov.f32	s0, s17
 4626              	.LVL377:
 4627              	.L600:
 4628              		.loc 1 1097 0
 4629 0110 94F83C30 		ldrb	r3, [r4, #60]	@ zero_extendqisi2
 4630              		.loc 1 1098 0
 4631 0114 D4ED057A 		vldr.32	s15, [r4, #20]
 4632              		.loc 1 1097 0
 4633 0118 002B     		cmp	r3, #0
 4634 011a 00F04581 		beq	.L601
 4635              		.loc 1 1098 0
 4636 011e B0EEC00A 		vabs.f32	s0, s0
 4637              	.LVL378:
 4638 0122 B4EEE70A 		vcmpe.f32	s0, s15
 4639 0126 F1EE10FA 		vmrs	APSR_nzcv, FPSCR
 4640 012a 5CDD     		ble	.L602
 4641              	.LVL379:
 4642              	.LBB171:
 4643              	.LBB172:
 4644              		.loc 1 992 0
 4645 012c 444B     		ldr	r3, .L687+60
 4646 012e 1B78     		ldrb	r3, [r3]	@ zero_extendqisi2
 4647 0130 042B     		cmp	r3, #4
 4648 0132 55D1     		bne	.L604
 4649              	.LVL380:
 4650              	.L683:
 4651              		.loc 1 993 0
 4652 0134 434B     		ldr	r3, .L687+64
 4653 0136 D4F84C21 		ldr	r2, [r4, #332]
 4654 013a 1A60     		str	r2, [r3]
 4655              	.LBE172:
 4656              	.LBE171:
 4657              		.loc 1 1108 0
 4658 013c 424B     		ldr	r3, .L687+68
 4659 013e 1B69     		ldr	r3, [r3, #16]
 4660 0140 DB04     		lsls	r3, r3, #19
 4661 0142 40F1AA81 		bpl	.L609
 4662              	.LVL381:
 4663              	.L608:
 4664              		.loc 1 1113 0
 4665 0146 FFF7FEFF 		bl	mc_interface_get_sampling_frequency_now
 4666              	.LVL382:
 4667              		.loc 1 1114 0
 4668 014a F0EEE88A 		vabs.f32	s17, s17
 4669              	.LVL383:
 4670 014e F7EE006A 		vmov.f32	s13, #1.0e+0
 4671 0152 F4EEE68A 		vcmpe.f32	s17, s13
 4672 0156 F1EE10FA 		vmrs	APSR_nzcv, FPSCR
 4673              		.loc 1 1113 0
 4674 015a B0EE409A 		vmov.f32	s18, s0
ARM GAS  C:\Users\CHRIST~1\AppData\Local\Temp\ccb3oWGE.s 			page 83


 4675              	.LVL384:
 4676              		.loc 1 1114 0
 4677 015e 31DD     		ble	.L611
 4678              	.LBB174:
 4679              		.loc 1 1120 0
 4680 0160 86EE807A 		vdiv.f32	s14, s13, s0
 4681 0164 394A     		ldr	r2, .L687+72
 4682              		.loc 1 1119 0
 4683 0166 3A4B     		ldr	r3, .L687+76
 4684 0168 C9EE807A 		vdiv.f32	s15, s19, s0
 4685              		.loc 1 1120 0
 4686 016c 92ED006A 		vldr.32	s12, [r2]
 4687              		.loc 1 1119 0
 4688 0170 D3ED005A 		vldr.32	s11, [r3]
 4689              		.loc 1 1122 0
 4690 0174 DFED376A 		vldr.32	s13, .L687+80
 4691              		.loc 1 1120 0
 4692 0178 37EE067A 		vadd.f32	s14, s14, s12
 4693              		.loc 1 1119 0
 4694 017c 77EEA57A 		vadd.f32	s15, s15, s11
 4695              		.loc 1 1122 0
 4696 0180 B4EEE67A 		vcmpe.f32	s14, s13
 4697 0184 F1EE10FA 		vmrs	APSR_nzcv, FPSCR
 4698              		.loc 1 1119 0
 4699 0188 C3ED007A 		vstr.32	s15, [r3]
 4700              		.loc 1 1120 0
 4701 018c 82ED007A 		vstr.32	s14, [r2]
 4702              		.loc 1 1122 0
 4703 0190 18DB     		blt	.L611
 4704              		.loc 1 1123 0
 4705 0192 F5EEC07A 		vcmpe.f32	s15, #0
 4706 0196 F1EE10FA 		vmrs	APSR_nzcv, FPSCR
 4707 019a 27EE888A 		vmul.f32	s16, s15, s16
 4708              	.LVL385:
 4709 019e 40F3A081 		ble	.L666
 4710              		.loc 1 1124 0
 4711 01a2 2D48     		ldr	r0, .L687+84
 4712              		.loc 1 1125 0
 4713 01a4 2D49     		ldr	r1, .L687+88
 4714              		.loc 1 1124 0
 4715 01a6 90ED007A 		vldr.32	s14, [r0]
 4716 01aa 77EE877A 		vadd.f32	s15, s15, s14
 4717 01ae C0ED007A 		vstr.32	s15, [r0]
 4718              		.loc 1 1125 0
 4719 01b2 D1ED007A 		vldr.32	s15, [r1]
 4720 01b6 37EE888A 		vadd.f32	s16, s15, s16
 4721 01ba 81ED008A 		vstr.32	s16, [r1]
 4722              	.L616:
 4723              		.loc 1 1131 0
 4724 01be 0021     		movs	r1, #0
 4725 01c0 1160     		str	r1, [r2]	@ float
 4726              		.loc 1 1132 0
 4727 01c2 1960     		str	r1, [r3]	@ float
 4728              	.L611:
 4729              	.LVL386:
 4730              	.LBE174:
 4731              		.loc 1 1138 0
ARM GAS  C:\Users\CHRIST~1\AppData\Local\Temp\ccb3oWGE.s 			page 84


 4732 01c4 264F     		ldr	r7, .L687+92
 4733 01c6 3B78     		ldrb	r3, [r7]	@ zero_extendqisi2
 4734 01c8 013B     		subs	r3, r3, #1
 4735 01ca 052B     		cmp	r3, #5
 4736 01cc 00F2E780 		bhi	.L589
 4737 01d0 DFE813F0 		tbh	[pc, r3, lsl #1]
 4738              	.L619:
 4739 01d4 4D01     		.2byte	(.L618-.L619)/2
 4740 01d6 2601     		.2byte	(.L620-.L619)/2
 4741 01d8 1701     		.2byte	(.L621-.L619)/2
 4742 01da 4800     		.2byte	(.L622-.L619)/2
 4743 01dc 1701     		.2byte	(.L621-.L619)/2
 4744 01de 4800     		.2byte	(.L622-.L619)/2
 4745              	.LVL387:
 4746              		.p2align 1
 4747              	.L604:
 4748              	.LBB175:
 4749              	.LBB176:
 4750 01e0 0420     		movs	r0, #4
 4751 01e2 FFF7FEFF 		bl	mc_interface_fault_stop.part.3
 4752              	.LVL388:
 4753              	.L602:
 4754              	.LBE176:
 4755              	.LBE175:
 4756              		.loc 1 1108 0
 4757 01e6 184B     		ldr	r3, .L687+68
 4758 01e8 1B69     		ldr	r3, [r3, #16]
 4759 01ea DA04     		lsls	r2, r3, #19
 4760 01ec ABD4     		bmi	.L608
 4761              	.LVL389:
 4762              	.LBB177:
 4763              	.LBB178:
 4764              		.loc 1 992 0
 4765 01ee 144B     		ldr	r3, .L687+60
 4766 01f0 1B78     		ldrb	r3, [r3]	@ zero_extendqisi2
 4767 01f2 032B     		cmp	r3, #3
 4768 01f4 40F05181 		bne	.L609
 4769              		.loc 1 993 0
 4770 01f8 124B     		ldr	r3, .L687+64
 4771 01fa D4F84C21 		ldr	r2, [r4, #332]
 4772 01fe 1A60     		str	r2, [r3]
 4773 0200 A1E7     		b	.L608
 4774              	.L688:
 4775 0202 00BF     		.align	2
 4776              	.L687:
 4777 0204 00000000 		.word	.LANCHOR41
 4778 0208 00000000 		.word	.LANCHOR12
 4779 020c 6740533A 		.word	978534503
 4780 0210 74D19541 		.word	1100337524
 4781 0214 00000000 		.word	.LANCHOR42
 4782 0218 00000000 		.word	.LANCHOR15
 4783 021c 00000000 		.word	.LANCHOR39
 4784 0220 00000000 		.word	.LANCHOR18
 4785 0224 00000000 		.word	.LANCHOR19
 4786 0228 00000000 		.word	.LANCHOR20
 4787 022c 00000000 		.word	.LANCHOR21
 4788 0230 00000000 		.word	.LANCHOR22
ARM GAS  C:\Users\CHRIST~1\AppData\Local\Temp\ccb3oWGE.s 			page 85


 4789 0234 00000000 		.word	.LANCHOR23
 4790 0238 00000000 		.word	.LANCHOR24
 4791 023c 00000000 		.word	.LANCHOR25
 4792 0240 00000000 		.word	.LANCHOR13
 4793 0244 00000000 		.word	.LANCHOR14
 4794 0248 00080240 		.word	1073874944
 4795 024c 00000000 		.word	.LANCHOR44
 4796 0250 00000000 		.word	.LANCHOR43
 4797 0254 0AD7233C 		.word	1008981770
 4798 0258 00000000 		.word	.LANCHOR26
 4799 025c 00000000 		.word	.LANCHOR28
 4800 0260 00000000 		.word	.LANCHOR36
 4801              	.LVL390:
 4802              	.L622:
 4803              	.LBE178:
 4804              	.LBE177:
 4805              	.LBB180:
 4806              		.loc 1 1200 0
 4807 0264 DFF85083 		ldr	r8, .L689+92
 4808 0268 D8F80030 		ldr	r3, [r8]
 4809 026c 002B     		cmp	r3, #0
 4810 026e 80F22281 		bge	.L679
 4811              		.loc 1 1199 0
 4812 0272 4FF0FF33 		mov	r3, #-1
 4813              	.LVL391:
 4814              	.L632:
 4815              		.loc 1 1207 0
 4816 0276 B94D     		ldr	r5, .L689
 4817 0278 2A68     		ldr	r2, [r5]
 4818 027a 9A42     		cmp	r2, r3
 4819 027c 00F05881 		beq	.L680
 4820              		.loc 1 1220 0
 4821 0280 B74B     		ldr	r3, .L689+4
 4822              	.LVL392:
 4823 0282 1B78     		ldrb	r3, [r3]	@ zero_extendqisi2
 4824 0284 33B1     		cbz	r3, .L624
 4825              	.LVL393:
 4826              	.L641:
 4827 0286 D8F80030 		ldr	r3, [r8]
 4828 028a 002B     		cmp	r3, #0
 4829              		.loc 1 1221 0
 4830 028c BCBF     		itt	lt
 4831 028e 2B68     		ldrlt	r3, [r5]
 4832 0290 C8F80030 		strlt	r3, [r8]
 4833              	.LVL394:
 4834              	.L624:
 4835              	.LBE180:
 4836              	.LBB191:
 4837              		.loc 1 1231 0
 4838 0294 B34A     		ldr	r2, .L689+8
 4839              		.loc 1 1233 0
 4840 0296 B449     		ldr	r1, .L689+12
 4841              		.loc 1 1231 0
 4842 0298 1368     		ldr	r3, [r2]
 4843              		.loc 1 1233 0
 4844 029a 0968     		ldr	r1, [r1]
 4845              		.loc 1 1231 0
ARM GAS  C:\Users\CHRIST~1\AppData\Local\Temp\ccb3oWGE.s 			page 86


 4846 029c 0133     		adds	r3, r3, #1
 4847              		.loc 1 1233 0
 4848 029e 8B42     		cmp	r3, r1
 4849              		.loc 1 1231 0
 4850 02a0 1360     		str	r3, [r2]
 4851              		.loc 1 1233 0
 4852 02a2 7CDB     		blt	.L589
 4853              	.LBB192:
 4854              		.loc 1 1236 0
 4855 02a4 2968     		ldr	r1, [r5]
 4856              		.loc 1 1234 0
 4857 02a6 0023     		movs	r3, #0
 4858              		.loc 1 1236 0
 4859 02a8 B1F5FA6F 		cmp	r1, #2000
 4860              		.loc 1 1237 0
 4861 02ac A8BF     		it	ge
 4862 02ae 2B60     		strge	r3, [r5]
 4863              		.loc 1 1234 0
 4864 02b0 1360     		str	r3, [r2]
 4865              		.loc 1 1241 0
 4866 02b2 A378     		ldrb	r3, [r4, #2]	@ zero_extendqisi2
 4867 02b4 022B     		cmp	r3, #2
 4868 02b6 00F08381 		beq	.L681
 4869              		.loc 1 1248 0
 4870 02ba AC4B     		ldr	r3, .L689+16
 4871              		.loc 1 1249 0
 4872 02bc AC4F     		ldr	r7, .L689+20
 4873              		.loc 1 1248 0
 4874 02be 1C68     		ldr	r4, [r3]
 4875              		.loc 1 1249 0
 4876 02c0 2B68     		ldr	r3, [r5]
 4877 02c2 3B44     		add	r3, r3, r7
 4878 02c4 0022     		movs	r2, #0
 4879              		.loc 1 1248 0
 4880 02c6 24B2     		sxth	r4, r4
 4881              	.LVL395:
 4882              		.loc 1 1249 0
 4883 02c8 83F8082E 		strb	r2, [r3, #3592]
 4884              	.L637:
 4885              		.loc 1 1252 0
 4886 02cc FFF7FEFF 		bl	mc_interface_get_state
 4887              	.LVL396:
 4888 02d0 0128     		cmp	r0, #1
 4889 02d2 00F09581 		beq	.L682
 4890              		.loc 1 1260 0
 4891 02d6 A748     		ldr	r0, .L689+24
 4892 02d8 A74B     		ldr	r3, .L689+28
 4893 02da 0268     		ldr	r2, [r0]
 4894 02dc D5F800C0 		ldr	ip, [r5]
 4895              		.loc 1 1263 0
 4896 02e0 A649     		ldr	r1, .L689+32
 4897              		.loc 1 1260 0
 4898 02e2 12B2     		sxth	r2, r2
 4899 02e4 23F81C20 		strh	r2, [r3, ip, lsl #1]	@ movhi
 4900              		.loc 1 1261 0
 4901 02e8 4268     		ldr	r2, [r0, #4]
 4902 02ea 2868     		ldr	r0, [r5]
ARM GAS  C:\Users\CHRIST~1\AppData\Local\Temp\ccb3oWGE.s 			page 87


 4903              		.loc 1 1264 0
 4904 02ec DFF8CCC2 		ldr	ip, .L689+96
 4905              		.loc 1 1261 0
 4906 02f0 03EB4003 		add	r3, r3, r0, lsl #1
 4907 02f4 12B2     		sxth	r2, r2
 4908 02f6 A3F8A02F 		strh	r2, [r3, #4000]	@ movhi
 4909              		.loc 1 1263 0
 4910 02fa B288     		ldrh	r2, [r6, #4]
 4911 02fc 2B68     		ldr	r3, [r5]
 4912 02fe A0B2     		uxth	r0, r4
 4913 0300 01EB4303 		add	r3, r1, r3, lsl #1
 4914 0304 121A     		subs	r2, r2, r0
 4915 0306 12B2     		sxth	r2, r2
 4916 0308 A3F8482E 		strh	r2, [r3, #3656]	@ movhi
 4917              		.loc 1 1264 0
 4918 030c 7288     		ldrh	r2, [r6, #2]
 4919 030e 2B68     		ldr	r3, [r5]
 4920              		.loc 1 1265 0
 4921 0310 9B49     		ldr	r1, .L689+36
 4922              		.loc 1 1264 0
 4923 0312 0CEB4303 		add	r3, ip, r3, lsl #1
 4924 0316 121A     		subs	r2, r2, r0
 4925 0318 12B2     		sxth	r2, r2
 4926 031a A3F8F02C 		strh	r2, [r3, #3312]	@ movhi
 4927              		.loc 1 1265 0
 4928 031e 3388     		ldrh	r3, [r6]
 4929 0320 2A68     		ldr	r2, [r5]
 4930 0322 1B1A     		subs	r3, r3, r0
 4931 0324 01EB4202 		add	r2, r1, r2, lsl #1
 4932 0328 1BB2     		sxth	r3, r3
 4933 032a A2F8983B 		strh	r3, [r2, #2968]	@ movhi
 4934              	.L639:
 4935              		.loc 1 1268 0
 4936 032e 2A68     		ldr	r2, [r5]
 4937 0330 944B     		ldr	r3, .L689+40
 4938 0332 03EB4203 		add	r3, r3, r2, lsl #1
 4939 0336 A3F8404A 		strh	r4, [r3, #2624]	@ movhi
 4940              		.loc 1 1269 0
 4941 033a FFF7FEFF 		bl	mc_interface_get_tot_current
 4942              	.LVL397:
 4943              		.loc 1 1270 0
 4944 033e F2EE047A 		vmov.f32	s15, #1.0e+1
 4945 0342 89EE277A 		vdiv.f32	s14, s18, s15
 4946              		.loc 1 1269 0
 4947 0346 2B68     		ldr	r3, [r5]
 4948 0348 8F48     		ldr	r0, .L689+44
 4949              		.loc 1 1270 0
 4950 034a 9049     		ldr	r1, .L689+48
 4951              		.loc 1 1269 0
 4952 034c 00EB4300 		add	r0, r0, r3, lsl #1
 4953 0350 DFED8F7A 		vldr.32	s15, .L689+52
 4954              		.loc 1 1270 0
 4955 0354 BDEEC77A 		vcvt.s32.f32	s14, s14
 4956              		.loc 1 1269 0
 4957 0358 20EE270A 		vmul.f32	s0, s0, s15
 4958              		.loc 1 1270 0
 4959 035c 17EE103A 		vmov	r3, s14	@ int
ARM GAS  C:\Users\CHRIST~1\AppData\Local\Temp\ccb3oWGE.s 			page 88


 4960              		.loc 1 1269 0
 4961 0360 BDEEC00A 		vcvt.s32.f32	s0, s0
 4962              		.loc 1 1270 0
 4963 0364 1AB2     		sxth	r2, r3
 4964              		.loc 1 1269 0
 4965 0366 10EE103A 		vmov	r3, s0	@ int
 4966 036a 1BB2     		sxth	r3, r3
 4967 036c A0F8E838 		strh	r3, [r0, #2280]	@ movhi
 4968              		.loc 1 1270 0
 4969 0370 2B68     		ldr	r3, [r5]
 4970 0372 01EB4303 		add	r3, r1, r3, lsl #1
 4971 0376 A3F89027 		strh	r2, [r3, #1936]	@ movhi
 4972              		.loc 1 1271 0
 4973 037a FFF7FEFF 		bl	mcpwm_get_comm_step
 4974              	.LVL398:
 4975 037e 0446     		mov	r4, r0
 4976              	.LVL399:
 4977 0380 FFF7FEFF 		bl	mcpwm_read_hall_phase
 4978              	.LVL400:
 4979 0384 2B68     		ldr	r3, [r5]
 4980              	.LBB193:
 4981              	.LBB194:
 4982              		.loc 1 902 0
 4983 0386 834A     		ldr	r2, .L689+56
 4984              	.LBE194:
 4985              	.LBE193:
 4986              		.loc 1 1271 0
 4987 0388 1F44     		add	r7, r7, r3
 4988 038a 44EAC000 		orr	r0, r4, r0, lsl #3
 4989 038e C0B2     		uxtb	r0, r0
 4990 0390 87F83806 		strb	r0, [r7, #1592]
 4991              		.loc 1 1273 0
 4992 0394 2B68     		ldr	r3, [r5]
 4993 0396 0133     		adds	r3, r3, #1
 4994 0398 2B60     		str	r3, [r5]
 4995              	.LBB196:
 4996              	.LBB195:
 4997              		.loc 1 902 0
 4998 039a 1368     		ldr	r3, [r2]	@ float
 4999              	.LBE195:
 5000              	.LBE196:
 5001              		.loc 1 1275 0
 5002 039c 1360     		str	r3, [r2]	@ float
 5003              	.L589:
 5004              	.LBE192:
 5005              	.LBE191:
 5006              		.loc 1 1278 0
 5007 039e 03B0     		add	sp, sp, #12
 5008              		.cfi_remember_state
 5009              		.cfi_def_cfa_offset 44
 5010              		@ sp needed
 5011 03a0 BDEC048B 		vldm	sp!, {d8-d9}
 5012              		.cfi_restore 82
 5013              		.cfi_restore 83
 5014              		.cfi_restore 80
 5015              		.cfi_restore 81
 5016              		.cfi_def_cfa_offset 28
ARM GAS  C:\Users\CHRIST~1\AppData\Local\Temp\ccb3oWGE.s 			page 89


 5017              	.LVL401:
 5018 03a4 BDE8F083 		pop	{r4, r5, r6, r7, r8, r9, pc}
 5019              	.LVL402:
 5020              	.L601:
 5021              		.cfi_restore_state
 5022              		.loc 1 1102 0
 5023 03a8 B0EEC99A 		vabs.f32	s18, s18
 5024              	.LVL403:
 5025 03ac B4EEE79A 		vcmpe.f32	s18, s15
 5026 03b0 F1EE10FA 		vmrs	APSR_nzcv, FPSCR
 5027 03b4 7FF717AF 		ble	.L602
 5028              	.LVL404:
 5029              	.LBB198:
 5030              	.LBB173:
 5031              		.loc 1 992 0
 5032 03b8 694B     		ldr	r3, .L689+4
 5033 03ba 1B78     		ldrb	r3, [r3]	@ zero_extendqisi2
 5034 03bc 042B     		cmp	r3, #4
 5035 03be 3FF4B9AE 		beq	.L683
 5036 03c2 0DE7     		b	.L604
 5037              	.LVL405:
 5038              	.L676:
 5039              	.LBE173:
 5040              	.LBE198:
 5041              		.loc 1 1059 0
 5042 03c4 D4ED0B7A 		vldr.32	s15, [r4, #44]
 5043              	.LBB199:
 5044              	.LBB200:
 5045              		.loc 1 992 0
 5046 03c8 654B     		ldr	r3, .L689+4
 5047              	.LBE200:
 5048              	.LBE199:
 5049              		.loc 1 1059 0
 5050 03ca F4EEC87A 		vcmpe.f32	s15, s16
 5051 03ce F1EE10FA 		vmrs	APSR_nzcv, FPSCR
 5052              	.LBB204:
 5053              	.LBB201:
 5054              		.loc 1 992 0
 5055 03d2 1B78     		ldrb	r3, [r3]	@ zero_extendqisi2
 5056              	.LBE201:
 5057              	.LBE204:
 5058              		.loc 1 1059 0
 5059 03d4 CCBF     		ite	gt
 5060 03d6 0220     		movgt	r0, #2
 5061 03d8 0120     		movle	r0, #1
 5062              	.LVL406:
 5063              	.LBB205:
 5064              	.LBB202:
 5065              		.loc 1 992 0
 5066 03da 8342     		cmp	r3, r0
 5067 03dc 68D1     		bne	.L596
 5068              		.loc 1 993 0
 5069 03de 6E4B     		ldr	r3, .L689+60
 5070 03e0 D4F84C21 		ldr	r2, [r4, #332]
 5071 03e4 1A60     		str	r2, [r3]
 5072              	.LBE202:
 5073              	.LBE205:
ARM GAS  C:\Users\CHRIST~1\AppData\Local\Temp\ccb3oWGE.s 			page 90


 5074              		.loc 1 1066 0
 5075 03e6 FFF7FEFF 		bl	mc_interface_get_state
 5076              	.LVL407:
 5077 03ea 0228     		cmp	r0, #2
 5078 03ec 7FF439AE 		bne	.L597
 5079              	.L677:
 5080              		.loc 1 1067 0
 5081 03f0 6A4A     		ldr	r2, .L689+64
 5082 03f2 1368     		ldr	r3, [r2]
 5083 03f4 0133     		adds	r3, r3, #1
 5084 03f6 1360     		str	r3, [r2]
 5085 03f8 36E6     		b	.L598
 5086              	.L665:
 5087              		.loc 1 1063 0
 5088 03fa 694B     		ldr	r3, .L689+68
 5089 03fc 0022     		movs	r2, #0
 5090 03fe 1A60     		str	r2, [r3]
 5091 0400 2AE6     		b	.L593
 5092              	.LVL408:
 5093              	.L621:
 5094              	.LBB206:
 5095              		.loc 1 1170 0
 5096 0402 DFF8B481 		ldr	r8, .L689+92
 5097 0406 D8F80030 		ldr	r3, [r8]
 5098 040a 002B     		cmp	r3, #0
 5099 040c 5DDB     		blt	.L645
 5100              		.loc 1 1171 0
 5101 040e 654A     		ldr	r2, .L689+72
 5102 0410 D8F80030 		ldr	r3, [r8]
 5103 0414 1268     		ldr	r2, [r2]
 5104              	.LVL409:
 5105              		.loc 1 1172 0
 5106 0416 9B1A     		subs	r3, r3, r2
 5107              	.LVL410:
 5108 0418 59D5     		bpl	.L628
 5109              		.loc 1 1173 0
 5110 041a 03F5FA63 		add	r3, r3, #2000
 5111              	.LVL411:
 5112 041e 56E0     		b	.L628
 5113              	.LVL412:
 5114              	.L620:
 5115              	.LBE206:
 5116              		.loc 1 1152 0
 5117 0420 FFF7FEFF 		bl	mc_interface_get_state
 5118              	.LVL413:
 5119 0424 0228     		cmp	r0, #2
 5120 0426 4D4D     		ldr	r5, .L689
 5121 0428 03D0     		beq	.L625
 5122              		.loc 1 1152 0 is_stmt 0 discriminator 1
 5123 042a 2B68     		ldr	r3, [r5]
 5124 042c 002B     		cmp	r3, #0
 5125 042e 40F33381 		ble	.L684
 5126              	.L625:
 5127              	.LVL414:
 5128              		.loc 1 1156 0 is_stmt 1
 5129 0432 5C4B     		ldr	r3, .L689+72
 5130 0434 2A68     		ldr	r2, [r5]
ARM GAS  C:\Users\CHRIST~1\AppData\Local\Temp\ccb3oWGE.s 			page 91


 5131 0436 1B68     		ldr	r3, [r3]
 5132 0438 9A42     		cmp	r2, r3
 5133 043a 7FF42BAF 		bne	.L624
 5134 043e 4FF00109 		mov	r9, #1
 5135              	.LVL415:
 5136              	.L640:
 5137              		.loc 1 1157 0
 5138 0442 3B78     		ldrb	r3, [r7]	@ zero_extendqisi2
 5139 0444 584A     		ldr	r2, .L689+76
 5140 0446 DBB2     		uxtb	r3, r3
 5141              		.loc 1 1158 0
 5142 0448 4FF00008 		mov	r8, #0
 5143              		.loc 1 1157 0
 5144 044c 1370     		strb	r3, [r2]
 5145              	.LBB217:
 5146              	.LBB218:
 5147              	.LBB219:
 5148              	.LBB220:
 5149              	.LBB221:
 5150              		.file 3 "ChibiOS_3.0.2/os/ext/CMSIS/include/core_cmFunc.h"
 5151              		.loc 3 546 0
 5152 044e 2023     		movs	r3, #32
 5153              	.LBE221:
 5154              	.LBE220:
 5155              	.LBE219:
 5156              	.LBE218:
 5157              	.LBE217:
 5158              		.loc 1 1158 0
 5159 0450 87F80080 		strb	r8, [r7]
 5160              	.LVL416:
 5161              	.LBB226:
 5162              	.LBB225:
 5163              	.LBB224:
 5164              	.LBB223:
 5165              	.LBB222:
 5166              		.loc 3 546 0
 5167              		.syntax unified
 5168              	@ 546 "ChibiOS_3.0.2/os/ext/CMSIS/include/core_cmFunc.h" 1
 5169 0454 83F31188 		MSR basepri, r3
 5170              	@ 0 "" 2
 5171              	.LVL417:
 5172              		.thumb
 5173              		.syntax unified
 5174              	.LBE222:
 5175              	.LBE223:
 5176              	.LBE224:
 5177              	.LBE225:
 5178              	.LBE226:
 5179              		.loc 1 1160 0
 5180 0458 544B     		ldr	r3, .L689+80
 5181 045a 0121     		movs	r1, #1
 5182 045c 1868     		ldr	r0, [r3]
 5183 045e FFF7FEFF 		bl	chEvtSignalI
 5184              	.LVL418:
 5185              	.LBB227:
 5186              	.LBB228:
 5187              	.LBB229:
ARM GAS  C:\Users\CHRIST~1\AppData\Local\Temp\ccb3oWGE.s 			page 92


 5188              	.LBB230:
 5189              	.LBB231:
 5190              		.loc 3 546 0
 5191              		.syntax unified
 5192              	@ 546 "ChibiOS_3.0.2/os/ext/CMSIS/include/core_cmFunc.h" 1
 5193 0462 88F31188 		MSR basepri, r8
 5194              	@ 0 "" 2
 5195              	.LVL419:
 5196              		.thumb
 5197              		.syntax unified
 5198              	.LBE231:
 5199              	.LBE230:
 5200              	.LBE229:
 5201              	.LBE228:
 5202              	.LBE227:
 5203              		.loc 1 1229 0
 5204 0466 B9F1000F 		cmp	r9, #0
 5205 046a 98D0     		beq	.L589
 5206 046c 12E7     		b	.L624
 5207              	.LVL420:
 5208              	.L618:
 5209              		.loc 1 1140 0
 5210 046e 3B4D     		ldr	r5, .L689
 5211 0470 4C4B     		ldr	r3, .L689+72
 5212 0472 2A68     		ldr	r2, [r5]
 5213 0474 1B68     		ldr	r3, [r3]
 5214 0476 9A42     		cmp	r2, r3
 5215 0478 7FF40CAF 		bne	.L624
 5216              		.loc 1 1142 0
 5217 047c 4A4A     		ldr	r2, .L689+76
 5218              		.loc 1 1141 0
 5219 047e 0024     		movs	r4, #0
 5220              		.loc 1 1142 0
 5221 0480 0121     		movs	r1, #1
 5222              		.loc 1 1141 0
 5223 0482 3C70     		strb	r4, [r7]
 5224              	.LBB232:
 5225              	.LBB233:
 5226              	.LBB234:
 5227              	.LBB235:
 5228              	.LBB236:
 5229              		.loc 3 546 0
 5230 0484 2023     		movs	r3, #32
 5231              	.LBE236:
 5232              	.LBE235:
 5233              	.LBE234:
 5234              	.LBE233:
 5235              	.LBE232:
 5236              		.loc 1 1142 0
 5237 0486 1170     		strb	r1, [r2]
 5238              	.LVL421:
 5239              	.LBB241:
 5240              	.LBB240:
 5241              	.LBB239:
 5242              	.LBB238:
 5243              	.LBB237:
 5244              		.loc 3 546 0
ARM GAS  C:\Users\CHRIST~1\AppData\Local\Temp\ccb3oWGE.s 			page 93


 5245              		.syntax unified
 5246              	@ 546 "ChibiOS_3.0.2/os/ext/CMSIS/include/core_cmFunc.h" 1
 5247 0488 83F31188 		MSR basepri, r3
 5248              	@ 0 "" 2
 5249              	.LVL422:
 5250              		.thumb
 5251              		.syntax unified
 5252              	.LBE237:
 5253              	.LBE238:
 5254              	.LBE239:
 5255              	.LBE240:
 5256              	.LBE241:
 5257              		.loc 1 1144 0
 5258 048c 474B     		ldr	r3, .L689+80
 5259 048e 1868     		ldr	r0, [r3]
 5260 0490 FFF7FEFF 		bl	chEvtSignalI
 5261              	.LVL423:
 5262              	.LBB242:
 5263              	.LBB243:
 5264              	.LBB244:
 5265              	.LBB245:
 5266              	.LBB246:
 5267              		.loc 3 546 0
 5268              		.syntax unified
 5269              	@ 546 "ChibiOS_3.0.2/os/ext/CMSIS/include/core_cmFunc.h" 1
 5270 0494 84F31188 		MSR basepri, r4
 5271              	@ 0 "" 2
 5272              	.LVL424:
 5273              		.thumb
 5274              		.syntax unified
 5275 0498 81E7     		b	.L589
 5276              	.LVL425:
 5277              	.L609:
 5278              	.LBE246:
 5279              	.LBE245:
 5280              	.LBE244:
 5281              	.LBE243:
 5282              	.LBE242:
 5283              	.LBB247:
 5284              	.LBB179:
 5285 049a 0320     		movs	r0, #3
 5286 049c FFF7FEFF 		bl	mc_interface_fault_stop.part.3
 5287              	.LVL426:
 5288 04a0 51E6     		b	.L608
 5289              	.LVL427:
 5290              	.L678:
 5291              	.LBE179:
 5292              	.LBE247:
 5293              		.loc 1 1092 0
 5294 04a2 FFF7FEFF 		bl	mcpwm_foc_get_abs_motor_current
 5295              	.LVL428:
 5296 04a6 B0EE409A 		vmov.f32	s18, s0
 5297              	.LVL429:
 5298              		.loc 1 1093 0
 5299 04aa FFF7FEFF 		bl	mcpwm_foc_get_abs_motor_current_filtered
 5300              	.LVL430:
 5301 04ae 2FE6     		b	.L600
ARM GAS  C:\Users\CHRIST~1\AppData\Local\Temp\ccb3oWGE.s 			page 94


 5302              	.LVL431:
 5303              	.L596:
 5304              	.LBB248:
 5305              	.LBB203:
 5306 04b0 FFF7FEFF 		bl	mc_interface_fault_stop.part.3
 5307              	.LVL432:
 5308 04b4 D0E5     		b	.L593
 5309              	.LVL433:
 5310              	.L679:
 5311              	.LBE203:
 5312              	.LBE248:
 5313              	.LBB249:
 5314              		.loc 1 1201 0
 5315 04b6 3B4A     		ldr	r2, .L689+72
 5316 04b8 D8F80030 		ldr	r3, [r8]
 5317 04bc 1268     		ldr	r2, [r2]
 5318              	.LVL434:
 5319              		.loc 1 1202 0
 5320 04be 9B1A     		subs	r3, r3, r2
 5321              	.LVL435:
 5322 04c0 7FF5D9AE 		bpl	.L632
 5323              		.loc 1 1203 0
 5324 04c4 03F5FA63 		add	r3, r3, #2000
 5325              	.LVL436:
 5326 04c8 D5E6     		b	.L632
 5327              	.LVL437:
 5328              	.L645:
 5329              	.LBE249:
 5330              	.LBB250:
 5331              		.loc 1 1169 0
 5332 04ca 4FF0FF33 		mov	r3, #-1
 5333              	.LVL438:
 5334              	.L628:
 5335              		.loc 1 1177 0
 5336 04ce 234D     		ldr	r5, .L689
 5337 04d0 2A68     		ldr	r2, [r5]
 5338 04d2 9A42     		cmp	r2, r3
 5339 04d4 14D0     		beq	.L629
 5340              		.loc 1 1190 0
 5341 04d6 FFF7FEFF 		bl	mc_interface_get_state
 5342              	.LVL439:
 5343 04da 0228     		cmp	r0, #2
 5344 04dc 7FF4DAAE 		bne	.L624
 5345 04e0 D1E6     		b	.L641
 5346              	.LVL440:
 5347              	.L666:
 5348              	.LBE250:
 5349              	.LBB251:
 5350              		.loc 1 1127 0
 5351 04e2 3348     		ldr	r0, .L689+84
 5352              		.loc 1 1128 0
 5353 04e4 3349     		ldr	r1, .L689+88
 5354              		.loc 1 1127 0
 5355 04e6 90ED007A 		vldr.32	s14, [r0]
 5356 04ea 77EE677A 		vsub.f32	s15, s14, s15
 5357 04ee C0ED007A 		vstr.32	s15, [r0]
 5358              		.loc 1 1128 0
ARM GAS  C:\Users\CHRIST~1\AppData\Local\Temp\ccb3oWGE.s 			page 95


 5359 04f2 D1ED007A 		vldr.32	s15, [r1]
 5360 04f6 37EEC88A 		vsub.f32	s16, s15, s16
 5361 04fa 81ED008A 		vstr.32	s16, [r1]
 5362 04fe 5EE6     		b	.L616
 5363              	.LVL441:
 5364              	.L629:
 5365              	.LBE251:
 5366              	.LBB252:
 5367              		.loc 1 1178 0
 5368 0500 3B78     		ldrb	r3, [r7]	@ zero_extendqisi2
 5369              	.LVL442:
 5370 0502 294A     		ldr	r2, .L689+76
 5371 0504 DBB2     		uxtb	r3, r3
 5372 0506 1370     		strb	r3, [r2]
 5373              	.LVL443:
 5374              		.loc 1 1181 0
 5375 0508 3B78     		ldrb	r3, [r7]	@ zero_extendqisi2
 5376 050a 032B     		cmp	r3, #3
 5377 050c 00F0CD80 		beq	.L685
 5378              	.LVL444:
 5379              	.L630:
 5380              		.loc 1 1187 0
 5381 0510 0023     		movs	r3, #0
 5382 0512 3B70     		strb	r3, [r7]
 5383              		.loc 1 1190 0
 5384 0514 FFF7FEFF 		bl	mc_interface_get_state
 5385              	.LVL445:
 5386 0518 0228     		cmp	r0, #2
 5387 051a 7FF440AF 		bne	.L589
 5388 051e D8F80030 		ldr	r3, [r8]
 5389 0522 002B     		cmp	r3, #0
 5390 0524 BFF63BAF 		bge	.L589
 5391              	.L672:
 5392              	.LBE252:
 5393              	.LBB253:
 5394              		.loc 1 1221 0
 5395 0528 2B68     		ldr	r3, [r5]
 5396 052a C8F80030 		str	r3, [r8]
 5397 052e 36E7     		b	.L589
 5398              	.LVL446:
 5399              	.L680:
 5400              		.loc 1 1208 0
 5401 0530 3B78     		ldrb	r3, [r7]	@ zero_extendqisi2
 5402              	.LVL447:
 5403 0532 1D4A     		ldr	r2, .L689+76
 5404 0534 DBB2     		uxtb	r3, r3
 5405 0536 1370     		strb	r3, [r2]
 5406              	.LVL448:
 5407              		.loc 1 1211 0
 5408 0538 3B78     		ldrb	r3, [r7]	@ zero_extendqisi2
 5409 053a 042B     		cmp	r3, #4
 5410 053c 00F0C180 		beq	.L686
 5411              	.LVL449:
 5412              	.L634:
 5413              		.loc 1 1220 0
 5414 0540 074B     		ldr	r3, .L689+4
 5415 0542 1B78     		ldrb	r3, [r3]	@ zero_extendqisi2
ARM GAS  C:\Users\CHRIST~1\AppData\Local\Temp\ccb3oWGE.s 			page 96


 5416              		.loc 1 1217 0
 5417 0544 0022     		movs	r2, #0
 5418 0546 3A70     		strb	r2, [r7]
 5419              		.loc 1 1220 0
 5420 0548 002B     		cmp	r3, #0
 5421 054a 3FF428AF 		beq	.L589
 5422 054e D8F80030 		ldr	r3, [r8]
 5423 0552 9342     		cmp	r3, r2
 5424 0554 BFF623AF 		bge	.L589
 5425 0558 E6E7     		b	.L672
 5426              	.L690:
 5427 055a 00BF     		.align	2
 5428              	.L689:
 5429 055c 00000000 		.word	.LANCHOR35
 5430 0560 00000000 		.word	.LANCHOR13
 5431 0564 00000000 		.word	.LANCHOR45
 5432 0568 00000000 		.word	.LANCHOR34
 5433 056c 00000000 		.word	mcpwm_vzero
 5434 0570 C8760000 		.word	.LANCHOR11
 5435 0574 00000000 		.word	.LANCHOR46
 5436 0578 00000000 		.word	.LANCHOR4
 5437 057c F8100000 		.word	.LANCHOR5
 5438 0580 E8320000 		.word	.LANCHOR7
 5439 0584 E0430000 		.word	.LANCHOR8
 5440 0588 D8540000 		.word	.LANCHOR9
 5441 058c D0650000 		.word	.LANCHOR10
 5442 0590 A48BC642 		.word	1120308132
 5443 0594 00000000 		.word	.LANCHOR31
 5444 0598 00000000 		.word	.LANCHOR14
 5445 059c 00000000 		.word	.LANCHOR15
 5446 05a0 00000000 		.word	.LANCHOR42
 5447 05a4 00000000 		.word	.LANCHOR2
 5448 05a8 00000000 		.word	.LANCHOR1
 5449 05ac 00000000 		.word	.LANCHOR0
 5450 05b0 00000000 		.word	.LANCHOR27
 5451 05b4 00000000 		.word	.LANCHOR29
 5452 05b8 00000000 		.word	.LANCHOR3
 5453 05bc F0210000 		.word	.LANCHOR6
 5454              	.LVL450:
 5455              	.L681:
 5456              	.LBE253:
 5457              	.LBB254:
 5458              	.LBB197:
 5459              		.loc 1 1242 0
 5460 05c0 B188     		ldrh	r1, [r6, #4]
 5461 05c2 7488     		ldrh	r4, [r6, #2]
 5462 05c4 3288     		ldrh	r2, [r6]
 5463 05c6 454B     		ldr	r3, .L691
 5464              		.loc 1 1243 0
 5465 05c8 454F     		ldr	r7, .L691+4
 5466              		.loc 1 1242 0
 5467 05ca 0C44     		add	r4, r4, r1
 5468 05cc 1444     		add	r4, r4, r2
 5469 05ce A3FB0434 		umull	r3, r4, r3, r4
 5470              		.loc 1 1243 0
 5471 05d2 FFF7FEFF 		bl	mcpwm_foc_get_phase
 5472              	.LVL451:
ARM GAS  C:\Users\CHRIST~1\AppData\Local\Temp\ccb3oWGE.s 			page 97


 5473 05d6 9FED437A 		vldr.32	s14, .L691+8
 5474 05da DFED437A 		vldr.32	s15, .L691+12
 5475 05de 2B68     		ldr	r3, [r5]
 5476 05e0 80EE070A 		vdiv.f32	s0, s0, s14
 5477 05e4 3B44     		add	r3, r3, r7
 5478              		.loc 1 1242 0
 5479 05e6 44F34F04 		sbfx	r4, r4, #1, #16
 5480              	.LVL452:
 5481              		.loc 1 1243 0
 5482 05ea 20EE270A 		vmul.f32	s0, s0, s15
 5483 05ee FCEEC07A 		vcvt.u32.f32	s15, s0
 5484 05f2 CDED017A 		vstr.32	s15, [sp, #4]	@ int
 5485 05f6 9DF90420 		ldrsb	r2, [sp, #4]
 5486 05fa 83F8082E 		strb	r2, [r3, #3592]
 5487 05fe 65E6     		b	.L637
 5488              	.L682:
 5489              		.loc 1 1253 0
 5490 0600 FFF7FEFF 		bl	mcpwm_get_comm_step
 5491              	.LVL453:
 5492 0604 394B     		ldr	r3, .L691+16
 5493 0606 3A4E     		ldr	r6, .L691+20
 5494 0608 0138     		subs	r0, r0, #1
 5495 060a 03EB8003 		add	r3, r3, r0, lsl #2
 5496 060e D3ED007A 		vldr.32	s15, [r3]
 5497 0612 2A68     		ldr	r2, [r5]
 5498 0614 FDEEE77A 		vcvt.s32.f32	s15, s15
 5499 0618 17EE903A 		vmov	r3, s15	@ int
 5500 061c 1BB2     		sxth	r3, r3
 5501 061e 26F81230 		strh	r3, [r6, r2, lsl #1]	@ movhi
 5502              		.loc 1 1254 0
 5503 0622 FFF7FEFF 		bl	mcpwm_get_comm_step
 5504              	.LVL454:
 5505 0626 334B     		ldr	r3, .L691+24
 5506              		.loc 1 1256 0
 5507 0628 3349     		ldr	r1, .L691+28
 5508 062a 344A     		ldr	r2, .L691+32
 5509              		.loc 1 1254 0
 5510 062c 0138     		subs	r0, r0, #1
 5511 062e 03EB8003 		add	r3, r3, r0, lsl #2
 5512 0632 D3ED007A 		vldr.32	s15, [r3]
 5513 0636 2B68     		ldr	r3, [r5]
 5514              		.loc 1 1257 0
 5515 0638 3148     		ldr	r0, .L691+36
 5516              		.loc 1 1254 0
 5517 063a FDEEE77A 		vcvt.s32.f32	s15, s15
 5518 063e 06EB4306 		add	r6, r6, r3, lsl #1
 5519 0642 17EE903A 		vmov	r3, s15	@ int
 5520 0646 1BB2     		sxth	r3, r3
 5521 0648 A6F8A03F 		strh	r3, [r6, #4000]	@ movhi
 5522              		.loc 1 1256 0
 5523 064c D1ED007A 		vldr.32	s15, [r1]
 5524 0650 2B68     		ldr	r3, [r5]
 5525 0652 FDEEE77A 		vcvt.s32.f32	s15, s15
 5526 0656 02EB4302 		add	r2, r2, r3, lsl #1
 5527 065a 17EE903A 		vmov	r3, s15	@ int
 5528 065e 1BB2     		sxth	r3, r3
 5529 0660 A2F8483E 		strh	r3, [r2, #3656]	@ movhi
ARM GAS  C:\Users\CHRIST~1\AppData\Local\Temp\ccb3oWGE.s 			page 98


 5530              		.loc 1 1257 0
 5531 0664 D1ED017A 		vldr.32	s15, [r1, #4]
 5532 0668 2B68     		ldr	r3, [r5]
 5533              		.loc 1 1258 0
 5534 066a 264A     		ldr	r2, .L691+40
 5535              		.loc 1 1257 0
 5536 066c FDEEE77A 		vcvt.s32.f32	s15, s15
 5537 0670 00EB4300 		add	r0, r0, r3, lsl #1
 5538 0674 17EE903A 		vmov	r3, s15	@ int
 5539 0678 1BB2     		sxth	r3, r3
 5540 067a A0F8F03C 		strh	r3, [r0, #3312]	@ movhi
 5541              		.loc 1 1258 0
 5542 067e D1ED027A 		vldr.32	s15, [r1, #8]
 5543 0682 2B68     		ldr	r3, [r5]
 5544 0684 FDEEE77A 		vcvt.s32.f32	s15, s15
 5545 0688 02EB4302 		add	r2, r2, r3, lsl #1
 5546 068c 17EE903A 		vmov	r3, s15	@ int
 5547 0690 1BB2     		sxth	r3, r3
 5548 0692 A2F8983B 		strh	r3, [r2, #2968]	@ movhi
 5549 0696 4AE6     		b	.L639
 5550              	.LVL455:
 5551              	.L684:
 5552              	.LBE197:
 5553              	.LBE254:
 5554              		.loc 1 1156 0
 5555 0698 1B4B     		ldr	r3, .L691+44
 5556 069a 2A68     		ldr	r2, [r5]
 5557 069c 1B68     		ldr	r3, [r3]
 5558 069e 9A42     		cmp	r2, r3
 5559 06a0 7FF47DAE 		bne	.L589
 5560              		.loc 1 1136 0
 5561 06a4 4FF00009 		mov	r9, #0
 5562 06a8 CBE6     		b	.L640
 5563              	.LVL456:
 5564              	.L685:
 5565              	.LBB255:
 5566              	.LBB207:
 5567              	.LBB208:
 5568              	.LBB209:
 5569              	.LBB210:
 5570              	.LBB211:
 5571              		.loc 3 546 0
 5572 06aa 2023     		movs	r3, #32
 5573              		.syntax unified
 5574              	@ 546 "ChibiOS_3.0.2/os/ext/CMSIS/include/core_cmFunc.h" 1
 5575 06ac 83F31188 		MSR basepri, r3
 5576              	@ 0 "" 2
 5577              	.LVL457:
 5578              		.thumb
 5579              		.syntax unified
 5580              	.LBE211:
 5581              	.LBE210:
 5582              	.LBE209:
 5583              	.LBE208:
 5584              	.LBE207:
 5585              		.loc 1 1183 0
 5586 06b0 164B     		ldr	r3, .L691+48
ARM GAS  C:\Users\CHRIST~1\AppData\Local\Temp\ccb3oWGE.s 			page 99


 5587 06b2 0121     		movs	r1, #1
 5588 06b4 1868     		ldr	r0, [r3]
 5589 06b6 FFF7FEFF 		bl	chEvtSignalI
 5590              	.LVL458:
 5591              	.LBB212:
 5592              	.LBB213:
 5593              	.LBB214:
 5594              	.LBB215:
 5595              	.LBB216:
 5596              		.loc 3 546 0
 5597 06ba 0023     		movs	r3, #0
 5598              		.syntax unified
 5599              	@ 546 "ChibiOS_3.0.2/os/ext/CMSIS/include/core_cmFunc.h" 1
 5600 06bc 83F31188 		MSR basepri, r3
 5601              	@ 0 "" 2
 5602              	.LVL459:
 5603              		.thumb
 5604              		.syntax unified
 5605 06c0 26E7     		b	.L630
 5606              	.LVL460:
 5607              	.L686:
 5608              	.LBE216:
 5609              	.LBE215:
 5610              	.LBE214:
 5611              	.LBE213:
 5612              	.LBE212:
 5613              	.LBE255:
 5614              	.LBB256:
 5615              	.LBB181:
 5616              	.LBB182:
 5617              	.LBB183:
 5618              	.LBB184:
 5619              	.LBB185:
 5620 06c2 2023     		movs	r3, #32
 5621              		.syntax unified
 5622              	@ 546 "ChibiOS_3.0.2/os/ext/CMSIS/include/core_cmFunc.h" 1
 5623 06c4 83F31188 		MSR basepri, r3
 5624              	@ 0 "" 2
 5625              	.LVL461:
 5626              		.thumb
 5627              		.syntax unified
 5628              	.LBE185:
 5629              	.LBE184:
 5630              	.LBE183:
 5631              	.LBE182:
 5632              	.LBE181:
 5633              		.loc 1 1213 0
 5634 06c8 104B     		ldr	r3, .L691+48
 5635 06ca 0121     		movs	r1, #1
 5636 06cc 1868     		ldr	r0, [r3]
 5637 06ce FFF7FEFF 		bl	chEvtSignalI
 5638              	.LVL462:
 5639              	.LBB186:
 5640              	.LBB187:
 5641              	.LBB188:
 5642              	.LBB189:
 5643              	.LBB190:
ARM GAS  C:\Users\CHRIST~1\AppData\Local\Temp\ccb3oWGE.s 			page 100


 5644              		.loc 3 546 0
 5645 06d2 0023     		movs	r3, #0
 5646              		.syntax unified
 5647              	@ 546 "ChibiOS_3.0.2/os/ext/CMSIS/include/core_cmFunc.h" 1
 5648 06d4 83F31188 		MSR basepri, r3
 5649              	@ 0 "" 2
 5650              	.LVL463:
 5651              		.thumb
 5652              		.syntax unified
 5653 06d8 32E7     		b	.L634
 5654              	.L692:
 5655 06da 00BF     		.align	2
 5656              	.L691:
 5657 06dc ABAAAAAA 		.word	-1431655765
 5658 06e0 C8760000 		.word	.LANCHOR11
 5659 06e4 0000B443 		.word	1135869952
 5660 06e8 00007A43 		.word	1132068864
 5661 06ec 00000000 		.word	mcpwm_detect_currents
 5662 06f0 00000000 		.word	.LANCHOR4
 5663 06f4 00000000 		.word	mcpwm_detect_currents_diff
 5664 06f8 00000000 		.word	mcpwm_detect_voltages
 5665 06fc F8100000 		.word	.LANCHOR5
 5666 0700 F0210000 		.word	.LANCHOR6
 5667 0704 E8320000 		.word	.LANCHOR7
 5668 0708 00000000 		.word	.LANCHOR2
 5669 070c 00000000 		.word	.LANCHOR0
 5670              	.LBE190:
 5671              	.LBE189:
 5672              	.LBE188:
 5673              	.LBE187:
 5674              	.LBE186:
 5675              	.LBE256:
 5676              		.cfi_endproc
 5677              	.LFE307:
 5678              		.size	mc_interface_mc_timer_isr, .-mc_interface_mc_timer_isr
 5679              		.section	.text.mc_interface_adc_inj_int_handler,"ax",%progbits
 5680              		.align	1
 5681              		.p2align 4,,15
 5682              		.global	mc_interface_adc_inj_int_handler
 5683              		.syntax unified
 5684              		.thumb
 5685              		.thumb_func
 5686              		.fpu fpv4-sp-d16
 5687              		.type	mc_interface_adc_inj_int_handler, %function
 5688              	mc_interface_adc_inj_int_handler:
 5689              	.LFB308:
 5690              		.loc 1 1280 0
 5691              		.cfi_startproc
 5692              		@ args = 0, pretend = 0, frame = 0
 5693              		@ frame_needed = 0, uses_anonymous_args = 0
 5694              		@ link register save eliminated.
 5695              		.loc 1 1281 0
 5696 0000 034B     		ldr	r3, .L697
 5697 0002 9B78     		ldrb	r3, [r3, #2]	@ zero_extendqisi2
 5698 0004 012B     		cmp	r3, #1
 5699 0006 00D9     		bls	.L696
 5700              		.loc 1 1293 0
ARM GAS  C:\Users\CHRIST~1\AppData\Local\Temp\ccb3oWGE.s 			page 101


 5701 0008 7047     		bx	lr
 5702              	.L696:
 5703              		.loc 1 1284 0
 5704 000a FFF7FEBF 		b	mcpwm_adc_inj_int_handler
 5705              	.LVL464:
 5706              	.L698:
 5707 000e 00BF     		.align	2
 5708              	.L697:
 5709 0010 00000000 		.word	.LANCHOR12
 5710              		.cfi_endproc
 5711              	.LFE308:
 5712              		.size	mc_interface_adc_inj_int_handler, .-mc_interface_adc_inj_int_handler
 5713              		.global	ADC_curr_norm_value
 5714              		.global	ADC_Value
 5715              		.section	.bss.ADC_Value,"aw",%nobits
 5716              		.align	2
 5717              		.set	.LANCHOR41,. + 0
 5718              		.type	ADC_Value, %object
 5719              		.size	ADC_Value, 24
 5720              	ADC_Value:
 5721 0000 00000000 		.space	24
 5721      00000000 
 5721      00000000 
 5721      00000000 
 5721      00000000 
 5722              		.section	.bss.ADC_curr_norm_value,"aw",%nobits
 5723              		.align	2
 5724              		.set	.LANCHOR46,. + 0
 5725              		.type	ADC_curr_norm_value, %object
 5726              		.size	ADC_curr_norm_value, 12
 5727              	ADC_curr_norm_value:
 5728 0000 00000000 		.space	12
 5728      00000000 
 5728      00000000 
 5729              		.section	.bss.a.12082,"aw",%nobits
 5730              		.align	2
 5731              		.set	.LANCHOR45,. + 0
 5732              		.type	a.12082, %object
 5733              		.size	a.12082, 4
 5734              	a.12082:
 5735 0000 00000000 		.space	4
 5736              		.section	.bss.curr_diff_samples.12070,"aw",%nobits
 5737              		.align	2
 5738              		.set	.LANCHOR44,. + 0
 5739              		.type	curr_diff_samples.12070, %object
 5740              		.size	curr_diff_samples.12070, 4
 5741              	curr_diff_samples.12070:
 5742 0000 00000000 		.space	4
 5743              		.section	.bss.curr_diff_sum.12069,"aw",%nobits
 5744              		.align	2
 5745              		.set	.LANCHOR43,. + 0
 5746              		.type	curr_diff_sum.12069, %object
 5747              		.size	curr_diff_sum.12069, 4
 5748              	curr_diff_sum.12069:
 5749 0000 00000000 		.space	4
 5750              		.section	.bss.m_amp_seconds,"aw",%nobits
 5751              		.align	2
ARM GAS  C:\Users\CHRIST~1\AppData\Local\Temp\ccb3oWGE.s 			page 102


 5752              		.set	.LANCHOR26,. + 0
 5753              		.type	m_amp_seconds, %object
 5754              		.size	m_amp_seconds, 4
 5755              	m_amp_seconds:
 5756 0000 00000000 		.space	4
 5757              		.section	.bss.m_amp_seconds_charged,"aw",%nobits
 5758              		.align	2
 5759              		.set	.LANCHOR27,. + 0
 5760              		.type	m_amp_seconds_charged, %object
 5761              		.size	m_amp_seconds_charged, 4
 5762              	m_amp_seconds_charged:
 5763 0000 00000000 		.space	4
 5764              		.section	.bss.m_conf,"aw",%nobits
 5765              		.align	2
 5766              		.set	.LANCHOR12,. + 0
 5767              		.type	m_conf, %object
 5768              		.size	m_conf, 372
 5769              	m_conf:
 5770 0000 00000000 		.space	372
 5770      00000000 
 5770      00000000 
 5770      00000000 
 5770      00000000 
 5771              		.section	.bss.m_cycles_running,"aw",%nobits
 5772              		.align	2
 5773              		.set	.LANCHOR15,. + 0
 5774              		.type	m_cycles_running, %object
 5775              		.size	m_cycles_running, 4
 5776              	m_cycles_running:
 5777 0000 00000000 		.space	4
 5778              		.section	.bss.m_fault_now,"aw",%nobits
 5779              		.set	.LANCHOR13,. + 0
 5780              		.type	m_fault_now, %object
 5781              		.size	m_fault_now, 1
 5782              	m_fault_now:
 5783 0000 00       		.space	1
 5784              		.section	.bss.m_ignore_iterations,"aw",%nobits
 5785              		.align	2
 5786              		.set	.LANCHOR14,. + 0
 5787              		.type	m_ignore_iterations, %object
 5788              		.size	m_ignore_iterations, 4
 5789              	m_ignore_iterations:
 5790 0000 00000000 		.space	4
 5791              		.section	.bss.m_input_current_iterations,"aw",%nobits
 5792              		.align	2
 5793              		.set	.LANCHOR21,. + 0
 5794              		.type	m_input_current_iterations, %object
 5795              		.size	m_input_current_iterations, 4
 5796              	m_input_current_iterations:
 5797 0000 00000000 		.space	4
 5798              		.section	.bss.m_input_current_sum,"aw",%nobits
 5799              		.align	2
 5800              		.set	.LANCHOR19,. + 0
 5801              		.type	m_input_current_sum, %object
 5802              		.size	m_input_current_sum, 4
 5803              	m_input_current_sum:
 5804 0000 00000000 		.space	4
ARM GAS  C:\Users\CHRIST~1\AppData\Local\Temp\ccb3oWGE.s 			page 103


 5805              		.section	.bss.m_last_adc_duration_sample,"aw",%nobits
 5806              		.align	2
 5807              		.set	.LANCHOR31,. + 0
 5808              		.type	m_last_adc_duration_sample, %object
 5809              		.size	m_last_adc_duration_sample, 4
 5810              	m_last_adc_duration_sample:
 5811 0000 00000000 		.space	4
 5812              		.section	.bss.m_lock_enabled,"aw",%nobits
 5813              		.set	.LANCHOR16,. + 0
 5814              		.type	m_lock_enabled, %object
 5815              		.size	m_lock_enabled, 1
 5816              	m_lock_enabled:
 5817 0000 00       		.space	1
 5818              		.section	.bss.m_lock_override_once,"aw",%nobits
 5819              		.set	.LANCHOR17,. + 0
 5820              		.type	m_lock_override_once, %object
 5821              		.size	m_lock_override_once, 1
 5822              	m_lock_override_once:
 5823 0000 00       		.space	1
 5824              		.section	.bss.m_motor_current_iterations,"aw",%nobits
 5825              		.align	2
 5826              		.set	.LANCHOR20,. + 0
 5827              		.type	m_motor_current_iterations, %object
 5828              		.size	m_motor_current_iterations, 4
 5829              	m_motor_current_iterations:
 5830 0000 00000000 		.space	4
 5831              		.section	.bss.m_motor_current_sum,"aw",%nobits
 5832              		.align	2
 5833              		.set	.LANCHOR18,. + 0
 5834              		.type	m_motor_current_sum, %object
 5835              		.size	m_motor_current_sum, 4
 5836              	m_motor_current_sum:
 5837 0000 00000000 		.space	4
 5838              		.section	.bss.m_motor_id_iterations,"aw",%nobits
 5839              		.align	2
 5840              		.set	.LANCHOR24,. + 0
 5841              		.type	m_motor_id_iterations, %object
 5842              		.size	m_motor_id_iterations, 4
 5843              	m_motor_id_iterations:
 5844 0000 00000000 		.space	4
 5845              		.section	.bss.m_motor_id_sum,"aw",%nobits
 5846              		.align	2
 5847              		.set	.LANCHOR22,. + 0
 5848              		.type	m_motor_id_sum, %object
 5849              		.size	m_motor_id_sum, 4
 5850              	m_motor_id_sum:
 5851 0000 00000000 		.space	4
 5852              		.section	.bss.m_motor_iq_iterations,"aw",%nobits
 5853              		.align	2
 5854              		.set	.LANCHOR25,. + 0
 5855              		.type	m_motor_iq_iterations, %object
 5856              		.size	m_motor_iq_iterations, 4
 5857              	m_motor_iq_iterations:
 5858 0000 00000000 		.space	4
 5859              		.section	.bss.m_motor_iq_sum,"aw",%nobits
 5860              		.align	2
 5861              		.set	.LANCHOR23,. + 0
ARM GAS  C:\Users\CHRIST~1\AppData\Local\Temp\ccb3oWGE.s 			page 104


 5862              		.type	m_motor_iq_sum, %object
 5863              		.size	m_motor_iq_sum, 4
 5864              	m_motor_iq_sum:
 5865 0000 00000000 		.space	4
 5866              		.section	.bss.m_position_set,"aw",%nobits
 5867              		.align	2
 5868              		.set	.LANCHOR30,. + 0
 5869              		.type	m_position_set, %object
 5870              		.size	m_position_set, 4
 5871              	m_position_set:
 5872 0000 00000000 		.space	4
 5873              		.section	.bss.m_sample_int,"aw",%nobits
 5874              		.align	2
 5875              		.set	.LANCHOR34,. + 0
 5876              		.type	m_sample_int, %object
 5877              		.size	m_sample_int, 4
 5878              	m_sample_int:
 5879 0000 00000000 		.space	4
 5880              		.section	.bss.m_sample_len,"aw",%nobits
 5881              		.align	2
 5882              		.set	.LANCHOR2,. + 0
 5883              		.type	m_sample_len, %object
 5884              		.size	m_sample_len, 4
 5885              	m_sample_len:
 5886 0000 00000000 		.space	4
 5887              		.section	.bss.m_sample_mode,"aw",%nobits
 5888              		.set	.LANCHOR36,. + 0
 5889              		.type	m_sample_mode, %object
 5890              		.size	m_sample_mode, 1
 5891              	m_sample_mode:
 5892 0000 00       		.space	1
 5893              		.section	.bss.m_sample_mode_last,"aw",%nobits
 5894              		.set	.LANCHOR1,. + 0
 5895              		.type	m_sample_mode_last, %object
 5896              		.size	m_sample_mode_last, 1
 5897              	m_sample_mode_last:
 5898 0000 00       		.space	1
 5899              		.section	.bss.m_sample_now,"aw",%nobits
 5900              		.align	2
 5901              		.set	.LANCHOR35,. + 0
 5902              		.type	m_sample_now, %object
 5903              		.size	m_sample_now, 4
 5904              	m_sample_now:
 5905 0000 00000000 		.space	4
 5906              		.section	.bss.m_sample_trigger,"aw",%nobits
 5907              		.align	2
 5908              		.set	.LANCHOR3,. + 0
 5909              		.type	m_sample_trigger, %object
 5910              		.size	m_sample_trigger, 4
 5911              	m_sample_trigger:
 5912 0000 00000000 		.space	4
 5913              		.section	.bss.m_temp_fet,"aw",%nobits
 5914              		.align	2
 5915              		.set	.LANCHOR32,. + 0
 5916              		.type	m_temp_fet, %object
 5917              		.size	m_temp_fet, 4
 5918              	m_temp_fet:
ARM GAS  C:\Users\CHRIST~1\AppData\Local\Temp\ccb3oWGE.s 			page 105


 5919 0000 00000000 		.space	4
 5920              		.section	.bss.m_temp_motor,"aw",%nobits
 5921              		.align	2
 5922              		.set	.LANCHOR33,. + 0
 5923              		.type	m_temp_motor, %object
 5924              		.size	m_temp_motor, 4
 5925              	m_temp_motor:
 5926 0000 00000000 		.space	4
 5927              		.section	.bss.m_watt_seconds,"aw",%nobits
 5928              		.align	2
 5929              		.set	.LANCHOR28,. + 0
 5930              		.type	m_watt_seconds, %object
 5931              		.size	m_watt_seconds, 4
 5932              	m_watt_seconds:
 5933 0000 00000000 		.space	4
 5934              		.section	.bss.m_watt_seconds_charged,"aw",%nobits
 5935              		.align	2
 5936              		.set	.LANCHOR29,. + 0
 5937              		.type	m_watt_seconds_charged, %object
 5938              		.size	m_watt_seconds_charged, 4
 5939              	m_watt_seconds_charged:
 5940 0000 00000000 		.space	4
 5941              		.section	.bss.pwn_done_func,"aw",%nobits
 5942              		.align	2
 5943              		.set	.LANCHOR39,. + 0
 5944              		.type	pwn_done_func, %object
 5945              		.size	pwn_done_func, 4
 5946              	pwn_done_func:
 5947 0000 00000000 		.space	4
 5948              		.section	.bss.sample_send_thread_wa,"aw",%nobits
 5949              		.align	3
 5950              		.set	.LANCHOR38,. + 0
 5951              		.type	sample_send_thread_wa, %object
 5952              		.size	sample_send_thread_wa, 1432
 5953              	sample_send_thread_wa:
 5954 0000 00000000 		.space	1432
 5954      00000000 
 5954      00000000 
 5954      00000000 
 5954      00000000 
 5955              		.section	.bss.sample_send_tp,"aw",%nobits
 5956              		.align	2
 5957              		.set	.LANCHOR0,. + 0
 5958              		.type	sample_send_tp, %object
 5959              		.size	sample_send_tp, 4
 5960              	sample_send_tp:
 5961 0000 00000000 		.space	4
 5962              		.section	.bss.timer_thread_wa,"aw",%nobits
 5963              		.align	3
 5964              		.set	.LANCHOR37,. + 0
 5965              		.type	timer_thread_wa, %object
 5966              		.size	timer_thread_wa, 1432
 5967              	timer_thread_wa:
 5968 0000 00000000 		.space	1432
 5968      00000000 
 5968      00000000 
 5968      00000000 
ARM GAS  C:\Users\CHRIST~1\AppData\Local\Temp\ccb3oWGE.s 			page 106


 5968      00000000 
 5969              		.section	.bss.wrong_voltage_iterations.12063,"aw",%nobits
 5970              		.align	2
 5971              		.set	.LANCHOR42,. + 0
 5972              		.type	wrong_voltage_iterations.12063, %object
 5973              		.size	wrong_voltage_iterations.12063, 4
 5974              	wrong_voltage_iterations.12063:
 5975 0000 00000000 		.space	4
 5976              		.section	.ram4,"aw",%progbits
 5977              		.align	2
 5978              		.set	.LANCHOR4,. + 0
 5979              		.set	.LANCHOR5,. + 4344
 5980              		.set	.LANCHOR6,. + 8688
 5981              		.set	.LANCHOR7,. + 13032
 5982              		.set	.LANCHOR8,. + 17376
 5983              		.set	.LANCHOR9,. + 21720
 5984              		.set	.LANCHOR10,. + 26064
 5985              		.set	.LANCHOR11,. + 30408
 5986              		.type	m_curr0_samples, %object
 5987              		.size	m_curr0_samples, 4000
 5988              	m_curr0_samples:
 5989 0000 00000000 		.space	4000
 5989      00000000 
 5989      00000000 
 5989      00000000 
 5989      00000000 
 5990              		.type	m_curr1_samples, %object
 5991              		.size	m_curr1_samples, 4000
 5992              	m_curr1_samples:
 5993 0fa0 00000000 		.space	4000
 5993      00000000 
 5993      00000000 
 5993      00000000 
 5993      00000000 
 5994              		.type	m_ph1_samples, %object
 5995              		.size	m_ph1_samples, 4000
 5996              	m_ph1_samples:
 5997 1f40 00000000 		.space	4000
 5997      00000000 
 5997      00000000 
 5997      00000000 
 5997      00000000 
 5998              		.type	m_ph2_samples, %object
 5999              		.size	m_ph2_samples, 4000
 6000              	m_ph2_samples:
 6001 2ee0 00000000 		.space	4000
 6001      00000000 
 6001      00000000 
 6001      00000000 
 6001      00000000 
 6002              		.type	m_ph3_samples, %object
 6003              		.size	m_ph3_samples, 4000
 6004              	m_ph3_samples:
 6005 3e80 00000000 		.space	4000
 6005      00000000 
 6005      00000000 
 6005      00000000 
ARM GAS  C:\Users\CHRIST~1\AppData\Local\Temp\ccb3oWGE.s 			page 107


 6005      00000000 
 6006              		.type	m_vzero_samples, %object
 6007              		.size	m_vzero_samples, 4000
 6008              	m_vzero_samples:
 6009 4e20 00000000 		.space	4000
 6009      00000000 
 6009      00000000 
 6009      00000000 
 6009      00000000 
 6010              		.type	m_curr_fir_samples, %object
 6011              		.size	m_curr_fir_samples, 4000
 6012              	m_curr_fir_samples:
 6013 5dc0 00000000 		.space	4000
 6013      00000000 
 6013      00000000 
 6013      00000000 
 6013      00000000 
 6014              		.type	m_f_sw_samples, %object
 6015              		.size	m_f_sw_samples, 4000
 6016              	m_f_sw_samples:
 6017 6d60 00000000 		.space	4000
 6017      00000000 
 6017      00000000 
 6017      00000000 
 6017      00000000 
 6018              		.type	m_status_samples, %object
 6019              		.size	m_status_samples, 2000
 6020              	m_status_samples:
 6021 7d00 00000000 		.space	2000
 6021      00000000 
 6021      00000000 
 6021      00000000 
 6021      00000000 
 6022              		.type	m_phase_samples, %object
 6023              		.size	m_phase_samples, 2000
 6024              	m_phase_samples:
 6025 84d0 00000000 		.space	2000
 6025      00000000 
 6025      00000000 
 6025      00000000 
 6025      00000000 
 6026              		.section	.rodata.CSWTCH.177,"a",%progbits
 6027              		.align	2
 6028              		.set	.LANCHOR40,. + 0
 6029              		.type	CSWTCH.177, %object
 6030              		.size	CSWTCH.177, 28
 6031              	CSWTCH.177:
 6032 0000 00000000 		.word	.LC3
 6033 0004 10000000 		.word	.LC4
 6034 0008 28000000 		.word	.LC5
 6035 000c 44000000 		.word	.LC6
 6036 0010 54000000 		.word	.LC7
 6037 0014 70000000 		.word	.LC8
 6038 0018 8C000000 		.word	.LC9
 6039              		.section	.rodata.mc_interface_fault_to_string.str1.4,"aMS",%progbits,1
 6040              		.align	2
 6041              	.LC1:
ARM GAS  C:\Users\CHRIST~1\AppData\Local\Temp\ccb3oWGE.s 			page 108


 6042 0000 4641554C 		.ascii	"FAULT_UNKNOWN\000"
 6042      545F554E 
 6042      4B4E4F57 
 6042      4E00
 6043              		.section	.rodata.sample_send_thread.str1.4,"aMS",%progbits,1
 6044              		.align	2
 6045              	.LC0:
 6046 0000 53616D70 		.ascii	"SampleSender\000"
 6046      6C655365 
 6046      6E646572 
 6046      00
 6047              		.section	.rodata.str1.4,"aMS",%progbits,1
 6048              		.align	2
 6049              	.LC3:
 6050 0000 4641554C 		.ascii	"FAULT_CODE_NONE\000"
 6050      545F434F 
 6050      44455F4E 
 6050      4F4E4500 
 6051              	.LC4:
 6052 0010 4641554C 		.ascii	"FAULT_CODE_OVER_VOLTAGE\000"
 6052      545F434F 
 6052      44455F4F 
 6052      5645525F 
 6052      564F4C54 
 6053              	.LC5:
 6054 0028 4641554C 		.ascii	"FAULT_CODE_UNDER_VOLTAGE\000"
 6054      545F434F 
 6054      44455F55 
 6054      4E444552 
 6054      5F564F4C 
 6055 0041 000000   		.space	3
 6056              	.LC6:
 6057 0044 4641554C 		.ascii	"FAULT_CODE_DRV\000"
 6057      545F434F 
 6057      44455F44 
 6057      525600
 6058 0053 00       		.space	1
 6059              	.LC7:
 6060 0054 4641554C 		.ascii	"FAULT_CODE_ABS_OVER_CURRENT\000"
 6060      545F434F 
 6060      44455F41 
 6060      42535F4F 
 6060      5645525F 
 6061              	.LC8:
 6062 0070 4641554C 		.ascii	"FAULT_CODE_OVER_TEMP_FET\000"
 6062      545F434F 
 6062      44455F4F 
 6062      5645525F 
 6062      54454D50 
 6063 0089 000000   		.space	3
 6064              	.LC9:
 6065 008c 4641554C 		.ascii	"FAULT_CODE_OVER_TEMP_MOTOR\000"
 6065      545F434F 
 6065      44455F4F 
 6065      5645525F 
 6065      54454D50 
 6066              		.section	.rodata.timer_thread.str1.4,"aMS",%progbits,1
ARM GAS  C:\Users\CHRIST~1\AppData\Local\Temp\ccb3oWGE.s 			page 109


 6067              		.align	2
 6068              	.LC2:
 6069 0000 6D636966 		.ascii	"mcif timer\000"
 6069      2074696D 
 6069      657200
 6070              		.text
 6071              	.Letext0:
 6072              		.file 4 "c:\\program files (x86)\\gnu tools arm embedded\\7 2017-q4-major\\arm-none-eabi\\include\
 6073              		.file 5 "c:\\program files (x86)\\gnu tools arm embedded\\7 2017-q4-major\\arm-none-eabi\\include\
 6074              		.file 6 "c:\\program files (x86)\\gnu tools arm embedded\\7 2017-q4-major\\lib\\gcc\\arm-none-eabi
 6075              		.file 7 "ChibiOS_3.0.2/os/rt/ports/ARMCMx/compilers/GCC/chtypes.h"
 6076              		.file 8 "ChibiOS_3.0.2/os/rt/include/chsystypes.h"
 6077              		.file 9 "ChibiOS_3.0.2/os/rt/include/chschd.h"
 6078              		.file 10 "ChibiOS_3.0.2/os/ext/CMSIS/include/core_cm4.h"
 6079              		.file 11 "ChibiOS_3.0.2/os/ext/CMSIS/ST/system_stm32f4xx.h"
 6080              		.file 12 "ChibiOS_3.0.2/os/ext/CMSIS/ST/stm32f407xx.h"
 6081              		.file 13 "ChibiOS_3.0.2/os/rt/ports/ARMCMx/chcore.h"
 6082              		.file 14 "ChibiOS_3.0.2/os/rt/ports/ARMCMx/chcore_v7m.h"
 6083              		.file 15 "ChibiOS_3.0.2/os/rt/include/chtm.h"
 6084              		.file 16 "ChibiOS_3.0.2/os/rt/include/chsem.h"
 6085              		.file 17 "ChibiOS_3.0.2/os/rt/include/chmtx.h"
 6086              		.file 18 "ChibiOS_3.0.2/os/rt/include/chevents.h"
 6087              		.file 19 "ChibiOS_3.0.2/os/rt/include/chqueues.h"
 6088              		.file 20 "datatypes.h"
 6089              		.file 21 "conf_general.h"
 6090              		.file 22 "mc_interface.h"
 6091              		.file 23 "mcpwm.h"
 6092              		.file 24 "ChibiOS_3.0.2/os/hal/ports/STM32/STM32F4xx/stm32_dma.h"
 6093              		.file 25 "ChibiOS_3.0.2/os/hal/ports/STM32/LLD/GPIOv2/pal_lld.h"
 6094              		.file 26 "ChibiOS_3.0.2/os/hal/include/can.h"
 6095              		.file 27 "ChibiOS_3.0.2/os/hal/ports/STM32/LLD/can_lld.h"
 6096              		.file 28 "ChibiOS_3.0.2/os/hal/include/i2c.h"
 6097              		.file 29 "ChibiOS_3.0.2/os/hal/ports/STM32/LLD/I2Cv1/i2c_lld.h"
 6098              		.file 30 "ChibiOS_3.0.2/os/hal/include/icu.h"
 6099              		.file 31 "ChibiOS_3.0.2/os/hal/ports/STM32/LLD/TIMv1/icu_lld.h"
 6100              		.file 32 "ChibiOS_3.0.2/os/hal/ports/STM32/LLD/TIMv1/stm32_tim.h"
 6101              		.file 33 "ChibiOS_3.0.2/os/hal/include/spi.h"
 6102              		.file 34 "ChibiOS_3.0.2/os/hal/ports/STM32/LLD/SPIv1/spi_lld.h"
 6103              		.file 35 "ChibiOS_3.0.2/os/hal/include/uart.h"
 6104              		.file 36 "ChibiOS_3.0.2/os/hal/ports/STM32/LLD/USARTv1/uart_lld.h"
 6105              		.file 37 "ChibiOS_3.0.2/os/hal/include/usb.h"
 6106              		.file 38 "ChibiOS_3.0.2/os/hal/ports/STM32/LLD/OTGv1/usb_lld.h"
 6107              		.file 39 "ChibiOS_3.0.2/os/hal/ports/STM32/LLD/OTGv1/stm32_otg.h"
 6108              		.file 40 "c:\\program files (x86)\\gnu tools arm embedded\\7 2017-q4-major\\arm-none-eabi\\include
 6109              		.file 41 "c:\\program files (x86)\\gnu tools arm embedded\\7 2017-q4-major\\arm-none-eabi\\include
 6110              		.file 42 "c:\\program files (x86)\\gnu tools arm embedded\\7 2017-q4-major\\arm-none-eabi\\include
 6111              		.file 43 "c:\\program files (x86)\\gnu tools arm embedded\\7 2017-q4-major\\arm-none-eabi\\include
 6112              		.file 44 "ChibiOS_3.0.2/os/rt/include/chsys.h"
 6113              		.file 45 "buffer.h"
 6114              		.file 46 "commands.h"
 6115              		.file 47 "ChibiOS_3.0.2/os/rt/include/chthreads.h"
 6116              		.file 48 "mcpwm_foc.h"
 6117              		.file 49 "ledpwm.h"
 6118              		.file 50 "encoder.h"
 6119              		.file 51 "utils.h"
 6120              		.file 52 "terminal.h"
 6121              		.file 53 "<built-in>"
ARM GAS  C:\Users\CHRIST~1\AppData\Local\Temp\ccb3oWGE.s 			page 110


 6122              		.section	.debug_info,"",%progbits
 6123              	.Ldebug_info0:
 6124 0000 7B590000 		.4byte	0x597b
 6125 0004 0400     		.2byte	0x4
 6126 0006 00000000 		.4byte	.Ldebug_abbrev0
 6127 000a 04       		.byte	0x4
 6128 000b 01       		.uleb128 0x1
 6129 000c 22340000 		.4byte	.LASF1087
 6130 0010 0C       		.byte	0xc
 6131 0011 6D110000 		.4byte	.LASF1088
 6132 0015 9B2E0000 		.4byte	.LASF1089
 6133 0019 B8020000 		.4byte	.Ldebug_ranges0+0x2b8
 6134 001d 00000000 		.4byte	0
 6135 0021 00000000 		.4byte	.Ldebug_line0
 6136 0025 02       		.uleb128 0x2
 6137 0026 04       		.byte	0x4
 6138 0027 04       		.byte	0x4
 6139 0028 9B0C0000 		.4byte	.LASF0
 6140 002c 03       		.uleb128 0x3
 6141 002d 0A390000 		.4byte	.LASF2
 6142 0031 04       		.byte	0x4
 6143 0032 29       		.byte	0x29
 6144 0033 37000000 		.4byte	0x37
 6145 0037 02       		.uleb128 0x2
 6146 0038 01       		.byte	0x1
 6147 0039 06       		.byte	0x6
 6148 003a 8C1E0000 		.4byte	.LASF1
 6149 003e 03       		.uleb128 0x3
 6150 003f 50010000 		.4byte	.LASF3
 6151 0043 04       		.byte	0x4
 6152 0044 2B       		.byte	0x2b
 6153 0045 49000000 		.4byte	0x49
 6154 0049 02       		.uleb128 0x2
 6155 004a 01       		.byte	0x1
 6156 004b 08       		.byte	0x8
 6157 004c 110C0000 		.4byte	.LASF4
 6158 0050 03       		.uleb128 0x3
 6159 0051 EF090000 		.4byte	.LASF5
 6160 0055 04       		.byte	0x4
 6161 0056 37       		.byte	0x37
 6162 0057 5B000000 		.4byte	0x5b
 6163 005b 02       		.uleb128 0x2
 6164 005c 02       		.byte	0x2
 6165 005d 05       		.byte	0x5
 6166 005e 703A0000 		.4byte	.LASF6
 6167 0062 03       		.uleb128 0x3
 6168 0063 F9090000 		.4byte	.LASF7
 6169 0067 04       		.byte	0x4
 6170 0068 39       		.byte	0x39
 6171 0069 6D000000 		.4byte	0x6d
 6172 006d 02       		.uleb128 0x2
 6173 006e 02       		.byte	0x2
 6174 006f 07       		.byte	0x7
 6175 0070 741E0000 		.4byte	.LASF8
 6176 0074 03       		.uleb128 0x3
 6177 0075 C22D0000 		.4byte	.LASF9
 6178 0079 04       		.byte	0x4
ARM GAS  C:\Users\CHRIST~1\AppData\Local\Temp\ccb3oWGE.s 			page 111


 6179 007a 4D       		.byte	0x4d
 6180 007b 7F000000 		.4byte	0x7f
 6181 007f 02       		.uleb128 0x2
 6182 0080 04       		.byte	0x4
 6183 0081 05       		.byte	0x5
 6184 0082 63220000 		.4byte	.LASF10
 6185 0086 03       		.uleb128 0x3
 6186 0087 CC2D0000 		.4byte	.LASF11
 6187 008b 04       		.byte	0x4
 6188 008c 4F       		.byte	0x4f
 6189 008d 91000000 		.4byte	0x91
 6190 0091 02       		.uleb128 0x2
 6191 0092 04       		.byte	0x4
 6192 0093 07       		.byte	0x7
 6193 0094 E7240000 		.4byte	.LASF12
 6194 0098 02       		.uleb128 0x2
 6195 0099 08       		.byte	0x8
 6196 009a 05       		.byte	0x5
 6197 009b 63360000 		.4byte	.LASF13
 6198 009f 03       		.uleb128 0x3
 6199 00a0 49170000 		.4byte	.LASF14
 6200 00a4 04       		.byte	0x4
 6201 00a5 69       		.byte	0x69
 6202 00a6 AA000000 		.4byte	0xaa
 6203 00aa 02       		.uleb128 0x2
 6204 00ab 08       		.byte	0x8
 6205 00ac 07       		.byte	0x7
 6206 00ad C4300000 		.4byte	.LASF15
 6207 00b1 04       		.uleb128 0x4
 6208 00b2 04       		.byte	0x4
 6209 00b3 05       		.byte	0x5
 6210 00b4 696E7400 		.ascii	"int\000"
 6211 00b8 05       		.uleb128 0x5
 6212 00b9 B1000000 		.4byte	0xb1
 6213 00bd 02       		.uleb128 0x2
 6214 00be 04       		.byte	0x4
 6215 00bf 07       		.byte	0x7
 6216 00c0 F5390000 		.4byte	.LASF16
 6217 00c4 05       		.uleb128 0x5
 6218 00c5 BD000000 		.4byte	0xbd
 6219 00c9 03       		.uleb128 0x3
 6220 00ca A81C0000 		.4byte	.LASF17
 6221 00ce 05       		.byte	0x5
 6222 00cf 14       		.byte	0x14
 6223 00d0 2C000000 		.4byte	0x2c
 6224 00d4 05       		.uleb128 0x5
 6225 00d5 C9000000 		.4byte	0xc9
 6226 00d9 03       		.uleb128 0x3
 6227 00da 0C120000 		.4byte	.LASF18
 6228 00de 05       		.byte	0x5
 6229 00df 18       		.byte	0x18
 6230 00e0 3E000000 		.4byte	0x3e
 6231 00e4 05       		.uleb128 0x5
 6232 00e5 D9000000 		.4byte	0xd9
 6233 00e9 06       		.uleb128 0x6
 6234 00ea D9000000 		.4byte	0xd9
 6235 00ee 03       		.uleb128 0x3
ARM GAS  C:\Users\CHRIST~1\AppData\Local\Temp\ccb3oWGE.s 			page 112


 6236 00ef 6C1E0000 		.4byte	.LASF19
 6237 00f3 05       		.byte	0x5
 6238 00f4 20       		.byte	0x20
 6239 00f5 50000000 		.4byte	0x50
 6240 00f9 05       		.uleb128 0x5
 6241 00fa EE000000 		.4byte	0xee
 6242 00fe 03       		.uleb128 0x3
 6243 00ff 6E020000 		.4byte	.LASF20
 6244 0103 05       		.byte	0x5
 6245 0104 24       		.byte	0x24
 6246 0105 62000000 		.4byte	0x62
 6247 0109 05       		.uleb128 0x5
 6248 010a FE000000 		.4byte	0xfe
 6249 010e 03       		.uleb128 0x3
 6250 010f F1040000 		.4byte	.LASF21
 6251 0113 05       		.byte	0x5
 6252 0114 2C       		.byte	0x2c
 6253 0115 74000000 		.4byte	0x74
 6254 0119 05       		.uleb128 0x5
 6255 011a 0E010000 		.4byte	0x10e
 6256 011e 03       		.uleb128 0x3
 6257 011f F8230000 		.4byte	.LASF22
 6258 0123 05       		.byte	0x5
 6259 0124 30       		.byte	0x30
 6260 0125 86000000 		.4byte	0x86
 6261 0129 05       		.uleb128 0x5
 6262 012a 1E010000 		.4byte	0x11e
 6263 012e 03       		.uleb128 0x3
 6264 012f 6C0E0000 		.4byte	.LASF23
 6265 0133 05       		.byte	0x5
 6266 0134 3C       		.byte	0x3c
 6267 0135 9F000000 		.4byte	0x9f
 6268 0139 03       		.uleb128 0x3
 6269 013a B5110000 		.4byte	.LASF24
 6270 013e 06       		.byte	0x6
 6271 013f D8       		.byte	0xd8
 6272 0140 BD000000 		.4byte	0xbd
 6273 0144 05       		.uleb128 0x5
 6274 0145 39010000 		.4byte	0x139
 6275 0149 03       		.uleb128 0x3
 6276 014a E8100000 		.4byte	.LASF25
 6277 014e 07       		.byte	0x7
 6278 014f 45       		.byte	0x45
 6279 0150 1E010000 		.4byte	0x11e
 6280 0154 03       		.uleb128 0x3
 6281 0155 761A0000 		.4byte	.LASF26
 6282 0159 07       		.byte	0x7
 6283 015a 48       		.byte	0x48
 6284 015b D9000000 		.4byte	0xd9
 6285 015f 03       		.uleb128 0x3
 6286 0160 D2320000 		.4byte	.LASF27
 6287 0164 07       		.byte	0x7
 6288 0165 49       		.byte	0x49
 6289 0166 D9000000 		.4byte	0xd9
 6290 016a 03       		.uleb128 0x3
 6291 016b 67190000 		.4byte	.LASF28
 6292 016f 07       		.byte	0x7
ARM GAS  C:\Users\CHRIST~1\AppData\Local\Temp\ccb3oWGE.s 			page 113


 6293 0170 4A       		.byte	0x4a
 6294 0171 D9000000 		.4byte	0xd9
 6295 0175 03       		.uleb128 0x3
 6296 0176 A51D0000 		.4byte	.LASF29
 6297 017a 07       		.byte	0x7
 6298 017b 4B       		.byte	0x4b
 6299 017c D9000000 		.4byte	0xd9
 6300 0180 03       		.uleb128 0x3
 6301 0181 5B080000 		.4byte	.LASF30
 6302 0185 07       		.byte	0x7
 6303 0186 4C       		.byte	0x4c
 6304 0187 1E010000 		.4byte	0x11e
 6305 018b 03       		.uleb128 0x3
 6306 018c 9D000000 		.4byte	.LASF31
 6307 0190 07       		.byte	0x7
 6308 0191 4D       		.byte	0x4d
 6309 0192 0E010000 		.4byte	0x10e
 6310 0196 03       		.uleb128 0x3
 6311 0197 96240000 		.4byte	.LASF32
 6312 019b 07       		.byte	0x7
 6313 019c 4F       		.byte	0x4f
 6314 019d 1E010000 		.4byte	0x11e
 6315 01a1 03       		.uleb128 0x3
 6316 01a2 38370000 		.4byte	.LASF33
 6317 01a6 07       		.byte	0x7
 6318 01a7 50       		.byte	0x50
 6319 01a8 1E010000 		.4byte	0x11e
 6320 01ac 03       		.uleb128 0x3
 6321 01ad 8F290000 		.4byte	.LASF34
 6322 01b1 07       		.byte	0x7
 6323 01b2 51       		.byte	0x51
 6324 01b3 0E010000 		.4byte	0x10e
 6325 01b7 03       		.uleb128 0x3
 6326 01b8 13050000 		.4byte	.LASF35
 6327 01bc 08       		.byte	0x8
 6328 01bd 33       		.byte	0x33
 6329 01be 1E010000 		.4byte	0x11e
 6330 01c2 05       		.uleb128 0x5
 6331 01c3 B7010000 		.4byte	0x1b7
 6332 01c7 03       		.uleb128 0x3
 6333 01c8 B4040000 		.4byte	.LASF36
 6334 01cc 08       		.byte	0x8
 6335 01cd 3F       		.byte	0x3f
 6336 01ce D2010000 		.4byte	0x1d2
 6337 01d2 07       		.uleb128 0x7
 6338 01d3 600C0000 		.4byte	.LASF58
 6339 01d7 48       		.byte	0x48
 6340 01d8 09       		.byte	0x9
 6341 01d9 C2       		.byte	0xc2
 6342 01da D7020000 		.4byte	0x2d7
 6343 01de 08       		.uleb128 0x8
 6344 01df BC180000 		.4byte	.LASF37
 6345 01e3 09       		.byte	0x9
 6346 01e4 C3       		.byte	0xc3
 6347 01e5 E2020000 		.4byte	0x2e2
 6348 01e9 00       		.byte	0
 6349 01ea 08       		.uleb128 0x8
ARM GAS  C:\Users\CHRIST~1\AppData\Local\Temp\ccb3oWGE.s 			page 114


 6350 01eb 5E120000 		.4byte	.LASF38
 6351 01ef 09       		.byte	0x9
 6352 01f0 C5       		.byte	0xc5
 6353 01f1 E2020000 		.4byte	0x2e2
 6354 01f5 04       		.byte	0x4
 6355 01f6 08       		.uleb128 0x8
 6356 01f7 F6160000 		.4byte	.LASF39
 6357 01fb 09       		.byte	0x9
 6358 01fc C7       		.byte	0xc7
 6359 01fd 80010000 		.4byte	0x180
 6360 0201 08       		.byte	0x8
 6361 0202 08       		.uleb128 0x8
 6362 0203 580D0000 		.4byte	.LASF40
 6363 0207 09       		.byte	0x9
 6364 0208 C8       		.byte	0xc8
 6365 0209 D20A0000 		.4byte	0xad2
 6366 020d 0C       		.byte	0xc
 6367 020e 08       		.uleb128 0x8
 6368 020f 4F030000 		.4byte	.LASF41
 6369 0213 09       		.byte	0x9
 6370 0214 CA       		.byte	0xca
 6371 0215 E2020000 		.4byte	0x2e2
 6372 0219 10       		.byte	0x10
 6373 021a 08       		.uleb128 0x8
 6374 021b 29380000 		.4byte	.LASF42
 6375 021f 09       		.byte	0x9
 6376 0220 CB       		.byte	0xcb
 6377 0221 E2020000 		.4byte	0x2e2
 6378 0225 14       		.byte	0x14
 6379 0226 08       		.uleb128 0x8
 6380 0227 7A330000 		.4byte	.LASF43
 6381 022b 09       		.byte	0x9
 6382 022c D2       		.byte	0xd2
 6383 022d 170D0000 		.4byte	0xd17
 6384 0231 18       		.byte	0x18
 6385 0232 08       		.uleb128 0x8
 6386 0233 E93B0000 		.4byte	.LASF44
 6387 0237 09       		.byte	0x9
 6388 0238 DD       		.byte	0xdd
 6389 0239 5F010000 		.4byte	0x15f
 6390 023d 1C       		.byte	0x1c
 6391 023e 08       		.uleb128 0x8
 6392 023f 16320000 		.4byte	.LASF45
 6393 0243 09       		.byte	0x9
 6394 0244 E1       		.byte	0xe1
 6395 0245 54010000 		.4byte	0x154
 6396 0249 1D       		.byte	0x1d
 6397 024a 08       		.uleb128 0x8
 6398 024b 1A220000 		.4byte	.LASF46
 6399 024f 09       		.byte	0x9
 6400 0250 E6       		.byte	0xe6
 6401 0251 6A010000 		.4byte	0x16a
 6402 0255 1E       		.byte	0x1e
 6403 0256 08       		.uleb128 0x8
 6404 0257 DE1E0000 		.4byte	.LASF47
 6405 025b 09       		.byte	0x9
 6406 025c EC       		.byte	0xec
ARM GAS  C:\Users\CHRIST~1\AppData\Local\Temp\ccb3oWGE.s 			page 115


 6407 025d 75010000 		.4byte	0x175
 6408 0261 1F       		.byte	0x1f
 6409 0262 08       		.uleb128 0x8
 6410 0263 F31E0000 		.4byte	.LASF48
 6411 0267 09       		.byte	0x9
 6412 0268 F3       		.byte	0xf3
 6413 0269 C2010000 		.4byte	0x1c2
 6414 026d 20       		.byte	0x20
 6415 026e 09       		.uleb128 0x9
 6416 026f 705F7500 		.ascii	"p_u\000"
 6417 0273 09       		.byte	0x9
 6418 0274 3101     		.2byte	0x131
 6419 0276 520C0000 		.4byte	0xc52
 6420 027a 24       		.byte	0x24
 6421 027b 0A       		.uleb128 0xa
 6422 027c C0060000 		.4byte	.LASF49
 6423 0280 09       		.byte	0x9
 6424 0281 3601     		.2byte	0x136
 6425 0283 E8020000 		.4byte	0x2e8
 6426 0287 28       		.byte	0x28
 6427 0288 0A       		.uleb128 0xa
 6428 0289 11200000 		.4byte	.LASF50
 6429 028d 09       		.byte	0x9
 6430 028e 3C01     		.2byte	0x13c
 6431 0290 0C030000 		.4byte	0x30c
 6432 0294 2C       		.byte	0x2c
 6433 0295 0A       		.uleb128 0xa
 6434 0296 1F0A0000 		.4byte	.LASF51
 6435 029a 09       		.byte	0x9
 6436 029b 4001     		.2byte	0x140
 6437 029d 8B010000 		.4byte	0x18b
 6438 02a1 34       		.byte	0x34
 6439 02a2 0A       		.uleb128 0xa
 6440 02a3 FE2E0000 		.4byte	.LASF52
 6441 02a7 09       		.byte	0x9
 6442 02a8 4601     		.2byte	0x146
 6443 02aa 96010000 		.4byte	0x196
 6444 02ae 38       		.byte	0x38
 6445 02af 0A       		.uleb128 0xa
 6446 02b0 A9320000 		.4byte	.LASF53
 6447 02b4 09       		.byte	0x9
 6448 02b5 4D01     		.2byte	0x14d
 6449 02b7 110D0000 		.4byte	0xd11
 6450 02bb 3C       		.byte	0x3c
 6451 02bc 0A       		.uleb128 0xa
 6452 02bd EE2B0000 		.4byte	.LASF54
 6453 02c1 09       		.byte	0x9
 6454 02c2 5101     		.2byte	0x151
 6455 02c4 80010000 		.4byte	0x180
 6456 02c8 40       		.byte	0x40
 6457 02c9 0A       		.uleb128 0xa
 6458 02ca 6F190000 		.4byte	.LASF55
 6459 02ce 09       		.byte	0x9
 6460 02cf 5801     		.2byte	0x158
 6461 02d1 BF030000 		.4byte	0x3bf
 6462 02d5 44       		.byte	0x44
 6463 02d6 00       		.byte	0
ARM GAS  C:\Users\CHRIST~1\AppData\Local\Temp\ccb3oWGE.s 			page 116


 6464 02d7 03       		.uleb128 0x3
 6465 02d8 76380000 		.4byte	.LASF56
 6466 02dc 08       		.byte	0x8
 6467 02dd 44       		.byte	0x44
 6468 02de E2020000 		.4byte	0x2e2
 6469 02e2 0B       		.uleb128 0xb
 6470 02e3 04       		.byte	0x4
 6471 02e4 C7010000 		.4byte	0x1c7
 6472 02e8 03       		.uleb128 0x3
 6473 02e9 FC060000 		.4byte	.LASF57
 6474 02ed 08       		.byte	0x8
 6475 02ee 49       		.byte	0x49
 6476 02ef F3020000 		.4byte	0x2f3
 6477 02f3 07       		.uleb128 0x7
 6478 02f4 003C0000 		.4byte	.LASF59
 6479 02f8 04       		.byte	0x4
 6480 02f9 09       		.byte	0x9
 6481 02fa B0       		.byte	0xb0
 6482 02fb 0C030000 		.4byte	0x30c
 6483 02ff 08       		.uleb128 0x8
 6484 0300 BC180000 		.4byte	.LASF37
 6485 0304 09       		.byte	0x9
 6486 0305 B1       		.byte	0xb1
 6487 0306 E2020000 		.4byte	0x2e2
 6488 030a 00       		.byte	0
 6489 030b 00       		.byte	0
 6490 030c 03       		.uleb128 0x3
 6491 030d BE210000 		.4byte	.LASF60
 6492 0311 08       		.byte	0x8
 6493 0312 50       		.byte	0x50
 6494 0313 17030000 		.4byte	0x317
 6495 0317 07       		.uleb128 0x7
 6496 0318 25030000 		.4byte	.LASF61
 6497 031c 08       		.byte	0x8
 6498 031d 09       		.byte	0x9
 6499 031e B7       		.byte	0xb7
 6500 031f 3C030000 		.4byte	0x33c
 6501 0323 08       		.uleb128 0x8
 6502 0324 BC180000 		.4byte	.LASF37
 6503 0328 09       		.byte	0x9
 6504 0329 B8       		.byte	0xb8
 6505 032a E2020000 		.4byte	0x2e2
 6506 032e 00       		.byte	0
 6507 032f 08       		.uleb128 0x8
 6508 0330 5E120000 		.4byte	.LASF38
 6509 0334 09       		.byte	0x9
 6510 0335 B9       		.byte	0xb9
 6511 0336 E2020000 		.4byte	0x2e2
 6512 033a 04       		.byte	0x4
 6513 033b 00       		.byte	0
 6514 033c 03       		.uleb128 0x3
 6515 033d 530C0000 		.4byte	.LASF62
 6516 0341 08       		.byte	0x8
 6517 0342 57       		.byte	0x57
 6518 0343 47030000 		.4byte	0x347
 6519 0347 0C       		.uleb128 0xc
 6520 0348 872D0000 		.4byte	.LASF63
ARM GAS  C:\Users\CHRIST~1\AppData\Local\Temp\ccb3oWGE.s 			page 117


 6521 034c 1C       		.byte	0x1c
 6522 034d 09       		.byte	0x9
 6523 034e 9001     		.2byte	0x190
 6524 0350 A3030000 		.4byte	0x3a3
 6525 0354 0A       		.uleb128 0xa
 6526 0355 43260000 		.4byte	.LASF64
 6527 0359 09       		.byte	0x9
 6528 035a 9101     		.2byte	0x191
 6529 035c 0C030000 		.4byte	0x30c
 6530 0360 00       		.byte	0
 6531 0361 0A       		.uleb128 0xa
 6532 0362 70300000 		.4byte	.LASF65
 6533 0366 09       		.byte	0x9
 6534 0367 9201     		.2byte	0x192
 6535 0369 80010000 		.4byte	0x180
 6536 036d 08       		.byte	0x8
 6537 036e 0A       		.uleb128 0xa
 6538 036f 98100000 		.4byte	.LASF66
 6539 0373 09       		.byte	0x9
 6540 0374 9401     		.2byte	0x194
 6541 0376 D20A0000 		.4byte	0xad2
 6542 037a 0C       		.byte	0xc
 6543 037b 0A       		.uleb128 0xa
 6544 037c DF1C0000 		.4byte	.LASF67
 6545 0380 09       		.byte	0x9
 6546 0381 9701     		.2byte	0x197
 6547 0383 E2020000 		.4byte	0x2e2
 6548 0387 10       		.byte	0x10
 6549 0388 0A       		.uleb128 0xa
 6550 0389 47120000 		.4byte	.LASF68
 6551 038d 09       		.byte	0x9
 6552 038e 9801     		.2byte	0x198
 6553 0390 E2020000 		.4byte	0x2e2
 6554 0394 14       		.byte	0x14
 6555 0395 0A       		.uleb128 0xa
 6556 0396 990D0000 		.4byte	.LASF69
 6557 039a 09       		.byte	0x9
 6558 039b 9B01     		.2byte	0x19b
 6559 039d E2020000 		.4byte	0x2e2
 6560 03a1 18       		.byte	0x18
 6561 03a2 00       		.byte	0
 6562 03a3 03       		.uleb128 0x3
 6563 03a4 9E2B0000 		.4byte	.LASF70
 6564 03a8 08       		.byte	0x8
 6565 03a9 5C       		.byte	0x5c
 6566 03aa AE030000 		.4byte	0x3ae
 6567 03ae 0B       		.uleb128 0xb
 6568 03af 04       		.byte	0x4
 6569 03b0 B4030000 		.4byte	0x3b4
 6570 03b4 0D       		.uleb128 0xd
 6571 03b5 BF030000 		.4byte	0x3bf
 6572 03b9 0E       		.uleb128 0xe
 6573 03ba BF030000 		.4byte	0x3bf
 6574 03be 00       		.byte	0
 6575 03bf 0F       		.uleb128 0xf
 6576 03c0 04       		.byte	0x4
 6577 03c1 03       		.uleb128 0x3
ARM GAS  C:\Users\CHRIST~1\AppData\Local\Temp\ccb3oWGE.s 			page 118


 6578 03c2 88100000 		.4byte	.LASF71
 6579 03c6 08       		.byte	0x8
 6580 03c7 61       		.byte	0x61
 6581 03c8 CC030000 		.4byte	0x3cc
 6582 03cc 0C       		.uleb128 0xc
 6583 03cd 05320000 		.4byte	.LASF72
 6584 03d1 14       		.byte	0x14
 6585 03d2 09       		.byte	0x9
 6586 03d3 6B01     		.2byte	0x16b
 6587 03d5 1B040000 		.4byte	0x41b
 6588 03d9 0A       		.uleb128 0xa
 6589 03da 9E100000 		.4byte	.LASF73
 6590 03de 09       		.byte	0x9
 6591 03df 6C01     		.2byte	0x16c
 6592 03e1 2E0D0000 		.4byte	0xd2e
 6593 03e5 00       		.byte	0
 6594 03e6 0A       		.uleb128 0xa
 6595 03e7 E70B0000 		.4byte	.LASF74
 6596 03eb 09       		.byte	0x9
 6597 03ec 6D01     		.2byte	0x16d
 6598 03ee 2E0D0000 		.4byte	0xd2e
 6599 03f2 04       		.byte	0x4
 6600 03f3 0A       		.uleb128 0xa
 6601 03f4 0B1E0000 		.4byte	.LASF75
 6602 03f8 09       		.byte	0x9
 6603 03f9 6E01     		.2byte	0x16e
 6604 03fb B7010000 		.4byte	0x1b7
 6605 03ff 08       		.byte	0x8
 6606 0400 0A       		.uleb128 0xa
 6607 0401 97310000 		.4byte	.LASF76
 6608 0405 09       		.byte	0x9
 6609 0406 6F01     		.2byte	0x16f
 6610 0408 A3030000 		.4byte	0x3a3
 6611 040c 0C       		.byte	0xc
 6612 040d 0A       		.uleb128 0xa
 6613 040e 5E0D0000 		.4byte	.LASF77
 6614 0412 09       		.byte	0x9
 6615 0413 7101     		.2byte	0x171
 6616 0415 BF030000 		.4byte	0x3bf
 6617 0419 10       		.byte	0x10
 6618 041a 00       		.byte	0
 6619 041b 03       		.uleb128 0x3
 6620 041c 0C340000 		.4byte	.LASF78
 6621 0420 08       		.byte	0x8
 6622 0421 66       		.byte	0x66
 6623 0422 26040000 		.4byte	0x426
 6624 0426 0C       		.uleb128 0xc
 6625 0427 D3040000 		.4byte	.LASF79
 6626 042b 10       		.byte	0x10
 6627 042c 09       		.byte	0x9
 6628 042d 7B01     		.2byte	0x17b
 6629 042f 68040000 		.4byte	0x468
 6630 0433 0A       		.uleb128 0xa
 6631 0434 9E100000 		.4byte	.LASF73
 6632 0438 09       		.byte	0x9
 6633 0439 7C01     		.2byte	0x17c
 6634 043b 2E0D0000 		.4byte	0xd2e
ARM GAS  C:\Users\CHRIST~1\AppData\Local\Temp\ccb3oWGE.s 			page 119


 6635 043f 00       		.byte	0
 6636 0440 0A       		.uleb128 0xa
 6637 0441 E70B0000 		.4byte	.LASF74
 6638 0445 09       		.byte	0x9
 6639 0446 7E01     		.2byte	0x17e
 6640 0448 2E0D0000 		.4byte	0xd2e
 6641 044c 04       		.byte	0x4
 6642 044d 0A       		.uleb128 0xa
 6643 044e 0B1E0000 		.4byte	.LASF75
 6644 0452 09       		.byte	0x9
 6645 0453 8001     		.2byte	0x180
 6646 0455 B7010000 		.4byte	0x1b7
 6647 0459 08       		.byte	0x8
 6648 045a 0A       		.uleb128 0xa
 6649 045b DC010000 		.4byte	.LASF80
 6650 045f 09       		.byte	0x9
 6651 0460 8201     		.2byte	0x182
 6652 0462 C2010000 		.4byte	0x1c2
 6653 0466 0C       		.byte	0xc
 6654 0467 00       		.byte	0
 6655 0468 03       		.uleb128 0x3
 6656 0469 330D0000 		.4byte	.LASF81
 6657 046d 08       		.byte	0x8
 6658 046e 6B       		.byte	0x6b
 6659 046f 73040000 		.4byte	0x473
 6660 0473 0C       		.uleb128 0xc
 6661 0474 DD2D0000 		.4byte	.LASF82
 6662 0478 04       		.byte	0x4
 6663 0479 09       		.byte	0x9
 6664 047a A201     		.2byte	0x1a2
 6665 047c 8E040000 		.4byte	0x48e
 6666 0480 0A       		.uleb128 0xa
 6667 0481 C21C0000 		.4byte	.LASF83
 6668 0485 09       		.byte	0x9
 6669 0486 AA01     		.2byte	0x1aa
 6670 0488 1D0D0000 		.4byte	0xd1d
 6671 048c 00       		.byte	0
 6672 048d 00       		.byte	0
 6673 048e 03       		.uleb128 0x3
 6674 048f 44010000 		.4byte	.LASF84
 6675 0493 08       		.byte	0x8
 6676 0494 70       		.byte	0x70
 6677 0495 99040000 		.4byte	0x499
 6678 0499 10       		.uleb128 0x10
 6679 049a 0D210000 		.4byte	.LASF85
 6680 049e 5802     		.2byte	0x258
 6681 04a0 09       		.byte	0x9
 6682 04a1 C201     		.2byte	0x1c2
 6683 04a3 F5040000 		.4byte	0x4f5
 6684 04a7 0A       		.uleb128 0xa
 6685 04a8 F6060000 		.4byte	.LASF86
 6686 04ac 09       		.byte	0x9
 6687 04ad C601     		.2byte	0x1c6
 6688 04af 3C030000 		.4byte	0x33c
 6689 04b3 00       		.byte	0
 6690 04b4 0A       		.uleb128 0xa
 6691 04b5 8C060000 		.4byte	.LASF87
ARM GAS  C:\Users\CHRIST~1\AppData\Local\Temp\ccb3oWGE.s 			page 120


 6692 04b9 09       		.byte	0x9
 6693 04ba CA01     		.2byte	0x1ca
 6694 04bc 1B040000 		.4byte	0x41b
 6695 04c0 1C       		.byte	0x1c
 6696 04c1 09       		.uleb128 0x9
 6697 04c2 64626700 		.ascii	"dbg\000"
 6698 04c6 09       		.byte	0x9
 6699 04c7 CE01     		.2byte	0x1ce
 6700 04c9 68040000 		.4byte	0x468
 6701 04cd 2C       		.byte	0x2c
 6702 04ce 0A       		.uleb128 0xa
 6703 04cf 7B220000 		.4byte	.LASF88
 6704 04d3 09       		.byte	0x9
 6705 04d4 D201     		.2byte	0x1d2
 6706 04d6 C7010000 		.4byte	0x1c7
 6707 04da 30       		.byte	0x30
 6708 04db 09       		.uleb128 0x9
 6709 04dc 746D00   		.ascii	"tm\000"
 6710 04df 09       		.byte	0x9
 6711 04e0 D701     		.2byte	0x1d7
 6712 04e2 470C0000 		.4byte	0xc47
 6713 04e6 78       		.byte	0x78
 6714 04e7 0A       		.uleb128 0xa
 6715 04e8 69310000 		.4byte	.LASF89
 6716 04ec 09       		.byte	0x9
 6717 04ed E301     		.2byte	0x1e3
 6718 04ef 340D0000 		.4byte	0xd34
 6719 04f3 80       		.byte	0x80
 6720 04f4 00       		.byte	0
 6721 04f5 11       		.uleb128 0x11
 6722 04f6 1E010000 		.4byte	0x11e
 6723 04fa 05050000 		.4byte	0x505
 6724 04fe 12       		.uleb128 0x12
 6725 04ff BD000000 		.4byte	0xbd
 6726 0503 07       		.byte	0x7
 6727 0504 00       		.byte	0
 6728 0505 13       		.uleb128 0x13
 6729 0506 94300000 		.4byte	.LASF90
 6730 050a 0A       		.byte	0xa
 6731 050b A706     		.2byte	0x6a7
 6732 050d 19010000 		.4byte	0x119
 6733 0511 14       		.uleb128 0x14
 6734 0512 79200000 		.4byte	.LASF91
 6735 0516 0B       		.byte	0xb
 6736 0517 4C       		.byte	0x4c
 6737 0518 1E010000 		.4byte	0x11e
 6738 051c 15       		.uleb128 0x15
 6739 051d 10       		.byte	0x10
 6740 051e 0C       		.byte	0xc
 6741 051f E9       		.byte	0xe9
 6742 0520 55050000 		.4byte	0x555
 6743 0524 16       		.uleb128 0x16
 6744 0525 54495200 		.ascii	"TIR\000"
 6745 0529 0C       		.byte	0xc
 6746 052a EB       		.byte	0xeb
 6747 052b 29010000 		.4byte	0x129
 6748 052f 00       		.byte	0
ARM GAS  C:\Users\CHRIST~1\AppData\Local\Temp\ccb3oWGE.s 			page 121


 6749 0530 08       		.uleb128 0x8
 6750 0531 77160000 		.4byte	.LASF92
 6751 0535 0C       		.byte	0xc
 6752 0536 EC       		.byte	0xec
 6753 0537 29010000 		.4byte	0x129
 6754 053b 04       		.byte	0x4
 6755 053c 08       		.uleb128 0x8
 6756 053d 5E220000 		.4byte	.LASF93
 6757 0541 0C       		.byte	0xc
 6758 0542 ED       		.byte	0xed
 6759 0543 29010000 		.4byte	0x129
 6760 0547 08       		.byte	0x8
 6761 0548 08       		.uleb128 0x8
 6762 0549 FA1E0000 		.4byte	.LASF94
 6763 054d 0C       		.byte	0xc
 6764 054e EE       		.byte	0xee
 6765 054f 29010000 		.4byte	0x129
 6766 0553 0C       		.byte	0xc
 6767 0554 00       		.byte	0
 6768 0555 03       		.uleb128 0x3
 6769 0556 E0060000 		.4byte	.LASF95
 6770 055a 0C       		.byte	0xc
 6771 055b EF       		.byte	0xef
 6772 055c 1C050000 		.4byte	0x51c
 6773 0560 15       		.uleb128 0x15
 6774 0561 10       		.byte	0x10
 6775 0562 0C       		.byte	0xc
 6776 0563 F5       		.byte	0xf5
 6777 0564 99050000 		.4byte	0x599
 6778 0568 16       		.uleb128 0x16
 6779 0569 52495200 		.ascii	"RIR\000"
 6780 056d 0C       		.byte	0xc
 6781 056e F7       		.byte	0xf7
 6782 056f 29010000 		.4byte	0x129
 6783 0573 00       		.byte	0
 6784 0574 08       		.uleb128 0x8
 6785 0575 382D0000 		.4byte	.LASF96
 6786 0579 0C       		.byte	0xc
 6787 057a F8       		.byte	0xf8
 6788 057b 29010000 		.4byte	0x129
 6789 057f 04       		.byte	0x4
 6790 0580 08       		.uleb128 0x8
 6791 0581 43240000 		.4byte	.LASF97
 6792 0585 0C       		.byte	0xc
 6793 0586 F9       		.byte	0xf9
 6794 0587 29010000 		.4byte	0x129
 6795 058b 08       		.byte	0x8
 6796 058c 08       		.uleb128 0x8
 6797 058d E9200000 		.4byte	.LASF98
 6798 0591 0C       		.byte	0xc
 6799 0592 FA       		.byte	0xfa
 6800 0593 29010000 		.4byte	0x129
 6801 0597 0C       		.byte	0xc
 6802 0598 00       		.byte	0
 6803 0599 03       		.uleb128 0x3
 6804 059a A72B0000 		.4byte	.LASF99
 6805 059e 0C       		.byte	0xc
ARM GAS  C:\Users\CHRIST~1\AppData\Local\Temp\ccb3oWGE.s 			page 122


 6806 059f FB       		.byte	0xfb
 6807 05a0 60050000 		.4byte	0x560
 6808 05a4 17       		.uleb128 0x17
 6809 05a5 08       		.byte	0x8
 6810 05a6 0C       		.byte	0xc
 6811 05a7 0101     		.2byte	0x101
 6812 05a9 C8050000 		.4byte	0x5c8
 6813 05ad 09       		.uleb128 0x9
 6814 05ae 46523100 		.ascii	"FR1\000"
 6815 05b2 0C       		.byte	0xc
 6816 05b3 0301     		.2byte	0x103
 6817 05b5 29010000 		.4byte	0x129
 6818 05b9 00       		.byte	0
 6819 05ba 09       		.uleb128 0x9
 6820 05bb 46523200 		.ascii	"FR2\000"
 6821 05bf 0C       		.byte	0xc
 6822 05c0 0401     		.2byte	0x104
 6823 05c2 29010000 		.4byte	0x129
 6824 05c6 04       		.byte	0x4
 6825 05c7 00       		.byte	0
 6826 05c8 18       		.uleb128 0x18
 6827 05c9 94160000 		.4byte	.LASF100
 6828 05cd 0C       		.byte	0xc
 6829 05ce 0501     		.2byte	0x105
 6830 05d0 A4050000 		.4byte	0x5a4
 6831 05d4 19       		.uleb128 0x19
 6832 05d5 2003     		.2byte	0x320
 6833 05d7 0C       		.byte	0xc
 6834 05d8 0B01     		.2byte	0x10b
 6835 05da 0A070000 		.4byte	0x70a
 6836 05de 09       		.uleb128 0x9
 6837 05df 4D435200 		.ascii	"MCR\000"
 6838 05e3 0C       		.byte	0xc
 6839 05e4 0D01     		.2byte	0x10d
 6840 05e6 29010000 		.4byte	0x129
 6841 05ea 00       		.byte	0
 6842 05eb 09       		.uleb128 0x9
 6843 05ec 4D535200 		.ascii	"MSR\000"
 6844 05f0 0C       		.byte	0xc
 6845 05f1 0E01     		.2byte	0x10e
 6846 05f3 29010000 		.4byte	0x129
 6847 05f7 04       		.byte	0x4
 6848 05f8 09       		.uleb128 0x9
 6849 05f9 54535200 		.ascii	"TSR\000"
 6850 05fd 0C       		.byte	0xc
 6851 05fe 0F01     		.2byte	0x10f
 6852 0600 29010000 		.4byte	0x129
 6853 0604 08       		.byte	0x8
 6854 0605 0A       		.uleb128 0xa
 6855 0606 B9130000 		.4byte	.LASF101
 6856 060a 0C       		.byte	0xc
 6857 060b 1001     		.2byte	0x110
 6858 060d 29010000 		.4byte	0x129
 6859 0611 0C       		.byte	0xc
 6860 0612 0A       		.uleb128 0xa
 6861 0613 D0140000 		.4byte	.LASF102
 6862 0617 0C       		.byte	0xc
ARM GAS  C:\Users\CHRIST~1\AppData\Local\Temp\ccb3oWGE.s 			page 123


 6863 0618 1101     		.2byte	0x111
 6864 061a 29010000 		.4byte	0x129
 6865 061e 10       		.byte	0x10
 6866 061f 09       		.uleb128 0x9
 6867 0620 49455200 		.ascii	"IER\000"
 6868 0624 0C       		.byte	0xc
 6869 0625 1201     		.2byte	0x112
 6870 0627 29010000 		.4byte	0x129
 6871 062b 14       		.byte	0x14
 6872 062c 09       		.uleb128 0x9
 6873 062d 45535200 		.ascii	"ESR\000"
 6874 0631 0C       		.byte	0xc
 6875 0632 1301     		.2byte	0x113
 6876 0634 29010000 		.4byte	0x129
 6877 0638 18       		.byte	0x18
 6878 0639 09       		.uleb128 0x9
 6879 063a 42545200 		.ascii	"BTR\000"
 6880 063e 0C       		.byte	0xc
 6881 063f 1401     		.2byte	0x114
 6882 0641 29010000 		.4byte	0x129
 6883 0645 1C       		.byte	0x1c
 6884 0646 0A       		.uleb128 0xa
 6885 0647 5C2F0000 		.4byte	.LASF103
 6886 064b 0C       		.byte	0xc
 6887 064c 1501     		.2byte	0x115
 6888 064e 0A070000 		.4byte	0x70a
 6889 0652 20       		.byte	0x20
 6890 0653 1A       		.uleb128 0x1a
 6891 0654 9D180000 		.4byte	.LASF104
 6892 0658 0C       		.byte	0xc
 6893 0659 1601     		.2byte	0x116
 6894 065b 1A070000 		.4byte	0x71a
 6895 065f 8001     		.2byte	0x180
 6896 0661 1A       		.uleb128 0x1a
 6897 0662 81370000 		.4byte	.LASF105
 6898 0666 0C       		.byte	0xc
 6899 0667 1701     		.2byte	0x117
 6900 0669 2A070000 		.4byte	0x72a
 6901 066d B001     		.2byte	0x1b0
 6902 066f 1A       		.uleb128 0x1a
 6903 0670 662F0000 		.4byte	.LASF106
 6904 0674 0C       		.byte	0xc
 6905 0675 1801     		.2byte	0x118
 6906 0677 3A070000 		.4byte	0x73a
 6907 067b D001     		.2byte	0x1d0
 6908 067d 1B       		.uleb128 0x1b
 6909 067e 464D5200 		.ascii	"FMR\000"
 6910 0682 0C       		.byte	0xc
 6911 0683 1901     		.2byte	0x119
 6912 0685 29010000 		.4byte	0x129
 6913 0689 0002     		.2byte	0x200
 6914 068b 1A       		.uleb128 0x1a
 6915 068c 7E0E0000 		.4byte	.LASF107
 6916 0690 0C       		.byte	0xc
 6917 0691 1A01     		.2byte	0x11a
 6918 0693 29010000 		.4byte	0x129
 6919 0697 0402     		.2byte	0x204
ARM GAS  C:\Users\CHRIST~1\AppData\Local\Temp\ccb3oWGE.s 			page 124


 6920 0699 1A       		.uleb128 0x1a
 6921 069a 702F0000 		.4byte	.LASF108
 6922 069e 0C       		.byte	0xc
 6923 069f 1B01     		.2byte	0x11b
 6924 06a1 1E010000 		.4byte	0x11e
 6925 06a5 0802     		.2byte	0x208
 6926 06a7 1A       		.uleb128 0x1a
 6927 06a8 CD320000 		.4byte	.LASF109
 6928 06ac 0C       		.byte	0xc
 6929 06ad 1C01     		.2byte	0x11c
 6930 06af 29010000 		.4byte	0x129
 6931 06b3 0C02     		.2byte	0x20c
 6932 06b5 1A       		.uleb128 0x1a
 6933 06b6 7A2F0000 		.4byte	.LASF110
 6934 06ba 0C       		.byte	0xc
 6935 06bb 1D01     		.2byte	0x11d
 6936 06bd 1E010000 		.4byte	0x11e
 6937 06c1 1002     		.2byte	0x210
 6938 06c3 1A       		.uleb128 0x1a
 6939 06c4 B2240000 		.4byte	.LASF111
 6940 06c8 0C       		.byte	0xc
 6941 06c9 1E01     		.2byte	0x11e
 6942 06cb 29010000 		.4byte	0x129
 6943 06cf 1402     		.2byte	0x214
 6944 06d1 1A       		.uleb128 0x1a
 6945 06d2 842F0000 		.4byte	.LASF112
 6946 06d6 0C       		.byte	0xc
 6947 06d7 1F01     		.2byte	0x11f
 6948 06d9 1E010000 		.4byte	0x11e
 6949 06dd 1802     		.2byte	0x218
 6950 06df 1A       		.uleb128 0x1a
 6951 06e0 8D050000 		.4byte	.LASF113
 6952 06e4 0C       		.byte	0xc
 6953 06e5 2001     		.2byte	0x120
 6954 06e7 29010000 		.4byte	0x129
 6955 06eb 1C02     		.2byte	0x21c
 6956 06ed 1A       		.uleb128 0x1a
 6957 06ee 8E2F0000 		.4byte	.LASF114
 6958 06f2 0C       		.byte	0xc
 6959 06f3 2101     		.2byte	0x121
 6960 06f5 F5040000 		.4byte	0x4f5
 6961 06f9 2002     		.2byte	0x220
 6962 06fb 1A       		.uleb128 0x1a
 6963 06fc BE070000 		.4byte	.LASF115
 6964 0700 0C       		.byte	0xc
 6965 0701 2201     		.2byte	0x122
 6966 0703 4A070000 		.4byte	0x74a
 6967 0707 4002     		.2byte	0x240
 6968 0709 00       		.byte	0
 6969 070a 11       		.uleb128 0x11
 6970 070b 1E010000 		.4byte	0x11e
 6971 070f 1A070000 		.4byte	0x71a
 6972 0713 12       		.uleb128 0x12
 6973 0714 BD000000 		.4byte	0xbd
 6974 0718 57       		.byte	0x57
 6975 0719 00       		.byte	0
 6976 071a 11       		.uleb128 0x11
ARM GAS  C:\Users\CHRIST~1\AppData\Local\Temp\ccb3oWGE.s 			page 125


 6977 071b 55050000 		.4byte	0x555
 6978 071f 2A070000 		.4byte	0x72a
 6979 0723 12       		.uleb128 0x12
 6980 0724 BD000000 		.4byte	0xbd
 6981 0728 02       		.byte	0x2
 6982 0729 00       		.byte	0
 6983 072a 11       		.uleb128 0x11
 6984 072b 99050000 		.4byte	0x599
 6985 072f 3A070000 		.4byte	0x73a
 6986 0733 12       		.uleb128 0x12
 6987 0734 BD000000 		.4byte	0xbd
 6988 0738 01       		.byte	0x1
 6989 0739 00       		.byte	0
 6990 073a 11       		.uleb128 0x11
 6991 073b 1E010000 		.4byte	0x11e
 6992 073f 4A070000 		.4byte	0x74a
 6993 0743 12       		.uleb128 0x12
 6994 0744 BD000000 		.4byte	0xbd
 6995 0748 0B       		.byte	0xb
 6996 0749 00       		.byte	0
 6997 074a 11       		.uleb128 0x11
 6998 074b C8050000 		.4byte	0x5c8
 6999 074f 5A070000 		.4byte	0x75a
 7000 0753 12       		.uleb128 0x12
 7001 0754 BD000000 		.4byte	0xbd
 7002 0758 1B       		.byte	0x1b
 7003 0759 00       		.byte	0
 7004 075a 18       		.uleb128 0x18
 7005 075b 8D110000 		.4byte	.LASF116
 7006 075f 0C       		.byte	0xc
 7007 0760 2301     		.2byte	0x123
 7008 0762 D4050000 		.4byte	0x5d4
 7009 0766 17       		.uleb128 0x17
 7010 0767 18       		.byte	0x18
 7011 0768 0C       		.byte	0xc
 7012 0769 6B01     		.2byte	0x16b
 7013 076b BD070000 		.4byte	0x7bd
 7014 076f 09       		.uleb128 0x9
 7015 0770 435200   		.ascii	"CR\000"
 7016 0773 0C       		.byte	0xc
 7017 0774 6D01     		.2byte	0x16d
 7018 0776 29010000 		.4byte	0x129
 7019 077a 00       		.byte	0
 7020 077b 0A       		.uleb128 0xa
 7021 077c 45310000 		.4byte	.LASF117
 7022 0780 0C       		.byte	0xc
 7023 0781 6E01     		.2byte	0x16e
 7024 0783 29010000 		.4byte	0x129
 7025 0787 04       		.byte	0x4
 7026 0788 09       		.uleb128 0x9
 7027 0789 50415200 		.ascii	"PAR\000"
 7028 078d 0C       		.byte	0xc
 7029 078e 6F01     		.2byte	0x16f
 7030 0790 29010000 		.4byte	0x129
 7031 0794 08       		.byte	0x8
 7032 0795 0A       		.uleb128 0xa
 7033 0796 37050000 		.4byte	.LASF118
ARM GAS  C:\Users\CHRIST~1\AppData\Local\Temp\ccb3oWGE.s 			page 126


 7034 079a 0C       		.byte	0xc
 7035 079b 7001     		.2byte	0x170
 7036 079d 29010000 		.4byte	0x129
 7037 07a1 0C       		.byte	0xc
 7038 07a2 0A       		.uleb128 0xa
 7039 07a3 570A0000 		.4byte	.LASF119
 7040 07a7 0C       		.byte	0xc
 7041 07a8 7101     		.2byte	0x171
 7042 07aa 29010000 		.4byte	0x129
 7043 07ae 10       		.byte	0x10
 7044 07af 09       		.uleb128 0x9
 7045 07b0 46435200 		.ascii	"FCR\000"
 7046 07b4 0C       		.byte	0xc
 7047 07b5 7201     		.2byte	0x172
 7048 07b7 29010000 		.4byte	0x129
 7049 07bb 14       		.byte	0x14
 7050 07bc 00       		.byte	0
 7051 07bd 18       		.uleb128 0x18
 7052 07be 610A0000 		.4byte	.LASF120
 7053 07c2 0C       		.byte	0xc
 7054 07c3 7301     		.2byte	0x173
 7055 07c5 66070000 		.4byte	0x766
 7056 07c9 11       		.uleb128 0x11
 7057 07ca 29010000 		.4byte	0x129
 7058 07ce D9070000 		.4byte	0x7d9
 7059 07d2 12       		.uleb128 0x12
 7060 07d3 BD000000 		.4byte	0xbd
 7061 07d7 01       		.byte	0x1
 7062 07d8 00       		.byte	0
 7063 07d9 05       		.uleb128 0x5
 7064 07da C9070000 		.4byte	0x7c9
 7065 07de 11       		.uleb128 0x11
 7066 07df 29010000 		.4byte	0x129
 7067 07e3 EE070000 		.4byte	0x7ee
 7068 07e7 12       		.uleb128 0x12
 7069 07e8 BD000000 		.4byte	0xbd
 7070 07ec 03       		.byte	0x3
 7071 07ed 00       		.byte	0
 7072 07ee 05       		.uleb128 0x5
 7073 07ef DE070000 		.4byte	0x7de
 7074 07f3 17       		.uleb128 0x17
 7075 07f4 28       		.byte	0x28
 7076 07f5 0C       		.byte	0xc
 7077 07f6 3F02     		.2byte	0x23f
 7078 07f8 7E080000 		.4byte	0x87e
 7079 07fc 09       		.uleb128 0x9
 7080 07fd 43523100 		.ascii	"CR1\000"
 7081 0801 0C       		.byte	0xc
 7082 0802 4102     		.2byte	0x241
 7083 0804 29010000 		.4byte	0x129
 7084 0808 00       		.byte	0
 7085 0809 09       		.uleb128 0x9
 7086 080a 43523200 		.ascii	"CR2\000"
 7087 080e 0C       		.byte	0xc
 7088 080f 4202     		.2byte	0x242
 7089 0811 29010000 		.4byte	0x129
 7090 0815 04       		.byte	0x4
ARM GAS  C:\Users\CHRIST~1\AppData\Local\Temp\ccb3oWGE.s 			page 127


 7091 0816 0A       		.uleb128 0xa
 7092 0817 203C0000 		.4byte	.LASF121
 7093 081b 0C       		.byte	0xc
 7094 081c 4302     		.2byte	0x243
 7095 081e 29010000 		.4byte	0x129
 7096 0822 08       		.byte	0x8
 7097 0823 0A       		.uleb128 0xa
 7098 0824 253C0000 		.4byte	.LASF122
 7099 0828 0C       		.byte	0xc
 7100 0829 4402     		.2byte	0x244
 7101 082b 29010000 		.4byte	0x129
 7102 082f 0C       		.byte	0xc
 7103 0830 09       		.uleb128 0x9
 7104 0831 445200   		.ascii	"DR\000"
 7105 0834 0C       		.byte	0xc
 7106 0835 4502     		.2byte	0x245
 7107 0837 29010000 		.4byte	0x129
 7108 083b 10       		.byte	0x10
 7109 083c 09       		.uleb128 0x9
 7110 083d 53523100 		.ascii	"SR1\000"
 7111 0841 0C       		.byte	0xc
 7112 0842 4602     		.2byte	0x246
 7113 0844 29010000 		.4byte	0x129
 7114 0848 14       		.byte	0x14
 7115 0849 09       		.uleb128 0x9
 7116 084a 53523200 		.ascii	"SR2\000"
 7117 084e 0C       		.byte	0xc
 7118 084f 4702     		.2byte	0x247
 7119 0851 29010000 		.4byte	0x129
 7120 0855 18       		.byte	0x18
 7121 0856 09       		.uleb128 0x9
 7122 0857 43435200 		.ascii	"CCR\000"
 7123 085b 0C       		.byte	0xc
 7124 085c 4802     		.2byte	0x248
 7125 085e 29010000 		.4byte	0x129
 7126 0862 1C       		.byte	0x1c
 7127 0863 0A       		.uleb128 0xa
 7128 0864 B1060000 		.4byte	.LASF123
 7129 0868 0C       		.byte	0xc
 7130 0869 4902     		.2byte	0x249
 7131 086b 29010000 		.4byte	0x129
 7132 086f 20       		.byte	0x20
 7133 0870 0A       		.uleb128 0xa
 7134 0871 98390000 		.4byte	.LASF124
 7135 0875 0C       		.byte	0xc
 7136 0876 4A02     		.2byte	0x24a
 7137 0878 29010000 		.4byte	0x129
 7138 087c 24       		.byte	0x24
 7139 087d 00       		.byte	0
 7140 087e 18       		.uleb128 0x18
 7141 087f DD200000 		.4byte	.LASF125
 7142 0883 0C       		.byte	0xc
 7143 0884 4B02     		.2byte	0x24b
 7144 0886 F3070000 		.4byte	0x7f3
 7145 088a 17       		.uleb128 0x17
 7146 088b 24       		.byte	0x24
 7147 088c 0C       		.byte	0xc
ARM GAS  C:\Users\CHRIST~1\AppData\Local\Temp\ccb3oWGE.s 			page 128


 7148 088d DB02     		.2byte	0x2db
 7149 088f 07090000 		.4byte	0x907
 7150 0893 09       		.uleb128 0x9
 7151 0894 43523100 		.ascii	"CR1\000"
 7152 0898 0C       		.byte	0xc
 7153 0899 DD02     		.2byte	0x2dd
 7154 089b 29010000 		.4byte	0x129
 7155 089f 00       		.byte	0
 7156 08a0 09       		.uleb128 0x9
 7157 08a1 43523200 		.ascii	"CR2\000"
 7158 08a5 0C       		.byte	0xc
 7159 08a6 DE02     		.2byte	0x2de
 7160 08a8 29010000 		.4byte	0x129
 7161 08ac 04       		.byte	0x4
 7162 08ad 09       		.uleb128 0x9
 7163 08ae 535200   		.ascii	"SR\000"
 7164 08b1 0C       		.byte	0xc
 7165 08b2 DF02     		.2byte	0x2df
 7166 08b4 29010000 		.4byte	0x129
 7167 08b8 08       		.byte	0x8
 7168 08b9 09       		.uleb128 0x9
 7169 08ba 445200   		.ascii	"DR\000"
 7170 08bd 0C       		.byte	0xc
 7171 08be E002     		.2byte	0x2e0
 7172 08c0 29010000 		.4byte	0x129
 7173 08c4 0C       		.byte	0xc
 7174 08c5 0A       		.uleb128 0xa
 7175 08c6 D2090000 		.4byte	.LASF126
 7176 08ca 0C       		.byte	0xc
 7177 08cb E102     		.2byte	0x2e1
 7178 08cd 29010000 		.4byte	0x129
 7179 08d1 10       		.byte	0x10
 7180 08d2 0A       		.uleb128 0xa
 7181 08d3 370F0000 		.4byte	.LASF127
 7182 08d7 0C       		.byte	0xc
 7183 08d8 E202     		.2byte	0x2e2
 7184 08da 29010000 		.4byte	0x129
 7185 08de 14       		.byte	0x14
 7186 08df 0A       		.uleb128 0xa
 7187 08e0 CA0D0000 		.4byte	.LASF128
 7188 08e4 0C       		.byte	0xc
 7189 08e5 E302     		.2byte	0x2e3
 7190 08e7 29010000 		.4byte	0x129
 7191 08eb 18       		.byte	0x18
 7192 08ec 0A       		.uleb128 0xa
 7193 08ed F7350000 		.4byte	.LASF129
 7194 08f1 0C       		.byte	0xc
 7195 08f2 E402     		.2byte	0x2e4
 7196 08f4 29010000 		.4byte	0x129
 7197 08f8 1C       		.byte	0x1c
 7198 08f9 0A       		.uleb128 0xa
 7199 08fa 6D090000 		.4byte	.LASF130
 7200 08fe 0C       		.byte	0xc
 7201 08ff E502     		.2byte	0x2e5
 7202 0901 29010000 		.4byte	0x129
 7203 0905 20       		.byte	0x20
 7204 0906 00       		.byte	0
ARM GAS  C:\Users\CHRIST~1\AppData\Local\Temp\ccb3oWGE.s 			page 129


 7205 0907 18       		.uleb128 0x18
 7206 0908 8B310000 		.4byte	.LASF131
 7207 090c 0C       		.byte	0xc
 7208 090d E602     		.2byte	0x2e6
 7209 090f 8A080000 		.4byte	0x88a
 7210 0913 17       		.uleb128 0x17
 7211 0914 54       		.byte	0x54
 7212 0915 0C       		.byte	0xc
 7213 0916 EC02     		.2byte	0x2ec
 7214 0918 2C0A0000 		.4byte	0xa2c
 7215 091c 09       		.uleb128 0x9
 7216 091d 43523100 		.ascii	"CR1\000"
 7217 0921 0C       		.byte	0xc
 7218 0922 EE02     		.2byte	0x2ee
 7219 0924 29010000 		.4byte	0x129
 7220 0928 00       		.byte	0
 7221 0929 09       		.uleb128 0x9
 7222 092a 43523200 		.ascii	"CR2\000"
 7223 092e 0C       		.byte	0xc
 7224 092f EF02     		.2byte	0x2ef
 7225 0931 29010000 		.4byte	0x129
 7226 0935 04       		.byte	0x4
 7227 0936 0A       		.uleb128 0xa
 7228 0937 9F310000 		.4byte	.LASF132
 7229 093b 0C       		.byte	0xc
 7230 093c F002     		.2byte	0x2f0
 7231 093e 29010000 		.4byte	0x129
 7232 0942 08       		.byte	0x8
 7233 0943 0A       		.uleb128 0xa
 7234 0944 530D0000 		.4byte	.LASF133
 7235 0948 0C       		.byte	0xc
 7236 0949 F102     		.2byte	0x2f1
 7237 094b 29010000 		.4byte	0x129
 7238 094f 0C       		.byte	0xc
 7239 0950 09       		.uleb128 0x9
 7240 0951 535200   		.ascii	"SR\000"
 7241 0954 0C       		.byte	0xc
 7242 0955 F202     		.2byte	0x2f2
 7243 0957 29010000 		.4byte	0x129
 7244 095b 10       		.byte	0x10
 7245 095c 09       		.uleb128 0x9
 7246 095d 45475200 		.ascii	"EGR\000"
 7247 0961 0C       		.byte	0xc
 7248 0962 F302     		.2byte	0x2f3
 7249 0964 29010000 		.4byte	0x129
 7250 0968 14       		.byte	0x14
 7251 0969 0A       		.uleb128 0xa
 7252 096a D0390000 		.4byte	.LASF134
 7253 096e 0C       		.byte	0xc
 7254 096f F402     		.2byte	0x2f4
 7255 0971 29010000 		.4byte	0x129
 7256 0975 18       		.byte	0x18
 7257 0976 0A       		.uleb128 0xa
 7258 0977 D6390000 		.4byte	.LASF135
 7259 097b 0C       		.byte	0xc
 7260 097c F502     		.2byte	0x2f5
 7261 097e 29010000 		.4byte	0x129
ARM GAS  C:\Users\CHRIST~1\AppData\Local\Temp\ccb3oWGE.s 			page 130


 7262 0982 1C       		.byte	0x1c
 7263 0983 0A       		.uleb128 0xa
 7264 0984 68090000 		.4byte	.LASF136
 7265 0988 0C       		.byte	0xc
 7266 0989 F602     		.2byte	0x2f6
 7267 098b 29010000 		.4byte	0x129
 7268 098f 20       		.byte	0x20
 7269 0990 09       		.uleb128 0x9
 7270 0991 434E5400 		.ascii	"CNT\000"
 7271 0995 0C       		.byte	0xc
 7272 0996 F702     		.2byte	0x2f7
 7273 0998 29010000 		.4byte	0x129
 7274 099c 24       		.byte	0x24
 7275 099d 09       		.uleb128 0x9
 7276 099e 50534300 		.ascii	"PSC\000"
 7277 09a2 0C       		.byte	0xc
 7278 09a3 F802     		.2byte	0x2f8
 7279 09a5 29010000 		.4byte	0x129
 7280 09a9 28       		.byte	0x28
 7281 09aa 09       		.uleb128 0x9
 7282 09ab 41525200 		.ascii	"ARR\000"
 7283 09af 0C       		.byte	0xc
 7284 09b0 F902     		.2byte	0x2f9
 7285 09b2 29010000 		.4byte	0x129
 7286 09b6 2C       		.byte	0x2c
 7287 09b7 09       		.uleb128 0x9
 7288 09b8 52435200 		.ascii	"RCR\000"
 7289 09bc 0C       		.byte	0xc
 7290 09bd FA02     		.2byte	0x2fa
 7291 09bf 29010000 		.4byte	0x129
 7292 09c3 30       		.byte	0x30
 7293 09c4 0A       		.uleb128 0xa
 7294 09c5 70150000 		.4byte	.LASF137
 7295 09c9 0C       		.byte	0xc
 7296 09ca FB02     		.2byte	0x2fb
 7297 09cc 29010000 		.4byte	0x129
 7298 09d0 34       		.byte	0x34
 7299 09d1 0A       		.uleb128 0xa
 7300 09d2 75150000 		.4byte	.LASF138
 7301 09d6 0C       		.byte	0xc
 7302 09d7 FC02     		.2byte	0x2fc
 7303 09d9 29010000 		.4byte	0x129
 7304 09dd 38       		.byte	0x38
 7305 09de 0A       		.uleb128 0xa
 7306 09df 7A150000 		.4byte	.LASF139
 7307 09e3 0C       		.byte	0xc
 7308 09e4 FD02     		.2byte	0x2fd
 7309 09e6 29010000 		.4byte	0x129
 7310 09ea 3C       		.byte	0x3c
 7311 09eb 0A       		.uleb128 0xa
 7312 09ec 7F150000 		.4byte	.LASF140
 7313 09f0 0C       		.byte	0xc
 7314 09f1 FE02     		.2byte	0x2fe
 7315 09f3 29010000 		.4byte	0x129
 7316 09f7 40       		.byte	0x40
 7317 09f8 0A       		.uleb128 0xa
 7318 09f9 5F020000 		.4byte	.LASF141
ARM GAS  C:\Users\CHRIST~1\AppData\Local\Temp\ccb3oWGE.s 			page 131


 7319 09fd 0C       		.byte	0xc
 7320 09fe FF02     		.2byte	0x2ff
 7321 0a00 29010000 		.4byte	0x129
 7322 0a04 44       		.byte	0x44
 7323 0a05 09       		.uleb128 0x9
 7324 0a06 44435200 		.ascii	"DCR\000"
 7325 0a0a 0C       		.byte	0xc
 7326 0a0b 0003     		.2byte	0x300
 7327 0a0d 29010000 		.4byte	0x129
 7328 0a11 48       		.byte	0x48
 7329 0a12 0A       		.uleb128 0xa
 7330 0a13 08210000 		.4byte	.LASF142
 7331 0a17 0C       		.byte	0xc
 7332 0a18 0103     		.2byte	0x301
 7333 0a1a 29010000 		.4byte	0x129
 7334 0a1e 4C       		.byte	0x4c
 7335 0a1f 09       		.uleb128 0x9
 7336 0a20 4F5200   		.ascii	"OR\000"
 7337 0a23 0C       		.byte	0xc
 7338 0a24 0203     		.2byte	0x302
 7339 0a26 29010000 		.4byte	0x129
 7340 0a2a 50       		.byte	0x50
 7341 0a2b 00       		.byte	0
 7342 0a2c 18       		.uleb128 0x18
 7343 0a2d F61A0000 		.4byte	.LASF143
 7344 0a31 0C       		.byte	0xc
 7345 0a32 0303     		.2byte	0x303
 7346 0a34 13090000 		.4byte	0x913
 7347 0a38 17       		.uleb128 0x17
 7348 0a39 1C       		.byte	0x1c
 7349 0a3a 0C       		.byte	0xc
 7350 0a3b 0903     		.2byte	0x309
 7351 0a3d 9B0A0000 		.4byte	0xa9b
 7352 0a41 09       		.uleb128 0x9
 7353 0a42 535200   		.ascii	"SR\000"
 7354 0a45 0C       		.byte	0xc
 7355 0a46 0B03     		.2byte	0x30b
 7356 0a48 29010000 		.4byte	0x129
 7357 0a4c 00       		.byte	0
 7358 0a4d 09       		.uleb128 0x9
 7359 0a4e 445200   		.ascii	"DR\000"
 7360 0a51 0C       		.byte	0xc
 7361 0a52 0C03     		.2byte	0x30c
 7362 0a54 29010000 		.4byte	0x129
 7363 0a58 04       		.byte	0x4
 7364 0a59 09       		.uleb128 0x9
 7365 0a5a 42525200 		.ascii	"BRR\000"
 7366 0a5e 0C       		.byte	0xc
 7367 0a5f 0D03     		.2byte	0x30d
 7368 0a61 29010000 		.4byte	0x129
 7369 0a65 08       		.byte	0x8
 7370 0a66 09       		.uleb128 0x9
 7371 0a67 43523100 		.ascii	"CR1\000"
 7372 0a6b 0C       		.byte	0xc
 7373 0a6c 0E03     		.2byte	0x30e
 7374 0a6e 29010000 		.4byte	0x129
 7375 0a72 0C       		.byte	0xc
ARM GAS  C:\Users\CHRIST~1\AppData\Local\Temp\ccb3oWGE.s 			page 132


 7376 0a73 09       		.uleb128 0x9
 7377 0a74 43523200 		.ascii	"CR2\000"
 7378 0a78 0C       		.byte	0xc
 7379 0a79 0F03     		.2byte	0x30f
 7380 0a7b 29010000 		.4byte	0x129
 7381 0a7f 10       		.byte	0x10
 7382 0a80 09       		.uleb128 0x9
 7383 0a81 43523300 		.ascii	"CR3\000"
 7384 0a85 0C       		.byte	0xc
 7385 0a86 1003     		.2byte	0x310
 7386 0a88 29010000 		.4byte	0x129
 7387 0a8c 14       		.byte	0x14
 7388 0a8d 0A       		.uleb128 0xa
 7389 0a8e 2E390000 		.4byte	.LASF144
 7390 0a92 0C       		.byte	0xc
 7391 0a93 1103     		.2byte	0x311
 7392 0a95 29010000 		.4byte	0x129
 7393 0a99 18       		.byte	0x18
 7394 0a9a 00       		.byte	0
 7395 0a9b 18       		.uleb128 0x18
 7396 0a9c BC3A0000 		.4byte	.LASF145
 7397 0aa0 0C       		.byte	0xc
 7398 0aa1 1203     		.2byte	0x312
 7399 0aa3 380A0000 		.4byte	0xa38
 7400 0aa7 11       		.uleb128 0x11
 7401 0aa8 29010000 		.4byte	0x129
 7402 0aac B70A0000 		.4byte	0xab7
 7403 0ab0 12       		.uleb128 0x12
 7404 0ab1 BD000000 		.4byte	0xbd
 7405 0ab5 0E       		.byte	0xe
 7406 0ab6 00       		.byte	0
 7407 0ab7 05       		.uleb128 0x5
 7408 0ab8 A70A0000 		.4byte	0xaa7
 7409 0abc 03       		.uleb128 0x3
 7410 0abd 8D240000 		.4byte	.LASF146
 7411 0ac1 0D       		.byte	0xd
 7412 0ac2 65       		.byte	0x65
 7413 0ac3 BF030000 		.4byte	0x3bf
 7414 0ac7 03       		.uleb128 0x3
 7415 0ac8 C20B0000 		.4byte	.LASF147
 7416 0acc 0D       		.byte	0xd
 7417 0acd 6D       		.byte	0x6d
 7418 0ace 2E010000 		.4byte	0x12e
 7419 0ad2 07       		.uleb128 0x7
 7420 0ad3 51230000 		.4byte	.LASF148
 7421 0ad7 04       		.byte	0x4
 7422 0ad8 0D       		.byte	0xd
 7423 0ad9 89       		.byte	0x89
 7424 0ada EB0A0000 		.4byte	0xaeb
 7425 0ade 16       		.uleb128 0x16
 7426 0adf 72313300 		.ascii	"r13\000"
 7427 0ae3 0D       		.byte	0xd
 7428 0ae4 8A       		.byte	0x8a
 7429 0ae5 2C0C0000 		.4byte	0xc2c
 7430 0ae9 00       		.byte	0
 7431 0aea 00       		.byte	0
 7432 0aeb 07       		.uleb128 0x7
ARM GAS  C:\Users\CHRIST~1\AppData\Local\Temp\ccb3oWGE.s 			page 133


 7433 0aec 09000000 		.4byte	.LASF149
 7434 0af0 64       		.byte	0x64
 7435 0af1 0E       		.byte	0xe
 7436 0af2 F4       		.byte	0xf4
 7437 0af3 2C0C0000 		.4byte	0xc2c
 7438 0af7 16       		.uleb128 0x16
 7439 0af8 73313600 		.ascii	"s16\000"
 7440 0afc 0E       		.byte	0xe
 7441 0afd F6       		.byte	0xf6
 7442 0afe BC0A0000 		.4byte	0xabc
 7443 0b02 00       		.byte	0
 7444 0b03 16       		.uleb128 0x16
 7445 0b04 73313700 		.ascii	"s17\000"
 7446 0b08 0E       		.byte	0xe
 7447 0b09 F7       		.byte	0xf7
 7448 0b0a BC0A0000 		.4byte	0xabc
 7449 0b0e 04       		.byte	0x4
 7450 0b0f 16       		.uleb128 0x16
 7451 0b10 73313800 		.ascii	"s18\000"
 7452 0b14 0E       		.byte	0xe
 7453 0b15 F8       		.byte	0xf8
 7454 0b16 BC0A0000 		.4byte	0xabc
 7455 0b1a 08       		.byte	0x8
 7456 0b1b 16       		.uleb128 0x16
 7457 0b1c 73313900 		.ascii	"s19\000"
 7458 0b20 0E       		.byte	0xe
 7459 0b21 F9       		.byte	0xf9
 7460 0b22 BC0A0000 		.4byte	0xabc
 7461 0b26 0C       		.byte	0xc
 7462 0b27 16       		.uleb128 0x16
 7463 0b28 73323000 		.ascii	"s20\000"
 7464 0b2c 0E       		.byte	0xe
 7465 0b2d FA       		.byte	0xfa
 7466 0b2e BC0A0000 		.4byte	0xabc
 7467 0b32 10       		.byte	0x10
 7468 0b33 16       		.uleb128 0x16
 7469 0b34 73323100 		.ascii	"s21\000"
 7470 0b38 0E       		.byte	0xe
 7471 0b39 FB       		.byte	0xfb
 7472 0b3a BC0A0000 		.4byte	0xabc
 7473 0b3e 14       		.byte	0x14
 7474 0b3f 16       		.uleb128 0x16
 7475 0b40 73323200 		.ascii	"s22\000"
 7476 0b44 0E       		.byte	0xe
 7477 0b45 FC       		.byte	0xfc
 7478 0b46 BC0A0000 		.4byte	0xabc
 7479 0b4a 18       		.byte	0x18
 7480 0b4b 16       		.uleb128 0x16
 7481 0b4c 73323300 		.ascii	"s23\000"
 7482 0b50 0E       		.byte	0xe
 7483 0b51 FD       		.byte	0xfd
 7484 0b52 BC0A0000 		.4byte	0xabc
 7485 0b56 1C       		.byte	0x1c
 7486 0b57 16       		.uleb128 0x16
 7487 0b58 73323400 		.ascii	"s24\000"
 7488 0b5c 0E       		.byte	0xe
 7489 0b5d FE       		.byte	0xfe
ARM GAS  C:\Users\CHRIST~1\AppData\Local\Temp\ccb3oWGE.s 			page 134


 7490 0b5e BC0A0000 		.4byte	0xabc
 7491 0b62 20       		.byte	0x20
 7492 0b63 16       		.uleb128 0x16
 7493 0b64 73323500 		.ascii	"s25\000"
 7494 0b68 0E       		.byte	0xe
 7495 0b69 FF       		.byte	0xff
 7496 0b6a BC0A0000 		.4byte	0xabc
 7497 0b6e 24       		.byte	0x24
 7498 0b6f 09       		.uleb128 0x9
 7499 0b70 73323600 		.ascii	"s26\000"
 7500 0b74 0E       		.byte	0xe
 7501 0b75 0001     		.2byte	0x100
 7502 0b77 BC0A0000 		.4byte	0xabc
 7503 0b7b 28       		.byte	0x28
 7504 0b7c 09       		.uleb128 0x9
 7505 0b7d 73323700 		.ascii	"s27\000"
 7506 0b81 0E       		.byte	0xe
 7507 0b82 0101     		.2byte	0x101
 7508 0b84 BC0A0000 		.4byte	0xabc
 7509 0b88 2C       		.byte	0x2c
 7510 0b89 09       		.uleb128 0x9
 7511 0b8a 73323800 		.ascii	"s28\000"
 7512 0b8e 0E       		.byte	0xe
 7513 0b8f 0201     		.2byte	0x102
 7514 0b91 BC0A0000 		.4byte	0xabc
 7515 0b95 30       		.byte	0x30
 7516 0b96 09       		.uleb128 0x9
 7517 0b97 73323900 		.ascii	"s29\000"
 7518 0b9b 0E       		.byte	0xe
 7519 0b9c 0301     		.2byte	0x103
 7520 0b9e BC0A0000 		.4byte	0xabc
 7521 0ba2 34       		.byte	0x34
 7522 0ba3 09       		.uleb128 0x9
 7523 0ba4 73333000 		.ascii	"s30\000"
 7524 0ba8 0E       		.byte	0xe
 7525 0ba9 0401     		.2byte	0x104
 7526 0bab BC0A0000 		.4byte	0xabc
 7527 0baf 38       		.byte	0x38
 7528 0bb0 09       		.uleb128 0x9
 7529 0bb1 73333100 		.ascii	"s31\000"
 7530 0bb5 0E       		.byte	0xe
 7531 0bb6 0501     		.2byte	0x105
 7532 0bb8 BC0A0000 		.4byte	0xabc
 7533 0bbc 3C       		.byte	0x3c
 7534 0bbd 09       		.uleb128 0x9
 7535 0bbe 723400   		.ascii	"r4\000"
 7536 0bc1 0E       		.byte	0xe
 7537 0bc2 0701     		.2byte	0x107
 7538 0bc4 BC0A0000 		.4byte	0xabc
 7539 0bc8 40       		.byte	0x40
 7540 0bc9 09       		.uleb128 0x9
 7541 0bca 723500   		.ascii	"r5\000"
 7542 0bcd 0E       		.byte	0xe
 7543 0bce 0801     		.2byte	0x108
 7544 0bd0 BC0A0000 		.4byte	0xabc
 7545 0bd4 44       		.byte	0x44
 7546 0bd5 09       		.uleb128 0x9
ARM GAS  C:\Users\CHRIST~1\AppData\Local\Temp\ccb3oWGE.s 			page 135


 7547 0bd6 723600   		.ascii	"r6\000"
 7548 0bd9 0E       		.byte	0xe
 7549 0bda 0901     		.2byte	0x109
 7550 0bdc BC0A0000 		.4byte	0xabc
 7551 0be0 48       		.byte	0x48
 7552 0be1 09       		.uleb128 0x9
 7553 0be2 723700   		.ascii	"r7\000"
 7554 0be5 0E       		.byte	0xe
 7555 0be6 0A01     		.2byte	0x10a
 7556 0be8 BC0A0000 		.4byte	0xabc
 7557 0bec 4C       		.byte	0x4c
 7558 0bed 09       		.uleb128 0x9
 7559 0bee 723800   		.ascii	"r8\000"
 7560 0bf1 0E       		.byte	0xe
 7561 0bf2 0B01     		.2byte	0x10b
 7562 0bf4 BC0A0000 		.4byte	0xabc
 7563 0bf8 50       		.byte	0x50
 7564 0bf9 09       		.uleb128 0x9
 7565 0bfa 723900   		.ascii	"r9\000"
 7566 0bfd 0E       		.byte	0xe
 7567 0bfe 0C01     		.2byte	0x10c
 7568 0c00 BC0A0000 		.4byte	0xabc
 7569 0c04 54       		.byte	0x54
 7570 0c05 09       		.uleb128 0x9
 7571 0c06 72313000 		.ascii	"r10\000"
 7572 0c0a 0E       		.byte	0xe
 7573 0c0b 0D01     		.2byte	0x10d
 7574 0c0d BC0A0000 		.4byte	0xabc
 7575 0c11 58       		.byte	0x58
 7576 0c12 09       		.uleb128 0x9
 7577 0c13 72313100 		.ascii	"r11\000"
 7578 0c17 0E       		.byte	0xe
 7579 0c18 0E01     		.2byte	0x10e
 7580 0c1a BC0A0000 		.4byte	0xabc
 7581 0c1e 5C       		.byte	0x5c
 7582 0c1f 09       		.uleb128 0x9
 7583 0c20 6C7200   		.ascii	"lr\000"
 7584 0c23 0E       		.byte	0xe
 7585 0c24 0F01     		.2byte	0x10f
 7586 0c26 BC0A0000 		.4byte	0xabc
 7587 0c2a 60       		.byte	0x60
 7588 0c2b 00       		.byte	0
 7589 0c2c 0B       		.uleb128 0xb
 7590 0c2d 04       		.byte	0x4
 7591 0c2e EB0A0000 		.4byte	0xaeb
 7592 0c32 15       		.uleb128 0x15
 7593 0c33 04       		.byte	0x4
 7594 0c34 0F       		.byte	0xf
 7595 0c35 38       		.byte	0x38
 7596 0c36 470C0000 		.4byte	0xc47
 7597 0c3a 08       		.uleb128 0x8
 7598 0c3b DB300000 		.4byte	.LASF150
 7599 0c3f 0F       		.byte	0xf
 7600 0c40 3C       		.byte	0x3c
 7601 0c41 49010000 		.4byte	0x149
 7602 0c45 00       		.byte	0
 7603 0c46 00       		.byte	0
ARM GAS  C:\Users\CHRIST~1\AppData\Local\Temp\ccb3oWGE.s 			page 136


 7604 0c47 03       		.uleb128 0x3
 7605 0c48 E1380000 		.4byte	.LASF151
 7606 0c4c 0F       		.byte	0xf
 7607 0c4d 3D       		.byte	0x3d
 7608 0c4e 320C0000 		.4byte	0xc32
 7609 0c52 1C       		.uleb128 0x1c
 7610 0c53 04       		.byte	0x4
 7611 0c54 09       		.byte	0x9
 7612 0c55 FA       		.byte	0xfa
 7613 0c56 AF0C0000 		.4byte	0xcaf
 7614 0c5a 1D       		.uleb128 0x1d
 7615 0c5b 68160000 		.4byte	.LASF152
 7616 0c5f 09       		.byte	0x9
 7617 0c60 0101     		.2byte	0x101
 7618 0c62 8B010000 		.4byte	0x18b
 7619 0c66 1D       		.uleb128 0x1d
 7620 0c67 FC120000 		.4byte	.LASF153
 7621 0c6b 09       		.byte	0x9
 7622 0c6c 0801     		.2byte	0x108
 7623 0c6e 8B010000 		.4byte	0x18b
 7624 0c72 1D       		.uleb128 0x1d
 7625 0c73 BF2B0000 		.4byte	.LASF154
 7626 0c77 09       		.byte	0x9
 7627 0c78 0F01     		.2byte	0x10f
 7628 0c7a BF030000 		.4byte	0x3bf
 7629 0c7e 1D       		.uleb128 0x1d
 7630 0c7f 43230000 		.4byte	.LASF155
 7631 0c83 09       		.byte	0x9
 7632 0c84 1601     		.2byte	0x116
 7633 0c86 AF0C0000 		.4byte	0xcaf
 7634 0c8a 1D       		.uleb128 0x1d
 7635 0c8b 5A010000 		.4byte	.LASF156
 7636 0c8f 09       		.byte	0x9
 7637 0c90 1E01     		.2byte	0x11e
 7638 0c92 DA0C0000 		.4byte	0xcda
 7639 0c96 1D       		.uleb128 0x1d
 7640 0c97 162C0000 		.4byte	.LASF157
 7641 0c9b 09       		.byte	0x9
 7642 0c9c 2701     		.2byte	0x127
 7643 0c9e 110D0000 		.4byte	0xd11
 7644 0ca2 1D       		.uleb128 0x1d
 7645 0ca3 2E320000 		.4byte	.LASF158
 7646 0ca7 09       		.byte	0x9
 7647 0ca8 2F01     		.2byte	0x12f
 7648 0caa 96010000 		.4byte	0x196
 7649 0cae 00       		.byte	0
 7650 0caf 0B       		.uleb128 0xb
 7651 0cb0 04       		.byte	0x4
 7652 0cb1 D7020000 		.4byte	0x2d7
 7653 0cb5 07       		.uleb128 0x7
 7654 0cb6 80210000 		.4byte	.LASF159
 7655 0cba 0C       		.byte	0xc
 7656 0cbb 10       		.byte	0x10
 7657 0cbc 34       		.byte	0x34
 7658 0cbd DA0C0000 		.4byte	0xcda
 7659 0cc1 08       		.uleb128 0x8
 7660 0cc2 CF350000 		.4byte	.LASF160
ARM GAS  C:\Users\CHRIST~1\AppData\Local\Temp\ccb3oWGE.s 			page 137


 7661 0cc6 10       		.byte	0x10
 7662 0cc7 35       		.byte	0x35
 7663 0cc8 0C030000 		.4byte	0x30c
 7664 0ccc 00       		.byte	0
 7665 0ccd 08       		.uleb128 0x8
 7666 0cce 4D0C0000 		.4byte	.LASF161
 7667 0cd2 10       		.byte	0x10
 7668 0cd3 37       		.byte	0x37
 7669 0cd4 AC010000 		.4byte	0x1ac
 7670 0cd8 08       		.byte	0x8
 7671 0cd9 00       		.byte	0
 7672 0cda 0B       		.uleb128 0xb
 7673 0cdb 04       		.byte	0x4
 7674 0cdc B50C0000 		.4byte	0xcb5
 7675 0ce0 07       		.uleb128 0x7
 7676 0ce1 4C0F0000 		.4byte	.LASF162
 7677 0ce5 10       		.byte	0x10
 7678 0ce6 11       		.byte	0x11
 7679 0ce7 39       		.byte	0x39
 7680 0ce8 110D0000 		.4byte	0xd11
 7681 0cec 08       		.uleb128 0x8
 7682 0ced 9A220000 		.4byte	.LASF163
 7683 0cf1 11       		.byte	0x11
 7684 0cf2 3A       		.byte	0x3a
 7685 0cf3 0C030000 		.4byte	0x30c
 7686 0cf7 00       		.byte	0
 7687 0cf8 08       		.uleb128 0x8
 7688 0cf9 3D200000 		.4byte	.LASF164
 7689 0cfd 11       		.byte	0x11
 7690 0cfe 3C       		.byte	0x3c
 7691 0cff E2020000 		.4byte	0x2e2
 7692 0d03 08       		.byte	0x8
 7693 0d04 08       		.uleb128 0x8
 7694 0d05 12020000 		.4byte	.LASF165
 7695 0d09 11       		.byte	0x11
 7696 0d0a 3E       		.byte	0x3e
 7697 0d0b 660E0000 		.4byte	0xe66
 7698 0d0f 0C       		.byte	0xc
 7699 0d10 00       		.byte	0
 7700 0d11 0B       		.uleb128 0xb
 7701 0d12 04       		.byte	0x4
 7702 0d13 E00C0000 		.4byte	0xce0
 7703 0d17 0B       		.uleb128 0xb
 7704 0d18 04       		.byte	0x4
 7705 0d19 290D0000 		.4byte	0xd29
 7706 0d1d 05       		.uleb128 0x5
 7707 0d1e 170D0000 		.4byte	0xd17
 7708 0d22 02       		.uleb128 0x2
 7709 0d23 01       		.byte	0x1
 7710 0d24 08       		.byte	0x8
 7711 0d25 2D260000 		.4byte	.LASF166
 7712 0d29 06       		.uleb128 0x6
 7713 0d2a 220D0000 		.4byte	0xd22
 7714 0d2e 0B       		.uleb128 0xb
 7715 0d2f 04       		.byte	0x4
 7716 0d30 C1030000 		.4byte	0x3c1
 7717 0d34 11       		.uleb128 0x11
ARM GAS  C:\Users\CHRIST~1\AppData\Local\Temp\ccb3oWGE.s 			page 138


 7718 0d35 C70A0000 		.4byte	0xac7
 7719 0d39 440D0000 		.4byte	0xd44
 7720 0d3d 12       		.uleb128 0x12
 7721 0d3e BD000000 		.4byte	0xbd
 7722 0d42 3A       		.byte	0x3a
 7723 0d43 00       		.byte	0
 7724 0d44 1E       		.uleb128 0x1e
 7725 0d45 636800   		.ascii	"ch\000"
 7726 0d48 09       		.byte	0x9
 7727 0d49 0902     		.2byte	0x209
 7728 0d4b 8E040000 		.4byte	0x48e
 7729 0d4f 15       		.uleb128 0x15
 7730 0d50 16       		.byte	0x16
 7731 0d51 02       		.byte	0x2
 7732 0d52 34       		.byte	0x34
 7733 0d53 300E0000 		.4byte	0xe30
 7734 0d57 08       		.uleb128 0x8
 7735 0d58 55360000 		.4byte	.LASF167
 7736 0d5c 02       		.byte	0x2
 7737 0d5d 35       		.byte	0x35
 7738 0d5e 300E0000 		.4byte	0xe30
 7739 0d62 00       		.byte	0
 7740 0d63 08       		.uleb128 0x8
 7741 0d64 65390000 		.4byte	.LASF168
 7742 0d68 02       		.byte	0x2
 7743 0d69 36       		.byte	0x36
 7744 0d6a D9000000 		.4byte	0xd9
 7745 0d6e 04       		.byte	0x4
 7746 0d6f 08       		.uleb128 0x8
 7747 0d70 1B040000 		.4byte	.LASF169
 7748 0d74 02       		.byte	0x2
 7749 0d75 37       		.byte	0x37
 7750 0d76 D9000000 		.4byte	0xd9
 7751 0d7a 05       		.byte	0x5
 7752 0d7b 08       		.uleb128 0x8
 7753 0d7c B7200000 		.4byte	.LASF170
 7754 0d80 02       		.byte	0x2
 7755 0d81 38       		.byte	0x38
 7756 0d82 FE000000 		.4byte	0xfe
 7757 0d86 06       		.byte	0x6
 7758 0d87 08       		.uleb128 0x8
 7759 0d88 27000000 		.4byte	.LASF171
 7760 0d8c 02       		.byte	0x2
 7761 0d8d 39       		.byte	0x39
 7762 0d8e D9000000 		.4byte	0xd9
 7763 0d92 08       		.byte	0x8
 7764 0d93 08       		.uleb128 0x8
 7765 0d94 CA1D0000 		.4byte	.LASF172
 7766 0d98 02       		.byte	0x2
 7767 0d99 3A       		.byte	0x3a
 7768 0d9a D9000000 		.4byte	0xd9
 7769 0d9e 09       		.byte	0x9
 7770 0d9f 08       		.uleb128 0x8
 7771 0da0 8A390000 		.4byte	.LASF173
 7772 0da4 02       		.byte	0x2
 7773 0da5 3B       		.byte	0x3b
 7774 0da6 D9000000 		.4byte	0xd9
ARM GAS  C:\Users\CHRIST~1\AppData\Local\Temp\ccb3oWGE.s 			page 139


 7775 0daa 0A       		.byte	0xa
 7776 0dab 08       		.uleb128 0x8
 7777 0dac 8C360000 		.4byte	.LASF174
 7778 0db0 02       		.byte	0x2
 7779 0db1 3C       		.byte	0x3c
 7780 0db2 D9000000 		.4byte	0xd9
 7781 0db6 0B       		.byte	0xb
 7782 0db7 08       		.uleb128 0x8
 7783 0db8 0B070000 		.4byte	.LASF175
 7784 0dbc 02       		.byte	0x2
 7785 0dbd 3D       		.byte	0x3d
 7786 0dbe D9000000 		.4byte	0xd9
 7787 0dc2 0C       		.byte	0xc
 7788 0dc3 08       		.uleb128 0x8
 7789 0dc4 C20F0000 		.4byte	.LASF176
 7790 0dc8 02       		.byte	0x2
 7791 0dc9 3E       		.byte	0x3e
 7792 0dca D9000000 		.4byte	0xd9
 7793 0dce 0D       		.byte	0xd
 7794 0dcf 08       		.uleb128 0x8
 7795 0dd0 61070000 		.4byte	.LASF177
 7796 0dd4 02       		.byte	0x2
 7797 0dd5 3F       		.byte	0x3f
 7798 0dd6 D9000000 		.4byte	0xd9
 7799 0dda 0E       		.byte	0xe
 7800 0ddb 08       		.uleb128 0x8
 7801 0ddc 65120000 		.4byte	.LASF178
 7802 0de0 02       		.byte	0x2
 7803 0de1 40       		.byte	0x40
 7804 0de2 D9000000 		.4byte	0xd9
 7805 0de6 0F       		.byte	0xf
 7806 0de7 08       		.uleb128 0x8
 7807 0de8 27050000 		.4byte	.LASF179
 7808 0dec 02       		.byte	0x2
 7809 0ded 41       		.byte	0x41
 7810 0dee D9000000 		.4byte	0xd9
 7811 0df2 10       		.byte	0x10
 7812 0df3 08       		.uleb128 0x8
 7813 0df4 690B0000 		.4byte	.LASF180
 7814 0df8 02       		.byte	0x2
 7815 0df9 43       		.byte	0x43
 7816 0dfa D9000000 		.4byte	0xd9
 7817 0dfe 11       		.byte	0x11
 7818 0dff 08       		.uleb128 0x8
 7819 0e00 C6030000 		.4byte	.LASF181
 7820 0e04 02       		.byte	0x2
 7821 0e05 44       		.byte	0x44
 7822 0e06 D9000000 		.4byte	0xd9
 7823 0e0a 12       		.byte	0x12
 7824 0e0b 08       		.uleb128 0x8
 7825 0e0c 1C200000 		.4byte	.LASF182
 7826 0e10 02       		.byte	0x2
 7827 0e11 45       		.byte	0x45
 7828 0e12 D9000000 		.4byte	0xd9
 7829 0e16 13       		.byte	0x13
 7830 0e17 08       		.uleb128 0x8
 7831 0e18 662A0000 		.4byte	.LASF183
ARM GAS  C:\Users\CHRIST~1\AppData\Local\Temp\ccb3oWGE.s 			page 140


 7832 0e1c 02       		.byte	0x2
 7833 0e1d 46       		.byte	0x46
 7834 0e1e D9000000 		.4byte	0xd9
 7835 0e22 14       		.byte	0x14
 7836 0e23 08       		.uleb128 0x8
 7837 0e24 38010000 		.4byte	.LASF184
 7838 0e28 02       		.byte	0x2
 7839 0e29 48       		.byte	0x48
 7840 0e2a D9000000 		.4byte	0xd9
 7841 0e2e 15       		.byte	0x15
 7842 0e2f 00       		.byte	0
 7843 0e30 11       		.uleb128 0x11
 7844 0e31 220D0000 		.4byte	0xd22
 7845 0e35 400E0000 		.4byte	0xe40
 7846 0e39 12       		.uleb128 0x12
 7847 0e3a BD000000 		.4byte	0xbd
 7848 0e3e 03       		.byte	0x3
 7849 0e3f 00       		.byte	0
 7850 0e40 03       		.uleb128 0x3
 7851 0e41 3A1D0000 		.4byte	.LASF185
 7852 0e45 02       		.byte	0x2
 7853 0e46 49       		.byte	0x49
 7854 0e47 4F0D0000 		.4byte	0xd4f
 7855 0e4b 06       		.uleb128 0x6
 7856 0e4c 400E0000 		.4byte	0xe40
 7857 0e50 14       		.uleb128 0x14
 7858 0e51 750E0000 		.4byte	.LASF186
 7859 0e55 02       		.byte	0x2
 7860 0e56 6E       		.byte	0x6e
 7861 0e57 4B0E0000 		.4byte	0xe4b
 7862 0e5b 03       		.uleb128 0x3
 7863 0e5c D42E0000 		.4byte	.LASF187
 7864 0e60 11       		.byte	0x11
 7865 0e61 34       		.byte	0x34
 7866 0e62 E00C0000 		.4byte	0xce0
 7867 0e66 0B       		.uleb128 0xb
 7868 0e67 04       		.byte	0x4
 7869 0e68 5B0E0000 		.4byte	0xe5b
 7870 0e6c 03       		.uleb128 0x3
 7871 0e6d CA0E0000 		.4byte	.LASF188
 7872 0e71 12       		.byte	0x12
 7873 0e72 34       		.byte	0x34
 7874 0e73 770E0000 		.4byte	0xe77
 7875 0e77 07       		.uleb128 0x7
 7876 0e78 270C0000 		.4byte	.LASF189
 7877 0e7c 14       		.byte	0x14
 7878 0e7d 12       		.byte	0x12
 7879 0e7e 39       		.byte	0x39
 7880 0e7f C00E0000 		.4byte	0xec0
 7881 0e83 08       		.uleb128 0x8
 7882 0e84 FF020000 		.4byte	.LASF190
 7883 0e88 12       		.byte	0x12
 7884 0e89 3A       		.byte	0x3a
 7885 0e8a C00E0000 		.4byte	0xec0
 7886 0e8e 00       		.byte	0
 7887 0e8f 08       		.uleb128 0x8
 7888 0e90 05300000 		.4byte	.LASF191
ARM GAS  C:\Users\CHRIST~1\AppData\Local\Temp\ccb3oWGE.s 			page 141


 7889 0e94 12       		.byte	0x12
 7890 0e95 3D       		.byte	0x3d
 7891 0e96 E2020000 		.4byte	0x2e2
 7892 0e9a 04       		.byte	0x4
 7893 0e9b 08       		.uleb128 0x8
 7894 0e9c BD040000 		.4byte	.LASF192
 7895 0ea0 12       		.byte	0x12
 7896 0ea1 3F       		.byte	0x3f
 7897 0ea2 96010000 		.4byte	0x196
 7898 0ea6 08       		.byte	0x8
 7899 0ea7 08       		.uleb128 0x8
 7900 0ea8 61320000 		.4byte	.LASF193
 7901 0eac 12       		.byte	0x12
 7902 0ead 41       		.byte	0x41
 7903 0eae A1010000 		.4byte	0x1a1
 7904 0eb2 0C       		.byte	0xc
 7905 0eb3 08       		.uleb128 0x8
 7906 0eb4 E8120000 		.4byte	.LASF194
 7907 0eb8 12       		.byte	0x12
 7908 0eb9 43       		.byte	0x43
 7909 0eba A1010000 		.4byte	0x1a1
 7910 0ebe 10       		.byte	0x10
 7911 0ebf 00       		.byte	0
 7912 0ec0 0B       		.uleb128 0xb
 7913 0ec1 04       		.byte	0x4
 7914 0ec2 6C0E0000 		.4byte	0xe6c
 7915 0ec6 07       		.uleb128 0x7
 7916 0ec7 6A320000 		.4byte	.LASF195
 7917 0ecb 04       		.byte	0x4
 7918 0ecc 12       		.byte	0x12
 7919 0ecd 4A       		.byte	0x4a
 7920 0ece DF0E0000 		.4byte	0xedf
 7921 0ed2 08       		.uleb128 0x8
 7922 0ed3 4A310000 		.4byte	.LASF196
 7923 0ed7 12       		.byte	0x12
 7924 0ed8 4B       		.byte	0x4b
 7925 0ed9 C00E0000 		.4byte	0xec0
 7926 0edd 00       		.byte	0
 7927 0ede 00       		.byte	0
 7928 0edf 03       		.uleb128 0x3
 7929 0ee0 F31D0000 		.4byte	.LASF197
 7930 0ee4 12       		.byte	0x12
 7931 0ee5 4E       		.byte	0x4e
 7932 0ee6 C60E0000 		.4byte	0xec6
 7933 0eea 03       		.uleb128 0x3
 7934 0eeb 44130000 		.4byte	.LASF198
 7935 0eef 13       		.byte	0x13
 7936 0ef0 3F       		.byte	0x3f
 7937 0ef1 F50E0000 		.4byte	0xef5
 7938 0ef5 07       		.uleb128 0x7
 7939 0ef6 FD160000 		.4byte	.LASF199
 7940 0efa 24       		.byte	0x24
 7941 0efb 13       		.byte	0x13
 7942 0efc 4D       		.byte	0x4d
 7943 0efd 620F0000 		.4byte	0xf62
 7944 0f01 08       		.uleb128 0x8
 7945 0f02 D6060000 		.4byte	.LASF200
ARM GAS  C:\Users\CHRIST~1\AppData\Local\Temp\ccb3oWGE.s 			page 142


 7946 0f06 13       		.byte	0x13
 7947 0f07 4E       		.byte	0x4e
 7948 0f08 0C030000 		.4byte	0x30c
 7949 0f0c 00       		.byte	0
 7950 0f0d 08       		.uleb128 0x8
 7951 0f0e 032E0000 		.4byte	.LASF201
 7952 0f12 13       		.byte	0x13
 7953 0f13 4F       		.byte	0x4f
 7954 0f14 44010000 		.4byte	0x144
 7955 0f18 08       		.byte	0x8
 7956 0f19 08       		.uleb128 0x8
 7957 0f1a B3180000 		.4byte	.LASF202
 7958 0f1e 13       		.byte	0x13
 7959 0f1f 50       		.byte	0x50
 7960 0f20 840F0000 		.4byte	0xf84
 7961 0f24 0C       		.byte	0xc
 7962 0f25 08       		.uleb128 0x8
 7963 0f26 FA050000 		.4byte	.LASF203
 7964 0f2a 13       		.byte	0x13
 7965 0f2b 51       		.byte	0x51
 7966 0f2c 840F0000 		.4byte	0xf84
 7967 0f30 10       		.byte	0x10
 7968 0f31 08       		.uleb128 0x8
 7969 0f32 38250000 		.4byte	.LASF204
 7970 0f36 13       		.byte	0x13
 7971 0f37 53       		.byte	0x53
 7972 0f38 840F0000 		.4byte	0xf84
 7973 0f3c 14       		.byte	0x14
 7974 0f3d 08       		.uleb128 0x8
 7975 0f3e 49230000 		.4byte	.LASF205
 7976 0f42 13       		.byte	0x13
 7977 0f43 54       		.byte	0x54
 7978 0f44 840F0000 		.4byte	0xf84
 7979 0f48 18       		.byte	0x18
 7980 0f49 08       		.uleb128 0x8
 7981 0f4a 0D2C0000 		.4byte	.LASF206
 7982 0f4e 13       		.byte	0x13
 7983 0f4f 55       		.byte	0x55
 7984 0f50 620F0000 		.4byte	0xf62
 7985 0f54 1C       		.byte	0x1c
 7986 0f55 08       		.uleb128 0x8
 7987 0f56 12270000 		.4byte	.LASF207
 7988 0f5a 13       		.byte	0x13
 7989 0f5b 56       		.byte	0x56
 7990 0f5c BF030000 		.4byte	0x3bf
 7991 0f60 20       		.byte	0x20
 7992 0f61 00       		.byte	0
 7993 0f62 03       		.uleb128 0x3
 7994 0f63 BF050000 		.4byte	.LASF208
 7995 0f67 13       		.byte	0x13
 7996 0f68 42       		.byte	0x42
 7997 0f69 6D0F0000 		.4byte	0xf6d
 7998 0f6d 0B       		.uleb128 0xb
 7999 0f6e 04       		.byte	0x4
 8000 0f6f 730F0000 		.4byte	0xf73
 8001 0f73 0D       		.uleb128 0xd
 8002 0f74 7E0F0000 		.4byte	0xf7e
ARM GAS  C:\Users\CHRIST~1\AppData\Local\Temp\ccb3oWGE.s 			page 143


 8003 0f78 0E       		.uleb128 0xe
 8004 0f79 7E0F0000 		.4byte	0xf7e
 8005 0f7d 00       		.byte	0
 8006 0f7e 0B       		.uleb128 0xb
 8007 0f7f 04       		.byte	0x4
 8008 0f80 EA0E0000 		.4byte	0xeea
 8009 0f84 0B       		.uleb128 0xb
 8010 0f85 04       		.byte	0x4
 8011 0f86 D9000000 		.4byte	0xd9
 8012 0f8a 03       		.uleb128 0x3
 8013 0f8b 16070000 		.4byte	.LASF209
 8014 0f8f 13       		.byte	0x13
 8015 0f90 64       		.byte	0x64
 8016 0f91 EA0E0000 		.4byte	0xeea
 8017 0f95 03       		.uleb128 0x3
 8018 0f96 F03A0000 		.4byte	.LASF210
 8019 0f9a 13       		.byte	0x13
 8020 0f9b 71       		.byte	0x71
 8021 0f9c EA0E0000 		.4byte	0xeea
 8022 0fa0 0B       		.uleb128 0xb
 8023 0fa1 04       		.byte	0x4
 8024 0fa2 E9000000 		.4byte	0xe9
 8025 0fa6 1F       		.uleb128 0x1f
 8026 0fa7 07       		.byte	0x7
 8027 0fa8 01       		.byte	0x1
 8028 0fa9 49000000 		.4byte	0x49
 8029 0fad 14       		.byte	0x14
 8030 0fae 1C       		.byte	0x1c
 8031 0faf CC0F0000 		.4byte	0xfcc
 8032 0fb3 20       		.uleb128 0x20
 8033 0fb4 AE370000 		.4byte	.LASF211
 8034 0fb8 00       		.byte	0
 8035 0fb9 20       		.uleb128 0x20
 8036 0fba E8030000 		.4byte	.LASF212
 8037 0fbe 01       		.byte	0x1
 8038 0fbf 20       		.uleb128 0x20
 8039 0fc0 091C0000 		.4byte	.LASF213
 8040 0fc4 02       		.byte	0x2
 8041 0fc5 20       		.uleb128 0x20
 8042 0fc6 01240000 		.4byte	.LASF214
 8043 0fca 03       		.byte	0x3
 8044 0fcb 00       		.byte	0
 8045 0fcc 03       		.uleb128 0x3
 8046 0fcd 4F270000 		.4byte	.LASF215
 8047 0fd1 14       		.byte	0x14
 8048 0fd2 21       		.byte	0x21
 8049 0fd3 A60F0000 		.4byte	0xfa6
 8050 0fd7 1F       		.uleb128 0x1f
 8051 0fd8 07       		.byte	0x7
 8052 0fd9 01       		.byte	0x1
 8053 0fda 49000000 		.4byte	0x49
 8054 0fde 14       		.byte	0x14
 8055 0fdf 23       		.byte	0x23
 8056 0fe0 F70F0000 		.4byte	0xff7
 8057 0fe4 20       		.uleb128 0x20
 8058 0fe5 46350000 		.4byte	.LASF216
 8059 0fe9 00       		.byte	0
ARM GAS  C:\Users\CHRIST~1\AppData\Local\Temp\ccb3oWGE.s 			page 144


 8060 0fea 20       		.uleb128 0x20
 8061 0feb 67250000 		.4byte	.LASF217
 8062 0fef 01       		.byte	0x1
 8063 0ff0 20       		.uleb128 0x20
 8064 0ff1 92050000 		.4byte	.LASF218
 8065 0ff5 02       		.byte	0x2
 8066 0ff6 00       		.byte	0
 8067 0ff7 03       		.uleb128 0x3
 8068 0ff8 A3050000 		.4byte	.LASF219
 8069 0ffc 14       		.byte	0x14
 8070 0ffd 27       		.byte	0x27
 8071 0ffe D70F0000 		.4byte	0xfd7
 8072 1002 1F       		.uleb128 0x1f
 8073 1003 07       		.byte	0x7
 8074 1004 01       		.byte	0x1
 8075 1005 49000000 		.4byte	0x49
 8076 1009 14       		.byte	0x14
 8077 100a 29       		.byte	0x29
 8078 100b 1C100000 		.4byte	0x101c
 8079 100f 20       		.uleb128 0x20
 8080 1010 EF220000 		.4byte	.LASF220
 8081 1014 00       		.byte	0
 8082 1015 20       		.uleb128 0x20
 8083 1016 103C0000 		.4byte	.LASF221
 8084 101a 01       		.byte	0x1
 8085 101b 00       		.byte	0
 8086 101c 03       		.uleb128 0x3
 8087 101d 5C330000 		.4byte	.LASF222
 8088 1021 14       		.byte	0x14
 8089 1022 2C       		.byte	0x2c
 8090 1023 02100000 		.4byte	0x1002
 8091 1027 1F       		.uleb128 0x1f
 8092 1028 07       		.byte	0x7
 8093 1029 01       		.byte	0x1
 8094 102a 49000000 		.4byte	0x49
 8095 102e 14       		.byte	0x14
 8096 102f 2E       		.byte	0x2e
 8097 1030 47100000 		.4byte	0x1047
 8098 1034 20       		.uleb128 0x20
 8099 1035 6A2D0000 		.4byte	.LASF223
 8100 1039 00       		.byte	0
 8101 103a 20       		.uleb128 0x20
 8102 103b AD0F0000 		.4byte	.LASF224
 8103 103f 01       		.byte	0x1
 8104 1040 20       		.uleb128 0x20
 8105 1041 F6100000 		.4byte	.LASF225
 8106 1045 02       		.byte	0x2
 8107 1046 00       		.byte	0
 8108 1047 03       		.uleb128 0x3
 8109 1048 4F220000 		.4byte	.LASF226
 8110 104c 14       		.byte	0x14
 8111 104d 32       		.byte	0x32
 8112 104e 27100000 		.4byte	0x1027
 8113 1052 1F       		.uleb128 0x1f
 8114 1053 07       		.byte	0x7
 8115 1054 01       		.byte	0x1
 8116 1055 49000000 		.4byte	0x49
ARM GAS  C:\Users\CHRIST~1\AppData\Local\Temp\ccb3oWGE.s 			page 145


 8117 1059 14       		.byte	0x14
 8118 105a 34       		.byte	0x34
 8119 105b 72100000 		.4byte	0x1072
 8120 105f 20       		.uleb128 0x20
 8121 1060 FF210000 		.4byte	.LASF227
 8122 1064 00       		.byte	0
 8123 1065 20       		.uleb128 0x20
 8124 1066 73090000 		.4byte	.LASF228
 8125 106a 01       		.byte	0x1
 8126 106b 20       		.uleb128 0x20
 8127 106c AF300000 		.4byte	.LASF229
 8128 1070 02       		.byte	0x2
 8129 1071 00       		.byte	0
 8130 1072 03       		.uleb128 0x3
 8131 1073 E2390000 		.4byte	.LASF230
 8132 1077 14       		.byte	0x14
 8133 1078 38       		.byte	0x38
 8134 1079 52100000 		.4byte	0x1052
 8135 107d 1F       		.uleb128 0x1f
 8136 107e 07       		.byte	0x7
 8137 107f 01       		.byte	0x1
 8138 1080 49000000 		.4byte	0x49
 8139 1084 14       		.byte	0x14
 8140 1085 3A       		.byte	0x3a
 8141 1086 9D100000 		.4byte	0x109d
 8142 108a 20       		.uleb128 0x20
 8143 108b 1D3B0000 		.4byte	.LASF231
 8144 108f 00       		.byte	0
 8145 1090 20       		.uleb128 0x20
 8146 1091 E81B0000 		.4byte	.LASF232
 8147 1095 01       		.byte	0x1
 8148 1096 20       		.uleb128 0x20
 8149 1097 3C150000 		.4byte	.LASF233
 8150 109b 02       		.byte	0x2
 8151 109c 00       		.byte	0
 8152 109d 03       		.uleb128 0x3
 8153 109e 1D2C0000 		.4byte	.LASF234
 8154 10a2 14       		.byte	0x14
 8155 10a3 3E       		.byte	0x3e
 8156 10a4 7D100000 		.4byte	0x107d
 8157 10a8 1F       		.uleb128 0x1f
 8158 10a9 07       		.byte	0x7
 8159 10aa 01       		.byte	0x1
 8160 10ab 49000000 		.4byte	0x49
 8161 10af 14       		.byte	0x14
 8162 10b0 40       		.byte	0x40
 8163 10b1 E0100000 		.4byte	0x10e0
 8164 10b5 20       		.uleb128 0x20
 8165 10b6 C3290000 		.4byte	.LASF235
 8166 10ba 00       		.byte	0
 8167 10bb 20       		.uleb128 0x20
 8168 10bc ED150000 		.4byte	.LASF236
 8169 10c0 01       		.byte	0x1
 8170 10c1 20       		.uleb128 0x20
 8171 10c2 FE280000 		.4byte	.LASF237
 8172 10c6 02       		.byte	0x2
 8173 10c7 20       		.uleb128 0x20
ARM GAS  C:\Users\CHRIST~1\AppData\Local\Temp\ccb3oWGE.s 			page 146


 8174 10c8 A80B0000 		.4byte	.LASF238
 8175 10cc 03       		.byte	0x3
 8176 10cd 20       		.uleb128 0x20
 8177 10ce 100E0000 		.4byte	.LASF239
 8178 10d2 04       		.byte	0x4
 8179 10d3 20       		.uleb128 0x20
 8180 10d4 6D050000 		.4byte	.LASF240
 8181 10d8 05       		.byte	0x5
 8182 10d9 20       		.uleb128 0x20
 8183 10da B61F0000 		.4byte	.LASF241
 8184 10de 06       		.byte	0x6
 8185 10df 00       		.byte	0
 8186 10e0 03       		.uleb128 0x3
 8187 10e1 FF350000 		.4byte	.LASF242
 8188 10e5 14       		.byte	0x14
 8189 10e6 48       		.byte	0x48
 8190 10e7 A8100000 		.4byte	0x10a8
 8191 10eb 1F       		.uleb128 0x1f
 8192 10ec 07       		.byte	0x7
 8193 10ed 01       		.byte	0x1
 8194 10ee 49000000 		.4byte	0x49
 8195 10f2 14       		.byte	0x14
 8196 10f3 5F       		.byte	0x5f
 8197 10f4 0B110000 		.4byte	0x110b
 8198 10f8 20       		.uleb128 0x20
 8199 10f9 CE210000 		.4byte	.LASF243
 8200 10fd 00       		.byte	0
 8201 10fe 20       		.uleb128 0x20
 8202 10ff 58110000 		.4byte	.LASF244
 8203 1103 01       		.byte	0x1
 8204 1104 20       		.uleb128 0x20
 8205 1105 CB110000 		.4byte	.LASF245
 8206 1109 02       		.byte	0x2
 8207 110a 00       		.byte	0
 8208 110b 03       		.uleb128 0x3
 8209 110c AF390000 		.4byte	.LASF246
 8210 1110 14       		.byte	0x14
 8211 1111 63       		.byte	0x63
 8212 1112 EB100000 		.4byte	0x10eb
 8213 1116 05       		.uleb128 0x5
 8214 1117 25000000 		.4byte	0x25
 8215 111b 06       		.uleb128 0x6
 8216 111c 25000000 		.4byte	0x25
 8217 1120 1F       		.uleb128 0x1f
 8218 1121 07       		.byte	0x7
 8219 1122 01       		.byte	0x1
 8220 1123 49000000 		.4byte	0x49
 8221 1127 14       		.byte	0x14
 8222 1128 6F       		.byte	0x6f
 8223 1129 46110000 		.4byte	0x1146
 8224 112d 20       		.uleb128 0x20
 8225 112e 3C050000 		.4byte	.LASF247
 8226 1132 00       		.byte	0
 8227 1133 20       		.uleb128 0x20
 8228 1134 D42B0000 		.4byte	.LASF248
 8229 1138 01       		.byte	0x1
 8230 1139 20       		.uleb128 0x20
ARM GAS  C:\Users\CHRIST~1\AppData\Local\Temp\ccb3oWGE.s 			page 147


 8231 113a D8090000 		.4byte	.LASF249
 8232 113e 02       		.byte	0x2
 8233 113f 20       		.uleb128 0x20
 8234 1140 71350000 		.4byte	.LASF250
 8235 1144 03       		.byte	0x3
 8236 1145 00       		.byte	0
 8237 1146 03       		.uleb128 0x3
 8238 1147 97250000 		.4byte	.LASF251
 8239 114b 14       		.byte	0x14
 8240 114c 74       		.byte	0x74
 8241 114d 20110000 		.4byte	0x1120
 8242 1151 1F       		.uleb128 0x1f
 8243 1152 07       		.byte	0x7
 8244 1153 01       		.byte	0x1
 8245 1154 49000000 		.4byte	0x49
 8246 1158 14       		.byte	0x14
 8247 1159 76       		.byte	0x76
 8248 115a 8F110000 		.4byte	0x118f
 8249 115e 20       		.uleb128 0x20
 8250 115f 66280000 		.4byte	.LASF252
 8251 1163 00       		.byte	0
 8252 1164 20       		.uleb128 0x20
 8253 1165 332C0000 		.4byte	.LASF253
 8254 1169 01       		.byte	0x1
 8255 116a 20       		.uleb128 0x20
 8256 116b C6160000 		.4byte	.LASF254
 8257 116f 02       		.byte	0x2
 8258 1170 20       		.uleb128 0x20
 8259 1171 462B0000 		.4byte	.LASF255
 8260 1175 03       		.byte	0x3
 8261 1176 20       		.uleb128 0x20
 8262 1177 EF110000 		.4byte	.LASF256
 8263 117b 04       		.byte	0x4
 8264 117c 20       		.uleb128 0x20
 8265 117d 5E2E0000 		.4byte	.LASF257
 8266 1181 05       		.byte	0x5
 8267 1182 20       		.uleb128 0x20
 8268 1183 F1290000 		.4byte	.LASF258
 8269 1187 06       		.byte	0x6
 8270 1188 20       		.uleb128 0x20
 8271 1189 C71B0000 		.4byte	.LASF259
 8272 118d 07       		.byte	0x7
 8273 118e 00       		.byte	0
 8274 118f 03       		.uleb128 0x3
 8275 1190 0D360000 		.4byte	.LASF260
 8276 1194 14       		.byte	0x14
 8277 1195 7F       		.byte	0x7f
 8278 1196 51110000 		.4byte	0x1151
 8279 119a 05       		.uleb128 0x5
 8280 119b 8F110000 		.4byte	0x118f
 8281 119f 21       		.uleb128 0x21
 8282 11a0 7401     		.2byte	0x174
 8283 11a2 14       		.byte	0x14
 8284 11a3 88       		.byte	0x88
 8285 11a4 54160000 		.4byte	0x1654
 8286 11a8 08       		.uleb128 0x8
 8287 11a9 97190000 		.4byte	.LASF261
ARM GAS  C:\Users\CHRIST~1\AppData\Local\Temp\ccb3oWGE.s 			page 148


 8288 11ad 14       		.byte	0x14
 8289 11ae 8A       		.byte	0x8a
 8290 11af F70F0000 		.4byte	0xff7
 8291 11b3 00       		.byte	0
 8292 11b4 08       		.uleb128 0x8
 8293 11b5 D10D0000 		.4byte	.LASF262
 8294 11b9 14       		.byte	0x14
 8295 11ba 8B       		.byte	0x8b
 8296 11bb 1C100000 		.4byte	0x101c
 8297 11bf 01       		.byte	0x1
 8298 11c0 08       		.uleb128 0x8
 8299 11c1 BE190000 		.4byte	.LASF263
 8300 11c5 14       		.byte	0x14
 8301 11c6 8C       		.byte	0x8c
 8302 11c7 9D100000 		.4byte	0x109d
 8303 11cb 02       		.byte	0x2
 8304 11cc 08       		.uleb128 0x8
 8305 11cd 5E2D0000 		.4byte	.LASF264
 8306 11d1 14       		.byte	0x14
 8307 11d2 8D       		.byte	0x8d
 8308 11d3 47100000 		.4byte	0x1047
 8309 11d7 03       		.byte	0x3
 8310 11d8 08       		.uleb128 0x8
 8311 11d9 31210000 		.4byte	.LASF265
 8312 11dd 14       		.byte	0x14
 8313 11de 8F       		.byte	0x8f
 8314 11df 25000000 		.4byte	0x25
 8315 11e3 04       		.byte	0x4
 8316 11e4 08       		.uleb128 0x8
 8317 11e5 80280000 		.4byte	.LASF266
 8318 11e9 14       		.byte	0x14
 8319 11ea 90       		.byte	0x90
 8320 11eb 25000000 		.4byte	0x25
 8321 11ef 08       		.byte	0x8
 8322 11f0 08       		.uleb128 0x8
 8323 11f1 09380000 		.4byte	.LASF267
 8324 11f5 14       		.byte	0x14
 8325 11f6 91       		.byte	0x91
 8326 11f7 25000000 		.4byte	0x25
 8327 11fb 0C       		.byte	0xc
 8328 11fc 08       		.uleb128 0x8
 8329 11fd 4E020000 		.4byte	.LASF268
 8330 1201 14       		.byte	0x14
 8331 1202 92       		.byte	0x92
 8332 1203 25000000 		.4byte	0x25
 8333 1207 10       		.byte	0x10
 8334 1208 08       		.uleb128 0x8
 8335 1209 32000000 		.4byte	.LASF269
 8336 120d 14       		.byte	0x14
 8337 120e 93       		.byte	0x93
 8338 120f 25000000 		.4byte	0x25
 8339 1213 14       		.byte	0x14
 8340 1214 08       		.uleb128 0x8
 8341 1215 44030000 		.4byte	.LASF270
 8342 1219 14       		.byte	0x14
 8343 121a 94       		.byte	0x94
 8344 121b 25000000 		.4byte	0x25
ARM GAS  C:\Users\CHRIST~1\AppData\Local\Temp\ccb3oWGE.s 			page 149


 8345 121f 18       		.byte	0x18
 8346 1220 08       		.uleb128 0x8
 8347 1221 E81E0000 		.4byte	.LASF271
 8348 1225 14       		.byte	0x14
 8349 1226 95       		.byte	0x95
 8350 1227 25000000 		.4byte	0x25
 8351 122b 1C       		.byte	0x1c
 8352 122c 08       		.uleb128 0x8
 8353 122d BF0C0000 		.4byte	.LASF272
 8354 1231 14       		.byte	0x14
 8355 1232 96       		.byte	0x96
 8356 1233 25000000 		.4byte	0x25
 8357 1237 20       		.byte	0x20
 8358 1238 08       		.uleb128 0x8
 8359 1239 15000000 		.4byte	.LASF273
 8360 123d 14       		.byte	0x14
 8361 123e 97       		.byte	0x97
 8362 123f 25000000 		.4byte	0x25
 8363 1243 24       		.byte	0x24
 8364 1244 08       		.uleb128 0x8
 8365 1245 1B370000 		.4byte	.LASF274
 8366 1249 14       		.byte	0x14
 8367 124a 98       		.byte	0x98
 8368 124b 25000000 		.4byte	0x25
 8369 124f 28       		.byte	0x28
 8370 1250 08       		.uleb128 0x8
 8371 1251 61140000 		.4byte	.LASF275
 8372 1255 14       		.byte	0x14
 8373 1256 99       		.byte	0x99
 8374 1257 25000000 		.4byte	0x25
 8375 125b 2C       		.byte	0x2c
 8376 125c 08       		.uleb128 0x8
 8377 125d DE120000 		.4byte	.LASF276
 8378 1261 14       		.byte	0x14
 8379 1262 9A       		.byte	0x9a
 8380 1263 25000000 		.4byte	0x25
 8381 1267 30       		.byte	0x30
 8382 1268 08       		.uleb128 0x8
 8383 1269 0D140000 		.4byte	.LASF277
 8384 126d 14       		.byte	0x14
 8385 126e 9B       		.byte	0x9b
 8386 126f 25000000 		.4byte	0x25
 8387 1273 34       		.byte	0x34
 8388 1274 08       		.uleb128 0x8
 8389 1275 43140000 		.4byte	.LASF278
 8390 1279 14       		.byte	0x14
 8391 127a 9C       		.byte	0x9c
 8392 127b 25000000 		.4byte	0x25
 8393 127f 38       		.byte	0x38
 8394 1280 08       		.uleb128 0x8
 8395 1281 2B020000 		.4byte	.LASF279
 8396 1285 14       		.byte	0x14
 8397 1286 9D       		.byte	0x9d
 8398 1287 54160000 		.4byte	0x1654
 8399 128b 3C       		.byte	0x3c
 8400 128c 08       		.uleb128 0x8
 8401 128d 420D0000 		.4byte	.LASF280
ARM GAS  C:\Users\CHRIST~1\AppData\Local\Temp\ccb3oWGE.s 			page 150


 8402 1291 14       		.byte	0x14
 8403 1292 9E       		.byte	0x9e
 8404 1293 25000000 		.4byte	0x25
 8405 1297 40       		.byte	0x40
 8406 1298 08       		.uleb128 0x8
 8407 1299 3D040000 		.4byte	.LASF281
 8408 129d 14       		.byte	0x14
 8409 129e 9F       		.byte	0x9f
 8410 129f 25000000 		.4byte	0x25
 8411 12a3 44       		.byte	0x44
 8412 12a4 08       		.uleb128 0x8
 8413 12a5 50180000 		.4byte	.LASF282
 8414 12a9 14       		.byte	0x14
 8415 12aa A0       		.byte	0xa0
 8416 12ab 25000000 		.4byte	0x25
 8417 12af 48       		.byte	0x48
 8418 12b0 08       		.uleb128 0x8
 8419 12b1 F02C0000 		.4byte	.LASF283
 8420 12b5 14       		.byte	0x14
 8421 12b6 A1       		.byte	0xa1
 8422 12b7 25000000 		.4byte	0x25
 8423 12bb 4C       		.byte	0x4c
 8424 12bc 08       		.uleb128 0x8
 8425 12bd A5260000 		.4byte	.LASF284
 8426 12c1 14       		.byte	0x14
 8427 12c2 A2       		.byte	0xa2
 8428 12c3 25000000 		.4byte	0x25
 8429 12c7 50       		.byte	0x50
 8430 12c8 08       		.uleb128 0x8
 8431 12c9 6D390000 		.4byte	.LASF285
 8432 12cd 14       		.byte	0x14
 8433 12ce A3       		.byte	0xa3
 8434 12cf 25000000 		.4byte	0x25
 8435 12d3 54       		.byte	0x54
 8436 12d4 08       		.uleb128 0x8
 8437 12d5 89160000 		.4byte	.LASF286
 8438 12d9 14       		.byte	0x14
 8439 12da A4       		.byte	0xa4
 8440 12db 25000000 		.4byte	0x25
 8441 12df 58       		.byte	0x58
 8442 12e0 08       		.uleb128 0x8
 8443 12e1 A10C0000 		.4byte	.LASF287
 8444 12e5 14       		.byte	0x14
 8445 12e6 A5       		.byte	0xa5
 8446 12e7 25000000 		.4byte	0x25
 8447 12eb 5C       		.byte	0x5c
 8448 12ec 08       		.uleb128 0x8
 8449 12ed DC360000 		.4byte	.LASF288
 8450 12f1 14       		.byte	0x14
 8451 12f2 A6       		.byte	0xa6
 8452 12f3 25000000 		.4byte	0x25
 8453 12f7 60       		.byte	0x60
 8454 12f8 08       		.uleb128 0x8
 8455 12f9 1B110000 		.4byte	.LASF289
 8456 12fd 14       		.byte	0x14
 8457 12fe A8       		.byte	0xa8
 8458 12ff 25000000 		.4byte	0x25
ARM GAS  C:\Users\CHRIST~1\AppData\Local\Temp\ccb3oWGE.s 			page 151


 8459 1303 64       		.byte	0x64
 8460 1304 08       		.uleb128 0x8
 8461 1305 C9190000 		.4byte	.LASF290
 8462 1309 14       		.byte	0x14
 8463 130a A9       		.byte	0xa9
 8464 130b 25000000 		.4byte	0x25
 8465 130f 68       		.byte	0x68
 8466 1310 08       		.uleb128 0x8
 8467 1311 20300000 		.4byte	.LASF291
 8468 1315 14       		.byte	0x14
 8469 1316 AA       		.byte	0xaa
 8470 1317 25000000 		.4byte	0x25
 8471 131b 6C       		.byte	0x6c
 8472 131c 08       		.uleb128 0x8
 8473 131d 13390000 		.4byte	.LASF292
 8474 1321 14       		.byte	0x14
 8475 1322 AB       		.byte	0xab
 8476 1323 25000000 		.4byte	0x25
 8477 1327 70       		.byte	0x70
 8478 1328 08       		.uleb128 0x8
 8479 1329 2E2A0000 		.4byte	.LASF293
 8480 132d 14       		.byte	0x14
 8481 132e AC       		.byte	0xac
 8482 132f 25000000 		.4byte	0x25
 8483 1333 74       		.byte	0x74
 8484 1334 08       		.uleb128 0x8
 8485 1335 AF120000 		.4byte	.LASF294
 8486 1339 14       		.byte	0x14
 8487 133a AD       		.byte	0xad
 8488 133b 25000000 		.4byte	0x25
 8489 133f 78       		.byte	0x78
 8490 1340 08       		.uleb128 0x8
 8491 1341 52150000 		.4byte	.LASF295
 8492 1345 14       		.byte	0x14
 8493 1346 AF       		.byte	0xaf
 8494 1347 25000000 		.4byte	0x25
 8495 134b 7C       		.byte	0x7c
 8496 134c 08       		.uleb128 0x8
 8497 134d 3B070000 		.4byte	.LASF296
 8498 1351 14       		.byte	0x14
 8499 1352 B0       		.byte	0xb0
 8500 1353 25000000 		.4byte	0x25
 8501 1357 80       		.byte	0x80
 8502 1358 08       		.uleb128 0x8
 8503 1359 E6190000 		.4byte	.LASF297
 8504 135d 14       		.byte	0x14
 8505 135e B1       		.byte	0xb1
 8506 135f 25000000 		.4byte	0x25
 8507 1363 84       		.byte	0x84
 8508 1364 08       		.uleb128 0x8
 8509 1365 951C0000 		.4byte	.LASF298
 8510 1369 14       		.byte	0x14
 8511 136a B2       		.byte	0xb2
 8512 136b 25000000 		.4byte	0x25
 8513 136f 88       		.byte	0x88
 8514 1370 08       		.uleb128 0x8
 8515 1371 78180000 		.4byte	.LASF299
ARM GAS  C:\Users\CHRIST~1\AppData\Local\Temp\ccb3oWGE.s 			page 152


 8516 1375 14       		.byte	0x14
 8517 1376 B3       		.byte	0xb3
 8518 1377 25000000 		.4byte	0x25
 8519 137b 8C       		.byte	0x8c
 8520 137c 08       		.uleb128 0x8
 8521 137d B3320000 		.4byte	.LASF300
 8522 1381 14       		.byte	0x14
 8523 1382 B4       		.byte	0xb4
 8524 1383 25000000 		.4byte	0x25
 8525 1387 90       		.byte	0x90
 8526 1388 08       		.uleb128 0x8
 8527 1389 51260000 		.4byte	.LASF301
 8528 138d 14       		.byte	0x14
 8529 138e B5       		.byte	0xb5
 8530 138f 25000000 		.4byte	0x25
 8531 1393 94       		.byte	0x94
 8532 1394 08       		.uleb128 0x8
 8533 1395 221B0000 		.4byte	.LASF302
 8534 1399 14       		.byte	0x14
 8535 139a B7       		.byte	0xb7
 8536 139b 60160000 		.4byte	0x1660
 8537 139f 98       		.byte	0x98
 8538 13a0 08       		.uleb128 0x8
 8539 13a1 82290000 		.4byte	.LASF303
 8540 13a5 14       		.byte	0x14
 8541 13a6 B8       		.byte	0xb8
 8542 13a7 25000000 		.4byte	0x25
 8543 13ab A0       		.byte	0xa0
 8544 13ac 08       		.uleb128 0x8
 8545 13ad 86070000 		.4byte	.LASF304
 8546 13b1 14       		.byte	0x14
 8547 13b2 BA       		.byte	0xba
 8548 13b3 25000000 		.4byte	0x25
 8549 13b7 A4       		.byte	0xa4
 8550 13b8 08       		.uleb128 0x8
 8551 13b9 6E070000 		.4byte	.LASF305
 8552 13bd 14       		.byte	0x14
 8553 13be BB       		.byte	0xbb
 8554 13bf 25000000 		.4byte	0x25
 8555 13c3 A8       		.byte	0xa8
 8556 13c4 08       		.uleb128 0x8
 8557 13c5 B60C0000 		.4byte	.LASF306
 8558 13c9 14       		.byte	0x14
 8559 13ca BC       		.byte	0xbc
 8560 13cb 25000000 		.4byte	0x25
 8561 13cf AC       		.byte	0xac
 8562 13d0 08       		.uleb128 0x8
 8563 13d1 15310000 		.4byte	.LASF307
 8564 13d5 14       		.byte	0x14
 8565 13d6 BD       		.byte	0xbd
 8566 13d7 25000000 		.4byte	0x25
 8567 13db B0       		.byte	0xb0
 8568 13dc 08       		.uleb128 0x8
 8569 13dd 6B030000 		.4byte	.LASF308
 8570 13e1 14       		.byte	0x14
 8571 13e2 BE       		.byte	0xbe
 8572 13e3 25000000 		.4byte	0x25
ARM GAS  C:\Users\CHRIST~1\AppData\Local\Temp\ccb3oWGE.s 			page 153


 8573 13e7 B4       		.byte	0xb4
 8574 13e8 08       		.uleb128 0x8
 8575 13e9 2A110000 		.4byte	.LASF309
 8576 13ed 14       		.byte	0x14
 8577 13ee BF       		.byte	0xbf
 8578 13ef 54160000 		.4byte	0x1654
 8579 13f3 B8       		.byte	0xb8
 8580 13f4 08       		.uleb128 0x8
 8581 13f5 E6230000 		.4byte	.LASF310
 8582 13f9 14       		.byte	0x14
 8583 13fa C0       		.byte	0xc0
 8584 13fb 25000000 		.4byte	0x25
 8585 13ff BC       		.byte	0xbc
 8586 1400 08       		.uleb128 0x8
 8587 1401 860B0000 		.4byte	.LASF311
 8588 1405 14       		.byte	0x14
 8589 1406 C1       		.byte	0xc1
 8590 1407 25000000 		.4byte	0x25
 8591 140b C0       		.byte	0xc0
 8592 140c 08       		.uleb128 0x8
 8593 140d 920B0000 		.4byte	.LASF312
 8594 1411 14       		.byte	0x14
 8595 1412 C2       		.byte	0xc2
 8596 1413 25000000 		.4byte	0x25
 8597 1417 C4       		.byte	0xc4
 8598 1418 08       		.uleb128 0x8
 8599 1419 4F1C0000 		.4byte	.LASF313
 8600 141d 14       		.byte	0x14
 8601 141e C3       		.byte	0xc3
 8602 141f 25000000 		.4byte	0x25
 8603 1423 C8       		.byte	0xc8
 8604 1424 08       		.uleb128 0x8
 8605 1425 2C0E0000 		.4byte	.LASF314
 8606 1429 14       		.byte	0x14
 8607 142a C4       		.byte	0xc4
 8608 142b 25000000 		.4byte	0x25
 8609 142f CC       		.byte	0xcc
 8610 1430 08       		.uleb128 0x8
 8611 1431 EE000000 		.4byte	.LASF315
 8612 1435 14       		.byte	0x14
 8613 1436 C5       		.byte	0xc5
 8614 1437 25000000 		.4byte	0x25
 8615 143b D0       		.byte	0xd0
 8616 143c 08       		.uleb128 0x8
 8617 143d 2C2B0000 		.4byte	.LASF316
 8618 1441 14       		.byte	0x14
 8619 1442 C6       		.byte	0xc6
 8620 1443 25000000 		.4byte	0x25
 8621 1447 D4       		.byte	0xd4
 8622 1448 08       		.uleb128 0x8
 8623 1449 032B0000 		.4byte	.LASF317
 8624 144d 14       		.byte	0x14
 8625 144e C7       		.byte	0xc7
 8626 144f 25000000 		.4byte	0x25
 8627 1453 D8       		.byte	0xd8
 8628 1454 08       		.uleb128 0x8
 8629 1455 45200000 		.4byte	.LASF318
ARM GAS  C:\Users\CHRIST~1\AppData\Local\Temp\ccb3oWGE.s 			page 154


 8630 1459 14       		.byte	0x14
 8631 145a C8       		.byte	0xc8
 8632 145b 25000000 		.4byte	0x25
 8633 145f DC       		.byte	0xdc
 8634 1460 08       		.uleb128 0x8
 8635 1461 28200000 		.4byte	.LASF319
 8636 1465 14       		.byte	0x14
 8637 1466 C9       		.byte	0xc9
 8638 1467 25000000 		.4byte	0x25
 8639 146b E0       		.byte	0xe0
 8640 146c 08       		.uleb128 0x8
 8641 146d BA2A0000 		.4byte	.LASF320
 8642 1471 14       		.byte	0x14
 8643 1472 CA       		.byte	0xca
 8644 1473 25000000 		.4byte	0x25
 8645 1477 E4       		.byte	0xe4
 8646 1478 08       		.uleb128 0x8
 8647 1479 472F0000 		.4byte	.LASF321
 8648 147d 14       		.byte	0x14
 8649 147e CB       		.byte	0xcb
 8650 147f 25000000 		.4byte	0x25
 8651 1483 E8       		.byte	0xe8
 8652 1484 08       		.uleb128 0x8
 8653 1485 CC380000 		.4byte	.LASF322
 8654 1489 14       		.byte	0x14
 8655 148a CC       		.byte	0xcc
 8656 148b 25000000 		.4byte	0x25
 8657 148f EC       		.byte	0xec
 8658 1490 08       		.uleb128 0x8
 8659 1491 C51A0000 		.4byte	.LASF323
 8660 1495 14       		.byte	0x14
 8661 1496 CD       		.byte	0xcd
 8662 1497 25000000 		.4byte	0x25
 8663 149b F0       		.byte	0xf0
 8664 149c 08       		.uleb128 0x8
 8665 149d CB2A0000 		.4byte	.LASF324
 8666 14a1 14       		.byte	0x14
 8667 14a2 CE       		.byte	0xce
 8668 14a3 25000000 		.4byte	0x25
 8669 14a7 F4       		.byte	0xf4
 8670 14a8 08       		.uleb128 0x8
 8671 14a9 7E300000 		.4byte	.LASF325
 8672 14ad 14       		.byte	0x14
 8673 14ae CF       		.byte	0xcf
 8674 14af 72100000 		.4byte	0x1072
 8675 14b3 F8       		.byte	0xf8
 8676 14b4 08       		.uleb128 0x8
 8677 14b5 C1140000 		.4byte	.LASF326
 8678 14b9 14       		.byte	0x14
 8679 14ba D0       		.byte	0xd0
 8680 14bb 70160000 		.4byte	0x1670
 8681 14bf F9       		.byte	0xf9
 8682 14c0 22       		.uleb128 0x22
 8683 14c1 9B170000 		.4byte	.LASF327
 8684 14c5 14       		.byte	0x14
 8685 14c6 D1       		.byte	0xd1
 8686 14c7 25000000 		.4byte	0x25
ARM GAS  C:\Users\CHRIST~1\AppData\Local\Temp\ccb3oWGE.s 			page 155


 8687 14cb 0401     		.2byte	0x104
 8688 14cd 22       		.uleb128 0x22
 8689 14ce 7A3A0000 		.4byte	.LASF328
 8690 14d2 14       		.byte	0x14
 8691 14d3 D2       		.byte	0xd2
 8692 14d4 54160000 		.4byte	0x1654
 8693 14d8 0801     		.2byte	0x108
 8694 14da 22       		.uleb128 0x22
 8695 14db 1E330000 		.4byte	.LASF329
 8696 14df 14       		.byte	0x14
 8697 14e0 D3       		.byte	0xd3
 8698 14e1 54160000 		.4byte	0x1654
 8699 14e5 0901     		.2byte	0x109
 8700 14e7 22       		.uleb128 0x22
 8701 14e8 38310000 		.4byte	.LASF330
 8702 14ec 14       		.byte	0x14
 8703 14ed D4       		.byte	0xd4
 8704 14ee 25000000 		.4byte	0x25
 8705 14f2 0C01     		.2byte	0x10c
 8706 14f4 22       		.uleb128 0x22
 8707 14f5 B0250000 		.4byte	.LASF331
 8708 14f9 14       		.byte	0x14
 8709 14fa D5       		.byte	0xd5
 8710 14fb 54160000 		.4byte	0x1654
 8711 14ff 1001     		.2byte	0x110
 8712 1501 22       		.uleb128 0x22
 8713 1502 202D0000 		.4byte	.LASF332
 8714 1506 14       		.byte	0x14
 8715 1507 D6       		.byte	0xd6
 8716 1508 25000000 		.4byte	0x25
 8717 150c 1401     		.2byte	0x114
 8718 150e 22       		.uleb128 0x22
 8719 150f 152A0000 		.4byte	.LASF333
 8720 1513 14       		.byte	0x14
 8721 1514 D8       		.byte	0xd8
 8722 1515 25000000 		.4byte	0x25
 8723 1519 1801     		.2byte	0x118
 8724 151b 22       		.uleb128 0x22
 8725 151c D3290000 		.4byte	.LASF334
 8726 1520 14       		.byte	0x14
 8727 1521 D9       		.byte	0xd9
 8728 1522 25000000 		.4byte	0x25
 8729 1526 1C01     		.2byte	0x11c
 8730 1528 22       		.uleb128 0x22
 8731 1529 BA0A0000 		.4byte	.LASF335
 8732 152d 14       		.byte	0x14
 8733 152e DA       		.byte	0xda
 8734 152f 25000000 		.4byte	0x25
 8735 1533 2001     		.2byte	0x120
 8736 1535 22       		.uleb128 0x22
 8737 1536 360C0000 		.4byte	.LASF336
 8738 153a 14       		.byte	0x14
 8739 153b DB       		.byte	0xdb
 8740 153c 25000000 		.4byte	0x25
 8741 1540 2401     		.2byte	0x124
 8742 1542 22       		.uleb128 0x22
 8743 1543 7E0F0000 		.4byte	.LASF337
ARM GAS  C:\Users\CHRIST~1\AppData\Local\Temp\ccb3oWGE.s 			page 156


 8744 1547 14       		.byte	0x14
 8745 1548 DC       		.byte	0xdc
 8746 1549 54160000 		.4byte	0x1654
 8747 154d 2801     		.2byte	0x128
 8748 154f 22       		.uleb128 0x22
 8749 1550 40250000 		.4byte	.LASF338
 8750 1554 14       		.byte	0x14
 8751 1555 DE       		.byte	0xde
 8752 1556 25000000 		.4byte	0x25
 8753 155a 2C01     		.2byte	0x12c
 8754 155c 22       		.uleb128 0x22
 8755 155d 2F250000 		.4byte	.LASF339
 8756 1561 14       		.byte	0x14
 8757 1562 DF       		.byte	0xdf
 8758 1563 25000000 		.4byte	0x25
 8759 1567 3001     		.2byte	0x130
 8760 1569 22       		.uleb128 0x22
 8761 156a 26250000 		.4byte	.LASF340
 8762 156e 14       		.byte	0x14
 8763 156f E0       		.byte	0xe0
 8764 1570 25000000 		.4byte	0x25
 8765 1574 3401     		.2byte	0x134
 8766 1576 22       		.uleb128 0x22
 8767 1577 89380000 		.4byte	.LASF341
 8768 157b 14       		.byte	0x14
 8769 157c E1       		.byte	0xe1
 8770 157d 25000000 		.4byte	0x25
 8771 1581 3801     		.2byte	0x138
 8772 1583 22       		.uleb128 0x22
 8773 1584 07030000 		.4byte	.LASF342
 8774 1588 14       		.byte	0x14
 8775 1589 E3       		.byte	0xe3
 8776 158a 25000000 		.4byte	0x25
 8777 158e 3C01     		.2byte	0x13c
 8778 1590 22       		.uleb128 0x22
 8779 1591 3F110000 		.4byte	.LASF343
 8780 1595 14       		.byte	0x14
 8781 1596 E4       		.byte	0xe4
 8782 1597 25000000 		.4byte	0x25
 8783 159b 4001     		.2byte	0x140
 8784 159d 22       		.uleb128 0x22
 8785 159e 42190000 		.4byte	.LASF344
 8786 15a2 14       		.byte	0x14
 8787 15a3 E5       		.byte	0xe5
 8788 15a4 25000000 		.4byte	0x25
 8789 15a8 4401     		.2byte	0x144
 8790 15aa 22       		.uleb128 0x22
 8791 15ab F9240000 		.4byte	.LASF345
 8792 15af 14       		.byte	0x14
 8793 15b0 E6       		.byte	0xe6
 8794 15b1 25000000 		.4byte	0x25
 8795 15b5 4801     		.2byte	0x148
 8796 15b7 22       		.uleb128 0x22
 8797 15b8 320A0000 		.4byte	.LASF346
 8798 15bc 14       		.byte	0x14
 8799 15bd E8       		.byte	0xe8
 8800 15be 0E010000 		.4byte	0x10e
ARM GAS  C:\Users\CHRIST~1\AppData\Local\Temp\ccb3oWGE.s 			page 157


 8801 15c2 4C01     		.2byte	0x14c
 8802 15c4 22       		.uleb128 0x22
 8803 15c5 2C360000 		.4byte	.LASF347
 8804 15c9 14       		.byte	0x14
 8805 15ca E9       		.byte	0xe9
 8806 15cb 25000000 		.4byte	0x25
 8807 15cf 5001     		.2byte	0x150
 8808 15d1 22       		.uleb128 0x22
 8809 15d2 05160000 		.4byte	.LASF348
 8810 15d6 14       		.byte	0x14
 8811 15d7 EA       		.byte	0xea
 8812 15d8 25000000 		.4byte	0x25
 8813 15dc 5401     		.2byte	0x154
 8814 15de 22       		.uleb128 0x22
 8815 15df 2A3C0000 		.4byte	.LASF349
 8816 15e3 14       		.byte	0x14
 8817 15e4 EB       		.byte	0xeb
 8818 15e5 1E010000 		.4byte	0x11e
 8819 15e9 5801     		.2byte	0x158
 8820 15eb 22       		.uleb128 0x22
 8821 15ec BD150000 		.4byte	.LASF350
 8822 15f0 14       		.byte	0x14
 8823 15f1 EC       		.byte	0xec
 8824 15f2 0B110000 		.4byte	0x110b
 8825 15f6 5C01     		.2byte	0x15c
 8826 15f8 22       		.uleb128 0x22
 8827 15f9 26160000 		.4byte	.LASF351
 8828 15fd 14       		.byte	0x14
 8829 15fe ED       		.byte	0xed
 8830 15ff 54160000 		.4byte	0x1654
 8831 1603 5D01     		.2byte	0x15d
 8832 1605 22       		.uleb128 0x22
 8833 1606 09110000 		.4byte	.LASF352
 8834 160a 14       		.byte	0x14
 8835 160b EE       		.byte	0xee
 8836 160c 46110000 		.4byte	0x1146
 8837 1610 5E01     		.2byte	0x15e
 8838 1612 22       		.uleb128 0x22
 8839 1613 E7010000 		.4byte	.LASF353
 8840 1617 14       		.byte	0x14
 8841 1618 EF       		.byte	0xef
 8842 1619 B1000000 		.4byte	0xb1
 8843 161d 6001     		.2byte	0x160
 8844 161f 22       		.uleb128 0x22
 8845 1620 822E0000 		.4byte	.LASF354
 8846 1624 14       		.byte	0x14
 8847 1625 F0       		.byte	0xf0
 8848 1626 25000000 		.4byte	0x25
 8849 162a 6401     		.2byte	0x164
 8850 162c 22       		.uleb128 0x22
 8851 162d 7C250000 		.4byte	.LASF355
 8852 1631 14       		.byte	0x14
 8853 1632 F1       		.byte	0xf1
 8854 1633 25000000 		.4byte	0x25
 8855 1637 6801     		.2byte	0x168
 8856 1639 22       		.uleb128 0x22
 8857 163a 14330000 		.4byte	.LASF356
ARM GAS  C:\Users\CHRIST~1\AppData\Local\Temp\ccb3oWGE.s 			page 158


 8858 163e 14       		.byte	0x14
 8859 163f F2       		.byte	0xf2
 8860 1640 25000000 		.4byte	0x25
 8861 1644 6C01     		.2byte	0x16c
 8862 1646 22       		.uleb128 0x22
 8863 1647 0A080000 		.4byte	.LASF357
 8864 164b 14       		.byte	0x14
 8865 164c F3       		.byte	0xf3
 8866 164d 25000000 		.4byte	0x25
 8867 1651 7001     		.2byte	0x170
 8868 1653 00       		.byte	0
 8869 1654 02       		.uleb128 0x2
 8870 1655 01       		.byte	0x1
 8871 1656 02       		.byte	0x2
 8872 1657 61010000 		.4byte	.LASF358
 8873 165b 05       		.uleb128 0x5
 8874 165c 54160000 		.4byte	0x1654
 8875 1660 11       		.uleb128 0x11
 8876 1661 C9000000 		.4byte	0xc9
 8877 1665 70160000 		.4byte	0x1670
 8878 1669 12       		.uleb128 0x12
 8879 166a BD000000 		.4byte	0xbd
 8880 166e 07       		.byte	0x7
 8881 166f 00       		.byte	0
 8882 1670 11       		.uleb128 0x11
 8883 1671 D9000000 		.4byte	0xd9
 8884 1675 80160000 		.4byte	0x1680
 8885 1679 12       		.uleb128 0x12
 8886 167a BD000000 		.4byte	0xbd
 8887 167e 07       		.byte	0x7
 8888 167f 00       		.byte	0
 8889 1680 03       		.uleb128 0x3
 8890 1681 3D360000 		.4byte	.LASF359
 8891 1685 14       		.byte	0x14
 8892 1686 F4       		.byte	0xf4
 8893 1687 9F110000 		.4byte	0x119f
 8894 168b 05       		.uleb128 0x5
 8895 168c 80160000 		.4byte	0x1680
 8896 1690 06       		.uleb128 0x6
 8897 1691 8B160000 		.4byte	0x168b
 8898 1695 11       		.uleb128 0x11
 8899 1696 49000000 		.4byte	0x49
 8900 169a A5160000 		.4byte	0x16a5
 8901 169e 12       		.uleb128 0x12
 8902 169f BD000000 		.4byte	0xbd
 8903 16a3 02       		.byte	0x2
 8904 16a4 00       		.byte	0
 8905 16a5 23       		.uleb128 0x23
 8906 16a6 07       		.byte	0x7
 8907 16a7 01       		.byte	0x1
 8908 16a8 49000000 		.4byte	0x49
 8909 16ac 14       		.byte	0x14
 8910 16ad BE01     		.2byte	0x1be
 8911 16af 98170000 		.4byte	0x1798
 8912 16b3 20       		.uleb128 0x20
 8913 16b4 B6260000 		.4byte	.LASF360
 8914 16b8 00       		.byte	0
ARM GAS  C:\Users\CHRIST~1\AppData\Local\Temp\ccb3oWGE.s 			page 159


 8915 16b9 20       		.uleb128 0x20
 8916 16ba D7220000 		.4byte	.LASF361
 8917 16be 01       		.byte	0x1
 8918 16bf 20       		.uleb128 0x20
 8919 16c0 D5100000 		.4byte	.LASF362
 8920 16c4 02       		.byte	0x2
 8921 16c5 20       		.uleb128 0x20
 8922 16c6 BD100000 		.4byte	.LASF363
 8923 16ca 03       		.byte	0x3
 8924 16cb 20       		.uleb128 0x20
 8925 16cc 72290000 		.4byte	.LASF364
 8926 16d0 04       		.byte	0x4
 8927 16d1 20       		.uleb128 0x20
 8928 16d2 E0130000 		.4byte	.LASF365
 8929 16d6 05       		.byte	0x5
 8930 16d7 20       		.uleb128 0x20
 8931 16d8 E71C0000 		.4byte	.LASF366
 8932 16dc 06       		.byte	0x6
 8933 16dd 20       		.uleb128 0x20
 8934 16de D7310000 		.4byte	.LASF367
 8935 16e2 07       		.byte	0x7
 8936 16e3 20       		.uleb128 0x20
 8937 16e4 54320000 		.4byte	.LASF368
 8938 16e8 08       		.byte	0x8
 8939 16e9 20       		.uleb128 0x20
 8940 16ea 80240000 		.4byte	.LASF369
 8941 16ee 09       		.byte	0x9
 8942 16ef 20       		.uleb128 0x20
 8943 16f0 48240000 		.4byte	.LASF370
 8944 16f4 0A       		.byte	0xa
 8945 16f5 20       		.uleb128 0x20
 8946 16f6 A2220000 		.4byte	.LASF371
 8947 16fa 0B       		.byte	0xb
 8948 16fb 20       		.uleb128 0x20
 8949 16fc D5140000 		.4byte	.LASF372
 8950 1700 0C       		.byte	0xc
 8951 1701 20       		.uleb128 0x20
 8952 1702 1E320000 		.4byte	.LASF373
 8953 1706 0D       		.byte	0xd
 8954 1707 20       		.uleb128 0x20
 8955 1708 87140000 		.4byte	.LASF374
 8956 170c 0E       		.byte	0xe
 8957 170d 20       		.uleb128 0x20
 8958 170e 49290000 		.4byte	.LASF375
 8959 1712 0F       		.byte	0xf
 8960 1713 20       		.uleb128 0x20
 8961 1714 F42F0000 		.4byte	.LASF376
 8962 1718 10       		.byte	0x10
 8963 1719 20       		.uleb128 0x20
 8964 171a 892C0000 		.4byte	.LASF377
 8965 171e 11       		.byte	0x11
 8966 171f 20       		.uleb128 0x20
 8967 1720 4F370000 		.4byte	.LASF378
 8968 1724 12       		.byte	0x12
 8969 1725 20       		.uleb128 0x20
 8970 1726 040A0000 		.4byte	.LASF379
 8971 172a 13       		.byte	0x13
ARM GAS  C:\Users\CHRIST~1\AppData\Local\Temp\ccb3oWGE.s 			page 160


 8972 172b 20       		.uleb128 0x20
 8973 172c CA360000 		.4byte	.LASF380
 8974 1730 14       		.byte	0x14
 8975 1731 20       		.uleb128 0x20
 8976 1732 1E2A0000 		.4byte	.LASF381
 8977 1736 15       		.byte	0x15
 8978 1737 20       		.uleb128 0x20
 8979 1738 BB350000 		.4byte	.LASF382
 8980 173c 16       		.byte	0x16
 8981 173d 20       		.uleb128 0x20
 8982 173e AF160000 		.4byte	.LASF383
 8983 1742 17       		.byte	0x17
 8984 1743 20       		.uleb128 0x20
 8985 1744 3D300000 		.4byte	.LASF384
 8986 1748 18       		.byte	0x18
 8987 1749 20       		.uleb128 0x20
 8988 174a A90D0000 		.4byte	.LASF385
 8989 174e 19       		.byte	0x19
 8990 174f 20       		.uleb128 0x20
 8991 1750 71120000 		.4byte	.LASF386
 8992 1754 1A       		.byte	0x1a
 8993 1755 20       		.uleb128 0x20
 8994 1756 17290000 		.4byte	.LASF387
 8995 175a 1B       		.byte	0x1b
 8996 175b 20       		.uleb128 0x20
 8997 175c D9000000 		.4byte	.LASF388
 8998 1760 1C       		.byte	0x1c
 8999 1761 20       		.uleb128 0x20
 9000 1762 4C3B0000 		.4byte	.LASF389
 9001 1766 1D       		.byte	0x1d
 9002 1767 20       		.uleb128 0x20
 9003 1768 BF0D0000 		.4byte	.LASF390
 9004 176c 1E       		.byte	0x1e
 9005 176d 20       		.uleb128 0x20
 9006 176e 1F150000 		.4byte	.LASF391
 9007 1772 1F       		.byte	0x1f
 9008 1773 20       		.uleb128 0x20
 9009 1774 CE2F0000 		.4byte	.LASF392
 9010 1778 20       		.byte	0x20
 9011 1779 20       		.uleb128 0x20
 9012 177a 15240000 		.4byte	.LASF393
 9013 177e 21       		.byte	0x21
 9014 177f 20       		.uleb128 0x20
 9015 1780 57160000 		.4byte	.LASF394
 9016 1784 22       		.byte	0x22
 9017 1785 20       		.uleb128 0x20
 9018 1786 F92B0000 		.4byte	.LASF395
 9019 178a 23       		.byte	0x23
 9020 178b 20       		.uleb128 0x20
 9021 178c A6350000 		.4byte	.LASF396
 9022 1790 24       		.byte	0x24
 9023 1791 20       		.uleb128 0x20
 9024 1792 92320000 		.4byte	.LASF397
 9025 1796 25       		.byte	0x25
 9026 1797 00       		.byte	0
 9027 1798 17       		.uleb128 0x17
 9028 1799 38       		.byte	0x38
ARM GAS  C:\Users\CHRIST~1\AppData\Local\Temp\ccb3oWGE.s 			page 161


 9029 179a 14       		.byte	0x14
 9030 179b F801     		.2byte	0x1f8
 9031 179d 58180000 		.4byte	0x1858
 9032 17a1 0A       		.uleb128 0xa
 9033 17a2 B4270000 		.4byte	.LASF398
 9034 17a6 14       		.byte	0x14
 9035 17a7 F901     		.2byte	0x1f9
 9036 17a9 E0100000 		.4byte	0x10e0
 9037 17ad 00       		.byte	0
 9038 17ae 0A       		.uleb128 0xa
 9039 17af 231F0000 		.4byte	.LASF399
 9040 17b3 14       		.byte	0x14
 9041 17b4 FA01     		.2byte	0x1fa
 9042 17b6 25000000 		.4byte	0x25
 9043 17ba 04       		.byte	0x4
 9044 17bb 0A       		.uleb128 0xa
 9045 17bc AF330000 		.4byte	.LASF400
 9046 17c0 14       		.byte	0x14
 9047 17c1 FB01     		.2byte	0x1fb
 9048 17c3 25000000 		.4byte	0x25
 9049 17c7 08       		.byte	0x8
 9050 17c8 0A       		.uleb128 0xa
 9051 17c9 18300000 		.4byte	.LASF401
 9052 17cd 14       		.byte	0x14
 9053 17ce FC01     		.2byte	0x1fc
 9054 17d0 25000000 		.4byte	0x25
 9055 17d4 0C       		.byte	0xc
 9056 17d5 0A       		.uleb128 0xa
 9057 17d6 BE290000 		.4byte	.LASF402
 9058 17da 14       		.byte	0x14
 9059 17db FD01     		.2byte	0x1fd
 9060 17dd 25000000 		.4byte	0x25
 9061 17e1 10       		.byte	0x10
 9062 17e2 09       		.uleb128 0x9
 9063 17e3 72706D00 		.ascii	"rpm\000"
 9064 17e7 14       		.byte	0x14
 9065 17e8 FE01     		.2byte	0x1fe
 9066 17ea 25000000 		.4byte	0x25
 9067 17ee 14       		.byte	0x14
 9068 17ef 0A       		.uleb128 0xa
 9069 17f0 D5280000 		.4byte	.LASF403
 9070 17f4 14       		.byte	0x14
 9071 17f5 FF01     		.2byte	0x1ff
 9072 17f7 B1000000 		.4byte	0xb1
 9073 17fb 18       		.byte	0x18
 9074 17fc 0A       		.uleb128 0xa
 9075 17fd DC1D0000 		.4byte	.LASF404
 9076 1801 14       		.byte	0x14
 9077 1802 0002     		.2byte	0x200
 9078 1804 B1000000 		.4byte	0xb1
 9079 1808 1C       		.byte	0x1c
 9080 1809 0A       		.uleb128 0xa
 9081 180a 59100000 		.4byte	.LASF405
 9082 180e 14       		.byte	0x14
 9083 180f 0102     		.2byte	0x201
 9084 1811 B1000000 		.4byte	0xb1
 9085 1815 20       		.byte	0x20
ARM GAS  C:\Users\CHRIST~1\AppData\Local\Temp\ccb3oWGE.s 			page 162


 9086 1816 0A       		.uleb128 0xa
 9087 1817 69330000 		.4byte	.LASF406
 9088 181b 14       		.byte	0x14
 9089 181c 0202     		.2byte	0x202
 9090 181e B1000000 		.4byte	0xb1
 9091 1822 24       		.byte	0x24
 9092 1823 0A       		.uleb128 0xa
 9093 1824 ED2D0000 		.4byte	.LASF407
 9094 1828 14       		.byte	0x14
 9095 1829 0302     		.2byte	0x203
 9096 182b B1000000 		.4byte	0xb1
 9097 182f 28       		.byte	0x28
 9098 1830 0A       		.uleb128 0xa
 9099 1831 53250000 		.4byte	.LASF408
 9100 1835 14       		.byte	0x14
 9101 1836 0402     		.2byte	0x204
 9102 1838 B1000000 		.4byte	0xb1
 9103 183c 2C       		.byte	0x2c
 9104 183d 0A       		.uleb128 0xa
 9105 183e C3310000 		.4byte	.LASF409
 9106 1842 14       		.byte	0x14
 9107 1843 0502     		.2byte	0x205
 9108 1845 25000000 		.4byte	0x25
 9109 1849 30       		.byte	0x30
 9110 184a 0A       		.uleb128 0xa
 9111 184b 49210000 		.4byte	.LASF410
 9112 184f 14       		.byte	0x14
 9113 1850 0602     		.2byte	0x206
 9114 1852 B1000000 		.4byte	0xb1
 9115 1856 34       		.byte	0x34
 9116 1857 00       		.byte	0
 9117 1858 18       		.uleb128 0x18
 9118 1859 FF3A0000 		.4byte	.LASF411
 9119 185d 14       		.byte	0x14
 9120 185e 0702     		.2byte	0x207
 9121 1860 98170000 		.4byte	0x1798
 9122 1864 14       		.uleb128 0x14
 9123 1865 E81F0000 		.4byte	.LASF412
 9124 1869 15       		.byte	0x15
 9125 186a A1       		.byte	0xa1
 9126 186b 54160000 		.4byte	0x1654
 9127 186f 11       		.uleb128 0x11
 9128 1870 09010000 		.4byte	0x109
 9129 1874 7A180000 		.4byte	0x187a
 9130 1878 24       		.uleb128 0x24
 9131 1879 00       		.byte	0
 9132 187a 05       		.uleb128 0x5
 9133 187b 6F180000 		.4byte	0x186f
 9134 187f 14       		.uleb128 0x14
 9135 1880 F5210000 		.4byte	.LASF413
 9136 1884 16       		.byte	0x16
 9137 1885 55       		.byte	0x55
 9138 1886 7A180000 		.4byte	0x187a
 9139 188a 11       		.uleb128 0x11
 9140 188b B8000000 		.4byte	0xb8
 9141 188f 95180000 		.4byte	0x1895
 9142 1893 24       		.uleb128 0x24
ARM GAS  C:\Users\CHRIST~1\AppData\Local\Temp\ccb3oWGE.s 			page 163


 9143 1894 00       		.byte	0
 9144 1895 05       		.uleb128 0x5
 9145 1896 8A180000 		.4byte	0x188a
 9146 189a 14       		.uleb128 0x14
 9147 189b 4A190000 		.4byte	.LASF414
 9148 189f 16       		.byte	0x16
 9149 18a0 56       		.byte	0x56
 9150 18a1 95180000 		.4byte	0x1895
 9151 18a5 11       		.uleb128 0x11
 9152 18a6 16110000 		.4byte	0x1116
 9153 18aa B0180000 		.4byte	0x18b0
 9154 18ae 24       		.uleb128 0x24
 9155 18af 00       		.byte	0
 9156 18b0 05       		.uleb128 0x5
 9157 18b1 A5180000 		.4byte	0x18a5
 9158 18b5 14       		.uleb128 0x14
 9159 18b6 08230000 		.4byte	.LASF415
 9160 18ba 17       		.byte	0x17
 9161 18bb 4B       		.byte	0x4b
 9162 18bc B0180000 		.4byte	0x18b0
 9163 18c0 14       		.uleb128 0x14
 9164 18c1 9D230000 		.4byte	.LASF416
 9165 18c5 17       		.byte	0x17
 9166 18c6 4C       		.byte	0x4c
 9167 18c7 B0180000 		.4byte	0x18b0
 9168 18cb 14       		.uleb128 0x14
 9169 18cc 993A0000 		.4byte	.LASF417
 9170 18d0 17       		.byte	0x17
 9171 18d1 4D       		.byte	0x4d
 9172 18d2 B0180000 		.4byte	0x18b0
 9173 18d6 14       		.uleb128 0x14
 9174 18d7 55140000 		.4byte	.LASF418
 9175 18db 17       		.byte	0x17
 9176 18dc 4E       		.byte	0x4e
 9177 18dd B8000000 		.4byte	0xb8
 9178 18e1 15       		.uleb128 0x15
 9179 18e2 0C       		.byte	0xc
 9180 18e3 18       		.byte	0x18
 9181 18e4 DA       		.byte	0xda
 9182 18e5 26190000 		.4byte	0x1926
 9183 18e9 08       		.uleb128 0x8
 9184 18ea 413A0000 		.4byte	.LASF419
 9185 18ee 18       		.byte	0x18
 9186 18ef DB       		.byte	0xdb
 9187 18f0 26190000 		.4byte	0x1926
 9188 18f4 00       		.byte	0
 9189 18f5 08       		.uleb128 0x8
 9190 18f6 39160000 		.4byte	.LASF420
 9191 18fa 18       		.byte	0x18
 9192 18fb DC       		.byte	0xdc
 9193 18fc 2C190000 		.4byte	0x192c
 9194 1900 04       		.byte	0x4
 9195 1901 08       		.uleb128 0x8
 9196 1902 E3050000 		.4byte	.LASF421
 9197 1906 18       		.byte	0x18
 9198 1907 DD       		.byte	0xdd
 9199 1908 D9000000 		.4byte	0xd9
ARM GAS  C:\Users\CHRIST~1\AppData\Local\Temp\ccb3oWGE.s 			page 164


 9200 190c 08       		.byte	0x8
 9201 190d 08       		.uleb128 0x8
 9202 190e 7E010000 		.4byte	.LASF422
 9203 1912 18       		.byte	0x18
 9204 1913 DF       		.byte	0xdf
 9205 1914 D9000000 		.4byte	0xd9
 9206 1918 09       		.byte	0x9
 9207 1919 08       		.uleb128 0x8
 9208 191a EA040000 		.4byte	.LASF423
 9209 191e 18       		.byte	0x18
 9210 191f E0       		.byte	0xe0
 9211 1920 D9000000 		.4byte	0xd9
 9212 1924 0A       		.byte	0xa
 9213 1925 00       		.byte	0
 9214 1926 0B       		.uleb128 0xb
 9215 1927 04       		.byte	0x4
 9216 1928 BD070000 		.4byte	0x7bd
 9217 192c 0B       		.uleb128 0xb
 9218 192d 04       		.byte	0x4
 9219 192e 29010000 		.4byte	0x129
 9220 1932 03       		.uleb128 0x3
 9221 1933 2B060000 		.4byte	.LASF424
 9222 1937 18       		.byte	0x18
 9223 1938 E1       		.byte	0xe1
 9224 1939 E1180000 		.4byte	0x18e1
 9225 193d 06       		.uleb128 0x6
 9226 193e 32190000 		.4byte	0x1932
 9227 1942 11       		.uleb128 0x11
 9228 1943 3D190000 		.4byte	0x193d
 9229 1947 52190000 		.4byte	0x1952
 9230 194b 12       		.uleb128 0x12
 9231 194c BD000000 		.4byte	0xbd
 9232 1950 0F       		.byte	0xf
 9233 1951 00       		.byte	0
 9234 1952 06       		.uleb128 0x6
 9235 1953 42190000 		.4byte	0x1942
 9236 1957 13       		.uleb128 0x13
 9237 1958 AE280000 		.4byte	.LASF425
 9238 195c 18       		.byte	0x18
 9239 195d BB01     		.2byte	0x1bb
 9240 195f 52190000 		.4byte	0x1952
 9241 1963 15       		.uleb128 0x15
 9242 1964 04       		.byte	0x4
 9243 1965 19       		.byte	0x19
 9244 1966 B3       		.byte	0xb3
 9245 1967 84190000 		.4byte	0x1984
 9246 196b 16       		.uleb128 0x16
 9247 196c 73657400 		.ascii	"set\000"
 9248 1970 19       		.byte	0x19
 9249 1971 B4       		.byte	0xb4
 9250 1972 FE000000 		.4byte	0xfe
 9251 1976 00       		.byte	0
 9252 1977 08       		.uleb128 0x8
 9253 1978 7C110000 		.4byte	.LASF426
 9254 197c 19       		.byte	0x19
 9255 197d B5       		.byte	0xb5
 9256 197e FE000000 		.4byte	0xfe
ARM GAS  C:\Users\CHRIST~1\AppData\Local\Temp\ccb3oWGE.s 			page 165


 9257 1982 02       		.byte	0x2
 9258 1983 00       		.byte	0
 9259 1984 1C       		.uleb128 0x1c
 9260 1985 04       		.byte	0x4
 9261 1986 19       		.byte	0x19
 9262 1987 B1       		.byte	0xb1
 9263 1988 9F190000 		.4byte	0x199f
 9264 198c 25       		.uleb128 0x25
 9265 198d 5700     		.ascii	"W\000"
 9266 198f 19       		.byte	0x19
 9267 1990 B2       		.byte	0xb2
 9268 1991 1E010000 		.4byte	0x11e
 9269 1995 25       		.uleb128 0x25
 9270 1996 4800     		.ascii	"H\000"
 9271 1998 19       		.byte	0x19
 9272 1999 B6       		.byte	0xb6
 9273 199a 63190000 		.4byte	0x1963
 9274 199e 00       		.byte	0
 9275 199f 05       		.uleb128 0x5
 9276 19a0 84190000 		.4byte	0x1984
 9277 19a4 15       		.uleb128 0x15
 9278 19a5 2C       		.byte	0x2c
 9279 19a6 19       		.byte	0x19
 9280 19a7 A9       		.byte	0xa9
 9281 19a8 311A0000 		.4byte	0x1a31
 9282 19ac 08       		.uleb128 0x8
 9283 19ad 1C2F0000 		.4byte	.LASF427
 9284 19b1 19       		.byte	0x19
 9285 19b2 AB       		.byte	0xab
 9286 19b3 29010000 		.4byte	0x129
 9287 19b7 00       		.byte	0
 9288 19b8 08       		.uleb128 0x8
 9289 19b9 57040000 		.4byte	.LASF428
 9290 19bd 19       		.byte	0x19
 9291 19be AC       		.byte	0xac
 9292 19bf 29010000 		.4byte	0x129
 9293 19c3 04       		.byte	0x4
 9294 19c4 08       		.uleb128 0x8
 9295 19c5 EE130000 		.4byte	.LASF429
 9296 19c9 19       		.byte	0x19
 9297 19ca AD       		.byte	0xad
 9298 19cb 29010000 		.4byte	0x129
 9299 19cf 08       		.byte	0x8
 9300 19d0 08       		.uleb128 0x8
 9301 19d1 BC2D0000 		.4byte	.LASF430
 9302 19d5 19       		.byte	0x19
 9303 19d6 AE       		.byte	0xae
 9304 19d7 29010000 		.4byte	0x129
 9305 19db 0C       		.byte	0xc
 9306 19dc 16       		.uleb128 0x16
 9307 19dd 49445200 		.ascii	"IDR\000"
 9308 19e1 19       		.byte	0x19
 9309 19e2 AF       		.byte	0xaf
 9310 19e3 29010000 		.4byte	0x129
 9311 19e7 10       		.byte	0x10
 9312 19e8 16       		.uleb128 0x16
 9313 19e9 4F445200 		.ascii	"ODR\000"
ARM GAS  C:\Users\CHRIST~1\AppData\Local\Temp\ccb3oWGE.s 			page 166


 9314 19ed 19       		.byte	0x19
 9315 19ee B0       		.byte	0xb0
 9316 19ef 29010000 		.4byte	0x129
 9317 19f3 14       		.byte	0x14
 9318 19f4 08       		.uleb128 0x8
 9319 19f5 E61A0000 		.4byte	.LASF431
 9320 19f9 19       		.byte	0x19
 9321 19fa B7       		.byte	0xb7
 9322 19fb 9F190000 		.4byte	0x199f
 9323 19ff 18       		.byte	0x18
 9324 1a00 08       		.uleb128 0x8
 9325 1a01 E1230000 		.4byte	.LASF432
 9326 1a05 19       		.byte	0x19
 9327 1a06 B8       		.byte	0xb8
 9328 1a07 29010000 		.4byte	0x129
 9329 1a0b 1C       		.byte	0x1c
 9330 1a0c 08       		.uleb128 0x8
 9331 1a0d 292A0000 		.4byte	.LASF433
 9332 1a11 19       		.byte	0x19
 9333 1a12 B9       		.byte	0xb9
 9334 1a13 29010000 		.4byte	0x129
 9335 1a17 20       		.byte	0x20
 9336 1a18 08       		.uleb128 0x8
 9337 1a19 44290000 		.4byte	.LASF434
 9338 1a1d 19       		.byte	0x19
 9339 1a1e BA       		.byte	0xba
 9340 1a1f 29010000 		.4byte	0x129
 9341 1a23 24       		.byte	0x24
 9342 1a24 16       		.uleb128 0x16
 9343 1a25 42525200 		.ascii	"BRR\000"
 9344 1a29 19       		.byte	0x19
 9345 1a2a BB       		.byte	0xbb
 9346 1a2b 29010000 		.4byte	0x129
 9347 1a2f 28       		.byte	0x28
 9348 1a30 00       		.byte	0
 9349 1a31 03       		.uleb128 0x3
 9350 1a32 4A160000 		.4byte	.LASF435
 9351 1a36 19       		.byte	0x19
 9352 1a37 BC       		.byte	0xbc
 9353 1a38 A4190000 		.4byte	0x19a4
 9354 1a3c 15       		.uleb128 0x15
 9355 1a3d 1C       		.byte	0x1c
 9356 1a3e 19       		.byte	0x19
 9357 1a3f C1       		.byte	0xc1
 9358 1a40 991A0000 		.4byte	0x1a99
 9359 1a44 08       		.uleb128 0x8
 9360 1a45 A0350000 		.4byte	.LASF436
 9361 1a49 19       		.byte	0x19
 9362 1a4a C3       		.byte	0xc3
 9363 1a4b 1E010000 		.4byte	0x11e
 9364 1a4f 00       		.byte	0
 9365 1a50 08       		.uleb128 0x8
 9366 1a51 2B040000 		.4byte	.LASF437
 9367 1a55 19       		.byte	0x19
 9368 1a56 C5       		.byte	0xc5
 9369 1a57 1E010000 		.4byte	0x11e
 9370 1a5b 04       		.byte	0x4
ARM GAS  C:\Users\CHRIST~1\AppData\Local\Temp\ccb3oWGE.s 			page 167


 9371 1a5c 08       		.uleb128 0x8
 9372 1a5d D8020000 		.4byte	.LASF438
 9373 1a61 19       		.byte	0x19
 9374 1a62 C7       		.byte	0xc7
 9375 1a63 1E010000 		.4byte	0x11e
 9376 1a67 08       		.byte	0x8
 9377 1a68 08       		.uleb128 0x8
 9378 1a69 0E330000 		.4byte	.LASF439
 9379 1a6d 19       		.byte	0x19
 9380 1a6e C9       		.byte	0xc9
 9381 1a6f 1E010000 		.4byte	0x11e
 9382 1a73 0C       		.byte	0xc
 9383 1a74 16       		.uleb128 0x16
 9384 1a75 6F647200 		.ascii	"odr\000"
 9385 1a79 19       		.byte	0x19
 9386 1a7a CB       		.byte	0xcb
 9387 1a7b 1E010000 		.4byte	0x11e
 9388 1a7f 10       		.byte	0x10
 9389 1a80 08       		.uleb128 0x8
 9390 1a81 532E0000 		.4byte	.LASF440
 9391 1a85 19       		.byte	0x19
 9392 1a86 CD       		.byte	0xcd
 9393 1a87 1E010000 		.4byte	0x11e
 9394 1a8b 14       		.byte	0x14
 9395 1a8c 08       		.uleb128 0x8
 9396 1a8d 2B2E0000 		.4byte	.LASF441
 9397 1a91 19       		.byte	0x19
 9398 1a92 CF       		.byte	0xcf
 9399 1a93 1E010000 		.4byte	0x11e
 9400 1a97 18       		.byte	0x18
 9401 1a98 00       		.byte	0
 9402 1a99 03       		.uleb128 0x3
 9403 1a9a 3E280000 		.4byte	.LASF442
 9404 1a9e 19       		.byte	0x19
 9405 1a9f D0       		.byte	0xd0
 9406 1aa0 3C1A0000 		.4byte	0x1a3c
 9407 1aa4 15       		.uleb128 0x15
 9408 1aa5 FC       		.byte	0xfc
 9409 1aa6 19       		.byte	0x19
 9410 1aa7 D9       		.byte	0xd9
 9411 1aa8 191B0000 		.4byte	0x1b19
 9412 1aac 08       		.uleb128 0x8
 9413 1aad 2B170000 		.4byte	.LASF443
 9414 1ab1 19       		.byte	0x19
 9415 1ab2 DC       		.byte	0xdc
 9416 1ab3 991A0000 		.4byte	0x1a99
 9417 1ab7 00       		.byte	0
 9418 1ab8 08       		.uleb128 0x8
 9419 1ab9 FB030000 		.4byte	.LASF444
 9420 1abd 19       		.byte	0x19
 9421 1abe E0       		.byte	0xe0
 9422 1abf 991A0000 		.4byte	0x1a99
 9423 1ac3 1C       		.byte	0x1c
 9424 1ac4 08       		.uleb128 0x8
 9425 1ac5 19020000 		.4byte	.LASF445
 9426 1ac9 19       		.byte	0x19
 9427 1aca E4       		.byte	0xe4
ARM GAS  C:\Users\CHRIST~1\AppData\Local\Temp\ccb3oWGE.s 			page 168


 9428 1acb 991A0000 		.4byte	0x1a99
 9429 1acf 38       		.byte	0x38
 9430 1ad0 08       		.uleb128 0x8
 9431 1ad1 05130000 		.4byte	.LASF446
 9432 1ad5 19       		.byte	0x19
 9433 1ad6 E8       		.byte	0xe8
 9434 1ad7 991A0000 		.4byte	0x1a99
 9435 1adb 54       		.byte	0x54
 9436 1adc 08       		.uleb128 0x8
 9437 1add 3C260000 		.4byte	.LASF447
 9438 1ae1 19       		.byte	0x19
 9439 1ae2 EC       		.byte	0xec
 9440 1ae3 991A0000 		.4byte	0x1a99
 9441 1ae7 70       		.byte	0x70
 9442 1ae8 08       		.uleb128 0x8
 9443 1ae9 D13B0000 		.4byte	.LASF448
 9444 1aed 19       		.byte	0x19
 9445 1aee F0       		.byte	0xf0
 9446 1aef 991A0000 		.4byte	0x1a99
 9447 1af3 8C       		.byte	0x8c
 9448 1af4 08       		.uleb128 0x8
 9449 1af5 920F0000 		.4byte	.LASF449
 9450 1af9 19       		.byte	0x19
 9451 1afa F4       		.byte	0xf4
 9452 1afb 991A0000 		.4byte	0x1a99
 9453 1aff A8       		.byte	0xa8
 9454 1b00 08       		.uleb128 0x8
 9455 1b01 B2220000 		.4byte	.LASF450
 9456 1b05 19       		.byte	0x19
 9457 1b06 F8       		.byte	0xf8
 9458 1b07 991A0000 		.4byte	0x1a99
 9459 1b0b C4       		.byte	0xc4
 9460 1b0c 08       		.uleb128 0x8
 9461 1b0d 31380000 		.4byte	.LASF451
 9462 1b11 19       		.byte	0x19
 9463 1b12 FC       		.byte	0xfc
 9464 1b13 991A0000 		.4byte	0x1a99
 9465 1b17 E0       		.byte	0xe0
 9466 1b18 00       		.byte	0
 9467 1b19 03       		.uleb128 0x3
 9468 1b1a 8C0E0000 		.4byte	.LASF452
 9469 1b1e 19       		.byte	0x19
 9470 1b1f FE       		.byte	0xfe
 9471 1b20 A41A0000 		.4byte	0x1aa4
 9472 1b24 06       		.uleb128 0x6
 9473 1b25 191B0000 		.4byte	0x1b19
 9474 1b29 18       		.uleb128 0x18
 9475 1b2a CC220000 		.4byte	.LASF453
 9476 1b2e 19       		.byte	0x19
 9477 1b2f 1B01     		.2byte	0x11b
 9478 1b31 351B0000 		.4byte	0x1b35
 9479 1b35 0B       		.uleb128 0xb
 9480 1b36 04       		.byte	0x4
 9481 1b37 311A0000 		.4byte	0x1a31
 9482 1b3b 13       		.uleb128 0x13
 9483 1b3c BB2F0000 		.4byte	.LASF454
 9484 1b40 19       		.byte	0x19
ARM GAS  C:\Users\CHRIST~1\AppData\Local\Temp\ccb3oWGE.s 			page 169


 9485 1b41 DA01     		.2byte	0x1da
 9486 1b43 241B0000 		.4byte	0x1b24
 9487 1b47 1F       		.uleb128 0x1f
 9488 1b48 07       		.byte	0x7
 9489 1b49 01       		.byte	0x1
 9490 1b4a 49000000 		.4byte	0x49
 9491 1b4e 1A       		.byte	0x1a
 9492 1b4f 5F       		.byte	0x5f
 9493 1b50 731B0000 		.4byte	0x1b73
 9494 1b54 20       		.uleb128 0x20
 9495 1b55 280D0000 		.4byte	.LASF455
 9496 1b59 00       		.byte	0
 9497 1b5a 20       		.uleb128 0x20
 9498 1b5b 2F010000 		.4byte	.LASF456
 9499 1b5f 01       		.byte	0x1
 9500 1b60 20       		.uleb128 0x20
 9501 1b61 53000000 		.4byte	.LASF457
 9502 1b65 02       		.byte	0x2
 9503 1b66 20       		.uleb128 0x20
 9504 1b67 57070000 		.4byte	.LASF458
 9505 1b6b 03       		.byte	0x3
 9506 1b6c 20       		.uleb128 0x20
 9507 1b6d AC0C0000 		.4byte	.LASF459
 9508 1b71 04       		.byte	0x4
 9509 1b72 00       		.byte	0
 9510 1b73 03       		.uleb128 0x3
 9511 1b74 B3070000 		.4byte	.LASF460
 9512 1b78 1A       		.byte	0x1a
 9513 1b79 65       		.byte	0x65
 9514 1b7a 471B0000 		.4byte	0x1b47
 9515 1b7e 15       		.uleb128 0x15
 9516 1b7f 08       		.byte	0x8
 9517 1b80 1B       		.byte	0x1b
 9518 1b81 F4       		.byte	0xf4
 9519 1b82 A01B0000 		.4byte	0x1ba0
 9520 1b86 16       		.uleb128 0x16
 9521 1b87 6D637200 		.ascii	"mcr\000"
 9522 1b8b 1B       		.byte	0x1b
 9523 1b8c FA       		.byte	0xfa
 9524 1b8d 1E010000 		.4byte	0x11e
 9525 1b91 00       		.byte	0
 9526 1b92 09       		.uleb128 0x9
 9527 1b93 62747200 		.ascii	"btr\000"
 9528 1b97 1B       		.byte	0x1b
 9529 1b98 0001     		.2byte	0x100
 9530 1b9a 1E010000 		.4byte	0x11e
 9531 1b9e 04       		.byte	0x4
 9532 1b9f 00       		.byte	0
 9533 1ba0 18       		.uleb128 0x18
 9534 1ba1 32260000 		.4byte	.LASF461
 9535 1ba5 1B       		.byte	0x1b
 9536 1ba6 0101     		.2byte	0x101
 9537 1ba8 7E1B0000 		.4byte	0x1b7e
 9538 1bac 06       		.uleb128 0x6
 9539 1bad A01B0000 		.4byte	0x1ba0
 9540 1bb1 17       		.uleb128 0x17
 9541 1bb2 30       		.byte	0x30
ARM GAS  C:\Users\CHRIST~1\AppData\Local\Temp\ccb3oWGE.s 			page 170


 9542 1bb3 1B       		.byte	0x1b
 9543 1bb4 0601     		.2byte	0x106
 9544 1bb6 3D1C0000 		.4byte	0x1c3d
 9545 1bba 0A       		.uleb128 0xa
 9546 1bbb B1200000 		.4byte	.LASF462
 9547 1bbf 1B       		.byte	0x1b
 9548 1bc0 0A01     		.2byte	0x10a
 9549 1bc2 731B0000 		.4byte	0x1b73
 9550 1bc6 00       		.byte	0
 9551 1bc7 0A       		.uleb128 0xa
 9552 1bc8 4E360000 		.4byte	.LASF463
 9553 1bcc 1B       		.byte	0x1b
 9554 1bcd 0E01     		.2byte	0x10e
 9555 1bcf 3D1C0000 		.4byte	0x1c3d
 9556 1bd3 04       		.byte	0x4
 9557 1bd4 0A       		.uleb128 0xa
 9558 1bd5 450C0000 		.4byte	.LASF464
 9559 1bd9 1B       		.byte	0x1b
 9560 1bda 1201     		.2byte	0x112
 9561 1bdc 0C030000 		.4byte	0x30c
 9562 1be0 08       		.byte	0x8
 9563 1be1 0A       		.uleb128 0xa
 9564 1be2 AA2F0000 		.4byte	.LASF465
 9565 1be6 1B       		.byte	0x1b
 9566 1be7 1601     		.2byte	0x116
 9567 1be9 0C030000 		.4byte	0x30c
 9568 1bed 10       		.byte	0x10
 9569 1bee 0A       		.uleb128 0xa
 9570 1bef EB250000 		.4byte	.LASF466
 9571 1bf3 1B       		.byte	0x1b
 9572 1bf4 2301     		.2byte	0x123
 9573 1bf6 DF0E0000 		.4byte	0xedf
 9574 1bfa 18       		.byte	0x18
 9575 1bfb 0A       		.uleb128 0xa
 9576 1bfc 700F0000 		.4byte	.LASF467
 9577 1c00 1B       		.byte	0x1b
 9578 1c01 2A01     		.2byte	0x12a
 9579 1c03 DF0E0000 		.4byte	0xedf
 9580 1c07 1C       		.byte	0x1c
 9581 1c08 0A       		.uleb128 0xa
 9582 1c09 D4130000 		.4byte	.LASF468
 9583 1c0d 1B       		.byte	0x1b
 9584 1c0e 3001     		.2byte	0x130
 9585 1c10 DF0E0000 		.4byte	0xedf
 9586 1c14 20       		.byte	0x20
 9587 1c15 0A       		.uleb128 0xa
 9588 1c16 C7040000 		.4byte	.LASF469
 9589 1c1a 1B       		.byte	0x1b
 9590 1c1b 3501     		.2byte	0x135
 9591 1c1d DF0E0000 		.4byte	0xedf
 9592 1c21 24       		.byte	0x24
 9593 1c22 0A       		.uleb128 0xa
 9594 1c23 DA0B0000 		.4byte	.LASF470
 9595 1c27 1B       		.byte	0x1b
 9596 1c28 3901     		.2byte	0x139
 9597 1c2a DF0E0000 		.4byte	0xedf
 9598 1c2e 28       		.byte	0x28
ARM GAS  C:\Users\CHRIST~1\AppData\Local\Temp\ccb3oWGE.s 			page 171


 9599 1c2f 09       		.uleb128 0x9
 9600 1c30 63616E00 		.ascii	"can\000"
 9601 1c34 1B       		.byte	0x1b
 9602 1c35 3F01     		.2byte	0x13f
 9603 1c37 431C0000 		.4byte	0x1c43
 9604 1c3b 2C       		.byte	0x2c
 9605 1c3c 00       		.byte	0
 9606 1c3d 0B       		.uleb128 0xb
 9607 1c3e 04       		.byte	0x4
 9608 1c3f AC1B0000 		.4byte	0x1bac
 9609 1c43 0B       		.uleb128 0xb
 9610 1c44 04       		.byte	0x4
 9611 1c45 5A070000 		.4byte	0x75a
 9612 1c49 18       		.uleb128 0x18
 9613 1c4a 1D050000 		.4byte	.LASF471
 9614 1c4e 1B       		.byte	0x1b
 9615 1c4f 4001     		.2byte	0x140
 9616 1c51 B11B0000 		.4byte	0x1bb1
 9617 1c55 13       		.uleb128 0x13
 9618 1c56 C7320000 		.4byte	.LASF472
 9619 1c5a 1B       		.byte	0x1b
 9620 1c5b 4B01     		.2byte	0x14b
 9621 1c5d 491C0000 		.4byte	0x1c49
 9622 1c61 1F       		.uleb128 0x1f
 9623 1c62 07       		.byte	0x7
 9624 1c63 01       		.byte	0x1
 9625 1c64 49000000 		.4byte	0x49
 9626 1c68 1C       		.byte	0x1c
 9627 1c69 4C       		.byte	0x4c
 9628 1c6a 931C0000 		.4byte	0x1c93
 9629 1c6e 20       		.uleb128 0x20
 9630 1c6f 24080000 		.4byte	.LASF473
 9631 1c73 00       		.byte	0
 9632 1c74 20       		.uleb128 0x20
 9633 1c75 A0130000 		.4byte	.LASF474
 9634 1c79 01       		.byte	0x1
 9635 1c7a 20       		.uleb128 0x20
 9636 1c7b 94080000 		.4byte	.LASF475
 9637 1c7f 02       		.byte	0x2
 9638 1c80 20       		.uleb128 0x20
 9639 1c81 1D060000 		.4byte	.LASF476
 9640 1c85 03       		.byte	0x3
 9641 1c86 20       		.uleb128 0x20
 9642 1c87 A6040000 		.4byte	.LASF477
 9643 1c8b 04       		.byte	0x4
 9644 1c8c 20       		.uleb128 0x20
 9645 1c8d BC1B0000 		.4byte	.LASF478
 9646 1c91 05       		.byte	0x5
 9647 1c92 00       		.byte	0
 9648 1c93 03       		.uleb128 0x3
 9649 1c94 3D180000 		.4byte	.LASF479
 9650 1c98 1C       		.byte	0x1c
 9651 1c99 53       		.byte	0x53
 9652 1c9a 611C0000 		.4byte	0x1c61
 9653 1c9e 18       		.uleb128 0x18
 9654 1c9f 82060000 		.4byte	.LASF480
 9655 1ca3 1D       		.byte	0x1d
ARM GAS  C:\Users\CHRIST~1\AppData\Local\Temp\ccb3oWGE.s 			page 172


 9656 1ca4 6A01     		.2byte	0x16a
 9657 1ca6 FE000000 		.4byte	0xfe
 9658 1caa 18       		.uleb128 0x18
 9659 1cab 5C050000 		.4byte	.LASF481
 9660 1caf 1D       		.byte	0x1d
 9661 1cb0 6F01     		.2byte	0x16f
 9662 1cb2 1E010000 		.4byte	0x11e
 9663 1cb6 23       		.uleb128 0x23
 9664 1cb7 07       		.byte	0x7
 9665 1cb8 01       		.byte	0x1
 9666 1cb9 49000000 		.4byte	0x49
 9667 1cbd 1D       		.byte	0x1d
 9668 1cbe 7401     		.2byte	0x174
 9669 1cc0 D71C0000 		.4byte	0x1cd7
 9670 1cc4 20       		.uleb128 0x20
 9671 1cc5 AE130000 		.4byte	.LASF482
 9672 1cc9 01       		.byte	0x1
 9673 1cca 20       		.uleb128 0x20
 9674 1ccb A3000000 		.4byte	.LASF483
 9675 1ccf 02       		.byte	0x2
 9676 1cd0 20       		.uleb128 0x20
 9677 1cd1 6A0C0000 		.4byte	.LASF484
 9678 1cd5 03       		.byte	0x3
 9679 1cd6 00       		.byte	0
 9680 1cd7 18       		.uleb128 0x18
 9681 1cd8 483A0000 		.4byte	.LASF485
 9682 1cdc 1D       		.byte	0x1d
 9683 1cdd 7801     		.2byte	0x178
 9684 1cdf B61C0000 		.4byte	0x1cb6
 9685 1ce3 23       		.uleb128 0x23
 9686 1ce4 07       		.byte	0x7
 9687 1ce5 01       		.byte	0x1
 9688 1ce6 49000000 		.4byte	0x49
 9689 1cea 1D       		.byte	0x1d
 9690 1ceb 7D01     		.2byte	0x17d
 9691 1ced 041D0000 		.4byte	0x1d04
 9692 1cf1 20       		.uleb128 0x20
 9693 1cf2 4F120000 		.4byte	.LASF486
 9694 1cf6 01       		.byte	0x1
 9695 1cf7 20       		.uleb128 0x20
 9696 1cf8 78390000 		.4byte	.LASF487
 9697 1cfc 02       		.byte	0x2
 9698 1cfd 20       		.uleb128 0x20
 9699 1cfe 4B0E0000 		.4byte	.LASF488
 9700 1d02 03       		.byte	0x3
 9701 1d03 00       		.byte	0
 9702 1d04 18       		.uleb128 0x18
 9703 1d05 A7080000 		.4byte	.LASF489
 9704 1d09 1D       		.byte	0x1d
 9705 1d0a 8101     		.2byte	0x181
 9706 1d0c E31C0000 		.4byte	0x1ce3
 9707 1d10 17       		.uleb128 0x17
 9708 1d11 0C       		.byte	0xc
 9709 1d12 1D       		.byte	0x1d
 9710 1d13 8601     		.2byte	0x186
 9711 1d15 411D0000 		.4byte	0x1d41
 9712 1d19 0A       		.uleb128 0xa
ARM GAS  C:\Users\CHRIST~1\AppData\Local\Temp\ccb3oWGE.s 			page 173


 9713 1d1a F4070000 		.4byte	.LASF490
 9714 1d1e 1D       		.byte	0x1d
 9715 1d1f 8801     		.2byte	0x188
 9716 1d21 D71C0000 		.4byte	0x1cd7
 9717 1d25 00       		.byte	0
 9718 1d26 0A       		.uleb128 0xa
 9719 1d27 07050000 		.4byte	.LASF491
 9720 1d2b 1D       		.byte	0x1d
 9721 1d2c 8901     		.2byte	0x189
 9722 1d2e 1E010000 		.4byte	0x11e
 9723 1d32 04       		.byte	0x4
 9724 1d33 0A       		.uleb128 0xa
 9725 1d34 413B0000 		.4byte	.LASF492
 9726 1d38 1D       		.byte	0x1d
 9727 1d39 8C01     		.2byte	0x18c
 9728 1d3b 041D0000 		.4byte	0x1d04
 9729 1d3f 08       		.byte	0x8
 9730 1d40 00       		.byte	0
 9731 1d41 18       		.uleb128 0x18
 9732 1d42 64020000 		.4byte	.LASF493
 9733 1d46 1D       		.byte	0x1d
 9734 1d47 8E01     		.2byte	0x18e
 9735 1d49 101D0000 		.4byte	0x1d10
 9736 1d4d 06       		.uleb128 0x6
 9737 1d4e 411D0000 		.4byte	0x1d41
 9738 1d52 18       		.uleb128 0x18
 9739 1d53 13060000 		.4byte	.LASF494
 9740 1d57 1D       		.byte	0x1d
 9741 1d58 9301     		.2byte	0x193
 9742 1d5a 5E1D0000 		.4byte	0x1d5e
 9743 1d5e 0C       		.uleb128 0xc
 9744 1d5f 13060000 		.4byte	.LASF494
 9745 1d63 38       		.byte	0x38
 9746 1d64 1D       		.byte	0x1d
 9747 1d65 9801     		.2byte	0x198
 9748 1d67 FB1D0000 		.4byte	0x1dfb
 9749 1d6b 0A       		.uleb128 0xa
 9750 1d6c B1200000 		.4byte	.LASF462
 9751 1d70 1D       		.byte	0x1d
 9752 1d71 9C01     		.2byte	0x19c
 9753 1d73 931C0000 		.4byte	0x1c93
 9754 1d77 00       		.byte	0
 9755 1d78 0A       		.uleb128 0xa
 9756 1d79 4E360000 		.4byte	.LASF463
 9757 1d7d 1D       		.byte	0x1d
 9758 1d7e A001     		.2byte	0x1a0
 9759 1d80 FB1D0000 		.4byte	0x1dfb
 9760 1d84 04       		.byte	0x4
 9761 1d85 0A       		.uleb128 0xa
 9762 1d86 C7010000 		.4byte	.LASF495
 9763 1d8a 1D       		.byte	0x1d
 9764 1d8b A401     		.2byte	0x1a4
 9765 1d8d AA1C0000 		.4byte	0x1caa
 9766 1d91 08       		.byte	0x8
 9767 1d92 0A       		.uleb128 0xa
 9768 1d93 F0100000 		.4byte	.LASF496
 9769 1d97 1D       		.byte	0x1d
ARM GAS  C:\Users\CHRIST~1\AppData\Local\Temp\ccb3oWGE.s 			page 174


 9770 1d98 A901     		.2byte	0x1a9
 9771 1d9a 5B0E0000 		.4byte	0xe5b
 9772 1d9e 0C       		.byte	0xc
 9773 1d9f 0A       		.uleb128 0xa
 9774 1da0 EA080000 		.4byte	.LASF497
 9775 1da4 1D       		.byte	0x1d
 9776 1da5 B201     		.2byte	0x1b2
 9777 1da7 D7020000 		.4byte	0x2d7
 9778 1dab 1C       		.byte	0x1c
 9779 1dac 0A       		.uleb128 0xa
 9780 1dad A9130000 		.4byte	.LASF498
 9781 1db1 1D       		.byte	0x1d
 9782 1db2 B601     		.2byte	0x1b6
 9783 1db4 9E1C0000 		.4byte	0x1c9e
 9784 1db8 20       		.byte	0x20
 9785 1db9 0A       		.uleb128 0xa
 9786 1dba EB0A0000 		.4byte	.LASF499
 9787 1dbe 1D       		.byte	0x1d
 9788 1dbf BA01     		.2byte	0x1ba
 9789 1dc1 1E010000 		.4byte	0x11e
 9790 1dc5 24       		.byte	0x24
 9791 1dc6 0A       		.uleb128 0xa
 9792 1dc7 7C0B0000 		.4byte	.LASF500
 9793 1dcb 1D       		.byte	0x1d
 9794 1dcc BE01     		.2byte	0x1be
 9795 1dce 1E010000 		.4byte	0x11e
 9796 1dd2 28       		.byte	0x28
 9797 1dd3 0A       		.uleb128 0xa
 9798 1dd4 67010000 		.4byte	.LASF501
 9799 1dd8 1D       		.byte	0x1d
 9800 1dd9 C201     		.2byte	0x1c2
 9801 1ddb 011E0000 		.4byte	0x1e01
 9802 1ddf 2C       		.byte	0x2c
 9803 1de0 0A       		.uleb128 0xa
 9804 1de1 B0020000 		.4byte	.LASF502
 9805 1de5 1D       		.byte	0x1d
 9806 1de6 C601     		.2byte	0x1c6
 9807 1de8 011E0000 		.4byte	0x1e01
 9808 1dec 30       		.byte	0x30
 9809 1ded 09       		.uleb128 0x9
 9810 1dee 69326300 		.ascii	"i2c\000"
 9811 1df2 1D       		.byte	0x1d
 9812 1df3 CA01     		.2byte	0x1ca
 9813 1df5 071E0000 		.4byte	0x1e07
 9814 1df9 34       		.byte	0x34
 9815 1dfa 00       		.byte	0
 9816 1dfb 0B       		.uleb128 0xb
 9817 1dfc 04       		.byte	0x4
 9818 1dfd 4D1D0000 		.4byte	0x1d4d
 9819 1e01 0B       		.uleb128 0xb
 9820 1e02 04       		.byte	0x4
 9821 1e03 3D190000 		.4byte	0x193d
 9822 1e07 0B       		.uleb128 0xb
 9823 1e08 04       		.byte	0x4
 9824 1e09 7E080000 		.4byte	0x87e
 9825 1e0d 13       		.uleb128 0x13
 9826 1e0e C3180000 		.4byte	.LASF503
ARM GAS  C:\Users\CHRIST~1\AppData\Local\Temp\ccb3oWGE.s 			page 175


 9827 1e12 1D       		.byte	0x1d
 9828 1e13 E001     		.2byte	0x1e0
 9829 1e15 521D0000 		.4byte	0x1d52
 9830 1e19 1F       		.uleb128 0x1f
 9831 1e1a 07       		.byte	0x7
 9832 1e1b 01       		.byte	0x1
 9833 1e1c 49000000 		.4byte	0x49
 9834 1e20 1E       		.byte	0x1e
 9835 1e21 31       		.byte	0x31
 9836 1e22 451E0000 		.4byte	0x1e45
 9837 1e26 20       		.uleb128 0x20
 9838 1e27 6B380000 		.4byte	.LASF504
 9839 1e2b 00       		.byte	0
 9840 1e2c 20       		.uleb128 0x20
 9841 1e2d 4A2E0000 		.4byte	.LASF505
 9842 1e31 01       		.byte	0x1
 9843 1e32 20       		.uleb128 0x20
 9844 1e33 A7060000 		.4byte	.LASF506
 9845 1e37 02       		.byte	0x2
 9846 1e38 20       		.uleb128 0x20
 9847 1e39 6F1D0000 		.4byte	.LASF507
 9848 1e3d 03       		.byte	0x3
 9849 1e3e 20       		.uleb128 0x20
 9850 1e3f 632B0000 		.4byte	.LASF508
 9851 1e43 04       		.byte	0x4
 9852 1e44 00       		.byte	0
 9853 1e45 03       		.uleb128 0x3
 9854 1e46 80310000 		.4byte	.LASF509
 9855 1e4a 1E       		.byte	0x1e
 9856 1e4b 37       		.byte	0x37
 9857 1e4c 191E0000 		.4byte	0x1e19
 9858 1e50 03       		.uleb128 0x3
 9859 1e51 49250000 		.4byte	.LASF510
 9860 1e55 1E       		.byte	0x1e
 9861 1e56 3C       		.byte	0x3c
 9862 1e57 5B1E0000 		.4byte	0x1e5b
 9863 1e5b 0C       		.uleb128 0xc
 9864 1e5c 49250000 		.4byte	.LASF510
 9865 1e60 18       		.byte	0x18
 9866 1e61 1F       		.byte	0x1f
 9867 1e62 3101     		.2byte	0x131
 9868 1e64 B71E0000 		.4byte	0x1eb7
 9869 1e68 0A       		.uleb128 0xa
 9870 1e69 B1200000 		.4byte	.LASF462
 9871 1e6d 1F       		.byte	0x1f
 9872 1e6e 3501     		.2byte	0x135
 9873 1e70 451E0000 		.4byte	0x1e45
 9874 1e74 00       		.byte	0
 9875 1e75 0A       		.uleb128 0xa
 9876 1e76 4E360000 		.4byte	.LASF463
 9877 1e7a 1F       		.byte	0x1f
 9878 1e7b 3901     		.2byte	0x139
 9879 1e7d BC200000 		.4byte	0x20bc
 9880 1e81 04       		.byte	0x4
 9881 1e82 0A       		.uleb128 0xa
 9882 1e83 412F0000 		.4byte	.LASF511
 9883 1e87 1F       		.byte	0x1f
ARM GAS  C:\Users\CHRIST~1\AppData\Local\Temp\ccb3oWGE.s 			page 176


 9884 1e88 4101     		.2byte	0x141
 9885 1e8a 1E010000 		.4byte	0x11e
 9886 1e8e 08       		.byte	0x8
 9887 1e8f 09       		.uleb128 0x9
 9888 1e90 74696D00 		.ascii	"tim\000"
 9889 1e94 1F       		.byte	0x1f
 9890 1e95 4501     		.2byte	0x145
 9891 1e97 C2200000 		.4byte	0x20c2
 9892 1e9b 0C       		.byte	0xc
 9893 1e9c 0A       		.uleb128 0xa
 9894 1e9d D72D0000 		.4byte	.LASF512
 9895 1ea1 1F       		.byte	0x1f
 9896 1ea2 4901     		.2byte	0x149
 9897 1ea4 2C190000 		.4byte	0x192c
 9898 1ea8 10       		.byte	0x10
 9899 1ea9 0A       		.uleb128 0xa
 9900 1eaa D0060000 		.4byte	.LASF513
 9901 1eae 1F       		.byte	0x1f
 9902 1eaf 4D01     		.2byte	0x14d
 9903 1eb1 2C190000 		.4byte	0x192c
 9904 1eb5 14       		.byte	0x14
 9905 1eb6 00       		.byte	0
 9906 1eb7 03       		.uleb128 0x3
 9907 1eb8 7E270000 		.4byte	.LASF514
 9908 1ebc 1E       		.byte	0x1e
 9909 1ebd 43       		.byte	0x43
 9910 1ebe C21E0000 		.4byte	0x1ec2
 9911 1ec2 0B       		.uleb128 0xb
 9912 1ec3 04       		.byte	0x4
 9913 1ec4 C81E0000 		.4byte	0x1ec8
 9914 1ec8 0D       		.uleb128 0xd
 9915 1ec9 D31E0000 		.4byte	0x1ed3
 9916 1ecd 0E       		.uleb128 0xe
 9917 1ece D31E0000 		.4byte	0x1ed3
 9918 1ed2 00       		.byte	0
 9919 1ed3 0B       		.uleb128 0xb
 9920 1ed4 04       		.byte	0x4
 9921 1ed5 501E0000 		.4byte	0x1e50
 9922 1ed9 17       		.uleb128 0x17
 9923 1eda 60       		.byte	0x60
 9924 1edb 20       		.byte	0x20
 9925 1edc 9E01     		.2byte	0x19e
 9926 1ede E51F0000 		.4byte	0x1fe5
 9927 1ee2 09       		.uleb128 0x9
 9928 1ee3 43523100 		.ascii	"CR1\000"
 9929 1ee7 20       		.byte	0x20
 9930 1ee8 9F01     		.2byte	0x19f
 9931 1eea 29010000 		.4byte	0x129
 9932 1eee 00       		.byte	0
 9933 1eef 09       		.uleb128 0x9
 9934 1ef0 43523200 		.ascii	"CR2\000"
 9935 1ef4 20       		.byte	0x20
 9936 1ef5 A001     		.2byte	0x1a0
 9937 1ef7 29010000 		.4byte	0x129
 9938 1efb 04       		.byte	0x4
 9939 1efc 0A       		.uleb128 0xa
 9940 1efd 9F310000 		.4byte	.LASF132
ARM GAS  C:\Users\CHRIST~1\AppData\Local\Temp\ccb3oWGE.s 			page 177


 9941 1f01 20       		.byte	0x20
 9942 1f02 A101     		.2byte	0x1a1
 9943 1f04 29010000 		.4byte	0x129
 9944 1f08 08       		.byte	0x8
 9945 1f09 0A       		.uleb128 0xa
 9946 1f0a 530D0000 		.4byte	.LASF133
 9947 1f0e 20       		.byte	0x20
 9948 1f0f A201     		.2byte	0x1a2
 9949 1f11 29010000 		.4byte	0x129
 9950 1f15 0C       		.byte	0xc
 9951 1f16 09       		.uleb128 0x9
 9952 1f17 535200   		.ascii	"SR\000"
 9953 1f1a 20       		.byte	0x20
 9954 1f1b A301     		.2byte	0x1a3
 9955 1f1d 29010000 		.4byte	0x129
 9956 1f21 10       		.byte	0x10
 9957 1f22 09       		.uleb128 0x9
 9958 1f23 45475200 		.ascii	"EGR\000"
 9959 1f27 20       		.byte	0x20
 9960 1f28 A401     		.2byte	0x1a4
 9961 1f2a 29010000 		.4byte	0x129
 9962 1f2e 14       		.byte	0x14
 9963 1f2f 0A       		.uleb128 0xa
 9964 1f30 D0390000 		.4byte	.LASF134
 9965 1f34 20       		.byte	0x20
 9966 1f35 A501     		.2byte	0x1a5
 9967 1f37 29010000 		.4byte	0x129
 9968 1f3b 18       		.byte	0x18
 9969 1f3c 0A       		.uleb128 0xa
 9970 1f3d D6390000 		.4byte	.LASF135
 9971 1f41 20       		.byte	0x20
 9972 1f42 A601     		.2byte	0x1a6
 9973 1f44 29010000 		.4byte	0x129
 9974 1f48 1C       		.byte	0x1c
 9975 1f49 0A       		.uleb128 0xa
 9976 1f4a 68090000 		.4byte	.LASF136
 9977 1f4e 20       		.byte	0x20
 9978 1f4f A701     		.2byte	0x1a7
 9979 1f51 29010000 		.4byte	0x129
 9980 1f55 20       		.byte	0x20
 9981 1f56 09       		.uleb128 0x9
 9982 1f57 434E5400 		.ascii	"CNT\000"
 9983 1f5b 20       		.byte	0x20
 9984 1f5c A801     		.2byte	0x1a8
 9985 1f5e 29010000 		.4byte	0x129
 9986 1f62 24       		.byte	0x24
 9987 1f63 09       		.uleb128 0x9
 9988 1f64 50534300 		.ascii	"PSC\000"
 9989 1f68 20       		.byte	0x20
 9990 1f69 A901     		.2byte	0x1a9
 9991 1f6b 29010000 		.4byte	0x129
 9992 1f6f 28       		.byte	0x28
 9993 1f70 09       		.uleb128 0x9
 9994 1f71 41525200 		.ascii	"ARR\000"
 9995 1f75 20       		.byte	0x20
 9996 1f76 AA01     		.2byte	0x1aa
 9997 1f78 29010000 		.4byte	0x129
ARM GAS  C:\Users\CHRIST~1\AppData\Local\Temp\ccb3oWGE.s 			page 178


 9998 1f7c 2C       		.byte	0x2c
 9999 1f7d 09       		.uleb128 0x9
 10000 1f7e 52435200 		.ascii	"RCR\000"
 10001 1f82 20       		.byte	0x20
 10002 1f83 AB01     		.2byte	0x1ab
 10003 1f85 29010000 		.4byte	0x129
 10004 1f89 30       		.byte	0x30
 10005 1f8a 09       		.uleb128 0x9
 10006 1f8b 43435200 		.ascii	"CCR\000"
 10007 1f8f 20       		.byte	0x20
 10008 1f90 AC01     		.2byte	0x1ac
 10009 1f92 EE070000 		.4byte	0x7ee
 10010 1f96 34       		.byte	0x34
 10011 1f97 0A       		.uleb128 0xa
 10012 1f98 5F020000 		.4byte	.LASF141
 10013 1f9c 20       		.byte	0x20
 10014 1f9d AD01     		.2byte	0x1ad
 10015 1f9f 29010000 		.4byte	0x129
 10016 1fa3 44       		.byte	0x44
 10017 1fa4 09       		.uleb128 0x9
 10018 1fa5 44435200 		.ascii	"DCR\000"
 10019 1fa9 20       		.byte	0x20
 10020 1faa AE01     		.2byte	0x1ae
 10021 1fac 29010000 		.4byte	0x129
 10022 1fb0 48       		.byte	0x48
 10023 1fb1 0A       		.uleb128 0xa
 10024 1fb2 08210000 		.4byte	.LASF142
 10025 1fb6 20       		.byte	0x20
 10026 1fb7 AF01     		.2byte	0x1af
 10027 1fb9 29010000 		.4byte	0x129
 10028 1fbd 4C       		.byte	0x4c
 10029 1fbe 09       		.uleb128 0x9
 10030 1fbf 4F5200   		.ascii	"OR\000"
 10031 1fc2 20       		.byte	0x20
 10032 1fc3 B001     		.2byte	0x1b0
 10033 1fc5 29010000 		.4byte	0x129
 10034 1fc9 50       		.byte	0x50
 10035 1fca 0A       		.uleb128 0xa
 10036 1fcb DC390000 		.4byte	.LASF515
 10037 1fcf 20       		.byte	0x20
 10038 1fd0 B101     		.2byte	0x1b1
 10039 1fd2 29010000 		.4byte	0x129
 10040 1fd6 54       		.byte	0x54
 10041 1fd7 0A       		.uleb128 0xa
 10042 1fd8 82110000 		.4byte	.LASF516
 10043 1fdc 20       		.byte	0x20
 10044 1fdd B201     		.2byte	0x1b2
 10045 1fdf D9070000 		.4byte	0x7d9
 10046 1fe3 58       		.byte	0x58
 10047 1fe4 00       		.byte	0
 10048 1fe5 18       		.uleb128 0x18
 10049 1fe6 55300000 		.4byte	.LASF517
 10050 1fea 20       		.byte	0x20
 10051 1feb B301     		.2byte	0x1b3
 10052 1fed D91E0000 		.4byte	0x1ed9
 10053 1ff1 1F       		.uleb128 0x1f
 10054 1ff2 07       		.byte	0x7
ARM GAS  C:\Users\CHRIST~1\AppData\Local\Temp\ccb3oWGE.s 			page 179


 10055 1ff3 01       		.byte	0x1
 10056 1ff4 49000000 		.4byte	0x49
 10057 1ff8 1F       		.byte	0x1f
 10058 1ff9 EE       		.byte	0xee
 10059 1ffa 0B200000 		.4byte	0x200b
 10060 1ffe 20       		.uleb128 0x20
 10061 1fff 230B0000 		.4byte	.LASF518
 10062 2003 00       		.byte	0
 10063 2004 20       		.uleb128 0x20
 10064 2005 51280000 		.4byte	.LASF519
 10065 2009 01       		.byte	0x1
 10066 200a 00       		.byte	0
 10067 200b 03       		.uleb128 0x3
 10068 200c E7360000 		.4byte	.LASF520
 10069 2010 1F       		.byte	0x1f
 10070 2011 F1       		.byte	0xf1
 10071 2012 F11F0000 		.4byte	0x1ff1
 10072 2016 03       		.uleb128 0x3
 10073 2017 DB280000 		.4byte	.LASF521
 10074 201b 1F       		.byte	0x1f
 10075 201c F6       		.byte	0xf6
 10076 201d 1E010000 		.4byte	0x11e
 10077 2021 1F       		.uleb128 0x1f
 10078 2022 07       		.byte	0x7
 10079 2023 01       		.byte	0x1
 10080 2024 49000000 		.4byte	0x49
 10081 2028 1F       		.byte	0x1f
 10082 2029 FB       		.byte	0xfb
 10083 202a 3B200000 		.4byte	0x203b
 10084 202e 20       		.uleb128 0x20
 10085 202f 19270000 		.4byte	.LASF522
 10086 2033 00       		.byte	0
 10087 2034 20       		.uleb128 0x20
 10088 2035 A1300000 		.4byte	.LASF523
 10089 2039 01       		.byte	0x1
 10090 203a 00       		.byte	0
 10091 203b 03       		.uleb128 0x3
 10092 203c A6070000 		.4byte	.LASF524
 10093 2040 1F       		.byte	0x1f
 10094 2041 FE       		.byte	0xfe
 10095 2042 21200000 		.4byte	0x2021
 10096 2046 17       		.uleb128 0x17
 10097 2047 1C       		.byte	0x1c
 10098 2048 1F       		.byte	0x1f
 10099 2049 0901     		.2byte	0x109
 10100 204b AB200000 		.4byte	0x20ab
 10101 204f 0A       		.uleb128 0xa
 10102 2050 FF0A0000 		.4byte	.LASF525
 10103 2054 1F       		.byte	0x1f
 10104 2055 0D01     		.2byte	0x10d
 10105 2057 0B200000 		.4byte	0x200b
 10106 205b 00       		.byte	0
 10107 205c 0A       		.uleb128 0xa
 10108 205d A8380000 		.4byte	.LASF526
 10109 2061 1F       		.byte	0x1f
 10110 2062 1301     		.2byte	0x113
 10111 2064 16200000 		.4byte	0x2016
ARM GAS  C:\Users\CHRIST~1\AppData\Local\Temp\ccb3oWGE.s 			page 180


 10112 2068 04       		.byte	0x4
 10113 2069 0A       		.uleb128 0xa
 10114 206a 0C310000 		.4byte	.LASF527
 10115 206e 1F       		.byte	0x1f
 10116 206f 1701     		.2byte	0x117
 10117 2071 B71E0000 		.4byte	0x1eb7
 10118 2075 08       		.byte	0x8
 10119 2076 0A       		.uleb128 0xa
 10120 2077 18180000 		.4byte	.LASF528
 10121 207b 1F       		.byte	0x1f
 10122 207c 1B01     		.2byte	0x11b
 10123 207e B71E0000 		.4byte	0x1eb7
 10124 2082 0C       		.byte	0xc
 10125 2083 0A       		.uleb128 0xa
 10126 2084 600E0000 		.4byte	.LASF529
 10127 2088 1F       		.byte	0x1f
 10128 2089 1F01     		.2byte	0x11f
 10129 208b B71E0000 		.4byte	0x1eb7
 10130 208f 10       		.byte	0x10
 10131 2090 0A       		.uleb128 0xa
 10132 2091 0E190000 		.4byte	.LASF530
 10133 2095 1F       		.byte	0x1f
 10134 2096 2501     		.2byte	0x125
 10135 2098 3B200000 		.4byte	0x203b
 10136 209c 14       		.byte	0x14
 10137 209d 0A       		.uleb128 0xa
 10138 209e 3B100000 		.4byte	.LASF531
 10139 20a2 1F       		.byte	0x1f
 10140 20a3 2B01     		.2byte	0x12b
 10141 20a5 1E010000 		.4byte	0x11e
 10142 20a9 18       		.byte	0x18
 10143 20aa 00       		.byte	0
 10144 20ab 18       		.uleb128 0x18
 10145 20ac 5D250000 		.4byte	.LASF532
 10146 20b0 1F       		.byte	0x1f
 10147 20b1 2C01     		.2byte	0x12c
 10148 20b3 46200000 		.4byte	0x2046
 10149 20b7 06       		.uleb128 0x6
 10150 20b8 AB200000 		.4byte	0x20ab
 10151 20bc 0B       		.uleb128 0xb
 10152 20bd 04       		.byte	0x4
 10153 20be B7200000 		.4byte	0x20b7
 10154 20c2 0B       		.uleb128 0xb
 10155 20c3 04       		.byte	0x4
 10156 20c4 E51F0000 		.4byte	0x1fe5
 10157 20c8 13       		.uleb128 0x13
 10158 20c9 8E300000 		.4byte	.LASF533
 10159 20cd 1F       		.byte	0x1f
 10160 20ce 8601     		.2byte	0x186
 10161 20d0 501E0000 		.4byte	0x1e50
 10162 20d4 1F       		.uleb128 0x1f
 10163 20d5 07       		.byte	0x7
 10164 20d6 01       		.byte	0x1
 10165 20d7 49000000 		.4byte	0x49
 10166 20db 21       		.byte	0x21
 10167 20dc 46       		.byte	0x46
 10168 20dd 00210000 		.4byte	0x2100
ARM GAS  C:\Users\CHRIST~1\AppData\Local\Temp\ccb3oWGE.s 			page 181


 10169 20e1 20       		.uleb128 0x20
 10170 20e2 02090000 		.4byte	.LASF534
 10171 20e6 00       		.byte	0
 10172 20e7 20       		.uleb128 0x20
 10173 20e8 DF030000 		.4byte	.LASF535
 10174 20ec 01       		.byte	0x1
 10175 20ed 20       		.uleb128 0x20
 10176 20ee 45370000 		.4byte	.LASF536
 10177 20f2 02       		.byte	0x2
 10178 20f3 20       		.uleb128 0x20
 10179 20f4 A8180000 		.4byte	.LASF537
 10180 20f8 03       		.byte	0x3
 10181 20f9 20       		.uleb128 0x20
 10182 20fa CC1C0000 		.4byte	.LASF538
 10183 20fe 04       		.byte	0x4
 10184 20ff 00       		.byte	0
 10185 2100 03       		.uleb128 0x3
 10186 2101 5E040000 		.4byte	.LASF539
 10187 2105 21       		.byte	0x21
 10188 2106 4C       		.byte	0x4c
 10189 2107 D4200000 		.4byte	0x20d4
 10190 210b 18       		.uleb128 0x18
 10191 210c DB320000 		.4byte	.LASF540
 10192 2110 22       		.byte	0x22
 10193 2111 9601     		.2byte	0x196
 10194 2113 17210000 		.4byte	0x2117
 10195 2117 0C       		.uleb128 0xc
 10196 2118 DB320000 		.4byte	.LASF540
 10197 211c 30       		.byte	0x30
 10198 211d 22       		.byte	0x22
 10199 211e BA01     		.2byte	0x1ba
 10200 2120 9A210000 		.4byte	0x219a
 10201 2124 0A       		.uleb128 0xa
 10202 2125 B1200000 		.4byte	.LASF462
 10203 2129 22       		.byte	0x22
 10204 212a BE01     		.2byte	0x1be
 10205 212c 00210000 		.4byte	0x2100
 10206 2130 00       		.byte	0
 10207 2131 0A       		.uleb128 0xa
 10208 2132 4E360000 		.4byte	.LASF463
 10209 2136 22       		.byte	0x22
 10210 2137 C201     		.2byte	0x1c2
 10211 2139 0C220000 		.4byte	0x220c
 10212 213d 04       		.byte	0x4
 10213 213e 0A       		.uleb128 0xa
 10214 213f EA080000 		.4byte	.LASF497
 10215 2143 22       		.byte	0x22
 10216 2144 C701     		.2byte	0x1c7
 10217 2146 D7020000 		.4byte	0x2d7
 10218 214a 08       		.byte	0x8
 10219 214b 0A       		.uleb128 0xa
 10220 214c F0100000 		.4byte	.LASF496
 10221 2150 22       		.byte	0x22
 10222 2151 CD01     		.2byte	0x1cd
 10223 2153 5B0E0000 		.4byte	0xe5b
 10224 2157 0C       		.byte	0xc
 10225 2158 09       		.uleb128 0x9
ARM GAS  C:\Users\CHRIST~1\AppData\Local\Temp\ccb3oWGE.s 			page 182


 10226 2159 73706900 		.ascii	"spi\000"
 10227 215d 22       		.byte	0x22
 10228 215e D601     		.2byte	0x1d6
 10229 2160 12220000 		.4byte	0x2212
 10230 2164 1C       		.byte	0x1c
 10231 2165 0A       		.uleb128 0xa
 10232 2166 67010000 		.4byte	.LASF501
 10233 216a 22       		.byte	0x22
 10234 216b DA01     		.2byte	0x1da
 10235 216d 011E0000 		.4byte	0x1e01
 10236 2171 20       		.byte	0x20
 10237 2172 0A       		.uleb128 0xa
 10238 2173 B0020000 		.4byte	.LASF502
 10239 2177 22       		.byte	0x22
 10240 2178 DE01     		.2byte	0x1de
 10241 217a 011E0000 		.4byte	0x1e01
 10242 217e 24       		.byte	0x24
 10243 217f 0A       		.uleb128 0xa
 10244 2180 EB0A0000 		.4byte	.LASF499
 10245 2184 22       		.byte	0x22
 10246 2185 E201     		.2byte	0x1e2
 10247 2187 1E010000 		.4byte	0x11e
 10248 218b 28       		.byte	0x28
 10249 218c 0A       		.uleb128 0xa
 10250 218d 7C0B0000 		.4byte	.LASF500
 10251 2191 22       		.byte	0x22
 10252 2192 E601     		.2byte	0x1e6
 10253 2194 1E010000 		.4byte	0x11e
 10254 2198 2C       		.byte	0x2c
 10255 2199 00       		.byte	0
 10256 219a 18       		.uleb128 0x18
 10257 219b CE010000 		.4byte	.LASF541
 10258 219f 22       		.byte	0x22
 10259 21a0 9E01     		.2byte	0x19e
 10260 21a2 A6210000 		.4byte	0x21a6
 10261 21a6 0B       		.uleb128 0xb
 10262 21a7 04       		.byte	0x4
 10263 21a8 AC210000 		.4byte	0x21ac
 10264 21ac 0D       		.uleb128 0xd
 10265 21ad B7210000 		.4byte	0x21b7
 10266 21b1 0E       		.uleb128 0xe
 10267 21b2 B7210000 		.4byte	0x21b7
 10268 21b6 00       		.byte	0
 10269 21b7 0B       		.uleb128 0xb
 10270 21b8 04       		.byte	0x4
 10271 21b9 0B210000 		.4byte	0x210b
 10272 21bd 17       		.uleb128 0x17
 10273 21be 0C       		.byte	0xc
 10274 21bf 22       		.byte	0x22
 10275 21c0 A301     		.2byte	0x1a3
 10276 21c2 FB210000 		.4byte	0x21fb
 10277 21c6 0A       		.uleb128 0xa
 10278 21c7 EF0B0000 		.4byte	.LASF542
 10279 21cb 22       		.byte	0x22
 10280 21cc A701     		.2byte	0x1a7
 10281 21ce 9A210000 		.4byte	0x219a
 10282 21d2 00       		.byte	0
ARM GAS  C:\Users\CHRIST~1\AppData\Local\Temp\ccb3oWGE.s 			page 183


 10283 21d3 0A       		.uleb128 0xa
 10284 21d4 64380000 		.4byte	.LASF543
 10285 21d8 22       		.byte	0x22
 10286 21d9 AC01     		.2byte	0x1ac
 10287 21db 291B0000 		.4byte	0x1b29
 10288 21df 04       		.byte	0x4
 10289 21e0 0A       		.uleb128 0xa
 10290 21e1 760B0000 		.4byte	.LASF544
 10291 21e5 22       		.byte	0x22
 10292 21e6 B001     		.2byte	0x1b0
 10293 21e8 FE000000 		.4byte	0xfe
 10294 21ec 08       		.byte	0x8
 10295 21ed 09       		.uleb128 0x9
 10296 21ee 63723100 		.ascii	"cr1\000"
 10297 21f2 22       		.byte	0x22
 10298 21f3 B401     		.2byte	0x1b4
 10299 21f5 FE000000 		.4byte	0xfe
 10300 21f9 0A       		.byte	0xa
 10301 21fa 00       		.byte	0
 10302 21fb 18       		.uleb128 0x18
 10303 21fc EB320000 		.4byte	.LASF545
 10304 2200 22       		.byte	0x22
 10305 2201 B501     		.2byte	0x1b5
 10306 2203 BD210000 		.4byte	0x21bd
 10307 2207 06       		.uleb128 0x6
 10308 2208 FB210000 		.4byte	0x21fb
 10309 220c 0B       		.uleb128 0xb
 10310 220d 04       		.byte	0x4
 10311 220e 07220000 		.4byte	0x2207
 10312 2212 0B       		.uleb128 0xb
 10313 2213 04       		.byte	0x4
 10314 2214 07090000 		.4byte	0x907
 10315 2218 13       		.uleb128 0x13
 10316 2219 2C230000 		.4byte	.LASF546
 10317 221d 22       		.byte	0x22
 10318 221e F201     		.2byte	0x1f2
 10319 2220 0B210000 		.4byte	0x210b
 10320 2224 1F       		.uleb128 0x1f
 10321 2225 07       		.byte	0x7
 10322 2226 01       		.byte	0x1
 10323 2227 49000000 		.4byte	0x49
 10324 222b 23       		.byte	0x23
 10325 222c 3D       		.byte	0x3d
 10326 222d 44220000 		.4byte	0x2244
 10327 2231 20       		.uleb128 0x20
 10328 2232 E80F0000 		.4byte	.LASF547
 10329 2236 00       		.byte	0
 10330 2237 20       		.uleb128 0x20
 10331 2238 3C2B0000 		.4byte	.LASF548
 10332 223c 01       		.byte	0x1
 10333 223d 20       		.uleb128 0x20
 10334 223e AF1C0000 		.4byte	.LASF549
 10335 2242 02       		.byte	0x2
 10336 2243 00       		.byte	0
 10337 2244 03       		.uleb128 0x3
 10338 2245 37230000 		.4byte	.LASF550
 10339 2249 23       		.byte	0x23
ARM GAS  C:\Users\CHRIST~1\AppData\Local\Temp\ccb3oWGE.s 			page 184


 10340 224a 41       		.byte	0x41
 10341 224b 24220000 		.4byte	0x2224
 10342 224f 1F       		.uleb128 0x1f
 10343 2250 07       		.byte	0x7
 10344 2251 01       		.byte	0x1
 10345 2252 49000000 		.4byte	0x49
 10346 2256 23       		.byte	0x23
 10347 2257 46       		.byte	0x46
 10348 2258 6F220000 		.4byte	0x226f
 10349 225c 20       		.uleb128 0x20
 10350 225d CC000000 		.4byte	.LASF551
 10351 2261 00       		.byte	0
 10352 2262 20       		.uleb128 0x20
 10353 2263 010E0000 		.4byte	.LASF552
 10354 2267 01       		.byte	0x1
 10355 2268 20       		.uleb128 0x20
 10356 2269 D83B0000 		.4byte	.LASF553
 10357 226d 02       		.byte	0x2
 10358 226e 00       		.byte	0
 10359 226f 03       		.uleb128 0x3
 10360 2270 63350000 		.4byte	.LASF554
 10361 2274 23       		.byte	0x23
 10362 2275 4A       		.byte	0x4a
 10363 2276 4F220000 		.4byte	0x224f
 10364 227a 1F       		.uleb128 0x1f
 10365 227b 07       		.byte	0x7
 10366 227c 01       		.byte	0x1
 10367 227d 49000000 		.4byte	0x49
 10368 2281 23       		.byte	0x23
 10369 2282 4F       		.byte	0x4f
 10370 2283 9A220000 		.4byte	0x229a
 10371 2287 20       		.uleb128 0x20
 10372 2288 65210000 		.4byte	.LASF555
 10373 228c 00       		.byte	0
 10374 228d 20       		.uleb128 0x20
 10375 228e 6C0D0000 		.4byte	.LASF556
 10376 2292 01       		.byte	0x1
 10377 2293 20       		.uleb128 0x20
 10378 2294 E32F0000 		.4byte	.LASF557
 10379 2298 02       		.byte	0x2
 10380 2299 00       		.byte	0
 10381 229a 03       		.uleb128 0x3
 10382 229b F5330000 		.4byte	.LASF558
 10383 229f 23       		.byte	0x23
 10384 22a0 53       		.byte	0x53
 10385 22a1 7A220000 		.4byte	0x227a
 10386 22a5 18       		.uleb128 0x18
 10387 22a6 202B0000 		.4byte	.LASF559
 10388 22aa 24       		.byte	0x24
 10389 22ab B101     		.2byte	0x1b1
 10390 22ad 1E010000 		.4byte	0x11e
 10391 22b1 18       		.uleb128 0x18
 10392 22b2 DB1A0000 		.4byte	.LASF560
 10393 22b6 24       		.byte	0x24
 10394 22b7 B601     		.2byte	0x1b6
 10395 22b9 BD220000 		.4byte	0x22bd
 10396 22bd 0C       		.uleb128 0xc
ARM GAS  C:\Users\CHRIST~1\AppData\Local\Temp\ccb3oWGE.s 			page 185


 10397 22be DB1A0000 		.4byte	.LASF560
 10398 22c2 1C       		.byte	0x1c
 10399 22c3 24       		.byte	0x24
 10400 22c4 FE01     		.2byte	0x1fe
 10401 22c6 40230000 		.4byte	0x2340
 10402 22ca 0A       		.uleb128 0xa
 10403 22cb B1200000 		.4byte	.LASF462
 10404 22cf 24       		.byte	0x24
 10405 22d0 0202     		.2byte	0x202
 10406 22d2 44220000 		.4byte	0x2244
 10407 22d6 00       		.byte	0
 10408 22d7 0A       		.uleb128 0xa
 10409 22d8 E83A0000 		.4byte	.LASF561
 10410 22dc 24       		.byte	0x24
 10411 22dd 0602     		.2byte	0x206
 10412 22df 6F220000 		.4byte	0x226f
 10413 22e3 01       		.byte	0x1
 10414 22e4 0A       		.uleb128 0xa
 10415 22e5 AE1F0000 		.4byte	.LASF562
 10416 22e9 24       		.byte	0x24
 10417 22ea 0A02     		.2byte	0x20a
 10418 22ec 9A220000 		.4byte	0x229a
 10419 22f0 02       		.byte	0x2
 10420 22f1 0A       		.uleb128 0xa
 10421 22f2 4E360000 		.4byte	.LASF463
 10422 22f6 24       		.byte	0x24
 10423 22f7 0E02     		.2byte	0x20e
 10424 22f9 37240000 		.4byte	0x2437
 10425 22fd 04       		.byte	0x4
 10426 22fe 0A       		.uleb128 0xa
 10427 22ff D4260000 		.4byte	.LASF563
 10428 2303 24       		.byte	0x24
 10429 2304 1602     		.2byte	0x216
 10430 2306 3D240000 		.4byte	0x243d
 10431 230a 08       		.byte	0x8
 10432 230b 0A       		.uleb128 0xa
 10433 230c 1E230000 		.4byte	.LASF564
 10434 2310 24       		.byte	0x24
 10435 2311 1A02     		.2byte	0x21a
 10436 2313 1E010000 		.4byte	0x11e
 10437 2317 0C       		.byte	0xc
 10438 2318 0A       		.uleb128 0xa
 10439 2319 67010000 		.4byte	.LASF501
 10440 231d 24       		.byte	0x24
 10441 231e 1E02     		.2byte	0x21e
 10442 2320 011E0000 		.4byte	0x1e01
 10443 2324 10       		.byte	0x10
 10444 2325 0A       		.uleb128 0xa
 10445 2326 B0020000 		.4byte	.LASF502
 10446 232a 24       		.byte	0x24
 10447 232b 2202     		.2byte	0x222
 10448 232d 011E0000 		.4byte	0x1e01
 10449 2331 14       		.byte	0x14
 10450 2332 0A       		.uleb128 0xa
 10451 2333 3E0F0000 		.4byte	.LASF565
 10452 2337 24       		.byte	0x24
 10453 2338 2602     		.2byte	0x226
ARM GAS  C:\Users\CHRIST~1\AppData\Local\Temp\ccb3oWGE.s 			page 186


 10454 233a 09010000 		.4byte	0x109
 10455 233e 18       		.byte	0x18
 10456 233f 00       		.byte	0
 10457 2340 18       		.uleb128 0x18
 10458 2341 A7250000 		.4byte	.LASF566
 10459 2345 24       		.byte	0x24
 10460 2346 BD01     		.2byte	0x1bd
 10461 2348 4C230000 		.4byte	0x234c
 10462 234c 0B       		.uleb128 0xb
 10463 234d 04       		.byte	0x4
 10464 234e 52230000 		.4byte	0x2352
 10465 2352 0D       		.uleb128 0xd
 10466 2353 5D230000 		.4byte	0x235d
 10467 2357 0E       		.uleb128 0xe
 10468 2358 5D230000 		.4byte	0x235d
 10469 235c 00       		.byte	0
 10470 235d 0B       		.uleb128 0xb
 10471 235e 04       		.byte	0x4
 10472 235f B1220000 		.4byte	0x22b1
 10473 2363 18       		.uleb128 0x18
 10474 2364 6E1C0000 		.4byte	.LASF567
 10475 2368 24       		.byte	0x24
 10476 2369 C501     		.2byte	0x1c5
 10477 236b 6F230000 		.4byte	0x236f
 10478 236f 0B       		.uleb128 0xb
 10479 2370 04       		.byte	0x4
 10480 2371 75230000 		.4byte	0x2375
 10481 2375 0D       		.uleb128 0xd
 10482 2376 85230000 		.4byte	0x2385
 10483 237a 0E       		.uleb128 0xe
 10484 237b 5D230000 		.4byte	0x235d
 10485 237f 0E       		.uleb128 0xe
 10486 2380 FE000000 		.4byte	0xfe
 10487 2384 00       		.byte	0
 10488 2385 18       		.uleb128 0x18
 10489 2386 AF050000 		.4byte	.LASF568
 10490 238a 24       		.byte	0x24
 10491 238b CD01     		.2byte	0x1cd
 10492 238d 91230000 		.4byte	0x2391
 10493 2391 0B       		.uleb128 0xb
 10494 2392 04       		.byte	0x4
 10495 2393 97230000 		.4byte	0x2397
 10496 2397 0D       		.uleb128 0xd
 10497 2398 A7230000 		.4byte	0x23a7
 10498 239c 0E       		.uleb128 0xe
 10499 239d 5D230000 		.4byte	0x235d
 10500 23a1 0E       		.uleb128 0xe
 10501 23a2 A5220000 		.4byte	0x22a5
 10502 23a6 00       		.byte	0
 10503 23a7 17       		.uleb128 0x17
 10504 23a8 20       		.byte	0x20
 10505 23a9 24       		.byte	0x24
 10506 23aa D301     		.2byte	0x1d3
 10507 23ac 26240000 		.4byte	0x2426
 10508 23b0 0A       		.uleb128 0xa
 10509 23b1 511B0000 		.4byte	.LASF569
 10510 23b5 24       		.byte	0x24
ARM GAS  C:\Users\CHRIST~1\AppData\Local\Temp\ccb3oWGE.s 			page 187


 10511 23b6 D701     		.2byte	0x1d7
 10512 23b8 40230000 		.4byte	0x2340
 10513 23bc 00       		.byte	0
 10514 23bd 0A       		.uleb128 0xa
 10515 23be 952D0000 		.4byte	.LASF570
 10516 23c2 24       		.byte	0x24
 10517 23c3 DB01     		.2byte	0x1db
 10518 23c5 40230000 		.4byte	0x2340
 10519 23c9 04       		.byte	0x4
 10520 23ca 0A       		.uleb128 0xa
 10521 23cb 6E2B0000 		.4byte	.LASF571
 10522 23cf 24       		.byte	0x24
 10523 23d0 DF01     		.2byte	0x1df
 10524 23d2 40230000 		.4byte	0x2340
 10525 23d6 08       		.byte	0x8
 10526 23d7 0A       		.uleb128 0xa
 10527 23d8 B21B0000 		.4byte	.LASF572
 10528 23dc 24       		.byte	0x24
 10529 23dd E301     		.2byte	0x1e3
 10530 23df 63230000 		.4byte	0x2363
 10531 23e3 0C       		.byte	0xc
 10532 23e4 0A       		.uleb128 0xa
 10533 23e5 2F310000 		.4byte	.LASF573
 10534 23e9 24       		.byte	0x24
 10535 23ea E701     		.2byte	0x1e7
 10536 23ec 85230000 		.4byte	0x2385
 10537 23f0 10       		.byte	0x10
 10538 23f1 0A       		.uleb128 0xa
 10539 23f2 812D0000 		.4byte	.LASF574
 10540 23f6 24       		.byte	0x24
 10541 23f7 EC01     		.2byte	0x1ec
 10542 23f9 1E010000 		.4byte	0x11e
 10543 23fd 14       		.byte	0x14
 10544 23fe 09       		.uleb128 0x9
 10545 23ff 63723100 		.ascii	"cr1\000"
 10546 2403 24       		.byte	0x24
 10547 2404 F001     		.2byte	0x1f0
 10548 2406 FE000000 		.4byte	0xfe
 10549 240a 18       		.byte	0x18
 10550 240b 09       		.uleb128 0x9
 10551 240c 63723200 		.ascii	"cr2\000"
 10552 2410 24       		.byte	0x24
 10553 2411 F401     		.2byte	0x1f4
 10554 2413 FE000000 		.4byte	0xfe
 10555 2417 1A       		.byte	0x1a
 10556 2418 09       		.uleb128 0x9
 10557 2419 63723300 		.ascii	"cr3\000"
 10558 241d 24       		.byte	0x24
 10559 241e F801     		.2byte	0x1f8
 10560 2420 FE000000 		.4byte	0xfe
 10561 2424 1C       		.byte	0x1c
 10562 2425 00       		.byte	0
 10563 2426 18       		.uleb128 0x18
 10564 2427 EB1A0000 		.4byte	.LASF575
 10565 242b 24       		.byte	0x24
 10566 242c F901     		.2byte	0x1f9
 10567 242e A7230000 		.4byte	0x23a7
ARM GAS  C:\Users\CHRIST~1\AppData\Local\Temp\ccb3oWGE.s 			page 188


 10568 2432 06       		.uleb128 0x6
 10569 2433 26240000 		.4byte	0x2426
 10570 2437 0B       		.uleb128 0xb
 10571 2438 04       		.byte	0x4
 10572 2439 32240000 		.4byte	0x2432
 10573 243d 0B       		.uleb128 0xb
 10574 243e 04       		.byte	0x4
 10575 243f 9B0A0000 		.4byte	0xa9b
 10576 2443 13       		.uleb128 0x13
 10577 2444 5B1B0000 		.4byte	.LASF576
 10578 2448 24       		.byte	0x24
 10579 2449 3A02     		.2byte	0x23a
 10580 244b B1220000 		.4byte	0x22b1
 10581 244f 13       		.uleb128 0x13
 10582 2450 7D1B0000 		.4byte	.LASF577
 10583 2454 24       		.byte	0x24
 10584 2455 4602     		.2byte	0x246
 10585 2457 B1220000 		.4byte	0x22b1
 10586 245b 03       		.uleb128 0x3
 10587 245c EA180000 		.4byte	.LASF578
 10588 2460 25       		.byte	0x25
 10589 2461 FA       		.byte	0xfa
 10590 2462 66240000 		.4byte	0x2466
 10591 2466 10       		.uleb128 0x10
 10592 2467 EA180000 		.4byte	.LASF578
 10593 246b 8002     		.2byte	0x280
 10594 246d 26       		.byte	0x26
 10595 246e 7701     		.2byte	0x177
 10596 2470 92250000 		.4byte	0x2592
 10597 2474 0A       		.uleb128 0xa
 10598 2475 B1200000 		.4byte	.LASF462
 10599 2479 26       		.byte	0x26
 10600 247a 7B01     		.2byte	0x17b
 10601 247c CA250000 		.4byte	0x25ca
 10602 2480 00       		.byte	0
 10603 2481 0A       		.uleb128 0xa
 10604 2482 4E360000 		.4byte	.LASF463
 10605 2486 26       		.byte	0x26
 10606 2487 7F01     		.2byte	0x17f
 10607 2489 ED2E0000 		.4byte	0x2eed
 10608 248d 04       		.byte	0x4
 10609 248e 0A       		.uleb128 0xa
 10610 248f 3E330000 		.4byte	.LASF579
 10611 2493 26       		.byte	0x26
 10612 2494 8301     		.2byte	0x183
 10613 2496 FE000000 		.4byte	0xfe
 10614 249a 08       		.byte	0x8
 10615 249b 0A       		.uleb128 0xa
 10616 249c 97380000 		.4byte	.LASF580
 10617 24a0 26       		.byte	0x26
 10618 24a1 8701     		.2byte	0x187
 10619 24a3 FE000000 		.4byte	0xfe
 10620 24a7 0A       		.byte	0xa
 10621 24a8 09       		.uleb128 0x9
 10622 24a9 65706300 		.ascii	"epc\000"
 10623 24ad 26       		.byte	0x26
 10624 24ae 8B01     		.2byte	0x18b
ARM GAS  C:\Users\CHRIST~1\AppData\Local\Temp\ccb3oWGE.s 			page 189


 10625 24b0 F32E0000 		.4byte	0x2ef3
 10626 24b4 0C       		.byte	0xc
 10627 24b5 0A       		.uleb128 0xa
 10628 24b6 5E090000 		.4byte	.LASF581
 10629 24ba 26       		.byte	0x26
 10630 24bb 9201     		.2byte	0x192
 10631 24bd 092F0000 		.4byte	0x2f09
 10632 24c1 1C       		.byte	0x1c
 10633 24c2 0A       		.uleb128 0xa
 10634 24c3 04100000 		.4byte	.LASF582
 10635 24c7 26       		.byte	0x26
 10636 24c8 9901     		.2byte	0x199
 10637 24ca 092F0000 		.4byte	0x2f09
 10638 24ce 28       		.byte	0x28
 10639 24cf 0A       		.uleb128 0xa
 10640 24d0 7C0C0000 		.4byte	.LASF583
 10641 24d4 26       		.byte	0x26
 10642 24d5 9D01     		.2byte	0x19d
 10643 24d7 0F260000 		.4byte	0x260f
 10644 24db 34       		.byte	0x34
 10645 24dc 0A       		.uleb128 0xa
 10646 24dd 6A060000 		.4byte	.LASF584
 10647 24e1 26       		.byte	0x26
 10648 24e2 A101     		.2byte	0x1a1
 10649 24e4 840F0000 		.4byte	0xf84
 10650 24e8 38       		.byte	0x38
 10651 24e9 0A       		.uleb128 0xa
 10652 24ea 86220000 		.4byte	.LASF585
 10653 24ee 26       		.byte	0x26
 10654 24ef A501     		.2byte	0x1a5
 10655 24f1 39010000 		.4byte	0x139
 10656 24f5 3C       		.byte	0x3c
 10657 24f6 0A       		.uleb128 0xa
 10658 24f7 922E0000 		.4byte	.LASF586
 10659 24fb 26       		.byte	0x26
 10660 24fc A901     		.2byte	0x1a9
 10661 24fe 8F260000 		.4byte	0x268f
 10662 2502 40       		.byte	0x40
 10663 2503 0A       		.uleb128 0xa
 10664 2504 FC080000 		.4byte	.LASF587
 10665 2508 26       		.byte	0x26
 10666 2509 AD01     		.2byte	0x1ad
 10667 250b 70160000 		.4byte	0x1670
 10668 250f 44       		.byte	0x44
 10669 2510 0A       		.uleb128 0xa
 10670 2511 561F0000 		.4byte	.LASF588
 10671 2515 26       		.byte	0x26
 10672 2516 B101     		.2byte	0x1b1
 10673 2518 FE000000 		.4byte	0xfe
 10674 251c 4C       		.byte	0x4c
 10675 251d 0A       		.uleb128 0xa
 10676 251e 09200000 		.4byte	.LASF589
 10677 2522 26       		.byte	0x26
 10678 2523 B501     		.2byte	0x1b5
 10679 2525 D9000000 		.4byte	0xd9
 10680 2529 4E       		.byte	0x4e
 10681 252a 0A       		.uleb128 0xa
ARM GAS  C:\Users\CHRIST~1\AppData\Local\Temp\ccb3oWGE.s 			page 190


 10682 252b BA270000 		.4byte	.LASF590
 10683 252f 26       		.byte	0x26
 10684 2530 B901     		.2byte	0x1b9
 10685 2532 D9000000 		.4byte	0xd9
 10686 2536 4F       		.byte	0x4f
 10687 2537 09       		.uleb128 0x9
 10688 2538 6F746700 		.ascii	"otg\000"
 10689 253c 26       		.byte	0x26
 10690 253d C101     		.2byte	0x1c1
 10691 253f 192F0000 		.4byte	0x2f19
 10692 2543 50       		.byte	0x50
 10693 2544 0A       		.uleb128 0xa
 10694 2545 F2120000 		.4byte	.LASF591
 10695 2549 26       		.byte	0x26
 10696 254a C501     		.2byte	0x1c5
 10697 254c 1F2F0000 		.4byte	0x2f1f
 10698 2550 54       		.byte	0x54
 10699 2551 0A       		.uleb128 0xa
 10700 2552 77300000 		.4byte	.LASF592
 10701 2556 26       		.byte	0x26
 10702 2557 C901     		.2byte	0x1c9
 10703 2559 1E010000 		.4byte	0x11e
 10704 255d 58       		.byte	0x58
 10705 255e 0A       		.uleb128 0xa
 10706 255f 4E110000 		.4byte	.LASF593
 10707 2563 26       		.byte	0x26
 10708 2564 CD01     		.2byte	0x1cd
 10709 2566 1E010000 		.4byte	0x11e
 10710 256a 5C       		.byte	0x5c
 10711 256b 0A       		.uleb128 0xa
 10712 256c 5C0A0000 		.4byte	.LASF594
 10713 2570 26       		.byte	0x26
 10714 2571 D101     		.2byte	0x1d1
 10715 2573 D7020000 		.4byte	0x2d7
 10716 2577 60       		.byte	0x60
 10717 2578 09       		.uleb128 0x9
 10718 2579 747200   		.ascii	"tr\000"
 10719 257c 26       		.byte	0x26
 10720 257d D601     		.2byte	0x1d6
 10721 257f D7020000 		.4byte	0x2d7
 10722 2583 64       		.byte	0x64
 10723 2584 0A       		.uleb128 0xa
 10724 2585 EB1D0000 		.4byte	.LASF595
 10725 2589 26       		.byte	0x26
 10726 258a DA01     		.2byte	0x1da
 10727 258c 252F0000 		.4byte	0x2f25
 10728 2590 68       		.byte	0x68
 10729 2591 00       		.byte	0
 10730 2592 03       		.uleb128 0x3
 10731 2593 F8010000 		.4byte	.LASF596
 10732 2597 25       		.byte	0x25
 10733 2598 FF       		.byte	0xff
 10734 2599 D9000000 		.4byte	0xd9
 10735 259d 23       		.uleb128 0x23
 10736 259e 07       		.byte	0x7
 10737 259f 01       		.byte	0x1
 10738 25a0 49000000 		.4byte	0x49
ARM GAS  C:\Users\CHRIST~1\AppData\Local\Temp\ccb3oWGE.s 			page 191


 10739 25a4 25       		.byte	0x25
 10740 25a5 0401     		.2byte	0x104
 10741 25a7 CA250000 		.4byte	0x25ca
 10742 25ab 20       		.uleb128 0x20
 10743 25ac 2F3A0000 		.4byte	.LASF597
 10744 25b0 00       		.byte	0
 10745 25b1 20       		.uleb128 0x20
 10746 25b2 00000000 		.4byte	.LASF598
 10747 25b6 01       		.byte	0x1
 10748 25b7 20       		.uleb128 0x20
 10749 25b8 451C0000 		.4byte	.LASF599
 10750 25bc 02       		.byte	0x2
 10751 25bd 20       		.uleb128 0x20
 10752 25be B8240000 		.4byte	.LASF600
 10753 25c2 03       		.byte	0x3
 10754 25c3 20       		.uleb128 0x20
 10755 25c4 A40A0000 		.4byte	.LASF601
 10756 25c8 04       		.byte	0x4
 10757 25c9 00       		.byte	0
 10758 25ca 18       		.uleb128 0x18
 10759 25cb 9B330000 		.4byte	.LASF602
 10760 25cf 25       		.byte	0x25
 10761 25d0 0A01     		.2byte	0x10a
 10762 25d2 9D250000 		.4byte	0x259d
 10763 25d6 23       		.uleb128 0x23
 10764 25d7 07       		.byte	0x7
 10765 25d8 01       		.byte	0x1
 10766 25d9 49000000 		.4byte	0x49
 10767 25dd 25       		.byte	0x25
 10768 25de 1801     		.2byte	0x118
 10769 25e0 0F260000 		.4byte	0x260f
 10770 25e4 20       		.uleb128 0x20
 10771 25e5 0D2E0000 		.4byte	.LASF603
 10772 25e9 00       		.byte	0
 10773 25ea 20       		.uleb128 0x20
 10774 25eb E2150000 		.4byte	.LASF604
 10775 25ef 01       		.byte	0x1
 10776 25f0 20       		.uleb128 0x20
 10777 25f1 AA290000 		.4byte	.LASF605
 10778 25f5 02       		.byte	0x2
 10779 25f6 20       		.uleb128 0x20
 10780 25f7 C9200000 		.4byte	.LASF606
 10781 25fb 03       		.byte	0x3
 10782 25fc 20       		.uleb128 0x20
 10783 25fd FF1E0000 		.4byte	.LASF607
 10784 2601 04       		.byte	0x4
 10785 2602 20       		.uleb128 0x20
 10786 2603 F8170000 		.4byte	.LASF608
 10787 2607 05       		.byte	0x5
 10788 2608 20       		.uleb128 0x20
 10789 2609 6B140000 		.4byte	.LASF609
 10790 260d 06       		.byte	0x6
 10791 260e 00       		.byte	0
 10792 260f 18       		.uleb128 0x18
 10793 2610 8F180000 		.4byte	.LASF610
 10794 2614 25       		.byte	0x25
 10795 2615 2001     		.2byte	0x120
ARM GAS  C:\Users\CHRIST~1\AppData\Local\Temp\ccb3oWGE.s 			page 192


 10796 2617 D6250000 		.4byte	0x25d6
 10797 261b 23       		.uleb128 0x23
 10798 261c 07       		.byte	0x7
 10799 261d 01       		.byte	0x1
 10800 261e 49000000 		.4byte	0x49
 10801 2622 25       		.byte	0x25
 10802 2623 2501     		.2byte	0x125
 10803 2625 4E260000 		.4byte	0x264e
 10804 2629 20       		.uleb128 0x20
 10805 262a A2240000 		.4byte	.LASF611
 10806 262e 00       		.byte	0
 10807 262f 20       		.uleb128 0x20
 10808 2630 F7360000 		.4byte	.LASF612
 10809 2634 01       		.byte	0x1
 10810 2635 20       		.uleb128 0x20
 10811 2636 821D0000 		.4byte	.LASF613
 10812 263a 02       		.byte	0x2
 10813 263b 20       		.uleb128 0x20
 10814 263c 521E0000 		.4byte	.LASF614
 10815 2640 03       		.byte	0x3
 10816 2641 20       		.uleb128 0x20
 10817 2642 CE370000 		.4byte	.LASF615
 10818 2646 04       		.byte	0x4
 10819 2647 20       		.uleb128 0x20
 10820 2648 171D0000 		.4byte	.LASF616
 10821 264c 05       		.byte	0x5
 10822 264d 00       		.byte	0
 10823 264e 18       		.uleb128 0x18
 10824 264f 1B260000 		.4byte	.LASF617
 10825 2653 25       		.byte	0x25
 10826 2654 2C01     		.2byte	0x12c
 10827 2656 1B260000 		.4byte	0x261b
 10828 265a 17       		.uleb128 0x17
 10829 265b 08       		.byte	0x8
 10830 265c 25       		.byte	0x25
 10831 265d 3101     		.2byte	0x131
 10832 265f 7E260000 		.4byte	0x267e
 10833 2663 0A       		.uleb128 0xa
 10834 2664 583B0000 		.4byte	.LASF618
 10835 2668 25       		.byte	0x25
 10836 2669 3501     		.2byte	0x135
 10837 266b 39010000 		.4byte	0x139
 10838 266f 00       		.byte	0
 10839 2670 0A       		.uleb128 0xa
 10840 2671 09060000 		.4byte	.LASF619
 10841 2675 25       		.byte	0x25
 10842 2676 3901     		.2byte	0x139
 10843 2678 A00F0000 		.4byte	0xfa0
 10844 267c 04       		.byte	0x4
 10845 267d 00       		.byte	0
 10846 267e 18       		.uleb128 0x18
 10847 267f 851F0000 		.4byte	.LASF620
 10848 2683 25       		.byte	0x25
 10849 2684 3A01     		.2byte	0x13a
 10850 2686 5A260000 		.4byte	0x265a
 10851 268a 06       		.uleb128 0x6
 10852 268b 7E260000 		.4byte	0x267e
ARM GAS  C:\Users\CHRIST~1\AppData\Local\Temp\ccb3oWGE.s 			page 193


 10853 268f 18       		.uleb128 0x18
 10854 2690 8B3A0000 		.4byte	.LASF621
 10855 2694 25       		.byte	0x25
 10856 2695 4201     		.2byte	0x142
 10857 2697 9B260000 		.4byte	0x269b
 10858 269b 0B       		.uleb128 0xb
 10859 269c 04       		.byte	0x4
 10860 269d A1260000 		.4byte	0x26a1
 10861 26a1 0D       		.uleb128 0xd
 10862 26a2 AC260000 		.4byte	0x26ac
 10863 26a6 0E       		.uleb128 0xe
 10864 26a7 AC260000 		.4byte	0x26ac
 10865 26ab 00       		.byte	0
 10866 26ac 0B       		.uleb128 0xb
 10867 26ad 04       		.byte	0x4
 10868 26ae 5B240000 		.4byte	0x245b
 10869 26b2 18       		.uleb128 0x18
 10870 26b3 72060000 		.4byte	.LASF622
 10871 26b7 25       		.byte	0x25
 10872 26b8 4B01     		.2byte	0x14b
 10873 26ba BE260000 		.4byte	0x26be
 10874 26be 0B       		.uleb128 0xb
 10875 26bf 04       		.byte	0x4
 10876 26c0 C4260000 		.4byte	0x26c4
 10877 26c4 0D       		.uleb128 0xd
 10878 26c5 D4260000 		.4byte	0x26d4
 10879 26c9 0E       		.uleb128 0xe
 10880 26ca AC260000 		.4byte	0x26ac
 10881 26ce 0E       		.uleb128 0xe
 10882 26cf 92250000 		.4byte	0x2592
 10883 26d3 00       		.byte	0
 10884 26d4 18       		.uleb128 0x18
 10885 26d5 960E0000 		.4byte	.LASF623
 10886 26d9 25       		.byte	0x25
 10887 26da 5401     		.2byte	0x154
 10888 26dc E0260000 		.4byte	0x26e0
 10889 26e0 0B       		.uleb128 0xb
 10890 26e1 04       		.byte	0x4
 10891 26e2 E6260000 		.4byte	0x26e6
 10892 26e6 0D       		.uleb128 0xd
 10893 26e7 F6260000 		.4byte	0x26f6
 10894 26eb 0E       		.uleb128 0xe
 10895 26ec AC260000 		.4byte	0x26ac
 10896 26f0 0E       		.uleb128 0xe
 10897 26f1 4E260000 		.4byte	0x264e
 10898 26f5 00       		.byte	0
 10899 26f6 18       		.uleb128 0x18
 10900 26f7 33240000 		.4byte	.LASF624
 10901 26fb 25       		.byte	0x25
 10902 26fc 6001     		.2byte	0x160
 10903 26fe 02270000 		.4byte	0x2702
 10904 2702 0B       		.uleb128 0xb
 10905 2703 04       		.byte	0x4
 10906 2704 08270000 		.4byte	0x2708
 10907 2708 26       		.uleb128 0x26
 10908 2709 54160000 		.4byte	0x1654
 10909 270d 17270000 		.4byte	0x2717
ARM GAS  C:\Users\CHRIST~1\AppData\Local\Temp\ccb3oWGE.s 			page 194


 10910 2711 0E       		.uleb128 0xe
 10911 2712 AC260000 		.4byte	0x26ac
 10912 2716 00       		.byte	0
 10913 2717 18       		.uleb128 0x18
 10914 2718 84150000 		.4byte	.LASF625
 10915 271c 25       		.byte	0x25
 10916 271d 6501     		.2byte	0x165
 10917 271f 23270000 		.4byte	0x2723
 10918 2723 0B       		.uleb128 0xb
 10919 2724 04       		.byte	0x4
 10920 2725 29270000 		.4byte	0x2729
 10921 2729 26       		.uleb128 0x26
 10922 272a 47270000 		.4byte	0x2747
 10923 272e 47270000 		.4byte	0x2747
 10924 2732 0E       		.uleb128 0xe
 10925 2733 AC260000 		.4byte	0x26ac
 10926 2737 0E       		.uleb128 0xe
 10927 2738 D9000000 		.4byte	0xd9
 10928 273c 0E       		.uleb128 0xe
 10929 273d D9000000 		.4byte	0xd9
 10930 2741 0E       		.uleb128 0xe
 10931 2742 FE000000 		.4byte	0xfe
 10932 2746 00       		.byte	0
 10933 2747 0B       		.uleb128 0xb
 10934 2748 04       		.byte	0x4
 10935 2749 8A260000 		.4byte	0x268a
 10936 274d 15       		.uleb128 0x15
 10937 274e 20       		.byte	0x20
 10938 274f 27       		.byte	0x27
 10939 2750 35       		.byte	0x35
 10940 2751 B6270000 		.4byte	0x27b6
 10941 2755 08       		.uleb128 0x8
 10942 2756 86040000 		.4byte	.LASF626
 10943 275a 27       		.byte	0x27
 10944 275b 36       		.byte	0x36
 10945 275c 29010000 		.4byte	0x129
 10946 2760 00       		.byte	0
 10947 2761 08       		.uleb128 0x8
 10948 2762 AE110000 		.4byte	.LASF627
 10949 2766 27       		.byte	0x27
 10950 2767 38       		.byte	0x38
 10951 2768 29010000 		.4byte	0x129
 10952 276c 04       		.byte	0x4
 10953 276d 08       		.uleb128 0x8
 10954 276e A7030000 		.4byte	.LASF628
 10955 2772 27       		.byte	0x27
 10956 2773 39       		.byte	0x39
 10957 2774 29010000 		.4byte	0x129
 10958 2778 08       		.byte	0x8
 10959 2779 08       		.uleb128 0x8
 10960 277a AB2A0000 		.4byte	.LASF629
 10961 277e 27       		.byte	0x27
 10962 277f 3A       		.byte	0x3a
 10963 2780 29010000 		.4byte	0x129
 10964 2784 0C       		.byte	0xc
 10965 2785 08       		.uleb128 0x8
 10966 2786 7B1D0000 		.4byte	.LASF630
ARM GAS  C:\Users\CHRIST~1\AppData\Local\Temp\ccb3oWGE.s 			page 195


 10967 278a 27       		.byte	0x27
 10968 278b 3C       		.byte	0x3c
 10969 278c 29010000 		.4byte	0x129
 10970 2790 10       		.byte	0x10
 10971 2791 08       		.uleb128 0x8
 10972 2792 14120000 		.4byte	.LASF631
 10973 2796 27       		.byte	0x27
 10974 2797 3E       		.byte	0x3e
 10975 2798 29010000 		.4byte	0x129
 10976 279c 14       		.byte	0x14
 10977 279d 08       		.uleb128 0x8
 10978 279e 39120000 		.4byte	.LASF632
 10979 27a2 27       		.byte	0x27
 10980 27a3 3F       		.byte	0x3f
 10981 27a4 29010000 		.4byte	0x129
 10982 27a8 18       		.byte	0x18
 10983 27a9 08       		.uleb128 0x8
 10984 27aa 36330000 		.4byte	.LASF633
 10985 27ae 27       		.byte	0x27
 10986 27af 40       		.byte	0x40
 10987 27b0 29010000 		.4byte	0x129
 10988 27b4 1C       		.byte	0x1c
 10989 27b5 00       		.byte	0
 10990 27b6 03       		.uleb128 0x3
 10991 27b7 DC290000 		.4byte	.LASF634
 10992 27bb 27       		.byte	0x27
 10993 27bc 41       		.byte	0x41
 10994 27bd 4D270000 		.4byte	0x274d
 10995 27c1 15       		.uleb128 0x15
 10996 27c2 20       		.byte	0x20
 10997 27c3 27       		.byte	0x27
 10998 27c4 46       		.byte	0x46
 10999 27c5 2A280000 		.4byte	0x282a
 11000 27c9 08       		.uleb128 0x8
 11001 27ca C8120000 		.4byte	.LASF635
 11002 27ce 27       		.byte	0x27
 11003 27cf 47       		.byte	0x47
 11004 27d0 29010000 		.4byte	0x129
 11005 27d4 00       		.byte	0
 11006 27d5 08       		.uleb128 0x8
 11007 27d6 C9180000 		.4byte	.LASF636
 11008 27da 27       		.byte	0x27
 11009 27db 49       		.byte	0x49
 11010 27dc 29010000 		.4byte	0x129
 11011 27e0 04       		.byte	0x4
 11012 27e1 08       		.uleb128 0x8
 11013 27e2 78310000 		.4byte	.LASF637
 11014 27e6 27       		.byte	0x27
 11015 27e7 4A       		.byte	0x4a
 11016 27e8 29010000 		.4byte	0x129
 11017 27ec 08       		.byte	0x8
 11018 27ed 08       		.uleb128 0x8
 11019 27ee 07190000 		.4byte	.LASF638
 11020 27f2 27       		.byte	0x27
 11021 27f3 4C       		.byte	0x4c
 11022 27f4 29010000 		.4byte	0x129
 11023 27f8 0C       		.byte	0xc
ARM GAS  C:\Users\CHRIST~1\AppData\Local\Temp\ccb3oWGE.s 			page 196


 11024 27f9 08       		.uleb128 0x8
 11025 27fa A9210000 		.4byte	.LASF639
 11026 27fe 27       		.byte	0x27
 11027 27ff 4D       		.byte	0x4d
 11028 2800 29010000 		.4byte	0x129
 11029 2804 10       		.byte	0x10
 11030 2805 08       		.uleb128 0x8
 11031 2806 14120000 		.4byte	.LASF631
 11032 280a 27       		.byte	0x27
 11033 280b 4F       		.byte	0x4f
 11034 280c 29010000 		.4byte	0x129
 11035 2810 14       		.byte	0x14
 11036 2811 08       		.uleb128 0x8
 11037 2812 36090000 		.4byte	.LASF640
 11038 2816 27       		.byte	0x27
 11039 2817 50       		.byte	0x50
 11040 2818 29010000 		.4byte	0x129
 11041 281c 18       		.byte	0x18
 11042 281d 08       		.uleb128 0x8
 11043 281e 61310000 		.4byte	.LASF641
 11044 2822 27       		.byte	0x27
 11045 2823 52       		.byte	0x52
 11046 2824 29010000 		.4byte	0x129
 11047 2828 1C       		.byte	0x1c
 11048 2829 00       		.byte	0
 11049 282a 03       		.uleb128 0x3
 11050 282b D30A0000 		.4byte	.LASF642
 11051 282f 27       		.byte	0x27
 11052 2830 53       		.byte	0x53
 11053 2831 C1270000 		.4byte	0x27c1
 11054 2835 15       		.uleb128 0x15
 11055 2836 20       		.byte	0x20
 11056 2837 27       		.byte	0x27
 11057 2838 58       		.byte	0x58
 11058 2839 9E280000 		.4byte	0x289e
 11059 283d 08       		.uleb128 0x8
 11060 283e 7D2A0000 		.4byte	.LASF643
 11061 2842 27       		.byte	0x27
 11062 2843 59       		.byte	0x59
 11063 2844 29010000 		.4byte	0x129
 11064 2848 00       		.byte	0
 11065 2849 08       		.uleb128 0x8
 11066 284a C9180000 		.4byte	.LASF636
 11067 284e 27       		.byte	0x27
 11068 284f 5B       		.byte	0x5b
 11069 2850 29010000 		.4byte	0x129
 11070 2854 04       		.byte	0x4
 11071 2855 08       		.uleb128 0x8
 11072 2856 B3230000 		.4byte	.LASF644
 11073 285a 27       		.byte	0x27
 11074 285b 5C       		.byte	0x5c
 11075 285c 29010000 		.4byte	0x129
 11076 2860 08       		.byte	0x8
 11077 2861 08       		.uleb128 0x8
 11078 2862 07190000 		.4byte	.LASF638
 11079 2866 27       		.byte	0x27
 11080 2867 5E       		.byte	0x5e
ARM GAS  C:\Users\CHRIST~1\AppData\Local\Temp\ccb3oWGE.s 			page 197


 11081 2868 29010000 		.4byte	0x129
 11082 286c 0C       		.byte	0xc
 11083 286d 08       		.uleb128 0x8
 11084 286e A6330000 		.4byte	.LASF645
 11085 2872 27       		.byte	0x27
 11086 2873 5F       		.byte	0x5f
 11087 2874 29010000 		.4byte	0x129
 11088 2878 10       		.byte	0x10
 11089 2879 08       		.uleb128 0x8
 11090 287a 14120000 		.4byte	.LASF631
 11091 287e 27       		.byte	0x27
 11092 287f 61       		.byte	0x61
 11093 2880 29010000 		.4byte	0x129
 11094 2884 14       		.byte	0x14
 11095 2885 08       		.uleb128 0x8
 11096 2886 39120000 		.4byte	.LASF632
 11097 288a 27       		.byte	0x27
 11098 288b 62       		.byte	0x62
 11099 288c 29010000 		.4byte	0x129
 11100 2890 18       		.byte	0x18
 11101 2891 08       		.uleb128 0x8
 11102 2892 61310000 		.4byte	.LASF641
 11103 2896 27       		.byte	0x27
 11104 2897 63       		.byte	0x63
 11105 2898 29010000 		.4byte	0x129
 11106 289c 1C       		.byte	0x1c
 11107 289d 00       		.byte	0
 11108 289e 03       		.uleb128 0x3
 11109 289f 3C220000 		.4byte	.LASF646
 11110 28a3 27       		.byte	0x27
 11111 28a4 64       		.byte	0x64
 11112 28a5 35280000 		.4byte	0x2835
 11113 28a9 27       		.uleb128 0x27
 11114 28aa 00100100 		.4byte	0x11000
 11115 28ae 27       		.byte	0x27
 11116 28af 69       		.byte	0x69
 11117 28b0 862B0000 		.4byte	0x2b86
 11118 28b4 08       		.uleb128 0x8
 11119 28b5 62060000 		.4byte	.LASF647
 11120 28b9 27       		.byte	0x27
 11121 28ba 6A       		.byte	0x6a
 11122 28bb 29010000 		.4byte	0x129
 11123 28bf 00       		.byte	0
 11124 28c0 08       		.uleb128 0x8
 11125 28c1 E00F0000 		.4byte	.LASF648
 11126 28c5 27       		.byte	0x27
 11127 28c6 6B       		.byte	0x6b
 11128 28c7 29010000 		.4byte	0x129
 11129 28cb 04       		.byte	0x4
 11130 28cc 08       		.uleb128 0x8
 11131 28cd A3090000 		.4byte	.LASF649
 11132 28d1 27       		.byte	0x27
 11133 28d2 6C       		.byte	0x6c
 11134 28d3 29010000 		.4byte	0x129
 11135 28d7 08       		.byte	0x8
 11136 28d8 08       		.uleb128 0x8
 11137 28d9 B43A0000 		.4byte	.LASF650
ARM GAS  C:\Users\CHRIST~1\AppData\Local\Temp\ccb3oWGE.s 			page 198


 11138 28dd 27       		.byte	0x27
 11139 28de 6D       		.byte	0x6d
 11140 28df 29010000 		.4byte	0x129
 11141 28e3 0C       		.byte	0xc
 11142 28e4 08       		.uleb128 0x8
 11143 28e5 661C0000 		.4byte	.LASF651
 11144 28e9 27       		.byte	0x27
 11145 28ea 6E       		.byte	0x6e
 11146 28eb 29010000 		.4byte	0x129
 11147 28ef 10       		.byte	0x10
 11148 28f0 08       		.uleb128 0x8
 11149 28f1 440F0000 		.4byte	.LASF652
 11150 28f5 27       		.byte	0x27
 11151 28f6 6F       		.byte	0x6f
 11152 28f7 29010000 		.4byte	0x129
 11153 28fb 14       		.byte	0x14
 11154 28fc 08       		.uleb128 0x8
 11155 28fd 76270000 		.4byte	.LASF653
 11156 2901 27       		.byte	0x27
 11157 2902 70       		.byte	0x70
 11158 2903 29010000 		.4byte	0x129
 11159 2907 18       		.byte	0x18
 11160 2908 08       		.uleb128 0x8
 11161 2909 4F0A0000 		.4byte	.LASF654
 11162 290d 27       		.byte	0x27
 11163 290e 71       		.byte	0x71
 11164 290f 29010000 		.4byte	0x129
 11165 2913 1C       		.byte	0x1c
 11166 2914 08       		.uleb128 0x8
 11167 2915 470A0000 		.4byte	.LASF655
 11168 2919 27       		.byte	0x27
 11169 291a 73       		.byte	0x73
 11170 291b 29010000 		.4byte	0x129
 11171 291f 20       		.byte	0x20
 11172 2920 08       		.uleb128 0x8
 11173 2921 CC2E0000 		.4byte	.LASF656
 11174 2925 27       		.byte	0x27
 11175 2926 75       		.byte	0x75
 11176 2927 29010000 		.4byte	0x129
 11177 292b 24       		.byte	0x24
 11178 292c 08       		.uleb128 0x8
 11179 292d 20010000 		.4byte	.LASF657
 11180 2931 27       		.byte	0x27
 11181 2932 76       		.byte	0x76
 11182 2933 29010000 		.4byte	0x129
 11183 2937 28       		.byte	0x28
 11184 2938 08       		.uleb128 0x8
 11185 2939 8C270000 		.4byte	.LASF658
 11186 293d 27       		.byte	0x27
 11187 293e 78       		.byte	0x78
 11188 293f 29010000 		.4byte	0x129
 11189 2943 2C       		.byte	0x2c
 11190 2944 08       		.uleb128 0x8
 11191 2945 F6130000 		.4byte	.LASF659
 11192 2949 27       		.byte	0x27
 11193 294a 7A       		.byte	0x7a
 11194 294b 29010000 		.4byte	0x129
ARM GAS  C:\Users\CHRIST~1\AppData\Local\Temp\ccb3oWGE.s 			page 199


 11195 294f 30       		.byte	0x30
 11196 2950 08       		.uleb128 0x8
 11197 2951 05140000 		.4byte	.LASF660
 11198 2955 27       		.byte	0x27
 11199 2956 7B       		.byte	0x7b
 11200 2957 29010000 		.4byte	0x129
 11201 295b 34       		.byte	0x34
 11202 295c 08       		.uleb128 0x8
 11203 295d 48020000 		.4byte	.LASF661
 11204 2961 27       		.byte	0x27
 11205 2962 7C       		.byte	0x7c
 11206 2963 29010000 		.4byte	0x129
 11207 2967 38       		.byte	0x38
 11208 2968 16       		.uleb128 0x16
 11209 2969 43494400 		.ascii	"CID\000"
 11210 296d 27       		.byte	0x27
 11211 296e 7D       		.byte	0x7d
 11212 296f 29010000 		.4byte	0x129
 11213 2973 3C       		.byte	0x3c
 11214 2974 08       		.uleb128 0x8
 11215 2975 DB160000 		.4byte	.LASF662
 11216 2979 27       		.byte	0x27
 11217 297a 7E       		.byte	0x7e
 11218 297b 962B0000 		.4byte	0x2b96
 11219 297f 40       		.byte	0x40
 11220 2980 22       		.uleb128 0x22
 11221 2981 83360000 		.4byte	.LASF663
 11222 2985 27       		.byte	0x27
 11223 2986 7F       		.byte	0x7f
 11224 2987 29010000 		.4byte	0x129
 11225 298b 0001     		.2byte	0x100
 11226 298d 22       		.uleb128 0x22
 11227 298e F7020000 		.4byte	.LASF664
 11228 2992 27       		.byte	0x27
 11229 2993 81       		.byte	0x81
 11230 2994 B70A0000 		.4byte	0xab7
 11231 2998 0401     		.2byte	0x104
 11232 299a 22       		.uleb128 0x22
 11233 299b 021E0000 		.4byte	.LASF665
 11234 299f 27       		.byte	0x27
 11235 29a0 83       		.byte	0x83
 11236 29a1 AB2B0000 		.4byte	0x2bab
 11237 29a5 4001     		.2byte	0x140
 11238 29a7 22       		.uleb128 0x22
 11239 29a8 03230000 		.4byte	.LASF666
 11240 29ac 27       		.byte	0x27
 11241 29ad 84       		.byte	0x84
 11242 29ae 29010000 		.4byte	0x129
 11243 29b2 0004     		.2byte	0x400
 11244 29b4 22       		.uleb128 0x22
 11245 29b5 2A3A0000 		.4byte	.LASF667
 11246 29b9 27       		.byte	0x27
 11247 29ba 85       		.byte	0x85
 11248 29bb 29010000 		.4byte	0x129
 11249 29bf 0404     		.2byte	0x404
 11250 29c1 22       		.uleb128 0x22
 11251 29c2 B9050000 		.4byte	.LASF668
ARM GAS  C:\Users\CHRIST~1\AppData\Local\Temp\ccb3oWGE.s 			page 200


 11252 29c6 27       		.byte	0x27
 11253 29c7 86       		.byte	0x86
 11254 29c8 29010000 		.4byte	0x129
 11255 29cc 0804     		.2byte	0x408
 11256 29ce 22       		.uleb128 0x22
 11257 29cf 40100000 		.4byte	.LASF669
 11258 29d3 27       		.byte	0x27
 11259 29d4 88       		.byte	0x88
 11260 29d5 29010000 		.4byte	0x129
 11261 29d9 0C04     		.2byte	0x40c
 11262 29db 22       		.uleb128 0x22
 11263 29dc 23040000 		.4byte	.LASF670
 11264 29e0 27       		.byte	0x27
 11265 29e1 89       		.byte	0x89
 11266 29e2 29010000 		.4byte	0x129
 11267 29e6 1004     		.2byte	0x410
 11268 29e8 22       		.uleb128 0x22
 11269 29e9 67050000 		.4byte	.LASF671
 11270 29ed 27       		.byte	0x27
 11271 29ee 8B       		.byte	0x8b
 11272 29ef 29010000 		.4byte	0x129
 11273 29f3 1404     		.2byte	0x414
 11274 29f5 22       		.uleb128 0x22
 11275 29f6 FB0F0000 		.4byte	.LASF672
 11276 29fa 27       		.byte	0x27
 11277 29fb 8D       		.byte	0x8d
 11278 29fc 29010000 		.4byte	0x129
 11279 2a00 1804     		.2byte	0x418
 11280 2a02 22       		.uleb128 0x22
 11281 2a03 E72C0000 		.4byte	.LASF673
 11282 2a07 27       		.byte	0x27
 11283 2a08 8F       		.byte	0x8f
 11284 2a09 C02B0000 		.4byte	0x2bc0
 11285 2a0d 1C04     		.2byte	0x41c
 11286 2a0f 22       		.uleb128 0x22
 11287 2a10 57030000 		.4byte	.LASF674
 11288 2a14 27       		.byte	0x27
 11289 2a15 90       		.byte	0x90
 11290 2a16 29010000 		.4byte	0x129
 11291 2a1a 4004     		.2byte	0x440
 11292 2a1c 22       		.uleb128 0x22
 11293 2a1d B22F0000 		.4byte	.LASF675
 11294 2a21 27       		.byte	0x27
 11295 2a22 92       		.byte	0x92
 11296 2a23 D52B0000 		.4byte	0x2bd5
 11297 2a27 4404     		.2byte	0x444
 11298 2a29 28       		.uleb128 0x28
 11299 2a2a 686300   		.ascii	"hc\000"
 11300 2a2d 27       		.byte	0x27
 11301 2a2e 93       		.byte	0x93
 11302 2a2f DA2B0000 		.4byte	0x2bda
 11303 2a33 0005     		.2byte	0x500
 11304 2a35 22       		.uleb128 0x22
 11305 2a36 A0010000 		.4byte	.LASF676
 11306 2a3a 27       		.byte	0x27
 11307 2a3b 94       		.byte	0x94
 11308 2a3c FA2B0000 		.4byte	0x2bfa
ARM GAS  C:\Users\CHRIST~1\AppData\Local\Temp\ccb3oWGE.s 			page 201


 11309 2a40 0007     		.2byte	0x700
 11310 2a42 22       		.uleb128 0x22
 11311 2a43 372B0000 		.4byte	.LASF677
 11312 2a47 27       		.byte	0x27
 11313 2a48 95       		.byte	0x95
 11314 2a49 29010000 		.4byte	0x129
 11315 2a4d 0008     		.2byte	0x800
 11316 2a4f 22       		.uleb128 0x22
 11317 2a50 BB370000 		.4byte	.LASF678
 11318 2a54 27       		.byte	0x27
 11319 2a55 96       		.byte	0x96
 11320 2a56 29010000 		.4byte	0x129
 11321 2a5a 0408     		.2byte	0x804
 11322 2a5c 22       		.uleb128 0x22
 11323 2a5d C01A0000 		.4byte	.LASF679
 11324 2a61 27       		.byte	0x27
 11325 2a62 97       		.byte	0x97
 11326 2a63 29010000 		.4byte	0x129
 11327 2a67 0808     		.2byte	0x808
 11328 2a69 22       		.uleb128 0x22
 11329 2a6a 4B060000 		.4byte	.LASF680
 11330 2a6e 27       		.byte	0x27
 11331 2a6f 98       		.byte	0x98
 11332 2a70 29010000 		.4byte	0x129
 11333 2a74 0C08     		.2byte	0x80c
 11334 2a76 22       		.uleb128 0x22
 11335 2a77 D80F0000 		.4byte	.LASF681
 11336 2a7b 27       		.byte	0x27
 11337 2a7c 99       		.byte	0x99
 11338 2a7d 29010000 		.4byte	0x129
 11339 2a81 1008     		.2byte	0x810
 11340 2a83 22       		.uleb128 0x22
 11341 2a84 CF310000 		.4byte	.LASF682
 11342 2a88 27       		.byte	0x27
 11343 2a89 9B       		.byte	0x9b
 11344 2a8a 29010000 		.4byte	0x129
 11345 2a8e 1408     		.2byte	0x814
 11346 2a90 22       		.uleb128 0x22
 11347 2a91 E5320000 		.4byte	.LASF683
 11348 2a95 27       		.byte	0x27
 11349 2a96 9D       		.byte	0x9d
 11350 2a97 29010000 		.4byte	0x129
 11351 2a9b 1808     		.2byte	0x818
 11352 2a9d 22       		.uleb128 0x22
 11353 2a9e F52D0000 		.4byte	.LASF684
 11354 2aa2 27       		.byte	0x27
 11355 2aa3 9F       		.byte	0x9f
 11356 2aa4 29010000 		.4byte	0x129
 11357 2aa8 1C08     		.2byte	0x81c
 11358 2aaa 22       		.uleb128 0x22
 11359 2aab D3070000 		.4byte	.LASF685
 11360 2aaf 27       		.byte	0x27
 11361 2ab0 A1       		.byte	0xa1
 11362 2ab1 29010000 		.4byte	0x129
 11363 2ab5 2008     		.2byte	0x820
 11364 2ab7 22       		.uleb128 0x22
 11365 2ab8 B7060000 		.4byte	.LASF686
ARM GAS  C:\Users\CHRIST~1\AppData\Local\Temp\ccb3oWGE.s 			page 202


 11366 2abc 27       		.byte	0x27
 11367 2abd A2       		.byte	0xa2
 11368 2abe 29010000 		.4byte	0x129
 11369 2ac2 2408     		.2byte	0x824
 11370 2ac4 22       		.uleb128 0x22
 11371 2ac5 BE010000 		.4byte	.LASF687
 11372 2ac9 27       		.byte	0x27
 11373 2aca A3       		.byte	0xa3
 11374 2acb 29010000 		.4byte	0x129
 11375 2acf 2808     		.2byte	0x828
 11376 2ad1 22       		.uleb128 0x22
 11377 2ad2 F1080000 		.4byte	.LASF688
 11378 2ad6 27       		.byte	0x27
 11379 2ad7 A5       		.byte	0xa5
 11380 2ad8 29010000 		.4byte	0x129
 11381 2adc 2C08     		.2byte	0x82c
 11382 2ade 22       		.uleb128 0x22
 11383 2adf 8B080000 		.4byte	.LASF689
 11384 2ae3 27       		.byte	0x27
 11385 2ae4 A7       		.byte	0xa7
 11386 2ae5 29010000 		.4byte	0x129
 11387 2ae9 3008     		.2byte	0x830
 11388 2aeb 22       		.uleb128 0x22
 11389 2aec A4120000 		.4byte	.LASF690
 11390 2af0 27       		.byte	0x27
 11391 2af1 A8       		.byte	0xa8
 11392 2af2 29010000 		.4byte	0x129
 11393 2af6 3408     		.2byte	0x834
 11394 2af8 22       		.uleb128 0x22
 11395 2af9 9E080000 		.4byte	.LASF691
 11396 2afd 27       		.byte	0x27
 11397 2afe AA       		.byte	0xaa
 11398 2aff 29010000 		.4byte	0x129
 11399 2b03 3808     		.2byte	0x838
 11400 2b05 22       		.uleb128 0x22
 11401 2b06 E1080000 		.4byte	.LASF692
 11402 2b0a 27       		.byte	0x27
 11403 2b0b AB       		.byte	0xab
 11404 2b0c 29010000 		.4byte	0x129
 11405 2b10 3C08     		.2byte	0x83c
 11406 2b12 22       		.uleb128 0x22
 11407 2b13 B3090000 		.4byte	.LASF693
 11408 2b17 27       		.byte	0x27
 11409 2b18 AC       		.byte	0xac
 11410 2b19 0F2C0000 		.4byte	0x2c0f
 11411 2b1d 4008     		.2byte	0x840
 11412 2b1f 22       		.uleb128 0x22
 11413 2b20 CD170000 		.4byte	.LASF694
 11414 2b24 27       		.byte	0x27
 11415 2b25 AD       		.byte	0xad
 11416 2b26 0F2C0000 		.4byte	0x2c0f
 11417 2b2a 8008     		.2byte	0x880
 11418 2b2c 22       		.uleb128 0x22
 11419 2b2d F4180000 		.4byte	.LASF695
 11420 2b31 27       		.byte	0x27
 11421 2b32 AE       		.byte	0xae
 11422 2b33 0F2C0000 		.4byte	0x2c0f
ARM GAS  C:\Users\CHRIST~1\AppData\Local\Temp\ccb3oWGE.s 			page 203


 11423 2b37 C008     		.2byte	0x8c0
 11424 2b39 28       		.uleb128 0x28
 11425 2b3a 696500   		.ascii	"ie\000"
 11426 2b3d 27       		.byte	0x27
 11427 2b3e AF       		.byte	0xaf
 11428 2b3f 142C0000 		.4byte	0x2c14
 11429 2b43 0009     		.2byte	0x900
 11430 2b45 28       		.uleb128 0x28
 11431 2b46 6F6500   		.ascii	"oe\000"
 11432 2b49 27       		.byte	0x27
 11433 2b4a B0       		.byte	0xb0
 11434 2b4b 242C0000 		.4byte	0x2c24
 11435 2b4f 000B     		.2byte	0xb00
 11436 2b51 22       		.uleb128 0x22
 11437 2b52 2E0F0000 		.4byte	.LASF696
 11438 2b56 27       		.byte	0x27
 11439 2b57 B1       		.byte	0xb1
 11440 2b58 FA2B0000 		.4byte	0x2bfa
 11441 2b5c 000D     		.2byte	0xd00
 11442 2b5e 22       		.uleb128 0x22
 11443 2b5f C6370000 		.4byte	.LASF697
 11444 2b63 27       		.byte	0x27
 11445 2b64 B2       		.byte	0xb2
 11446 2b65 29010000 		.4byte	0x129
 11447 2b69 000E     		.2byte	0xe00
 11448 2b6b 22       		.uleb128 0x22
 11449 2b6c E8140000 		.4byte	.LASF698
 11450 2b70 27       		.byte	0x27
 11451 2b71 B4       		.byte	0xb4
 11452 2b72 442C0000 		.4byte	0x2c44
 11453 2b76 040E     		.2byte	0xe04
 11454 2b78 22       		.uleb128 0x22
 11455 2b79 68370000 		.4byte	.LASF699
 11456 2b7d 27       		.byte	0x27
 11457 2b7e B5       		.byte	0xb5
 11458 2b7f 602C0000 		.4byte	0x2c60
 11459 2b83 0010     		.2byte	0x1000
 11460 2b85 00       		.byte	0
 11461 2b86 11       		.uleb128 0x11
 11462 2b87 29010000 		.4byte	0x129
 11463 2b8b 962B0000 		.4byte	0x2b96
 11464 2b8f 12       		.uleb128 0x12
 11465 2b90 BD000000 		.4byte	0xbd
 11466 2b94 2F       		.byte	0x2f
 11467 2b95 00       		.byte	0
 11468 2b96 05       		.uleb128 0x5
 11469 2b97 862B0000 		.4byte	0x2b86
 11470 2b9b 11       		.uleb128 0x11
 11471 2b9c 29010000 		.4byte	0x129
 11472 2ba0 AB2B0000 		.4byte	0x2bab
 11473 2ba4 12       		.uleb128 0x12
 11474 2ba5 BD000000 		.4byte	0xbd
 11475 2ba9 AF       		.byte	0xaf
 11476 2baa 00       		.byte	0
 11477 2bab 05       		.uleb128 0x5
 11478 2bac 9B2B0000 		.4byte	0x2b9b
 11479 2bb0 11       		.uleb128 0x11
ARM GAS  C:\Users\CHRIST~1\AppData\Local\Temp\ccb3oWGE.s 			page 204


 11480 2bb1 29010000 		.4byte	0x129
 11481 2bb5 C02B0000 		.4byte	0x2bc0
 11482 2bb9 12       		.uleb128 0x12
 11483 2bba BD000000 		.4byte	0xbd
 11484 2bbe 08       		.byte	0x8
 11485 2bbf 00       		.byte	0
 11486 2bc0 05       		.uleb128 0x5
 11487 2bc1 B02B0000 		.4byte	0x2bb0
 11488 2bc5 11       		.uleb128 0x11
 11489 2bc6 29010000 		.4byte	0x129
 11490 2bca D52B0000 		.4byte	0x2bd5
 11491 2bce 12       		.uleb128 0x12
 11492 2bcf BD000000 		.4byte	0xbd
 11493 2bd3 2E       		.byte	0x2e
 11494 2bd4 00       		.byte	0
 11495 2bd5 05       		.uleb128 0x5
 11496 2bd6 C52B0000 		.4byte	0x2bc5
 11497 2bda 11       		.uleb128 0x11
 11498 2bdb B6270000 		.4byte	0x27b6
 11499 2bdf EA2B0000 		.4byte	0x2bea
 11500 2be3 12       		.uleb128 0x12
 11501 2be4 BD000000 		.4byte	0xbd
 11502 2be8 0F       		.byte	0xf
 11503 2be9 00       		.byte	0
 11504 2bea 11       		.uleb128 0x11
 11505 2beb 29010000 		.4byte	0x129
 11506 2bef FA2B0000 		.4byte	0x2bfa
 11507 2bf3 12       		.uleb128 0x12
 11508 2bf4 BD000000 		.4byte	0xbd
 11509 2bf8 3F       		.byte	0x3f
 11510 2bf9 00       		.byte	0
 11511 2bfa 05       		.uleb128 0x5
 11512 2bfb EA2B0000 		.4byte	0x2bea
 11513 2bff 11       		.uleb128 0x11
 11514 2c00 29010000 		.4byte	0x129
 11515 2c04 0F2C0000 		.4byte	0x2c0f
 11516 2c08 12       		.uleb128 0x12
 11517 2c09 BD000000 		.4byte	0xbd
 11518 2c0d 0F       		.byte	0xf
 11519 2c0e 00       		.byte	0
 11520 2c0f 05       		.uleb128 0x5
 11521 2c10 FF2B0000 		.4byte	0x2bff
 11522 2c14 11       		.uleb128 0x11
 11523 2c15 2A280000 		.4byte	0x282a
 11524 2c19 242C0000 		.4byte	0x2c24
 11525 2c1d 12       		.uleb128 0x12
 11526 2c1e BD000000 		.4byte	0xbd
 11527 2c22 0F       		.byte	0xf
 11528 2c23 00       		.byte	0
 11529 2c24 11       		.uleb128 0x11
 11530 2c25 9E280000 		.4byte	0x289e
 11531 2c29 342C0000 		.4byte	0x2c34
 11532 2c2d 12       		.uleb128 0x12
 11533 2c2e BD000000 		.4byte	0xbd
 11534 2c32 0F       		.byte	0xf
 11535 2c33 00       		.byte	0
 11536 2c34 11       		.uleb128 0x11
ARM GAS  C:\Users\CHRIST~1\AppData\Local\Temp\ccb3oWGE.s 			page 205


 11537 2c35 29010000 		.4byte	0x129
 11538 2c39 442C0000 		.4byte	0x2c44
 11539 2c3d 12       		.uleb128 0x12
 11540 2c3e BD000000 		.4byte	0xbd
 11541 2c42 7E       		.byte	0x7e
 11542 2c43 00       		.byte	0
 11543 2c44 05       		.uleb128 0x5
 11544 2c45 342C0000 		.4byte	0x2c34
 11545 2c49 11       		.uleb128 0x11
 11546 2c4a 29010000 		.4byte	0x129
 11547 2c4e 602C0000 		.4byte	0x2c60
 11548 2c52 12       		.uleb128 0x12
 11549 2c53 BD000000 		.4byte	0xbd
 11550 2c57 0F       		.byte	0xf
 11551 2c58 29       		.uleb128 0x29
 11552 2c59 BD000000 		.4byte	0xbd
 11553 2c5d FF03     		.2byte	0x3ff
 11554 2c5f 00       		.byte	0
 11555 2c60 05       		.uleb128 0x5
 11556 2c61 492C0000 		.4byte	0x2c49
 11557 2c65 03       		.uleb128 0x3
 11558 2c66 353B0000 		.4byte	.LASF700
 11559 2c6a 27       		.byte	0x27
 11560 2c6b B6       		.byte	0xb6
 11561 2c6c A9280000 		.4byte	0x28a9
 11562 2c70 15       		.uleb128 0x15
 11563 2c71 0C       		.byte	0xc
 11564 2c72 26       		.byte	0x26
 11565 2c73 C6       		.byte	0xc6
 11566 2c74 9D2C0000 		.4byte	0x2c9d
 11567 2c78 08       		.uleb128 0x8
 11568 2c79 CD0B0000 		.4byte	.LASF701
 11569 2c7d 26       		.byte	0x26
 11570 2c7e C7       		.byte	0xc7
 11571 2c7f 1E010000 		.4byte	0x11e
 11572 2c83 00       		.byte	0
 11573 2c84 08       		.uleb128 0x8
 11574 2c85 0E0F0000 		.4byte	.LASF702
 11575 2c89 26       		.byte	0x26
 11576 2c8a C8       		.byte	0xc8
 11577 2c8b 1E010000 		.4byte	0x11e
 11578 2c8f 04       		.byte	0x4
 11579 2c90 08       		.uleb128 0x8
 11580 2c91 F1140000 		.4byte	.LASF703
 11581 2c95 26       		.byte	0x26
 11582 2c96 C9       		.byte	0xc9
 11583 2c97 1E010000 		.4byte	0x11e
 11584 2c9b 08       		.byte	0x8
 11585 2c9c 00       		.byte	0
 11586 2c9d 03       		.uleb128 0x3
 11587 2c9e 1B0F0000 		.4byte	.LASF704
 11588 2ca2 26       		.byte	0x26
 11589 2ca3 CA       		.byte	0xca
 11590 2ca4 702C0000 		.4byte	0x2c70
 11591 2ca8 06       		.uleb128 0x6
 11592 2ca9 9D2C0000 		.4byte	0x2c9d
 11593 2cad 15       		.uleb128 0x15
ARM GAS  C:\Users\CHRIST~1\AppData\Local\Temp\ccb3oWGE.s 			page 206


 11594 2cae 04       		.byte	0x4
 11595 2caf 26       		.byte	0x26
 11596 2cb0 DD       		.byte	0xdd
 11597 2cb1 C22C0000 		.4byte	0x2cc2
 11598 2cb5 08       		.uleb128 0x8
 11599 2cb6 C0370000 		.4byte	.LASF705
 11600 2cba 26       		.byte	0x26
 11601 2cbb E1       		.byte	0xe1
 11602 2cbc A00F0000 		.4byte	0xfa0
 11603 2cc0 00       		.byte	0
 11604 2cc1 00       		.byte	0
 11605 2cc2 15       		.uleb128 0x15
 11606 2cc3 04       		.byte	0x4
 11607 2cc4 26       		.byte	0x26
 11608 2cc5 E3       		.byte	0xe3
 11609 2cc6 D72C0000 		.4byte	0x2cd7
 11610 2cca 08       		.uleb128 0x8
 11611 2ccb 450C0000 		.4byte	.LASF464
 11612 2ccf 26       		.byte	0x26
 11613 2cd0 E7       		.byte	0xe7
 11614 2cd1 D72C0000 		.4byte	0x2cd7
 11615 2cd5 00       		.byte	0
 11616 2cd6 00       		.byte	0
 11617 2cd7 0B       		.uleb128 0xb
 11618 2cd8 04       		.byte	0x4
 11619 2cd9 950F0000 		.4byte	0xf95
 11620 2cdd 1C       		.uleb128 0x1c
 11621 2cde 04       		.byte	0x4
 11622 2cdf 26       		.byte	0x26
 11623 2ce0 DC       		.byte	0xdc
 11624 2ce1 FC2C0000 		.4byte	0x2cfc
 11625 2ce5 2A       		.uleb128 0x2a
 11626 2ce6 11300000 		.4byte	.LASF706
 11627 2cea 26       		.byte	0x26
 11628 2ceb E2       		.byte	0xe2
 11629 2cec AD2C0000 		.4byte	0x2cad
 11630 2cf0 2A       		.uleb128 0x2a
 11631 2cf1 582E0000 		.4byte	.LASF707
 11632 2cf5 26       		.byte	0x26
 11633 2cf6 E8       		.byte	0xe8
 11634 2cf7 C22C0000 		.4byte	0x2cc2
 11635 2cfb 00       		.byte	0
 11636 2cfc 15       		.uleb128 0x15
 11637 2cfd 14       		.byte	0x14
 11638 2cfe 26       		.byte	0x26
 11639 2cff CF       		.byte	0xcf
 11640 2d00 412D0000 		.4byte	0x2d41
 11641 2d04 08       		.uleb128 0x8
 11642 2d05 160A0000 		.4byte	.LASF708
 11643 2d09 26       		.byte	0x26
 11644 2d0a D3       		.byte	0xd3
 11645 2d0b 54160000 		.4byte	0x1654
 11646 2d0f 00       		.byte	0
 11647 2d10 08       		.uleb128 0x8
 11648 2d11 2D1B0000 		.4byte	.LASF709
 11649 2d15 26       		.byte	0x26
 11650 2d16 D7       		.byte	0xd7
ARM GAS  C:\Users\CHRIST~1\AppData\Local\Temp\ccb3oWGE.s 			page 207


 11651 2d17 39010000 		.4byte	0x139
 11652 2d1b 04       		.byte	0x4
 11653 2d1c 08       		.uleb128 0x8
 11654 2d1d F1360000 		.4byte	.LASF710
 11655 2d21 26       		.byte	0x26
 11656 2d22 DB       		.byte	0xdb
 11657 2d23 39010000 		.4byte	0x139
 11658 2d27 08       		.byte	0x8
 11659 2d28 08       		.uleb128 0x8
 11660 2d29 FF0A0000 		.4byte	.LASF525
 11661 2d2d 26       		.byte	0x26
 11662 2d2e E9       		.byte	0xe9
 11663 2d2f DD2C0000 		.4byte	0x2cdd
 11664 2d33 0C       		.byte	0xc
 11665 2d34 08       		.uleb128 0x8
 11666 2d35 34150000 		.4byte	.LASF711
 11667 2d39 26       		.byte	0x26
 11668 2d3a ED       		.byte	0xed
 11669 2d3b 39010000 		.4byte	0x139
 11670 2d3f 10       		.byte	0x10
 11671 2d40 00       		.byte	0
 11672 2d41 03       		.uleb128 0x3
 11673 2d42 E3160000 		.4byte	.LASF712
 11674 2d46 26       		.byte	0x26
 11675 2d47 EE       		.byte	0xee
 11676 2d48 FC2C0000 		.4byte	0x2cfc
 11677 2d4c 17       		.uleb128 0x17
 11678 2d4d 04       		.byte	0x4
 11679 2d4e 26       		.byte	0x26
 11680 2d4f 0101     		.2byte	0x101
 11681 2d51 632D0000 		.4byte	0x2d63
 11682 2d55 0A       		.uleb128 0xa
 11683 2d56 3E0F0000 		.4byte	.LASF565
 11684 2d5a 26       		.byte	0x26
 11685 2d5b 0501     		.2byte	0x105
 11686 2d5d 840F0000 		.4byte	0xf84
 11687 2d61 00       		.byte	0
 11688 2d62 00       		.byte	0
 11689 2d63 17       		.uleb128 0x17
 11690 2d64 04       		.byte	0x4
 11691 2d65 26       		.byte	0x26
 11692 2d66 0701     		.2byte	0x107
 11693 2d68 7A2D0000 		.4byte	0x2d7a
 11694 2d6c 0A       		.uleb128 0xa
 11695 2d6d AA2F0000 		.4byte	.LASF465
 11696 2d71 26       		.byte	0x26
 11697 2d72 0B01     		.2byte	0x10b
 11698 2d74 7A2D0000 		.4byte	0x2d7a
 11699 2d78 00       		.byte	0
 11700 2d79 00       		.byte	0
 11701 2d7a 0B       		.uleb128 0xb
 11702 2d7b 04       		.byte	0x4
 11703 2d7c 8A0F0000 		.4byte	0xf8a
 11704 2d80 2B       		.uleb128 0x2b
 11705 2d81 04       		.byte	0x4
 11706 2d82 26       		.byte	0x26
 11707 2d83 0001     		.2byte	0x100
ARM GAS  C:\Users\CHRIST~1\AppData\Local\Temp\ccb3oWGE.s 			page 208


 11708 2d85 A22D0000 		.4byte	0x2da2
 11709 2d89 1D       		.uleb128 0x1d
 11710 2d8a 11300000 		.4byte	.LASF706
 11711 2d8e 26       		.byte	0x26
 11712 2d8f 0601     		.2byte	0x106
 11713 2d91 4C2D0000 		.4byte	0x2d4c
 11714 2d95 1D       		.uleb128 0x1d
 11715 2d96 582E0000 		.4byte	.LASF707
 11716 2d9a 26       		.byte	0x26
 11717 2d9b 0C01     		.2byte	0x10c
 11718 2d9d 632D0000 		.4byte	0x2d63
 11719 2da1 00       		.byte	0
 11720 2da2 15       		.uleb128 0x15
 11721 2da3 14       		.byte	0x14
 11722 2da4 26       		.byte	0x26
 11723 2da5 F3       		.byte	0xf3
 11724 2da6 E92D0000 		.4byte	0x2de9
 11725 2daa 08       		.uleb128 0x8
 11726 2dab 7D070000 		.4byte	.LASF713
 11727 2daf 26       		.byte	0x26
 11728 2db0 F7       		.byte	0xf7
 11729 2db1 54160000 		.4byte	0x1654
 11730 2db5 00       		.byte	0
 11731 2db6 08       		.uleb128 0x8
 11732 2db7 681D0000 		.4byte	.LASF714
 11733 2dbb 26       		.byte	0x26
 11734 2dbc FB       		.byte	0xfb
 11735 2dbd 39010000 		.4byte	0x139
 11736 2dc1 04       		.byte	0x4
 11737 2dc2 08       		.uleb128 0x8
 11738 2dc3 E50A0000 		.4byte	.LASF715
 11739 2dc7 26       		.byte	0x26
 11740 2dc8 FF       		.byte	0xff
 11741 2dc9 39010000 		.4byte	0x139
 11742 2dcd 08       		.byte	0x8
 11743 2dce 0A       		.uleb128 0xa
 11744 2dcf FF0A0000 		.4byte	.LASF525
 11745 2dd3 26       		.byte	0x26
 11746 2dd4 0D01     		.2byte	0x10d
 11747 2dd6 802D0000 		.4byte	0x2d80
 11748 2dda 0C       		.byte	0xc
 11749 2ddb 0A       		.uleb128 0xa
 11750 2ddc 34150000 		.4byte	.LASF711
 11751 2de0 26       		.byte	0x26
 11752 2de1 1101     		.2byte	0x111
 11753 2de3 39010000 		.4byte	0x139
 11754 2de7 10       		.byte	0x10
 11755 2de8 00       		.byte	0
 11756 2de9 18       		.uleb128 0x18
 11757 2dea C22C0000 		.4byte	.LASF716
 11758 2dee 26       		.byte	0x26
 11759 2def 1201     		.2byte	0x112
 11760 2df1 A22D0000 		.4byte	0x2da2
 11761 2df5 17       		.uleb128 0x17
 11762 2df6 24       		.byte	0x24
 11763 2df7 26       		.byte	0x26
 11764 2df8 1801     		.2byte	0x118
ARM GAS  C:\Users\CHRIST~1\AppData\Local\Temp\ccb3oWGE.s 			page 209


 11765 2dfa 812E0000 		.4byte	0x2e81
 11766 2dfe 0A       		.uleb128 0xa
 11767 2dff 21220000 		.4byte	.LASF717
 11768 2e03 26       		.byte	0x26
 11769 2e04 1C01     		.2byte	0x11c
 11770 2e06 1E010000 		.4byte	0x11e
 11771 2e0a 00       		.byte	0
 11772 2e0b 0A       		.uleb128 0xa
 11773 2e0c 080C0000 		.4byte	.LASF718
 11774 2e10 26       		.byte	0x26
 11775 2e11 2701     		.2byte	0x127
 11776 2e13 B2260000 		.4byte	0x26b2
 11777 2e17 04       		.byte	0x4
 11778 2e18 0A       		.uleb128 0xa
 11779 2e19 97230000 		.4byte	.LASF719
 11780 2e1d 26       		.byte	0x26
 11781 2e1e 2D01     		.2byte	0x12d
 11782 2e20 B2260000 		.4byte	0x26b2
 11783 2e24 08       		.byte	0x8
 11784 2e25 0A       		.uleb128 0xa
 11785 2e26 F40F0000 		.4byte	.LASF720
 11786 2e2a 26       		.byte	0x26
 11787 2e2b 3301     		.2byte	0x133
 11788 2e2d B2260000 		.4byte	0x26b2
 11789 2e31 0C       		.byte	0xc
 11790 2e32 0A       		.uleb128 0xa
 11791 2e33 C63B0000 		.4byte	.LASF721
 11792 2e37 26       		.byte	0x26
 11793 2e38 3901     		.2byte	0x139
 11794 2e3a FE000000 		.4byte	0xfe
 11795 2e3e 10       		.byte	0x10
 11796 2e3f 0A       		.uleb128 0xa
 11797 2e40 3E160000 		.4byte	.LASF722
 11798 2e44 26       		.byte	0x26
 11799 2e45 3F01     		.2byte	0x13f
 11800 2e47 FE000000 		.4byte	0xfe
 11801 2e4b 12       		.byte	0x12
 11802 2e4c 0A       		.uleb128 0xa
 11803 2e4d 25390000 		.4byte	.LASF723
 11804 2e51 26       		.byte	0x26
 11805 2e52 4401     		.2byte	0x144
 11806 2e54 812E0000 		.4byte	0x2e81
 11807 2e58 14       		.byte	0x14
 11808 2e59 0A       		.uleb128 0xa
 11809 2e5a 3A130000 		.4byte	.LASF724
 11810 2e5e 26       		.byte	0x26
 11811 2e5f 4901     		.2byte	0x149
 11812 2e61 872E0000 		.4byte	0x2e87
 11813 2e65 18       		.byte	0x18
 11814 2e66 0A       		.uleb128 0xa
 11815 2e67 D8190000 		.4byte	.LASF725
 11816 2e6b 26       		.byte	0x26
 11817 2e6c 5001     		.2byte	0x150
 11818 2e6e FE000000 		.4byte	0xfe
 11819 2e72 1C       		.byte	0x1c
 11820 2e73 0A       		.uleb128 0xa
 11821 2e74 38380000 		.4byte	.LASF726
ARM GAS  C:\Users\CHRIST~1\AppData\Local\Temp\ccb3oWGE.s 			page 210


 11822 2e78 26       		.byte	0x26
 11823 2e79 5601     		.2byte	0x156
 11824 2e7b 840F0000 		.4byte	0xf84
 11825 2e7f 20       		.byte	0x20
 11826 2e80 00       		.byte	0
 11827 2e81 0B       		.uleb128 0xb
 11828 2e82 04       		.byte	0x4
 11829 2e83 412D0000 		.4byte	0x2d41
 11830 2e87 0B       		.uleb128 0xb
 11831 2e88 04       		.byte	0x4
 11832 2e89 E92D0000 		.4byte	0x2de9
 11833 2e8d 18       		.uleb128 0x18
 11834 2e8e 982F0000 		.4byte	.LASF727
 11835 2e92 26       		.byte	0x26
 11836 2e93 5701     		.2byte	0x157
 11837 2e95 F52D0000 		.4byte	0x2df5
 11838 2e99 06       		.uleb128 0x6
 11839 2e9a 8D2E0000 		.4byte	0x2e8d
 11840 2e9e 17       		.uleb128 0x17
 11841 2e9f 10       		.byte	0x10
 11842 2ea0 26       		.byte	0x26
 11843 2ea1 5C01     		.2byte	0x15c
 11844 2ea3 DC2E0000 		.4byte	0x2edc
 11845 2ea7 0A       		.uleb128 0xa
 11846 2ea8 54060000 		.4byte	.LASF728
 11847 2eac 26       		.byte	0x26
 11848 2ead 6101     		.2byte	0x161
 11849 2eaf D4260000 		.4byte	0x26d4
 11850 2eb3 00       		.byte	0
 11851 2eb4 0A       		.uleb128 0xa
 11852 2eb5 09370000 		.4byte	.LASF729
 11853 2eb9 26       		.byte	0x26
 11854 2eba 6601     		.2byte	0x166
 11855 2ebc 17270000 		.4byte	0x2717
 11856 2ec0 04       		.byte	0x4
 11857 2ec1 0A       		.uleb128 0xa
 11858 2ec2 021B0000 		.4byte	.LASF730
 11859 2ec6 26       		.byte	0x26
 11860 2ec7 6C01     		.2byte	0x16c
 11861 2ec9 F6260000 		.4byte	0x26f6
 11862 2ecd 08       		.byte	0x8
 11863 2ece 0A       		.uleb128 0xa
 11864 2ecf B6020000 		.4byte	.LASF731
 11865 2ed3 26       		.byte	0x26
 11866 2ed4 7001     		.2byte	0x170
 11867 2ed6 8F260000 		.4byte	0x268f
 11868 2eda 0C       		.byte	0xc
 11869 2edb 00       		.byte	0
 11870 2edc 18       		.uleb128 0x18
 11871 2edd FD180000 		.4byte	.LASF732
 11872 2ee1 26       		.byte	0x26
 11873 2ee2 7201     		.2byte	0x172
 11874 2ee4 9E2E0000 		.4byte	0x2e9e
 11875 2ee8 06       		.uleb128 0x6
 11876 2ee9 DC2E0000 		.4byte	0x2edc
 11877 2eed 0B       		.uleb128 0xb
 11878 2eee 04       		.byte	0x4
ARM GAS  C:\Users\CHRIST~1\AppData\Local\Temp\ccb3oWGE.s 			page 211


 11879 2eef E82E0000 		.4byte	0x2ee8
 11880 2ef3 11       		.uleb128 0x11
 11881 2ef4 032F0000 		.4byte	0x2f03
 11882 2ef8 032F0000 		.4byte	0x2f03
 11883 2efc 12       		.uleb128 0x12
 11884 2efd BD000000 		.4byte	0xbd
 11885 2f01 03       		.byte	0x3
 11886 2f02 00       		.byte	0
 11887 2f03 0B       		.uleb128 0xb
 11888 2f04 04       		.byte	0x4
 11889 2f05 992E0000 		.4byte	0x2e99
 11890 2f09 11       		.uleb128 0x11
 11891 2f0a BF030000 		.4byte	0x3bf
 11892 2f0e 192F0000 		.4byte	0x2f19
 11893 2f12 12       		.uleb128 0x12
 11894 2f13 BD000000 		.4byte	0xbd
 11895 2f17 02       		.byte	0x2
 11896 2f18 00       		.byte	0
 11897 2f19 0B       		.uleb128 0xb
 11898 2f1a 04       		.byte	0x4
 11899 2f1b 652C0000 		.4byte	0x2c65
 11900 2f1f 0B       		.uleb128 0xb
 11901 2f20 04       		.byte	0x4
 11902 2f21 A82C0000 		.4byte	0x2ca8
 11903 2f25 11       		.uleb128 0x11
 11904 2f26 C70A0000 		.4byte	0xac7
 11905 2f2a 352F0000 		.4byte	0x2f35
 11906 2f2e 12       		.uleb128 0x12
 11907 2f2f BD000000 		.4byte	0xbd
 11908 2f33 42       		.byte	0x42
 11909 2f34 00       		.byte	0
 11910 2f35 13       		.uleb128 0x13
 11911 2f36 29010000 		.4byte	.LASF733
 11912 2f3a 26       		.byte	0x26
 11913 2f3b 0602     		.2byte	0x206
 11914 2f3d 5B240000 		.4byte	0x245b
 11915 2f41 03       		.uleb128 0x3
 11916 2f42 AB090000 		.4byte	.LASF734
 11917 2f46 28       		.byte	0x28
 11918 2f47 22       		.byte	0x22
 11919 2f48 4C2F0000 		.4byte	0x2f4c
 11920 2f4c 0B       		.uleb128 0xb
 11921 2f4d 04       		.byte	0x4
 11922 2f4e 522F0000 		.4byte	0x2f52
 11923 2f52 2C       		.uleb128 0x2c
 11924 2f53 34070000 		.4byte	.LASF840
 11925 2f57 03       		.uleb128 0x3
 11926 2f58 99110000 		.4byte	.LASF735
 11927 2f5c 29       		.byte	0x29
 11928 2f5d 2C       		.byte	0x2c
 11929 2f5e 7F000000 		.4byte	0x7f
 11930 2f62 03       		.uleb128 0x3
 11931 2f63 C62B0000 		.4byte	.LASF736
 11932 2f67 29       		.byte	0x29
 11933 2f68 72       		.byte	0x72
 11934 2f69 7F000000 		.4byte	0x7f
 11935 2f6d 18       		.uleb128 0x18
ARM GAS  C:\Users\CHRIST~1\AppData\Local\Temp\ccb3oWGE.s 			page 212


 11936 2f6e 97140000 		.4byte	.LASF737
 11937 2f72 06       		.byte	0x6
 11938 2f73 6501     		.2byte	0x165
 11939 2f75 BD000000 		.4byte	0xbd
 11940 2f79 1C       		.uleb128 0x1c
 11941 2f7a 04       		.byte	0x4
 11942 2f7b 29       		.byte	0x29
 11943 2f7c A6       		.byte	0xa6
 11944 2f7d 982F0000 		.4byte	0x2f98
 11945 2f81 2A       		.uleb128 0x2a
 11946 2f82 72210000 		.4byte	.LASF738
 11947 2f86 29       		.byte	0x29
 11948 2f87 A8       		.byte	0xa8
 11949 2f88 6D2F0000 		.4byte	0x2f6d
 11950 2f8c 2A       		.uleb128 0x2a
 11951 2f8d FE130000 		.4byte	.LASF739
 11952 2f91 29       		.byte	0x29
 11953 2f92 A9       		.byte	0xa9
 11954 2f93 982F0000 		.4byte	0x2f98
 11955 2f97 00       		.byte	0
 11956 2f98 11       		.uleb128 0x11
 11957 2f99 49000000 		.4byte	0x49
 11958 2f9d A82F0000 		.4byte	0x2fa8
 11959 2fa1 12       		.uleb128 0x12
 11960 2fa2 BD000000 		.4byte	0xbd
 11961 2fa6 03       		.byte	0x3
 11962 2fa7 00       		.byte	0
 11963 2fa8 15       		.uleb128 0x15
 11964 2fa9 08       		.byte	0x8
 11965 2faa 29       		.byte	0x29
 11966 2fab A3       		.byte	0xa3
 11967 2fac C92F0000 		.4byte	0x2fc9
 11968 2fb0 08       		.uleb128 0x8
 11969 2fb1 E7110000 		.4byte	.LASF740
 11970 2fb5 29       		.byte	0x29
 11971 2fb6 A5       		.byte	0xa5
 11972 2fb7 B1000000 		.4byte	0xb1
 11973 2fbb 00       		.byte	0
 11974 2fbc 08       		.uleb128 0x8
 11975 2fbd 78210000 		.4byte	.LASF741
 11976 2fc1 29       		.byte	0x29
 11977 2fc2 AA       		.byte	0xaa
 11978 2fc3 792F0000 		.4byte	0x2f79
 11979 2fc7 04       		.byte	0x4
 11980 2fc8 00       		.byte	0
 11981 2fc9 03       		.uleb128 0x3
 11982 2fca 012D0000 		.4byte	.LASF742
 11983 2fce 29       		.byte	0x29
 11984 2fcf AB       		.byte	0xab
 11985 2fd0 A82F0000 		.4byte	0x2fa8
 11986 2fd4 03       		.uleb128 0x3
 11987 2fd5 03340000 		.4byte	.LASF743
 11988 2fd9 29       		.byte	0x29
 11989 2fda AF       		.byte	0xaf
 11990 2fdb 412F0000 		.4byte	0x2f41
 11991 2fdf 0B       		.uleb128 0xb
 11992 2fe0 04       		.byte	0x4
ARM GAS  C:\Users\CHRIST~1\AppData\Local\Temp\ccb3oWGE.s 			page 213


 11993 2fe1 220D0000 		.4byte	0xd22
 11994 2fe5 03       		.uleb128 0x3
 11995 2fe6 BA1C0000 		.4byte	.LASF744
 11996 2fea 2A       		.byte	0x2a
 11997 2feb 16       		.byte	0x16
 11998 2fec 91000000 		.4byte	0x91
 11999 2ff0 07       		.uleb128 0x7
 12000 2ff1 47270000 		.4byte	.LASF745
 12001 2ff5 18       		.byte	0x18
 12002 2ff6 2A       		.byte	0x2a
 12003 2ff7 2F       		.byte	0x2f
 12004 2ff8 43300000 		.4byte	0x3043
 12005 2ffc 08       		.uleb128 0x8
 12006 2ffd B9170000 		.4byte	.LASF746
 12007 3001 2A       		.byte	0x2a
 12008 3002 31       		.byte	0x31
 12009 3003 43300000 		.4byte	0x3043
 12010 3007 00       		.byte	0
 12011 3008 16       		.uleb128 0x16
 12012 3009 5F6B00   		.ascii	"_k\000"
 12013 300c 2A       		.byte	0x2a
 12014 300d 32       		.byte	0x32
 12015 300e B1000000 		.4byte	0xb1
 12016 3012 04       		.byte	0x4
 12017 3013 08       		.uleb128 0x8
 12018 3014 2B240000 		.4byte	.LASF747
 12019 3018 2A       		.byte	0x2a
 12020 3019 32       		.byte	0x32
 12021 301a B1000000 		.4byte	0xb1
 12022 301e 08       		.byte	0x8
 12023 301f 08       		.uleb128 0x8
 12024 3020 5B240000 		.4byte	.LASF748
 12025 3024 2A       		.byte	0x2a
 12026 3025 32       		.byte	0x32
 12027 3026 B1000000 		.4byte	0xb1
 12028 302a 0C       		.byte	0xc
 12029 302b 08       		.uleb128 0x8
 12030 302c 960C0000 		.4byte	.LASF749
 12031 3030 2A       		.byte	0x2a
 12032 3031 32       		.byte	0x32
 12033 3032 B1000000 		.4byte	0xb1
 12034 3036 10       		.byte	0x10
 12035 3037 16       		.uleb128 0x16
 12036 3038 5F7800   		.ascii	"_x\000"
 12037 303b 2A       		.byte	0x2a
 12038 303c 33       		.byte	0x33
 12039 303d 49300000 		.4byte	0x3049
 12040 3041 14       		.byte	0x14
 12041 3042 00       		.byte	0
 12042 3043 0B       		.uleb128 0xb
 12043 3044 04       		.byte	0x4
 12044 3045 F02F0000 		.4byte	0x2ff0
 12045 3049 11       		.uleb128 0x11
 12046 304a E52F0000 		.4byte	0x2fe5
 12047 304e 59300000 		.4byte	0x3059
 12048 3052 12       		.uleb128 0x12
 12049 3053 BD000000 		.4byte	0xbd
ARM GAS  C:\Users\CHRIST~1\AppData\Local\Temp\ccb3oWGE.s 			page 214


 12050 3057 00       		.byte	0
 12051 3058 00       		.byte	0
 12052 3059 07       		.uleb128 0x7
 12053 305a F9280000 		.4byte	.LASF750
 12054 305e 24       		.byte	0x24
 12055 305f 2A       		.byte	0x2a
 12056 3060 37       		.byte	0x37
 12057 3061 D2300000 		.4byte	0x30d2
 12058 3065 08       		.uleb128 0x8
 12059 3066 CF0F0000 		.4byte	.LASF751
 12060 306a 2A       		.byte	0x2a
 12061 306b 39       		.byte	0x39
 12062 306c B1000000 		.4byte	0xb1
 12063 3070 00       		.byte	0
 12064 3071 08       		.uleb128 0x8
 12065 3072 830E0000 		.4byte	.LASF752
 12066 3076 2A       		.byte	0x2a
 12067 3077 3A       		.byte	0x3a
 12068 3078 B1000000 		.4byte	0xb1
 12069 307c 04       		.byte	0x4
 12070 307d 08       		.uleb128 0x8
 12071 307e 39140000 		.4byte	.LASF753
 12072 3082 2A       		.byte	0x2a
 12073 3083 3B       		.byte	0x3b
 12074 3084 B1000000 		.4byte	0xb1
 12075 3088 08       		.byte	0x8
 12076 3089 08       		.uleb128 0x8
 12077 308a 1C160000 		.4byte	.LASF754
 12078 308e 2A       		.byte	0x2a
 12079 308f 3C       		.byte	0x3c
 12080 3090 B1000000 		.4byte	0xb1
 12081 3094 0C       		.byte	0xc
 12082 3095 08       		.uleb128 0x8
 12083 3096 00020000 		.4byte	.LASF755
 12084 309a 2A       		.byte	0x2a
 12085 309b 3D       		.byte	0x3d
 12086 309c B1000000 		.4byte	0xb1
 12087 30a0 10       		.byte	0x10
 12088 30a1 08       		.uleb128 0x8
 12089 30a2 C00E0000 		.4byte	.LASF756
 12090 30a6 2A       		.byte	0x2a
 12091 30a7 3E       		.byte	0x3e
 12092 30a8 B1000000 		.4byte	0xb1
 12093 30ac 14       		.byte	0x14
 12094 30ad 08       		.uleb128 0x8
 12095 30ae 9E0B0000 		.4byte	.LASF757
 12096 30b2 2A       		.byte	0x2a
 12097 30b3 3F       		.byte	0x3f
 12098 30b4 B1000000 		.4byte	0xb1
 12099 30b8 18       		.byte	0x18
 12100 30b9 08       		.uleb128 0x8
 12101 30ba 54090000 		.4byte	.LASF758
 12102 30be 2A       		.byte	0x2a
 12103 30bf 40       		.byte	0x40
 12104 30c0 B1000000 		.4byte	0xb1
 12105 30c4 1C       		.byte	0x1c
 12106 30c5 08       		.uleb128 0x8
ARM GAS  C:\Users\CHRIST~1\AppData\Local\Temp\ccb3oWGE.s 			page 215


 12107 30c6 B70B0000 		.4byte	.LASF759
 12108 30ca 2A       		.byte	0x2a
 12109 30cb 41       		.byte	0x41
 12110 30cc B1000000 		.4byte	0xb1
 12111 30d0 20       		.byte	0x20
 12112 30d1 00       		.byte	0
 12113 30d2 2D       		.uleb128 0x2d
 12114 30d3 271A0000 		.4byte	.LASF760
 12115 30d7 0801     		.2byte	0x108
 12116 30d9 2A       		.byte	0x2a
 12117 30da 4A       		.byte	0x4a
 12118 30db 12310000 		.4byte	0x3112
 12119 30df 08       		.uleb128 0x8
 12120 30e0 6F160000 		.4byte	.LASF761
 12121 30e4 2A       		.byte	0x2a
 12122 30e5 4B       		.byte	0x4b
 12123 30e6 12310000 		.4byte	0x3112
 12124 30ea 00       		.byte	0
 12125 30eb 08       		.uleb128 0x8
 12126 30ec 8D040000 		.4byte	.LASF762
 12127 30f0 2A       		.byte	0x2a
 12128 30f1 4C       		.byte	0x4c
 12129 30f2 12310000 		.4byte	0x3112
 12130 30f6 80       		.byte	0x80
 12131 30f7 22       		.uleb128 0x22
 12132 30f8 09020000 		.4byte	.LASF763
 12133 30fc 2A       		.byte	0x2a
 12134 30fd 4E       		.byte	0x4e
 12135 30fe E52F0000 		.4byte	0x2fe5
 12136 3102 0001     		.2byte	0x100
 12137 3104 22       		.uleb128 0x22
 12138 3105 232E0000 		.4byte	.LASF764
 12139 3109 2A       		.byte	0x2a
 12140 310a 51       		.byte	0x51
 12141 310b E52F0000 		.4byte	0x2fe5
 12142 310f 0401     		.2byte	0x104
 12143 3111 00       		.byte	0
 12144 3112 11       		.uleb128 0x11
 12145 3113 BF030000 		.4byte	0x3bf
 12146 3117 22310000 		.4byte	0x3122
 12147 311b 12       		.uleb128 0x12
 12148 311c BD000000 		.4byte	0xbd
 12149 3120 1F       		.byte	0x1f
 12150 3121 00       		.byte	0
 12151 3122 2D       		.uleb128 0x2d
 12152 3123 76010000 		.4byte	.LASF765
 12153 3127 9001     		.2byte	0x190
 12154 3129 2A       		.byte	0x2a
 12155 312a 5D       		.byte	0x5d
 12156 312b 60310000 		.4byte	0x3160
 12157 312f 08       		.uleb128 0x8
 12158 3130 B9170000 		.4byte	.LASF746
 12159 3134 2A       		.byte	0x2a
 12160 3135 5E       		.byte	0x5e
 12161 3136 60310000 		.4byte	0x3160
 12162 313a 00       		.byte	0
 12163 313b 08       		.uleb128 0x8
ARM GAS  C:\Users\CHRIST~1\AppData\Local\Temp\ccb3oWGE.s 			page 216


 12164 313c 43020000 		.4byte	.LASF766
 12165 3140 2A       		.byte	0x2a
 12166 3141 5F       		.byte	0x5f
 12167 3142 B1000000 		.4byte	0xb1
 12168 3146 04       		.byte	0x4
 12169 3147 08       		.uleb128 0x8
 12170 3148 4D2C0000 		.4byte	.LASF767
 12171 314c 2A       		.byte	0x2a
 12172 314d 61       		.byte	0x61
 12173 314e 66310000 		.4byte	0x3166
 12174 3152 08       		.byte	0x8
 12175 3153 08       		.uleb128 0x8
 12176 3154 271A0000 		.4byte	.LASF760
 12177 3158 2A       		.byte	0x2a
 12178 3159 62       		.byte	0x62
 12179 315a D2300000 		.4byte	0x30d2
 12180 315e 88       		.byte	0x88
 12181 315f 00       		.byte	0
 12182 3160 0B       		.uleb128 0xb
 12183 3161 04       		.byte	0x4
 12184 3162 22310000 		.4byte	0x3122
 12185 3166 11       		.uleb128 0x11
 12186 3167 76310000 		.4byte	0x3176
 12187 316b 76310000 		.4byte	0x3176
 12188 316f 12       		.uleb128 0x12
 12189 3170 BD000000 		.4byte	0xbd
 12190 3174 1F       		.byte	0x1f
 12191 3175 00       		.byte	0
 12192 3176 0B       		.uleb128 0xb
 12193 3177 04       		.byte	0x4
 12194 3178 7C310000 		.4byte	0x317c
 12195 317c 2E       		.uleb128 0x2e
 12196 317d 07       		.uleb128 0x7
 12197 317e C2200000 		.4byte	.LASF768
 12198 3182 08       		.byte	0x8
 12199 3183 2A       		.byte	0x2a
 12200 3184 75       		.byte	0x75
 12201 3185 A2310000 		.4byte	0x31a2
 12202 3189 08       		.uleb128 0x8
 12203 318a BA1A0000 		.4byte	.LASF769
 12204 318e 2A       		.byte	0x2a
 12205 318f 76       		.byte	0x76
 12206 3190 A2310000 		.4byte	0x31a2
 12207 3194 00       		.byte	0
 12208 3195 08       		.uleb128 0x8
 12209 3196 A30D0000 		.4byte	.LASF770
 12210 319a 2A       		.byte	0x2a
 12211 319b 77       		.byte	0x77
 12212 319c B1000000 		.4byte	0xb1
 12213 31a0 04       		.byte	0x4
 12214 31a1 00       		.byte	0
 12215 31a2 0B       		.uleb128 0xb
 12216 31a3 04       		.byte	0x4
 12217 31a4 49000000 		.4byte	0x49
 12218 31a8 07       		.uleb128 0x7
 12219 31a9 2B2C0000 		.4byte	.LASF771
 12220 31ad 68       		.byte	0x68
ARM GAS  C:\Users\CHRIST~1\AppData\Local\Temp\ccb3oWGE.s 			page 217


 12221 31ae 2A       		.byte	0x2a
 12222 31af B5       		.byte	0xb5
 12223 31b0 D2320000 		.4byte	0x32d2
 12224 31b4 16       		.uleb128 0x16
 12225 31b5 5F7000   		.ascii	"_p\000"
 12226 31b8 2A       		.byte	0x2a
 12227 31b9 B6       		.byte	0xb6
 12228 31ba A2310000 		.4byte	0x31a2
 12229 31be 00       		.byte	0
 12230 31bf 16       		.uleb128 0x16
 12231 31c0 5F7200   		.ascii	"_r\000"
 12232 31c3 2A       		.byte	0x2a
 12233 31c4 B7       		.byte	0xb7
 12234 31c5 B1000000 		.4byte	0xb1
 12235 31c9 04       		.byte	0x4
 12236 31ca 16       		.uleb128 0x16
 12237 31cb 5F7700   		.ascii	"_w\000"
 12238 31ce 2A       		.byte	0x2a
 12239 31cf B8       		.byte	0xb8
 12240 31d0 B1000000 		.4byte	0xb1
 12241 31d4 08       		.byte	0x8
 12242 31d5 08       		.uleb128 0x8
 12243 31d6 D1020000 		.4byte	.LASF772
 12244 31da 2A       		.byte	0x2a
 12245 31db B9       		.byte	0xb9
 12246 31dc 5B000000 		.4byte	0x5b
 12247 31e0 0C       		.byte	0xc
 12248 31e1 08       		.uleb128 0x8
 12249 31e2 CE2B0000 		.4byte	.LASF773
 12250 31e6 2A       		.byte	0x2a
 12251 31e7 BA       		.byte	0xba
 12252 31e8 5B000000 		.4byte	0x5b
 12253 31ec 0E       		.byte	0xe
 12254 31ed 16       		.uleb128 0x16
 12255 31ee 5F626600 		.ascii	"_bf\000"
 12256 31f2 2A       		.byte	0x2a
 12257 31f3 BB       		.byte	0xbb
 12258 31f4 7D310000 		.4byte	0x317d
 12259 31f8 10       		.byte	0x10
 12260 31f9 08       		.uleb128 0x8
 12261 31fa 00060000 		.4byte	.LASF774
 12262 31fe 2A       		.byte	0x2a
 12263 31ff BC       		.byte	0xbc
 12264 3200 B1000000 		.4byte	0xb1
 12265 3204 18       		.byte	0x18
 12266 3205 08       		.uleb128 0x8
 12267 3206 48180000 		.4byte	.LASF775
 12268 320a 2A       		.byte	0x2a
 12269 320b C3       		.byte	0xc3
 12270 320c BF030000 		.4byte	0x3bf
 12271 3210 1C       		.byte	0x1c
 12272 3211 08       		.uleb128 0x8
 12273 3212 41120000 		.4byte	.LASF776
 12274 3216 2A       		.byte	0x2a
 12275 3217 C5       		.byte	0xc5
 12276 3218 2D340000 		.4byte	0x342d
 12277 321c 20       		.byte	0x20
ARM GAS  C:\Users\CHRIST~1\AppData\Local\Temp\ccb3oWGE.s 			page 218


 12278 321d 08       		.uleb128 0x8
 12279 321e 550F0000 		.4byte	.LASF777
 12280 3222 2A       		.byte	0x2a
 12281 3223 C7       		.byte	0xc7
 12282 3224 51340000 		.4byte	0x3451
 12283 3228 24       		.byte	0x24
 12284 3229 08       		.uleb128 0x8
 12285 322a 4C1E0000 		.4byte	.LASF778
 12286 322e 2A       		.byte	0x2a
 12287 322f CA       		.byte	0xca
 12288 3230 75340000 		.4byte	0x3475
 12289 3234 28       		.byte	0x28
 12290 3235 08       		.uleb128 0x8
 12291 3236 26260000 		.4byte	.LASF779
 12292 323a 2A       		.byte	0x2a
 12293 323b CB       		.byte	0xcb
 12294 323c 8F340000 		.4byte	0x348f
 12295 3240 2C       		.byte	0x2c
 12296 3241 16       		.uleb128 0x16
 12297 3242 5F756200 		.ascii	"_ub\000"
 12298 3246 2A       		.byte	0x2a
 12299 3247 CE       		.byte	0xce
 12300 3248 7D310000 		.4byte	0x317d
 12301 324c 30       		.byte	0x30
 12302 324d 16       		.uleb128 0x16
 12303 324e 5F757000 		.ascii	"_up\000"
 12304 3252 2A       		.byte	0x2a
 12305 3253 CF       		.byte	0xcf
 12306 3254 A2310000 		.4byte	0x31a2
 12307 3258 38       		.byte	0x38
 12308 3259 16       		.uleb128 0x16
 12309 325a 5F757200 		.ascii	"_ur\000"
 12310 325e 2A       		.byte	0x2a
 12311 325f D0       		.byte	0xd0
 12312 3260 B1000000 		.4byte	0xb1
 12313 3264 3C       		.byte	0x3c
 12314 3265 08       		.uleb128 0x8
 12315 3266 B42A0000 		.4byte	.LASF780
 12316 326a 2A       		.byte	0x2a
 12317 326b D3       		.byte	0xd3
 12318 326c 95160000 		.4byte	0x1695
 12319 3270 40       		.byte	0x40
 12320 3271 08       		.uleb128 0x8
 12321 3272 D9030000 		.4byte	.LASF781
 12322 3276 2A       		.byte	0x2a
 12323 3277 D4       		.byte	0xd4
 12324 3278 95340000 		.4byte	0x3495
 12325 327c 43       		.byte	0x43
 12326 327d 16       		.uleb128 0x16
 12327 327e 5F6C6200 		.ascii	"_lb\000"
 12328 3282 2A       		.byte	0x2a
 12329 3283 D7       		.byte	0xd7
 12330 3284 7D310000 		.4byte	0x317d
 12331 3288 44       		.byte	0x44
 12332 3289 08       		.uleb128 0x8
 12333 328a 050F0000 		.4byte	.LASF782
 12334 328e 2A       		.byte	0x2a
ARM GAS  C:\Users\CHRIST~1\AppData\Local\Temp\ccb3oWGE.s 			page 219


 12335 328f DA       		.byte	0xda
 12336 3290 B1000000 		.4byte	0xb1
 12337 3294 4C       		.byte	0x4c
 12338 3295 08       		.uleb128 0x8
 12339 3296 5A200000 		.4byte	.LASF783
 12340 329a 2A       		.byte	0x2a
 12341 329b DB       		.byte	0xdb
 12342 329c 572F0000 		.4byte	0x2f57
 12343 32a0 50       		.byte	0x50
 12344 32a1 08       		.uleb128 0x8
 12345 32a2 D91C0000 		.4byte	.LASF784
 12346 32a6 2A       		.byte	0x2a
 12347 32a7 DE       		.byte	0xde
 12348 32a8 F0320000 		.4byte	0x32f0
 12349 32ac 54       		.byte	0x54
 12350 32ad 08       		.uleb128 0x8
 12351 32ae D3030000 		.4byte	.LASF785
 12352 32b2 2A       		.byte	0x2a
 12353 32b3 E2       		.byte	0xe2
 12354 32b4 D42F0000 		.4byte	0x2fd4
 12355 32b8 58       		.byte	0x58
 12356 32b9 08       		.uleb128 0x8
 12357 32ba 6D010000 		.4byte	.LASF786
 12358 32be 2A       		.byte	0x2a
 12359 32bf E4       		.byte	0xe4
 12360 32c0 C92F0000 		.4byte	0x2fc9
 12361 32c4 5C       		.byte	0x5c
 12362 32c5 08       		.uleb128 0x8
 12363 32c6 98360000 		.4byte	.LASF787
 12364 32ca 2A       		.byte	0x2a
 12365 32cb E5       		.byte	0xe5
 12366 32cc B1000000 		.4byte	0xb1
 12367 32d0 64       		.byte	0x64
 12368 32d1 00       		.byte	0
 12369 32d2 26       		.uleb128 0x26
 12370 32d3 B1000000 		.4byte	0xb1
 12371 32d7 F0320000 		.4byte	0x32f0
 12372 32db 0E       		.uleb128 0xe
 12373 32dc F0320000 		.4byte	0x32f0
 12374 32e0 0E       		.uleb128 0xe
 12375 32e1 BF030000 		.4byte	0x3bf
 12376 32e5 0E       		.uleb128 0xe
 12377 32e6 DF2F0000 		.4byte	0x2fdf
 12378 32ea 0E       		.uleb128 0xe
 12379 32eb B1000000 		.4byte	0xb1
 12380 32ef 00       		.byte	0
 12381 32f0 0B       		.uleb128 0xb
 12382 32f1 04       		.byte	0x4
 12383 32f2 FB320000 		.4byte	0x32fb
 12384 32f6 06       		.uleb128 0x6
 12385 32f7 F0320000 		.4byte	0x32f0
 12386 32fb 10       		.uleb128 0x10
 12387 32fc 2A210000 		.4byte	.LASF788
 12388 3300 2804     		.2byte	0x428
 12389 3302 2A       		.byte	0x2a
 12390 3303 3902     		.2byte	0x239
 12391 3305 2D340000 		.4byte	0x342d
ARM GAS  C:\Users\CHRIST~1\AppData\Local\Temp\ccb3oWGE.s 			page 220


 12392 3309 0A       		.uleb128 0xa
 12393 330a B6150000 		.4byte	.LASF789
 12394 330e 2A       		.byte	0x2a
 12395 330f 3B02     		.2byte	0x23b
 12396 3311 B1000000 		.4byte	0xb1
 12397 3315 00       		.byte	0
 12398 3316 0A       		.uleb128 0xa
 12399 3317 1D100000 		.4byte	.LASF790
 12400 331b 2A       		.byte	0x2a
 12401 331c 4002     		.2byte	0x240
 12402 331e EC340000 		.4byte	0x34ec
 12403 3322 04       		.byte	0x4
 12404 3323 0A       		.uleb128 0xa
 12405 3324 1F0C0000 		.4byte	.LASF791
 12406 3328 2A       		.byte	0x2a
 12407 3329 4002     		.2byte	0x240
 12408 332b EC340000 		.4byte	0x34ec
 12409 332f 08       		.byte	0x8
 12410 3330 0A       		.uleb128 0xa
 12411 3331 040B0000 		.4byte	.LASF792
 12412 3335 2A       		.byte	0x2a
 12413 3336 4002     		.2byte	0x240
 12414 3338 EC340000 		.4byte	0x34ec
 12415 333c 0C       		.byte	0xc
 12416 333d 0A       		.uleb128 0xa
 12417 333e 3E020000 		.4byte	.LASF793
 12418 3342 2A       		.byte	0x2a
 12419 3343 4202     		.2byte	0x242
 12420 3345 B1000000 		.4byte	0xb1
 12421 3349 10       		.byte	0x10
 12422 334a 0A       		.uleb128 0xa
 12423 334b 4F130000 		.4byte	.LASF794
 12424 334f 2A       		.byte	0x2a
 12425 3350 4302     		.2byte	0x243
 12426 3352 CE360000 		.4byte	0x36ce
 12427 3356 14       		.byte	0x14
 12428 3357 0A       		.uleb128 0xa
 12429 3358 F5320000 		.4byte	.LASF795
 12430 335c 2A       		.byte	0x2a
 12431 335d 4602     		.2byte	0x246
 12432 335f B1000000 		.4byte	0xb1
 12433 3363 30       		.byte	0x30
 12434 3364 0A       		.uleb128 0xa
 12435 3365 30370000 		.4byte	.LASF796
 12436 3369 2A       		.byte	0x2a
 12437 336a 4702     		.2byte	0x247
 12438 336c E3360000 		.4byte	0x36e3
 12439 3370 34       		.byte	0x34
 12440 3371 0A       		.uleb128 0xa
 12441 3372 81330000 		.4byte	.LASF797
 12442 3376 2A       		.byte	0x2a
 12443 3377 4902     		.2byte	0x249
 12444 3379 B1000000 		.4byte	0xb1
 12445 337d 38       		.byte	0x38
 12446 337e 0A       		.uleb128 0xa
 12447 337f 7E1A0000 		.4byte	.LASF798
 12448 3383 2A       		.byte	0x2a
ARM GAS  C:\Users\CHRIST~1\AppData\Local\Temp\ccb3oWGE.s 			page 221


 12449 3384 4B02     		.2byte	0x24b
 12450 3386 F4360000 		.4byte	0x36f4
 12451 338a 3C       		.byte	0x3c
 12452 338b 0A       		.uleb128 0xa
 12453 338c 1B0B0000 		.4byte	.LASF799
 12454 3390 2A       		.byte	0x2a
 12455 3391 4E02     		.2byte	0x24e
 12456 3393 43300000 		.4byte	0x3043
 12457 3397 40       		.byte	0x40
 12458 3398 0A       		.uleb128 0xa
 12459 3399 F50A0000 		.4byte	.LASF800
 12460 339d 2A       		.byte	0x2a
 12461 339e 4F02     		.2byte	0x24f
 12462 33a0 B1000000 		.4byte	0xb1
 12463 33a4 44       		.byte	0x44
 12464 33a5 0A       		.uleb128 0xa
 12465 33a6 DC2E0000 		.4byte	.LASF801
 12466 33aa 2A       		.byte	0x2a
 12467 33ab 5002     		.2byte	0x250
 12468 33ad 43300000 		.4byte	0x3043
 12469 33b1 48       		.byte	0x48
 12470 33b2 0A       		.uleb128 0xa
 12471 33b3 A41F0000 		.4byte	.LASF802
 12472 33b7 2A       		.byte	0x2a
 12473 33b8 5102     		.2byte	0x251
 12474 33ba FA360000 		.4byte	0x36fa
 12475 33be 4C       		.byte	0x4c
 12476 33bf 0A       		.uleb128 0xa
 12477 33c0 1D030000 		.4byte	.LASF803
 12478 33c4 2A       		.byte	0x2a
 12479 33c5 5402     		.2byte	0x254
 12480 33c7 B1000000 		.4byte	0xb1
 12481 33cb 50       		.byte	0x50
 12482 33cc 0A       		.uleb128 0xa
 12483 33cd 32130000 		.4byte	.LASF804
 12484 33d1 2A       		.byte	0x2a
 12485 33d2 5502     		.2byte	0x255
 12486 33d4 DF2F0000 		.4byte	0x2fdf
 12487 33d8 54       		.byte	0x54
 12488 33d9 0A       		.uleb128 0xa
 12489 33da 5D060000 		.4byte	.LASF805
 12490 33de 2A       		.byte	0x2a
 12491 33df 7802     		.2byte	0x278
 12492 33e1 AC360000 		.4byte	0x36ac
 12493 33e5 58       		.byte	0x58
 12494 33e6 1A       		.uleb128 0x1a
 12495 33e7 76010000 		.4byte	.LASF765
 12496 33eb 2A       		.byte	0x2a
 12497 33ec 7C02     		.2byte	0x27c
 12498 33ee 60310000 		.4byte	0x3160
 12499 33f2 4801     		.2byte	0x148
 12500 33f4 1A       		.uleb128 0x1a
 12501 33f5 E8270000 		.4byte	.LASF806
 12502 33f9 2A       		.byte	0x2a
 12503 33fa 7D02     		.2byte	0x27d
 12504 33fc 22310000 		.4byte	0x3122
 12505 3400 4C01     		.2byte	0x14c
ARM GAS  C:\Users\CHRIST~1\AppData\Local\Temp\ccb3oWGE.s 			page 222


 12506 3402 1A       		.uleb128 0x1a
 12507 3403 08270000 		.4byte	.LASF807
 12508 3407 2A       		.byte	0x2a
 12509 3408 8102     		.2byte	0x281
 12510 340a 0B370000 		.4byte	0x370b
 12511 340e DC02     		.2byte	0x2dc
 12512 3410 1A       		.uleb128 0x1a
 12513 3411 F02A0000 		.4byte	.LASF808
 12514 3415 2A       		.byte	0x2a
 12515 3416 8602     		.2byte	0x286
 12516 3418 B1340000 		.4byte	0x34b1
 12517 341c E002     		.2byte	0x2e0
 12518 341e 1A       		.uleb128 0x1a
 12519 341f CE070000 		.4byte	.LASF809
 12520 3423 2A       		.byte	0x2a
 12521 3424 8802     		.2byte	0x288
 12522 3426 17370000 		.4byte	0x3717
 12523 342a EC02     		.2byte	0x2ec
 12524 342c 00       		.byte	0
 12525 342d 0B       		.uleb128 0xb
 12526 342e 04       		.byte	0x4
 12527 342f D2320000 		.4byte	0x32d2
 12528 3433 26       		.uleb128 0x26
 12529 3434 B1000000 		.4byte	0xb1
 12530 3438 51340000 		.4byte	0x3451
 12531 343c 0E       		.uleb128 0xe
 12532 343d F0320000 		.4byte	0x32f0
 12533 3441 0E       		.uleb128 0xe
 12534 3442 BF030000 		.4byte	0x3bf
 12535 3446 0E       		.uleb128 0xe
 12536 3447 170D0000 		.4byte	0xd17
 12537 344b 0E       		.uleb128 0xe
 12538 344c B1000000 		.4byte	0xb1
 12539 3450 00       		.byte	0
 12540 3451 0B       		.uleb128 0xb
 12541 3452 04       		.byte	0x4
 12542 3453 33340000 		.4byte	0x3433
 12543 3457 26       		.uleb128 0x26
 12544 3458 622F0000 		.4byte	0x2f62
 12545 345c 75340000 		.4byte	0x3475
 12546 3460 0E       		.uleb128 0xe
 12547 3461 F0320000 		.4byte	0x32f0
 12548 3465 0E       		.uleb128 0xe
 12549 3466 BF030000 		.4byte	0x3bf
 12550 346a 0E       		.uleb128 0xe
 12551 346b 622F0000 		.4byte	0x2f62
 12552 346f 0E       		.uleb128 0xe
 12553 3470 B1000000 		.4byte	0xb1
 12554 3474 00       		.byte	0
 12555 3475 0B       		.uleb128 0xb
 12556 3476 04       		.byte	0x4
 12557 3477 57340000 		.4byte	0x3457
 12558 347b 26       		.uleb128 0x26
 12559 347c B1000000 		.4byte	0xb1
 12560 3480 8F340000 		.4byte	0x348f
 12561 3484 0E       		.uleb128 0xe
 12562 3485 F0320000 		.4byte	0x32f0
ARM GAS  C:\Users\CHRIST~1\AppData\Local\Temp\ccb3oWGE.s 			page 223


 12563 3489 0E       		.uleb128 0xe
 12564 348a BF030000 		.4byte	0x3bf
 12565 348e 00       		.byte	0
 12566 348f 0B       		.uleb128 0xb
 12567 3490 04       		.byte	0x4
 12568 3491 7B340000 		.4byte	0x347b
 12569 3495 11       		.uleb128 0x11
 12570 3496 49000000 		.4byte	0x49
 12571 349a A5340000 		.4byte	0x34a5
 12572 349e 12       		.uleb128 0x12
 12573 349f BD000000 		.4byte	0xbd
 12574 34a3 00       		.byte	0
 12575 34a4 00       		.byte	0
 12576 34a5 18       		.uleb128 0x18
 12577 34a6 A1380000 		.4byte	.LASF810
 12578 34aa 2A       		.byte	0x2a
 12579 34ab 1F01     		.2byte	0x11f
 12580 34ad A8310000 		.4byte	0x31a8
 12581 34b1 0C       		.uleb128 0xc
 12582 34b2 4B260000 		.4byte	.LASF811
 12583 34b6 0C       		.byte	0xc
 12584 34b7 2A       		.byte	0x2a
 12585 34b8 2301     		.2byte	0x123
 12586 34ba E6340000 		.4byte	0x34e6
 12587 34be 0A       		.uleb128 0xa
 12588 34bf B9170000 		.4byte	.LASF746
 12589 34c3 2A       		.byte	0x2a
 12590 34c4 2501     		.2byte	0x125
 12591 34c6 E6340000 		.4byte	0x34e6
 12592 34ca 00       		.byte	0
 12593 34cb 0A       		.uleb128 0xa
 12594 34cc 4B150000 		.4byte	.LASF812
 12595 34d0 2A       		.byte	0x2a
 12596 34d1 2601     		.2byte	0x126
 12597 34d3 B1000000 		.4byte	0xb1
 12598 34d7 04       		.byte	0x4
 12599 34d8 0A       		.uleb128 0xa
 12600 34d9 26230000 		.4byte	.LASF813
 12601 34dd 2A       		.byte	0x2a
 12602 34de 2701     		.2byte	0x127
 12603 34e0 EC340000 		.4byte	0x34ec
 12604 34e4 08       		.byte	0x8
 12605 34e5 00       		.byte	0
 12606 34e6 0B       		.uleb128 0xb
 12607 34e7 04       		.byte	0x4
 12608 34e8 B1340000 		.4byte	0x34b1
 12609 34ec 0B       		.uleb128 0xb
 12610 34ed 04       		.byte	0x4
 12611 34ee A5340000 		.4byte	0x34a5
 12612 34f2 0C       		.uleb128 0xc
 12613 34f3 2D3B0000 		.4byte	.LASF814
 12614 34f7 0E       		.byte	0xe
 12615 34f8 2A       		.byte	0x2a
 12616 34f9 3F01     		.2byte	0x13f
 12617 34fb 27350000 		.4byte	0x3527
 12618 34ff 0A       		.uleb128 0xa
 12619 3500 141E0000 		.4byte	.LASF815
ARM GAS  C:\Users\CHRIST~1\AppData\Local\Temp\ccb3oWGE.s 			page 224


 12620 3504 2A       		.byte	0x2a
 12621 3505 4001     		.2byte	0x140
 12622 3507 27350000 		.4byte	0x3527
 12623 350b 00       		.byte	0
 12624 350c 0A       		.uleb128 0xa
 12625 350d 6A3A0000 		.4byte	.LASF816
 12626 3511 2A       		.byte	0x2a
 12627 3512 4101     		.2byte	0x141
 12628 3514 27350000 		.4byte	0x3527
 12629 3518 06       		.byte	0x6
 12630 3519 0A       		.uleb128 0xa
 12631 351a 03210000 		.4byte	.LASF817
 12632 351e 2A       		.byte	0x2a
 12633 351f 4201     		.2byte	0x142
 12634 3521 6D000000 		.4byte	0x6d
 12635 3525 0C       		.byte	0xc
 12636 3526 00       		.byte	0
 12637 3527 11       		.uleb128 0x11
 12638 3528 6D000000 		.4byte	0x6d
 12639 352c 37350000 		.4byte	0x3537
 12640 3530 12       		.uleb128 0x12
 12641 3531 BD000000 		.4byte	0xbd
 12642 3535 02       		.byte	0x2
 12643 3536 00       		.byte	0
 12644 3537 17       		.uleb128 0x17
 12645 3538 D0       		.byte	0xd0
 12646 3539 2A       		.byte	0x2a
 12647 353a 5902     		.2byte	0x259
 12648 353c 38360000 		.4byte	0x3638
 12649 3540 0A       		.uleb128 0xa
 12650 3541 250A0000 		.4byte	.LASF818
 12651 3545 2A       		.byte	0x2a
 12652 3546 5B02     		.2byte	0x25b
 12653 3548 BD000000 		.4byte	0xbd
 12654 354c 00       		.byte	0
 12655 354d 0A       		.uleb128 0xa
 12656 354e AF1D0000 		.4byte	.LASF819
 12657 3552 2A       		.byte	0x2a
 12658 3553 5C02     		.2byte	0x25c
 12659 3555 DF2F0000 		.4byte	0x2fdf
 12660 3559 04       		.byte	0x4
 12661 355a 0A       		.uleb128 0xa
 12662 355b 58210000 		.4byte	.LASF820
 12663 355f 2A       		.byte	0x2a
 12664 3560 5D02     		.2byte	0x25d
 12665 3562 38360000 		.4byte	0x3638
 12666 3566 08       		.byte	0x8
 12667 3567 0A       		.uleb128 0xa
 12668 3568 BC110000 		.4byte	.LASF821
 12669 356c 2A       		.byte	0x2a
 12670 356d 5E02     		.2byte	0x25e
 12671 356f 59300000 		.4byte	0x3059
 12672 3573 24       		.byte	0x24
 12673 3574 0A       		.uleb128 0xa
 12674 3575 52310000 		.4byte	.LASF822
 12675 3579 2A       		.byte	0x2a
 12676 357a 5F02     		.2byte	0x25f
ARM GAS  C:\Users\CHRIST~1\AppData\Local\Temp\ccb3oWGE.s 			page 225


 12677 357c B1000000 		.4byte	0xb1
 12678 3580 48       		.byte	0x48
 12679 3581 0A       		.uleb128 0xa
 12680 3582 59230000 		.4byte	.LASF823
 12681 3586 2A       		.byte	0x2a
 12682 3587 6002     		.2byte	0x260
 12683 3589 AA000000 		.4byte	0xaa
 12684 358d 50       		.byte	0x50
 12685 358e 0A       		.uleb128 0xa
 12686 358f 183A0000 		.4byte	.LASF824
 12687 3593 2A       		.byte	0x2a
 12688 3594 6102     		.2byte	0x261
 12689 3596 F2340000 		.4byte	0x34f2
 12690 359a 58       		.byte	0x58
 12691 359b 0A       		.uleb128 0xa
 12692 359c E32A0000 		.4byte	.LASF825
 12693 35a0 2A       		.byte	0x2a
 12694 35a1 6202     		.2byte	0x262
 12695 35a3 C92F0000 		.4byte	0x2fc9
 12696 35a7 68       		.byte	0x68
 12697 35a8 0A       		.uleb128 0xa
 12698 35a9 FC070000 		.4byte	.LASF826
 12699 35ad 2A       		.byte	0x2a
 12700 35ae 6302     		.2byte	0x263
 12701 35b0 C92F0000 		.4byte	0x2fc9
 12702 35b4 70       		.byte	0x70
 12703 35b5 0A       		.uleb128 0xa
 12704 35b6 F9040000 		.4byte	.LASF827
 12705 35ba 2A       		.byte	0x2a
 12706 35bb 6402     		.2byte	0x264
 12707 35bd C92F0000 		.4byte	0x2fc9
 12708 35c1 78       		.byte	0x78
 12709 35c2 0A       		.uleb128 0xa
 12710 35c3 3F210000 		.4byte	.LASF828
 12711 35c7 2A       		.byte	0x2a
 12712 35c8 6502     		.2byte	0x265
 12713 35ca 48360000 		.4byte	0x3648
 12714 35ce 80       		.byte	0x80
 12715 35cf 0A       		.uleb128 0xa
 12716 35d0 0C180000 		.4byte	.LASF829
 12717 35d4 2A       		.byte	0x2a
 12718 35d5 6602     		.2byte	0x266
 12719 35d7 58360000 		.4byte	0x3658
 12720 35db 88       		.byte	0x88
 12721 35dc 0A       		.uleb128 0xa
 12722 35dd C8280000 		.4byte	.LASF830
 12723 35e1 2A       		.byte	0x2a
 12724 35e2 6702     		.2byte	0x267
 12725 35e4 B1000000 		.4byte	0xb1
 12726 35e8 A0       		.byte	0xa0
 12727 35e9 0A       		.uleb128 0xa
 12728 35ea 990F0000 		.4byte	.LASF831
 12729 35ee 2A       		.byte	0x2a
 12730 35ef 6802     		.2byte	0x268
 12731 35f1 C92F0000 		.4byte	0x2fc9
 12732 35f5 A4       		.byte	0xa4
 12733 35f6 0A       		.uleb128 0xa
ARM GAS  C:\Users\CHRIST~1\AppData\Local\Temp\ccb3oWGE.s 			page 226


 12734 35f7 44000000 		.4byte	.LASF832
 12735 35fb 2A       		.byte	0x2a
 12736 35fc 6902     		.2byte	0x269
 12737 35fe C92F0000 		.4byte	0x2fc9
 12738 3602 AC       		.byte	0xac
 12739 3603 0A       		.uleb128 0xa
 12740 3604 850C0000 		.4byte	.LASF833
 12741 3608 2A       		.byte	0x2a
 12742 3609 6A02     		.2byte	0x26a
 12743 360b C92F0000 		.4byte	0x2fc9
 12744 360f B4       		.byte	0xb4
 12745 3610 0A       		.uleb128 0xa
 12746 3611 131B0000 		.4byte	.LASF834
 12747 3615 2A       		.byte	0x2a
 12748 3616 6B02     		.2byte	0x26b
 12749 3618 C92F0000 		.4byte	0x2fc9
 12750 361c BC       		.byte	0xbc
 12751 361d 0A       		.uleb128 0xa
 12752 361e 8D210000 		.4byte	.LASF835
 12753 3622 2A       		.byte	0x2a
 12754 3623 6C02     		.2byte	0x26c
 12755 3625 C92F0000 		.4byte	0x2fc9
 12756 3629 C4       		.byte	0xc4
 12757 362a 0A       		.uleb128 0xa
 12758 362b 0C2D0000 		.4byte	.LASF836
 12759 362f 2A       		.byte	0x2a
 12760 3630 6D02     		.2byte	0x26d
 12761 3632 B1000000 		.4byte	0xb1
 12762 3636 CC       		.byte	0xcc
 12763 3637 00       		.byte	0
 12764 3638 11       		.uleb128 0x11
 12765 3639 220D0000 		.4byte	0xd22
 12766 363d 48360000 		.4byte	0x3648
 12767 3641 12       		.uleb128 0x12
 12768 3642 BD000000 		.4byte	0xbd
 12769 3646 19       		.byte	0x19
 12770 3647 00       		.byte	0
 12771 3648 11       		.uleb128 0x11
 12772 3649 220D0000 		.4byte	0xd22
 12773 364d 58360000 		.4byte	0x3658
 12774 3651 12       		.uleb128 0x12
 12775 3652 BD000000 		.4byte	0xbd
 12776 3656 07       		.byte	0x7
 12777 3657 00       		.byte	0
 12778 3658 11       		.uleb128 0x11
 12779 3659 220D0000 		.4byte	0xd22
 12780 365d 68360000 		.4byte	0x3668
 12781 3661 12       		.uleb128 0x12
 12782 3662 BD000000 		.4byte	0xbd
 12783 3666 17       		.byte	0x17
 12784 3667 00       		.byte	0
 12785 3668 17       		.uleb128 0x17
 12786 3669 F0       		.byte	0xf0
 12787 366a 2A       		.byte	0x2a
 12788 366b 7202     		.2byte	0x272
 12789 366d 8C360000 		.4byte	0x368c
 12790 3671 0A       		.uleb128 0xa
ARM GAS  C:\Users\CHRIST~1\AppData\Local\Temp\ccb3oWGE.s 			page 227


 12791 3672 C3360000 		.4byte	.LASF837
 12792 3676 2A       		.byte	0x2a
 12793 3677 7502     		.2byte	0x275
 12794 3679 8C360000 		.4byte	0x368c
 12795 367d 00       		.byte	0
 12796 367e 0A       		.uleb128 0xa
 12797 367f 32100000 		.4byte	.LASF838
 12798 3683 2A       		.byte	0x2a
 12799 3684 7602     		.2byte	0x276
 12800 3686 9C360000 		.4byte	0x369c
 12801 368a 78       		.byte	0x78
 12802 368b 00       		.byte	0
 12803 368c 11       		.uleb128 0x11
 12804 368d A2310000 		.4byte	0x31a2
 12805 3691 9C360000 		.4byte	0x369c
 12806 3695 12       		.uleb128 0x12
 12807 3696 BD000000 		.4byte	0xbd
 12808 369a 1D       		.byte	0x1d
 12809 369b 00       		.byte	0
 12810 369c 11       		.uleb128 0x11
 12811 369d BD000000 		.4byte	0xbd
 12812 36a1 AC360000 		.4byte	0x36ac
 12813 36a5 12       		.uleb128 0x12
 12814 36a6 BD000000 		.4byte	0xbd
 12815 36aa 1D       		.byte	0x1d
 12816 36ab 00       		.byte	0
 12817 36ac 2B       		.uleb128 0x2b
 12818 36ad F0       		.byte	0xf0
 12819 36ae 2A       		.byte	0x2a
 12820 36af 5702     		.2byte	0x257
 12821 36b1 CE360000 		.4byte	0x36ce
 12822 36b5 1D       		.uleb128 0x1d
 12823 36b6 2A210000 		.4byte	.LASF788
 12824 36ba 2A       		.byte	0x2a
 12825 36bb 6E02     		.2byte	0x26e
 12826 36bd 37350000 		.4byte	0x3537
 12827 36c1 1D       		.uleb128 0x1d
 12828 36c2 752A0000 		.4byte	.LASF839
 12829 36c6 2A       		.byte	0x2a
 12830 36c7 7702     		.2byte	0x277
 12831 36c9 68360000 		.4byte	0x3668
 12832 36cd 00       		.byte	0
 12833 36ce 11       		.uleb128 0x11
 12834 36cf 220D0000 		.4byte	0xd22
 12835 36d3 DE360000 		.4byte	0x36de
 12836 36d7 12       		.uleb128 0x12
 12837 36d8 BD000000 		.4byte	0xbd
 12838 36dc 18       		.byte	0x18
 12839 36dd 00       		.byte	0
 12840 36de 2C       		.uleb128 0x2c
 12841 36df F82A0000 		.4byte	.LASF841
 12842 36e3 0B       		.uleb128 0xb
 12843 36e4 04       		.byte	0x4
 12844 36e5 DE360000 		.4byte	0x36de
 12845 36e9 0D       		.uleb128 0xd
 12846 36ea F4360000 		.4byte	0x36f4
 12847 36ee 0E       		.uleb128 0xe
ARM GAS  C:\Users\CHRIST~1\AppData\Local\Temp\ccb3oWGE.s 			page 228


 12848 36ef F0320000 		.4byte	0x32f0
 12849 36f3 00       		.byte	0
 12850 36f4 0B       		.uleb128 0xb
 12851 36f5 04       		.byte	0x4
 12852 36f6 E9360000 		.4byte	0x36e9
 12853 36fa 0B       		.uleb128 0xb
 12854 36fb 04       		.byte	0x4
 12855 36fc 43300000 		.4byte	0x3043
 12856 3700 0D       		.uleb128 0xd
 12857 3701 0B370000 		.4byte	0x370b
 12858 3705 0E       		.uleb128 0xe
 12859 3706 B1000000 		.4byte	0xb1
 12860 370a 00       		.byte	0
 12861 370b 0B       		.uleb128 0xb
 12862 370c 04       		.byte	0x4
 12863 370d 11370000 		.4byte	0x3711
 12864 3711 0B       		.uleb128 0xb
 12865 3712 04       		.byte	0x4
 12866 3713 00370000 		.4byte	0x3700
 12867 3717 11       		.uleb128 0x11
 12868 3718 A5340000 		.4byte	0x34a5
 12869 371c 27370000 		.4byte	0x3727
 12870 3720 12       		.uleb128 0x12
 12871 3721 BD000000 		.4byte	0xbd
 12872 3725 02       		.byte	0x2
 12873 3726 00       		.byte	0
 12874 3727 13       		.uleb128 0x13
 12875 3728 5A2A0000 		.4byte	.LASF842
 12876 372c 2A       		.byte	0x2a
 12877 372d 0703     		.2byte	0x307
 12878 372f F0320000 		.4byte	0x32f0
 12879 3733 13       		.uleb128 0x13
 12880 3734 762C0000 		.4byte	.LASF843
 12881 3738 2A       		.byte	0x2a
 12882 3739 0803     		.2byte	0x308
 12883 373b F6320000 		.4byte	0x32f6
 12884 373f 02       		.uleb128 0x2
 12885 3740 08       		.byte	0x8
 12886 3741 04       		.byte	0x4
 12887 3742 462C0000 		.4byte	.LASF844
 12888 3746 2F       		.uleb128 0x2f
 12889 3747 E4210000 		.4byte	.LASF1090
 12890 374b 05       		.byte	0x5
 12891 374c 01       		.byte	0x1
 12892 374d 37000000 		.4byte	0x37
 12893 3751 2B       		.byte	0x2b
 12894 3752 8202     		.2byte	0x282
 12895 3754 71370000 		.4byte	0x3771
 12896 3758 30       		.uleb128 0x30
 12897 3759 2B1F0000 		.4byte	.LASF845
 12898 375d 7F       		.sleb128 -1
 12899 375e 20       		.uleb128 0x20
 12900 375f 36030000 		.4byte	.LASF846
 12901 3763 00       		.byte	0
 12902 3764 20       		.uleb128 0x20
 12903 3765 981E0000 		.4byte	.LASF847
 12904 3769 01       		.byte	0x1
ARM GAS  C:\Users\CHRIST~1\AppData\Local\Temp\ccb3oWGE.s 			page 229


 12905 376a 20       		.uleb128 0x20
 12906 376b 8C330000 		.4byte	.LASF848
 12907 376f 02       		.byte	0x2
 12908 3770 00       		.byte	0
 12909 3771 13       		.uleb128 0x13
 12910 3772 C0390000 		.4byte	.LASF849
 12911 3776 2B       		.byte	0x2b
 12912 3777 8D02     		.2byte	0x28d
 12913 3779 46370000 		.4byte	0x3746
 12914 377d 31       		.uleb128 0x31
 12915 377e 7F180000 		.4byte	0x187f
 12916 3782 01       		.byte	0x1
 12917 3783 28       		.byte	0x28
 12918 3784 05       		.uleb128 0x5
 12919 3785 03       		.byte	0x3
 12920 3786 00000000 		.4byte	ADC_Value
 12921 378a 31       		.uleb128 0x31
 12922 378b 9A180000 		.4byte	0x189a
 12923 378f 01       		.byte	0x1
 12924 3790 29       		.byte	0x29
 12925 3791 05       		.uleb128 0x5
 12926 3792 03       		.byte	0x3
 12927 3793 00000000 		.4byte	ADC_curr_norm_value
 12928 3797 32       		.uleb128 0x32
 12929 3798 4F1F0000 		.4byte	.LASF850
 12930 379c 01       		.byte	0x1
 12931 379d 2C       		.byte	0x2c
 12932 379e 8B160000 		.4byte	0x168b
 12933 37a2 05       		.uleb128 0x5
 12934 37a3 03       		.byte	0x3
 12935 37a4 00000000 		.4byte	m_conf
 12936 37a8 32       		.uleb128 0x32
 12937 37a9 8B090000 		.4byte	.LASF851
 12938 37ad 01       		.byte	0x1
 12939 37ae 2D       		.byte	0x2d
 12940 37af E0100000 		.4byte	0x10e0
 12941 37b3 05       		.uleb128 0x5
 12942 37b4 03       		.byte	0x3
 12943 37b5 00000000 		.4byte	m_fault_now
 12944 37b9 32       		.uleb128 0x32
 12945 37ba DB0D0000 		.4byte	.LASF852
 12946 37be 01       		.byte	0x1
 12947 37bf 2E       		.byte	0x2e
 12948 37c0 B1000000 		.4byte	0xb1
 12949 37c4 05       		.uleb128 0x5
 12950 37c5 03       		.byte	0x3
 12951 37c6 00000000 		.4byte	m_ignore_iterations
 12952 37ca 32       		.uleb128 0x32
 12953 37cb 931F0000 		.4byte	.LASF853
 12954 37cf 01       		.byte	0x1
 12955 37d0 2F       		.byte	0x2f
 12956 37d1 C4000000 		.4byte	0xc4
 12957 37d5 05       		.uleb128 0x5
 12958 37d6 03       		.byte	0x3
 12959 37d7 00000000 		.4byte	m_cycles_running
 12960 37db 32       		.uleb128 0x32
 12961 37dc D93A0000 		.4byte	.LASF854
ARM GAS  C:\Users\CHRIST~1\AppData\Local\Temp\ccb3oWGE.s 			page 230


 12962 37e0 01       		.byte	0x1
 12963 37e1 30       		.byte	0x30
 12964 37e2 5B160000 		.4byte	0x165b
 12965 37e6 05       		.uleb128 0x5
 12966 37e7 03       		.byte	0x3
 12967 37e8 00000000 		.4byte	m_lock_enabled
 12968 37ec 32       		.uleb128 0x32
 12969 37ed 8F0A0000 		.4byte	.LASF855
 12970 37f1 01       		.byte	0x1
 12971 37f2 31       		.byte	0x31
 12972 37f3 5B160000 		.4byte	0x165b
 12973 37f7 05       		.uleb128 0x5
 12974 37f8 03       		.byte	0x3
 12975 37f9 00000000 		.4byte	m_lock_override_once
 12976 37fd 32       		.uleb128 0x32
 12977 37fe 27270000 		.4byte	.LASF856
 12978 3802 01       		.byte	0x1
 12979 3803 32       		.byte	0x32
 12980 3804 16110000 		.4byte	0x1116
 12981 3808 05       		.uleb128 0x5
 12982 3809 03       		.byte	0x3
 12983 380a 00000000 		.4byte	m_motor_current_sum
 12984 380e 32       		.uleb128 0x32
 12985 380f 5C0F0000 		.4byte	.LASF857
 12986 3813 01       		.byte	0x1
 12987 3814 33       		.byte	0x33
 12988 3815 16110000 		.4byte	0x1116
 12989 3819 05       		.uleb128 0x5
 12990 381a 03       		.byte	0x3
 12991 381b 00000000 		.4byte	m_input_current_sum
 12992 381f 32       		.uleb128 0x32
 12993 3820 CD270000 		.4byte	.LASF858
 12994 3824 01       		.byte	0x1
 12995 3825 34       		.byte	0x34
 12996 3826 16110000 		.4byte	0x1116
 12997 382a 05       		.uleb128 0x5
 12998 382b 03       		.byte	0x3
 12999 382c 00000000 		.4byte	m_motor_current_iterations
 13000 3830 32       		.uleb128 0x32
 13001 3831 621B0000 		.4byte	.LASF859
 13002 3835 01       		.byte	0x1
 13003 3836 35       		.byte	0x35
 13004 3837 16110000 		.4byte	0x1116
 13005 383b 05       		.uleb128 0x5
 13006 383c 03       		.byte	0x3
 13007 383d 00000000 		.4byte	m_input_current_iterations
 13008 3841 32       		.uleb128 0x32
 13009 3842 6C220000 		.4byte	.LASF860
 13010 3846 01       		.byte	0x1
 13011 3847 36       		.byte	0x36
 13012 3848 16110000 		.4byte	0x1116
 13013 384c 05       		.uleb128 0x5
 13014 384d 03       		.byte	0x3
 13015 384e 00000000 		.4byte	m_motor_id_sum
 13016 3852 32       		.uleb128 0x32
 13017 3853 96260000 		.4byte	.LASF861
 13018 3857 01       		.byte	0x1
ARM GAS  C:\Users\CHRIST~1\AppData\Local\Temp\ccb3oWGE.s 			page 231


 13019 3858 37       		.byte	0x37
 13020 3859 16110000 		.4byte	0x1116
 13021 385d 05       		.uleb128 0x5
 13022 385e 03       		.byte	0x3
 13023 385f 00000000 		.4byte	m_motor_iq_sum
 13024 3863 32       		.uleb128 0x32
 13025 3864 023A0000 		.4byte	.LASF862
 13026 3868 01       		.byte	0x1
 13027 3869 38       		.byte	0x38
 13028 386a 16110000 		.4byte	0x1116
 13029 386e 05       		.uleb128 0x5
 13030 386f 03       		.byte	0x3
 13031 3870 00000000 		.4byte	m_motor_id_iterations
 13032 3874 32       		.uleb128 0x32
 13033 3875 BC090000 		.4byte	.LASF863
 13034 3879 01       		.byte	0x1
 13035 387a 39       		.byte	0x39
 13036 387b 16110000 		.4byte	0x1116
 13037 387f 05       		.uleb128 0x5
 13038 3880 03       		.byte	0x3
 13039 3881 00000000 		.4byte	m_motor_iq_iterations
 13040 3885 32       		.uleb128 0x32
 13041 3886 BC1D0000 		.4byte	.LASF864
 13042 388a 01       		.byte	0x1
 13043 388b 3A       		.byte	0x3a
 13044 388c 16110000 		.4byte	0x1116
 13045 3890 05       		.uleb128 0x5
 13046 3891 03       		.byte	0x3
 13047 3892 00000000 		.4byte	m_amp_seconds
 13048 3896 32       		.uleb128 0x32
 13049 3897 543A0000 		.4byte	.LASF865
 13050 389b 01       		.byte	0x1
 13051 389c 3B       		.byte	0x3b
 13052 389d 16110000 		.4byte	0x1116
 13053 38a1 05       		.uleb128 0x5
 13054 38a2 03       		.byte	0x3
 13055 38a3 00000000 		.4byte	m_amp_seconds_charged
 13056 38a7 32       		.uleb128 0x32
 13057 38a8 0C0B0000 		.4byte	.LASF866
 13058 38ac 01       		.byte	0x1
 13059 38ad 3C       		.byte	0x3c
 13060 38ae 16110000 		.4byte	0x1116
 13061 38b2 05       		.uleb128 0x5
 13062 38b3 03       		.byte	0x3
 13063 38b4 00000000 		.4byte	m_watt_seconds
 13064 38b8 32       		.uleb128 0x32
 13065 38b9 520B0000 		.4byte	.LASF867
 13066 38bd 01       		.byte	0x1
 13067 38be 3D       		.byte	0x3d
 13068 38bf 16110000 		.4byte	0x1116
 13069 38c3 05       		.uleb128 0x5
 13070 38c4 03       		.byte	0x3
 13071 38c5 00000000 		.4byte	m_watt_seconds_charged
 13072 38c9 32       		.uleb128 0x32
 13073 38ca 60000000 		.4byte	.LASF868
 13074 38ce 01       		.byte	0x1
 13075 38cf 3E       		.byte	0x3e
ARM GAS  C:\Users\CHRIST~1\AppData\Local\Temp\ccb3oWGE.s 			page 232


 13076 38d0 16110000 		.4byte	0x1116
 13077 38d4 05       		.uleb128 0x5
 13078 38d5 03       		.byte	0x3
 13079 38d6 00000000 		.4byte	m_position_set
 13080 38da 32       		.uleb128 0x32
 13081 38db 8C250000 		.4byte	.LASF869
 13082 38df 01       		.byte	0x1
 13083 38e0 3F       		.byte	0x3f
 13084 38e1 16110000 		.4byte	0x1116
 13085 38e5 05       		.uleb128 0x5
 13086 38e6 03       		.byte	0x3
 13087 38e7 00000000 		.4byte	m_temp_fet
 13088 38eb 32       		.uleb128 0x32
 13089 38ec 16190000 		.4byte	.LASF870
 13090 38f0 01       		.byte	0x1
 13091 38f1 40       		.byte	0x40
 13092 38f2 16110000 		.4byte	0x1116
 13093 38f6 05       		.uleb128 0x5
 13094 38f7 03       		.byte	0x3
 13095 38f8 00000000 		.4byte	m_temp_motor
 13096 38fc 11       		.uleb128 0x11
 13097 38fd F9000000 		.4byte	0xf9
 13098 3901 0D390000 		.4byte	0x390d
 13099 3905 29       		.uleb128 0x29
 13100 3906 BD000000 		.4byte	0xbd
 13101 390a CF07     		.2byte	0x7cf
 13102 390c 00       		.byte	0
 13103 390d 05       		.uleb128 0x5
 13104 390e FC380000 		.4byte	0x38fc
 13105 3912 32       		.uleb128 0x32
 13106 3913 FC300000 		.4byte	.LASF871
 13107 3917 01       		.byte	0x1
 13108 3918 44       		.byte	0x44
 13109 3919 0D390000 		.4byte	0x390d
 13110 391d 05       		.uleb128 0x5
 13111 391e 03       		.byte	0x3
 13112 391f 00000000 		.4byte	m_curr0_samples
 13113 3923 32       		.uleb128 0x32
 13114 3924 1F310000 		.4byte	.LASF872
 13115 3928 01       		.byte	0x1
 13116 3929 45       		.byte	0x45
 13117 392a 0D390000 		.4byte	0x390d
 13118 392e 05       		.uleb128 0x5
 13119 392f 03       		.byte	0x3
 13120 3930 A00F0000 		.4byte	m_curr1_samples
 13121 3934 32       		.uleb128 0x32
 13122 3935 0F100000 		.4byte	.LASF873
 13123 3939 01       		.byte	0x1
 13124 393a 46       		.byte	0x46
 13125 393b 0D390000 		.4byte	0x390d
 13126 393f 05       		.uleb128 0x5
 13127 3940 03       		.byte	0x3
 13128 3941 401F0000 		.4byte	m_ph1_samples
 13129 3945 32       		.uleb128 0x32
 13130 3946 24100000 		.4byte	.LASF874
 13131 394a 01       		.byte	0x1
 13132 394b 47       		.byte	0x47
ARM GAS  C:\Users\CHRIST~1\AppData\Local\Temp\ccb3oWGE.s 			page 233


 13133 394c 0D390000 		.4byte	0x390d
 13134 3950 05       		.uleb128 0x5
 13135 3951 03       		.byte	0x3
 13136 3952 E02E0000 		.4byte	m_ph2_samples
 13137 3956 32       		.uleb128 0x32
 13138 3957 A0110000 		.4byte	.LASF875
 13139 395b 01       		.byte	0x1
 13140 395c 48       		.byte	0x48
 13141 395d 0D390000 		.4byte	0x390d
 13142 3961 05       		.uleb128 0x5
 13143 3962 03       		.byte	0x3
 13144 3963 803E0000 		.4byte	m_ph3_samples
 13145 3967 32       		.uleb128 0x32
 13146 3968 923B0000 		.4byte	.LASF876
 13147 396c 01       		.byte	0x1
 13148 396d 49       		.byte	0x49
 13149 396e 0D390000 		.4byte	0x390d
 13150 3972 05       		.uleb128 0x5
 13151 3973 03       		.byte	0x3
 13152 3974 204E0000 		.4byte	m_vzero_samples
 13153 3978 11       		.uleb128 0x11
 13154 3979 E4000000 		.4byte	0xe4
 13155 397d 89390000 		.4byte	0x3989
 13156 3981 29       		.uleb128 0x29
 13157 3982 BD000000 		.4byte	0xbd
 13158 3986 CF07     		.2byte	0x7cf
 13159 3988 00       		.byte	0
 13160 3989 05       		.uleb128 0x5
 13161 398a 78390000 		.4byte	0x3978
 13162 398e 32       		.uleb128 0x32
 13163 398f 95070000 		.4byte	.LASF877
 13164 3993 01       		.byte	0x1
 13165 3994 4A       		.byte	0x4a
 13166 3995 89390000 		.4byte	0x3989
 13167 3999 05       		.uleb128 0x5
 13168 399a 03       		.byte	0x3
 13169 399b 007D0000 		.4byte	m_status_samples
 13170 399f 32       		.uleb128 0x32
 13171 39a0 0A3B0000 		.4byte	.LASF878
 13172 39a4 01       		.byte	0x1
 13173 39a5 4B       		.byte	0x4b
 13174 39a6 0D390000 		.4byte	0x390d
 13175 39aa 05       		.uleb128 0x5
 13176 39ab 03       		.byte	0x3
 13177 39ac C05D0000 		.4byte	m_curr_fir_samples
 13178 39b0 32       		.uleb128 0x32
 13179 39b1 1A380000 		.4byte	.LASF879
 13180 39b5 01       		.byte	0x1
 13181 39b6 4C       		.byte	0x4c
 13182 39b7 0D390000 		.4byte	0x390d
 13183 39bb 05       		.uleb128 0x5
 13184 39bc 03       		.byte	0x3
 13185 39bd 606D0000 		.4byte	m_f_sw_samples
 13186 39c1 11       		.uleb128 0x11
 13187 39c2 D4000000 		.4byte	0xd4
 13188 39c6 D2390000 		.4byte	0x39d2
 13189 39ca 29       		.uleb128 0x29
ARM GAS  C:\Users\CHRIST~1\AppData\Local\Temp\ccb3oWGE.s 			page 234


 13190 39cb BD000000 		.4byte	0xbd
 13191 39cf CF07     		.2byte	0x7cf
 13192 39d1 00       		.byte	0
 13193 39d2 05       		.uleb128 0x5
 13194 39d3 C1390000 		.4byte	0x39c1
 13195 39d7 32       		.uleb128 0x32
 13196 39d8 66270000 		.4byte	.LASF880
 13197 39dc 01       		.byte	0x1
 13198 39dd 4D       		.byte	0x4d
 13199 39de D2390000 		.4byte	0x39d2
 13200 39e2 05       		.uleb128 0x5
 13201 39e3 03       		.byte	0x3
 13202 39e4 D0840000 		.4byte	m_phase_samples
 13203 39e8 32       		.uleb128 0x32
 13204 39e9 7C160000 		.4byte	.LASF881
 13205 39ed 01       		.byte	0x1
 13206 39ee 4E       		.byte	0x4e
 13207 39ef B8000000 		.4byte	0xb8
 13208 39f3 05       		.uleb128 0x5
 13209 39f4 03       		.byte	0x3
 13210 39f5 00000000 		.4byte	m_sample_len
 13211 39f9 32       		.uleb128 0x32
 13212 39fa 3E0E0000 		.4byte	.LASF882
 13213 39fe 01       		.byte	0x1
 13214 39ff 4F       		.byte	0x4f
 13215 3a00 B8000000 		.4byte	0xb8
 13216 3a04 05       		.uleb128 0x5
 13217 3a05 03       		.byte	0x3
 13218 3a06 00000000 		.4byte	m_sample_int
 13219 3a0a 32       		.uleb128 0x32
 13220 3a0b D0120000 		.4byte	.LASF883
 13221 3a0f 01       		.byte	0x1
 13222 3a10 50       		.byte	0x50
 13223 3a11 9A110000 		.4byte	0x119a
 13224 3a15 05       		.uleb128 0x5
 13225 3a16 03       		.byte	0x3
 13226 3a17 00000000 		.4byte	m_sample_mode
 13227 3a1b 32       		.uleb128 0x32
 13228 3a1c 17210000 		.4byte	.LASF884
 13229 3a20 01       		.byte	0x1
 13230 3a21 51       		.byte	0x51
 13231 3a22 9A110000 		.4byte	0x119a
 13232 3a26 05       		.uleb128 0x5
 13233 3a27 03       		.byte	0x3
 13234 3a28 00000000 		.4byte	m_sample_mode_last
 13235 3a2c 32       		.uleb128 0x32
 13236 3a2d 3D2D0000 		.4byte	.LASF885
 13237 3a31 01       		.byte	0x1
 13238 3a32 52       		.byte	0x52
 13239 3a33 B8000000 		.4byte	0xb8
 13240 3a37 05       		.uleb128 0x5
 13241 3a38 03       		.byte	0x3
 13242 3a39 00000000 		.4byte	m_sample_now
 13243 3a3d 32       		.uleb128 0x32
 13244 3a3e 522C0000 		.4byte	.LASF886
 13245 3a42 01       		.byte	0x1
 13246 3a43 53       		.byte	0x53
ARM GAS  C:\Users\CHRIST~1\AppData\Local\Temp\ccb3oWGE.s 			page 235


 13247 3a44 B8000000 		.4byte	0xb8
 13248 3a48 05       		.uleb128 0x5
 13249 3a49 03       		.byte	0x3
 13250 3a4a 00000000 		.4byte	m_sample_trigger
 13251 3a4e 32       		.uleb128 0x32
 13252 3a4f 22180000 		.4byte	.LASF887
 13253 3a53 01       		.byte	0x1
 13254 3a54 54       		.byte	0x54
 13255 3a55 16110000 		.4byte	0x1116
 13256 3a59 05       		.uleb128 0x5
 13257 3a5a 03       		.byte	0x3
 13258 3a5b 00000000 		.4byte	m_last_adc_duration_sample
 13259 3a5f 32       		.uleb128 0x32
 13260 3a60 971D0000 		.4byte	.LASF888
 13261 3a64 01       		.byte	0x1
 13262 3a65 5A       		.byte	0x5a
 13263 3a66 76310000 		.4byte	0x3176
 13264 3a6a 05       		.uleb128 0x5
 13265 3a6b 03       		.byte	0x3
 13266 3a6c 00000000 		.4byte	pwn_done_func
 13267 3a70 11       		.uleb128 0x11
 13268 3a71 C70A0000 		.4byte	0xac7
 13269 3a75 803A0000 		.4byte	0x3a80
 13270 3a79 12       		.uleb128 0x12
 13271 3a7a BD000000 		.4byte	0xbd
 13272 3a7e B2       		.byte	0xb2
 13273 3a7f 00       		.byte	0
 13274 3a80 32       		.uleb128 0x32
 13275 3a81 EA050000 		.4byte	.LASF889
 13276 3a85 01       		.byte	0x1
 13277 3a86 5D       		.byte	0x5d
 13278 3a87 703A0000 		.4byte	0x3a70
 13279 3a8b 05       		.uleb128 0x5
 13280 3a8c 03       		.byte	0x3
 13281 3a8d 00000000 		.4byte	timer_thread_wa
 13282 3a91 32       		.uleb128 0x32
 13283 3a92 BE130000 		.4byte	.LASF890
 13284 3a96 01       		.byte	0x1
 13285 3a97 5F       		.byte	0x5f
 13286 3a98 703A0000 		.4byte	0x3a70
 13287 3a9c 05       		.uleb128 0x5
 13288 3a9d 03       		.byte	0x3
 13289 3a9e 00000000 		.4byte	sample_send_thread_wa
 13290 3aa2 32       		.uleb128 0x32
 13291 3aa3 F13B0000 		.4byte	.LASF891
 13292 3aa7 01       		.byte	0x1
 13293 3aa8 61       		.byte	0x61
 13294 3aa9 E2020000 		.4byte	0x2e2
 13295 3aad 05       		.uleb128 0x5
 13296 3aae 03       		.byte	0x3
 13297 3aaf 00000000 		.4byte	sample_send_tp
 13298 3ab3 33       		.uleb128 0x33
 13299 3ab4 092F0000 		.4byte	.LASF895
 13300 3ab8 01       		.byte	0x1
 13301 3ab9 D805     		.2byte	0x5d8
 13302 3abb 00000000 		.4byte	.LFB311
 13303 3abf 40020000 		.4byte	.LFE311-.LFB311
ARM GAS  C:\Users\CHRIST~1\AppData\Local\Temp\ccb3oWGE.s 			page 236


 13304 3ac3 01       		.uleb128 0x1
 13305 3ac4 9C       		.byte	0x9c
 13306 3ac5 6C3C0000 		.4byte	0x3c6c
 13307 3ac9 34       		.uleb128 0x34
 13308 3aca 61726700 		.ascii	"arg\000"
 13309 3ace 01       		.byte	0x1
 13310 3acf D805     		.2byte	0x5d8
 13311 3ad1 BF030000 		.4byte	0x3bf
 13312 3ad5 00000000 		.4byte	.LLST0
 13313 3ad9 35       		.uleb128 0x35
 13314 3ada 20000000 		.4byte	.Ldebug_ranges0+0x20
 13315 3ade 513C0000 		.4byte	0x3c51
 13316 3ae2 36       		.uleb128 0x36
 13317 3ae3 6C656E00 		.ascii	"len\000"
 13318 3ae7 01       		.byte	0x1
 13319 3ae8 E205     		.2byte	0x5e2
 13320 3aea B1000000 		.4byte	0xb1
 13321 3aee 21000000 		.4byte	.LLST2
 13322 3af2 37       		.uleb128 0x37
 13323 3af3 DB300000 		.4byte	.LASF150
 13324 3af7 01       		.byte	0x1
 13325 3af8 E305     		.2byte	0x5e3
 13326 3afa B1000000 		.4byte	0xb1
 13327 3afe 4E000000 		.4byte	.LLST3
 13328 3b02 35       		.uleb128 0x35
 13329 3b03 38000000 		.4byte	.Ldebug_ranges0+0x38
 13330 3b07 413C0000 		.4byte	0x3c41
 13331 3b0b 36       		.uleb128 0x36
 13332 3b0c 6900     		.ascii	"i\000"
 13333 3b0e 01       		.byte	0x1
 13334 3b0f F705     		.2byte	0x5f7
 13335 3b11 B1000000 		.4byte	0xb1
 13336 3b15 79000000 		.4byte	.LLST4
 13337 3b19 38       		.uleb128 0x38
 13338 3b1a 60000000 		.4byte	.Ldebug_ranges0+0x60
 13339 3b1e 39       		.uleb128 0x39
 13340 3b1f C1280000 		.4byte	.LASF892
 13341 3b23 01       		.byte	0x1
 13342 3b24 F805     		.2byte	0x5f8
 13343 3b26 6C3C0000 		.4byte	0x3c6c
 13344 3b2a 03       		.uleb128 0x3
 13345 3b2b 91       		.byte	0x91
 13346 3b2c 987F     		.sleb128 -104
 13347 3b2e 39       		.uleb128 0x39
 13348 3b2f CA060000 		.4byte	.LASF893
 13349 3b33 01       		.byte	0x1
 13350 3b34 F905     		.2byte	0x5f9
 13351 3b36 0E010000 		.4byte	0x10e
 13352 3b3a 03       		.uleb128 0x3
 13353 3b3b 91       		.byte	0x91
 13354 3b3c 947F     		.sleb128 -108
 13355 3b3e 37       		.uleb128 0x37
 13356 3b3f 5E190000 		.4byte	.LASF894
 13357 3b43 01       		.byte	0x1
 13358 3b44 FA05     		.2byte	0x5fa
 13359 3b46 B1000000 		.4byte	0xb1
 13360 3b4a BC000000 		.4byte	.LLST5
ARM GAS  C:\Users\CHRIST~1\AppData\Local\Temp\ccb3oWGE.s 			page 237


 13361 3b4e 3A       		.uleb128 0x3a
 13362 3b4f A0000000 		.4byte	.LVL9
 13363 3b53 F3550000 		.4byte	0x55f3
 13364 3b57 6A3B0000 		.4byte	0x3b6a
 13365 3b5b 3B       		.uleb128 0x3b
 13366 3b5c 01       		.uleb128 0x1
 13367 3b5d 50       		.byte	0x50
 13368 3b5e 03       		.uleb128 0x3
 13369 3b5f 91       		.byte	0x91
 13370 3b60 987F     		.sleb128 -104
 13371 3b62 3B       		.uleb128 0x3b
 13372 3b63 01       		.uleb128 0x1
 13373 3b64 51       		.byte	0x51
 13374 3b65 03       		.uleb128 0x3
 13375 3b66 91       		.byte	0x91
 13376 3b67 947F     		.sleb128 -108
 13377 3b69 00       		.byte	0
 13378 3b6a 3A       		.uleb128 0x3a
 13379 3b6b BC000000 		.4byte	.LVL10
 13380 3b6f F3550000 		.4byte	0x55f3
 13381 3b73 863B0000 		.4byte	0x3b86
 13382 3b77 3B       		.uleb128 0x3b
 13383 3b78 01       		.uleb128 0x1
 13384 3b79 50       		.byte	0x50
 13385 3b7a 03       		.uleb128 0x3
 13386 3b7b 91       		.byte	0x91
 13387 3b7c 987F     		.sleb128 -104
 13388 3b7e 3B       		.uleb128 0x3b
 13389 3b7f 01       		.uleb128 0x1
 13390 3b80 51       		.byte	0x51
 13391 3b81 03       		.uleb128 0x3
 13392 3b82 91       		.byte	0x91
 13393 3b83 947F     		.sleb128 -108
 13394 3b85 00       		.byte	0
 13395 3b86 3A       		.uleb128 0x3a
 13396 3b87 E8000000 		.4byte	.LVL12
 13397 3b8b F3550000 		.4byte	0x55f3
 13398 3b8f A23B0000 		.4byte	0x3ba2
 13399 3b93 3B       		.uleb128 0x3b
 13400 3b94 01       		.uleb128 0x1
 13401 3b95 50       		.byte	0x50
 13402 3b96 03       		.uleb128 0x3
 13403 3b97 91       		.byte	0x91
 13404 3b98 987F     		.sleb128 -104
 13405 3b9a 3B       		.uleb128 0x3b
 13406 3b9b 01       		.uleb128 0x1
 13407 3b9c 51       		.byte	0x51
 13408 3b9d 03       		.uleb128 0x3
 13409 3b9e 91       		.byte	0x91
 13410 3b9f 947F     		.sleb128 -108
 13411 3ba1 00       		.byte	0
 13412 3ba2 3A       		.uleb128 0x3a
 13413 3ba3 0E010000 		.4byte	.LVL13
 13414 3ba7 F3550000 		.4byte	0x55f3
 13415 3bab BE3B0000 		.4byte	0x3bbe
 13416 3baf 3B       		.uleb128 0x3b
 13417 3bb0 01       		.uleb128 0x1
ARM GAS  C:\Users\CHRIST~1\AppData\Local\Temp\ccb3oWGE.s 			page 238


 13418 3bb1 50       		.byte	0x50
 13419 3bb2 03       		.uleb128 0x3
 13420 3bb3 91       		.byte	0x91
 13421 3bb4 987F     		.sleb128 -104
 13422 3bb6 3B       		.uleb128 0x3b
 13423 3bb7 01       		.uleb128 0x1
 13424 3bb8 51       		.byte	0x51
 13425 3bb9 03       		.uleb128 0x3
 13426 3bba 91       		.byte	0x91
 13427 3bbb 947F     		.sleb128 -108
 13428 3bbd 00       		.byte	0
 13429 3bbe 3A       		.uleb128 0x3a
 13430 3bbf 34010000 		.4byte	.LVL14
 13431 3bc3 F3550000 		.4byte	0x55f3
 13432 3bc7 DA3B0000 		.4byte	0x3bda
 13433 3bcb 3B       		.uleb128 0x3b
 13434 3bcc 01       		.uleb128 0x1
 13435 3bcd 50       		.byte	0x50
 13436 3bce 03       		.uleb128 0x3
 13437 3bcf 91       		.byte	0x91
 13438 3bd0 987F     		.sleb128 -104
 13439 3bd2 3B       		.uleb128 0x3b
 13440 3bd3 01       		.uleb128 0x1
 13441 3bd4 51       		.byte	0x51
 13442 3bd5 03       		.uleb128 0x3
 13443 3bd6 91       		.byte	0x91
 13444 3bd7 947F     		.sleb128 -108
 13445 3bd9 00       		.byte	0
 13446 3bda 3A       		.uleb128 0x3a
 13447 3bdb 5A010000 		.4byte	.LVL15
 13448 3bdf F3550000 		.4byte	0x55f3
 13449 3be3 F63B0000 		.4byte	0x3bf6
 13450 3be7 3B       		.uleb128 0x3b
 13451 3be8 01       		.uleb128 0x1
 13452 3be9 50       		.byte	0x50
 13453 3bea 03       		.uleb128 0x3
 13454 3beb 91       		.byte	0x91
 13455 3bec 987F     		.sleb128 -104
 13456 3bee 3B       		.uleb128 0x3b
 13457 3bef 01       		.uleb128 0x1
 13458 3bf0 51       		.byte	0x51
 13459 3bf1 03       		.uleb128 0x3
 13460 3bf2 91       		.byte	0x91
 13461 3bf3 947F     		.sleb128 -108
 13462 3bf5 00       		.byte	0
 13463 3bf6 3A       		.uleb128 0x3a
 13464 3bf7 78010000 		.4byte	.LVL16
 13465 3bfb F3550000 		.4byte	0x55f3
 13466 3bff 123C0000 		.4byte	0x3c12
 13467 3c03 3B       		.uleb128 0x3b
 13468 3c04 01       		.uleb128 0x1
 13469 3c05 50       		.byte	0x50
 13470 3c06 03       		.uleb128 0x3
 13471 3c07 91       		.byte	0x91
 13472 3c08 987F     		.sleb128 -104
 13473 3c0a 3B       		.uleb128 0x3b
 13474 3c0b 01       		.uleb128 0x1
ARM GAS  C:\Users\CHRIST~1\AppData\Local\Temp\ccb3oWGE.s 			page 239


 13475 3c0c 51       		.byte	0x51
 13476 3c0d 03       		.uleb128 0x3
 13477 3c0e 91       		.byte	0x91
 13478 3c0f 947F     		.sleb128 -108
 13479 3c11 00       		.byte	0
 13480 3c12 3A       		.uleb128 0x3a
 13481 3c13 9A010000 		.4byte	.LVL17
 13482 3c17 F3550000 		.4byte	0x55f3
 13483 3c1b 2E3C0000 		.4byte	0x3c2e
 13484 3c1f 3B       		.uleb128 0x3b
 13485 3c20 01       		.uleb128 0x1
 13486 3c21 50       		.byte	0x50
 13487 3c22 03       		.uleb128 0x3
 13488 3c23 91       		.byte	0x91
 13489 3c24 987F     		.sleb128 -104
 13490 3c26 3B       		.uleb128 0x3b
 13491 3c27 01       		.uleb128 0x1
 13492 3c28 51       		.byte	0x51
 13493 3c29 03       		.uleb128 0x3
 13494 3c2a 91       		.byte	0x91
 13495 3c2b 947F     		.sleb128 -108
 13496 3c2d 00       		.byte	0
 13497 3c2e 3C       		.uleb128 0x3c
 13498 3c2f C0010000 		.4byte	.LVL20
 13499 3c33 FE550000 		.4byte	0x55fe
 13500 3c37 3B       		.uleb128 0x3b
 13501 3c38 01       		.uleb128 0x1
 13502 3c39 50       		.byte	0x50
 13503 3c3a 03       		.uleb128 0x3
 13504 3c3b 91       		.byte	0x91
 13505 3c3c 987F     		.sleb128 -104
 13506 3c3e 00       		.byte	0
 13507 3c3f 00       		.byte	0
 13508 3c40 00       		.byte	0
 13509 3c41 3C       		.uleb128 0x3c
 13510 3c42 3A000000 		.4byte	.LVL3
 13511 3c46 09560000 		.4byte	0x5609
 13512 3c4a 3B       		.uleb128 0x3b
 13513 3c4b 01       		.uleb128 0x1
 13514 3c4c 50       		.byte	0x50
 13515 3c4d 01       		.uleb128 0x1
 13516 3c4e 31       		.byte	0x31
 13517 3c4f 00       		.byte	0
 13518 3c50 00       		.byte	0
 13519 3c51 3D       		.uleb128 0x3d
 13520 3c52 7C4F0000 		.4byte	0x4f7c
 13521 3c56 04000000 		.4byte	.LBB109
 13522 3c5a 00000000 		.4byte	.Ldebug_ranges0+0
 13523 3c5e 01       		.byte	0x1
 13524 3c5f DB05     		.2byte	0x5db
 13525 3c61 3E       		.uleb128 0x3e
 13526 3c62 884F0000 		.4byte	0x4f88
 13527 3c66 06010000 		.4byte	.LLST1
 13528 3c6a 00       		.byte	0
 13529 3c6b 00       		.byte	0
 13530 3c6c 11       		.uleb128 0x11
 13531 3c6d D9000000 		.4byte	0xd9
ARM GAS  C:\Users\CHRIST~1\AppData\Local\Temp\ccb3oWGE.s 			page 240


 13532 3c71 7C3C0000 		.4byte	0x3c7c
 13533 3c75 12       		.uleb128 0x12
 13534 3c76 BD000000 		.4byte	0xbd
 13535 3c7a 27       		.byte	0x27
 13536 3c7b 00       		.byte	0
 13537 3c7c 33       		.uleb128 0x33
 13538 3c7d 99040000 		.4byte	.LASF896
 13539 3c81 01       		.byte	0x1
 13540 3c82 C305     		.2byte	0x5c3
 13541 3c84 00000000 		.4byte	.LFB310
 13542 3c88 48000000 		.4byte	.LFE310-.LFB310
 13543 3c8c 01       		.uleb128 0x1
 13544 3c8d 9C       		.byte	0x9c
 13545 3c8e DC3C0000 		.4byte	0x3cdc
 13546 3c92 34       		.uleb128 0x34
 13547 3c93 61726700 		.ascii	"arg\000"
 13548 3c97 01       		.byte	0x1
 13549 3c98 C305     		.2byte	0x5c3
 13550 3c9a BF030000 		.4byte	0x3bf
 13551 3c9e 1E010000 		.4byte	.LLST46
 13552 3ca2 3F       		.uleb128 0x3f
 13553 3ca3 7C4F0000 		.4byte	0x4f7c
 13554 3ca7 00000000 		.4byte	.LBB149
 13555 3cab 20010000 		.4byte	.Ldebug_ranges0+0x120
 13556 3caf 01       		.byte	0x1
 13557 3cb0 C605     		.2byte	0x5c6
 13558 3cb2 C33C0000 		.4byte	0x3cc3
 13559 3cb6 40       		.uleb128 0x40
 13560 3cb7 884F0000 		.4byte	0x4f88
 13561 3cbb 06       		.uleb128 0x6
 13562 3cbc 03       		.byte	0x3
 13563 3cbd 00000000 		.4byte	.LC2
 13564 3cc1 9F       		.byte	0x9f
 13565 3cc2 00       		.byte	0
 13566 3cc3 41       		.uleb128 0x41
 13567 3cc4 1A000000 		.4byte	.LVL253
 13568 3cc8 CB500000 		.4byte	0x50cb
 13569 3ccc 3C       		.uleb128 0x3c
 13570 3ccd 20000000 		.4byte	.LVL254
 13571 3cd1 14560000 		.4byte	0x5614
 13572 3cd5 3B       		.uleb128 0x3b
 13573 3cd6 01       		.uleb128 0x1
 13574 3cd7 50       		.byte	0x50
 13575 3cd8 01       		.uleb128 0x1
 13576 3cd9 3A       		.byte	0x3a
 13577 3cda 00       		.byte	0
 13578 3cdb 00       		.byte	0
 13579 3cdc 42       		.uleb128 0x42
 13580 3cdd D11F0000 		.4byte	.LASF995
 13581 3ce1 01       		.byte	0x1
 13582 3ce2 1505     		.2byte	0x515
 13583 3ce4 01       		.byte	0x1
 13584 3ce5 423E0000 		.4byte	0x3e42
 13585 3ce9 43       		.uleb128 0x43
 13586 3cea 32230000 		.4byte	.LASF936
 13587 3cee 01       		.byte	0x1
 13588 3cef 1505     		.2byte	0x515
ARM GAS  C:\Users\CHRIST~1\AppData\Local\Temp\ccb3oWGE.s 			page 241


 13589 3cf1 423E0000 		.4byte	0x3e42
 13590 3cf5 44       		.uleb128 0x44
 13591 3cf6 871E0000 		.4byte	.LASF897
 13592 3cfa 01       		.byte	0x1
 13593 3cfb 1605     		.2byte	0x516
 13594 3cfd 1B110000 		.4byte	0x111b
 13595 3d01 44       		.uleb128 0x44
 13596 3d02 641E0000 		.4byte	.LASF898
 13597 3d06 01       		.byte	0x1
 13598 3d07 1705     		.2byte	0x517
 13599 3d09 1B110000 		.4byte	0x111b
 13600 3d0d 44       		.uleb128 0x44
 13601 3d0e 32040000 		.4byte	.LASF899
 13602 3d12 01       		.byte	0x1
 13603 3d13 1D05     		.2byte	0x51d
 13604 3d15 25000000 		.4byte	0x25
 13605 3d19 44       		.uleb128 0x44
 13606 3d1a 20020000 		.4byte	.LASF900
 13607 3d1e 01       		.byte	0x1
 13608 3d1f 1E05     		.2byte	0x51e
 13609 3d21 25000000 		.4byte	0x25
 13610 3d25 44       		.uleb128 0x44
 13611 3d26 152D0000 		.4byte	.LASF901
 13612 3d2a 01       		.byte	0x1
 13613 3d2b 3805     		.2byte	0x538
 13614 3d2d 25000000 		.4byte	0x25
 13615 3d31 44       		.uleb128 0x44
 13616 3d32 95290000 		.4byte	.LASF902
 13617 3d36 01       		.byte	0x1
 13618 3d37 3905     		.2byte	0x539
 13619 3d39 25000000 		.4byte	0x25
 13620 3d3d 44       		.uleb128 0x44
 13621 3d3e BE250000 		.4byte	.LASF903
 13622 3d42 01       		.byte	0x1
 13623 3d43 5405     		.2byte	0x554
 13624 3d45 1B110000 		.4byte	0x111b
 13625 3d49 44       		.uleb128 0x44
 13626 3d4a 472A0000 		.4byte	.LASF904
 13627 3d4e 01       		.byte	0x1
 13628 3d4f 5505     		.2byte	0x555
 13629 3d51 1B110000 		.4byte	0x111b
 13630 3d55 44       		.uleb128 0x44
 13631 3d56 E0020000 		.4byte	.LASF905
 13632 3d5a 01       		.byte	0x1
 13633 3d5b 5605     		.2byte	0x556
 13634 3d5d 1B110000 		.4byte	0x111b
 13635 3d61 44       		.uleb128 0x44
 13636 3d62 61130000 		.4byte	.LASF906
 13637 3d66 01       		.byte	0x1
 13638 3d67 5705     		.2byte	0x557
 13639 3d69 1B110000 		.4byte	0x111b
 13640 3d6d 44       		.uleb128 0x44
 13641 3d6e 9D390000 		.4byte	.LASF907
 13642 3d72 01       		.byte	0x1
 13643 3d73 5905     		.2byte	0x559
 13644 3d75 25000000 		.4byte	0x25
 13645 3d79 44       		.uleb128 0x44
ARM GAS  C:\Users\CHRIST~1\AppData\Local\Temp\ccb3oWGE.s 			page 242


 13646 3d7a 93060000 		.4byte	.LASF908
 13647 3d7e 01       		.byte	0x1
 13648 3d7f 6305     		.2byte	0x563
 13649 3d81 25000000 		.4byte	0x25
 13650 3d85 44       		.uleb128 0x44
 13651 3d86 9E210000 		.4byte	.LASF909
 13652 3d8a 01       		.byte	0x1
 13653 3d8b 6E05     		.2byte	0x56e
 13654 3d8d 25000000 		.4byte	0x25
 13655 3d91 44       		.uleb128 0x44
 13656 3d92 97150000 		.4byte	.LASF910
 13657 3d96 01       		.byte	0x1
 13658 3d97 6F05     		.2byte	0x56f
 13659 3d99 1B110000 		.4byte	0x111b
 13660 3d9d 44       		.uleb128 0x44
 13661 3d9e 4B080000 		.4byte	.LASF911
 13662 3da2 01       		.byte	0x1
 13663 3da3 7005     		.2byte	0x570
 13664 3da5 1B110000 		.4byte	0x111b
 13665 3da9 44       		.uleb128 0x44
 13666 3daa 14280000 		.4byte	.LASF912
 13667 3dae 01       		.byte	0x1
 13668 3daf 7A05     		.2byte	0x57a
 13669 3db1 25000000 		.4byte	0x25
 13670 3db5 44       		.uleb128 0x44
 13671 3db6 B1360000 		.4byte	.LASF913
 13672 3dba 01       		.byte	0x1
 13673 3dbb 7B05     		.2byte	0x57b
 13674 3dbd 1B110000 		.4byte	0x111b
 13675 3dc1 44       		.uleb128 0x44
 13676 3dc2 49100000 		.4byte	.LASF914
 13677 3dc6 01       		.byte	0x1
 13678 3dc7 7C05     		.2byte	0x57c
 13679 3dc9 1B110000 		.4byte	0x111b
 13680 3dcd 44       		.uleb128 0x44
 13681 3dce 79280000 		.4byte	.LASF915
 13682 3dd2 01       		.byte	0x1
 13683 3dd3 8505     		.2byte	0x585
 13684 3dd5 25000000 		.4byte	0x25
 13685 3dd9 44       		.uleb128 0x44
 13686 3dda 5A130000 		.4byte	.LASF916
 13687 3dde 01       		.byte	0x1
 13688 3ddf 8605     		.2byte	0x586
 13689 3de1 25000000 		.4byte	0x25
 13690 3de5 44       		.uleb128 0x44
 13691 3de6 9A2C0000 		.4byte	.LASF917
 13692 3dea 01       		.byte	0x1
 13693 3deb 9905     		.2byte	0x599
 13694 3ded 25000000 		.4byte	0x25
 13695 3df1 44       		.uleb128 0x44
 13696 3df2 61300000 		.4byte	.LASF918
 13697 3df6 01       		.byte	0x1
 13698 3df7 A405     		.2byte	0x5a4
 13699 3df9 1B110000 		.4byte	0x111b
 13700 3dfd 44       		.uleb128 0x44
 13701 3dfe 8B220000 		.4byte	.LASF919
 13702 3e02 01       		.byte	0x1
ARM GAS  C:\Users\CHRIST~1\AppData\Local\Temp\ccb3oWGE.s 			page 243


 13703 3e03 A505     		.2byte	0x5a5
 13704 3e05 1B110000 		.4byte	0x111b
 13705 3e09 44       		.uleb128 0x44
 13706 3e0a B01A0000 		.4byte	.LASF920
 13707 3e0e 01       		.byte	0x1
 13708 3e0f A705     		.2byte	0x5a7
 13709 3e11 1B110000 		.4byte	0x111b
 13710 3e15 44       		.uleb128 0x44
 13711 3e16 A0290000 		.4byte	.LASF921
 13712 3e1a 01       		.byte	0x1
 13713 3e1b A805     		.2byte	0x5a8
 13714 3e1d 1B110000 		.4byte	0x111b
 13715 3e21 45       		.uleb128 0x45
 13716 3e22 333E0000 		.4byte	0x3e33
 13717 3e26 44       		.uleb128 0x44
 13718 3e27 4F090000 		.4byte	.LASF922
 13719 3e2b 01       		.byte	0x1
 13720 3e2c 2705     		.2byte	0x527
 13721 3e2e 25000000 		.4byte	0x25
 13722 3e32 00       		.byte	0
 13723 3e33 46       		.uleb128 0x46
 13724 3e34 44       		.uleb128 0x44
 13725 3e35 4F090000 		.4byte	.LASF922
 13726 3e39 01       		.byte	0x1
 13727 3e3a 4205     		.2byte	0x542
 13728 3e3c 25000000 		.4byte	0x25
 13729 3e40 00       		.byte	0
 13730 3e41 00       		.byte	0
 13731 3e42 0B       		.uleb128 0xb
 13732 3e43 04       		.byte	0x4
 13733 3e44 8B160000 		.4byte	0x168b
 13734 3e48 47       		.uleb128 0x47
 13735 3e49 90200000 		.4byte	.LASF923
 13736 3e4d 01       		.byte	0x1
 13737 3e4e 0005     		.2byte	0x500
 13738 3e50 00000000 		.4byte	.LFB308
 13739 3e54 14000000 		.4byte	.LFE308-.LFB308
 13740 3e58 01       		.uleb128 0x1
 13741 3e59 9C       		.byte	0x9c
 13742 3e5a 683E0000 		.4byte	0x3e68
 13743 3e5e 48       		.uleb128 0x48
 13744 3e5f 0E000000 		.4byte	.LVL464
 13745 3e63 1F560000 		.4byte	0x561f
 13746 3e67 00       		.byte	0
 13747 3e68 49       		.uleb128 0x49
 13748 3e69 E2300000 		.4byte	.LASF924
 13749 3e6d 01       		.byte	0x1
 13750 3e6e 1704     		.2byte	0x417
 13751 3e70 00000000 		.4byte	.LFB307
 13752 3e74 10070000 		.4byte	.LFE307-.LFB307
 13753 3e78 01       		.uleb128 0x1
 13754 3e79 9C       		.byte	0x9c
 13755 3e7a C7430000 		.4byte	0x43c7
 13756 3e7e 37       		.uleb128 0x37
 13757 3e7f 57390000 		.4byte	.LASF925
 13758 3e83 01       		.byte	0x1
 13759 3e84 1A04     		.2byte	0x41a
ARM GAS  C:\Users\CHRIST~1\AppData\Local\Temp\ccb3oWGE.s 			page 244


 13760 3e86 1B110000 		.4byte	0x111b
 13761 3e8a 3F010000 		.4byte	.LLST70
 13762 3e8e 39       		.uleb128 0x39
 13763 3e8f 02040000 		.4byte	.LASF926
 13764 3e93 01       		.byte	0x1
 13765 3e94 1D04     		.2byte	0x41d
 13766 3e96 B1000000 		.4byte	0xb1
 13767 3e9a 05       		.uleb128 0x5
 13768 3e9b 03       		.byte	0x3
 13769 3e9c 00000000 		.4byte	wrong_voltage_iterations.12063
 13770 3ea0 37       		.uleb128 0x37
 13771 3ea1 231F0000 		.4byte	.LASF399
 13772 3ea5 01       		.byte	0x1
 13773 3ea6 3404     		.2byte	0x434
 13774 3ea8 1B110000 		.4byte	0x111b
 13775 3eac 77010000 		.4byte	.LLST71
 13776 3eb0 37       		.uleb128 0x37
 13777 3eb1 AF0A0000 		.4byte	.LASF927
 13778 3eb5 01       		.byte	0x1
 13779 3eb6 3504     		.2byte	0x435
 13780 3eb8 1B110000 		.4byte	0x111b
 13781 3ebc BB010000 		.4byte	.LLST72
 13782 3ec0 37       		.uleb128 0x37
 13783 3ec1 772B0000 		.4byte	.LASF928
 13784 3ec5 01       		.byte	0x1
 13785 3ec6 4004     		.2byte	0x440
 13786 3ec8 25000000 		.4byte	0x25
 13787 3ecc F3010000 		.4byte	.LLST73
 13788 3ed0 37       		.uleb128 0x37
 13789 3ed1 A9010000 		.4byte	.LASF929
 13790 3ed5 01       		.byte	0x1
 13791 3ed6 4104     		.2byte	0x441
 13792 3ed8 25000000 		.4byte	0x25
 13793 3edc 4F020000 		.4byte	.LLST74
 13794 3ee0 37       		.uleb128 0x37
 13795 3ee1 86050000 		.4byte	.LASF930
 13796 3ee5 01       		.byte	0x1
 13797 3ee6 5904     		.2byte	0x459
 13798 3ee8 1B110000 		.4byte	0x111b
 13799 3eec 93020000 		.4byte	.LLST75
 13800 3ef0 37       		.uleb128 0x37
 13801 3ef1 89200000 		.4byte	.LASF931
 13802 3ef5 01       		.byte	0x1
 13803 3ef6 7004     		.2byte	0x470
 13804 3ef8 54160000 		.4byte	0x1654
 13805 3efc 67030000 		.4byte	.LLST76
 13806 3f00 35       		.uleb128 0x35
 13807 3f01 98010000 		.4byte	.Ldebug_ranges0+0x198
 13808 3f05 2E3F0000 		.4byte	0x3f2e
 13809 3f09 39       		.uleb128 0x39
 13810 3f0a C6260000 		.4byte	.LASF932
 13811 3f0e 01       		.byte	0x1
 13812 3f0f 5C04     		.2byte	0x45c
 13813 3f11 25000000 		.4byte	0x25
 13814 3f15 05       		.uleb128 0x5
 13815 3f16 03       		.byte	0x3
 13816 3f17 00000000 		.4byte	curr_diff_sum.12069
ARM GAS  C:\Users\CHRIST~1\AppData\Local\Temp\ccb3oWGE.s 			page 245


 13817 3f1b 39       		.uleb128 0x39
 13818 3f1c 71360000 		.4byte	.LASF933
 13819 3f20 01       		.byte	0x1
 13820 3f21 5D04     		.2byte	0x45d
 13821 3f23 25000000 		.4byte	0x25
 13822 3f27 05       		.uleb128 0x5
 13823 3f28 03       		.byte	0x3
 13824 3f29 00000000 		.4byte	curr_diff_samples.12070
 13825 3f2d 00       		.byte	0
 13826 3f2e 35       		.uleb128 0x35
 13827 3f2f 60020000 		.4byte	.Ldebug_ranges0+0x260
 13828 3f33 0B400000 		.4byte	0x400b
 13829 3f37 37       		.uleb128 0x37
 13830 3f38 97090000 		.4byte	.LASF934
 13831 3f3c 01       		.byte	0x1
 13832 3f3d 9104     		.2byte	0x491
 13833 3f3f B1000000 		.4byte	0xb1
 13834 3f43 0A040000 		.4byte	.LLST84
 13835 3f47 4A       		.uleb128 0x4a
 13836 3f48 A94F0000 		.4byte	0x4fa9
 13837 3f4c AA060000 		.4byte	.LBB207
 13838 3f50 06000000 		.4byte	.LBE207-.LBB207
 13839 3f54 01       		.byte	0x1
 13840 3f55 9E04     		.2byte	0x49e
 13841 3f57 983F0000 		.4byte	0x3f98
 13842 3f5b 4B       		.uleb128 0x4b
 13843 3f5c BB4F0000 		.4byte	0x4fbb
 13844 3f60 AA060000 		.4byte	.LBB208
 13845 3f64 06000000 		.4byte	.LBE208-.LBB208
 13846 3f68 2C       		.byte	0x2c
 13847 3f69 8401     		.2byte	0x184
 13848 3f6b 4B       		.uleb128 0x4b
 13849 3f6c CD4F0000 		.4byte	0x4fcd
 13850 3f70 AA060000 		.4byte	.LBB209
 13851 3f74 06000000 		.4byte	.LBE209-.LBB209
 13852 3f78 0E       		.byte	0xe
 13853 3f79 DB01     		.2byte	0x1db
 13854 3f7b 4B       		.uleb128 0x4b
 13855 3f7c D64F0000 		.4byte	0x4fd6
 13856 3f80 AA060000 		.4byte	.LBB210
 13857 3f84 06000000 		.4byte	.LBE210-.LBB210
 13858 3f88 0E       		.byte	0xe
 13859 3f89 BF01     		.2byte	0x1bf
 13860 3f8b 3E       		.uleb128 0x3e
 13861 3f8c E34F0000 		.4byte	0x4fe3
 13862 3f90 5D040000 		.4byte	.LLST85
 13863 3f94 00       		.byte	0
 13864 3f95 00       		.byte	0
 13865 3f96 00       		.byte	0
 13866 3f97 00       		.byte	0
 13867 3f98 4A       		.uleb128 0x4a
 13868 3f99 A04F0000 		.4byte	0x4fa0
 13869 3f9d BA060000 		.4byte	.LBB212
 13870 3fa1 08000000 		.4byte	.LBE212-.LBB212
 13871 3fa5 01       		.byte	0x1
 13872 3fa6 A004     		.2byte	0x4a0
 13873 3fa8 E93F0000 		.4byte	0x3fe9
ARM GAS  C:\Users\CHRIST~1\AppData\Local\Temp\ccb3oWGE.s 			page 246


 13874 3fac 4B       		.uleb128 0x4b
 13875 3fad B24F0000 		.4byte	0x4fb2
 13876 3fb1 BA060000 		.4byte	.LBB213
 13877 3fb5 08000000 		.4byte	.LBE213-.LBB213
 13878 3fb9 2C       		.byte	0x2c
 13879 3fba 9A01     		.2byte	0x19a
 13880 3fbc 4B       		.uleb128 0x4b
 13881 3fbd C44F0000 		.4byte	0x4fc4
 13882 3fc1 BA060000 		.4byte	.LBB214
 13883 3fc5 08000000 		.4byte	.LBE214-.LBB214
 13884 3fc9 0E       		.byte	0xe
 13885 3fca E601     		.2byte	0x1e6
 13886 3fcc 4B       		.uleb128 0x4b
 13887 3fcd D64F0000 		.4byte	0x4fd6
 13888 3fd1 BA060000 		.4byte	.LBB215
 13889 3fd5 08000000 		.4byte	.LBE215-.LBB215
 13890 3fd9 0E       		.byte	0xe
 13891 3fda CD01     		.2byte	0x1cd
 13892 3fdc 3E       		.uleb128 0x3e
 13893 3fdd E34F0000 		.4byte	0x4fe3
 13894 3fe1 72040000 		.4byte	.LLST86
 13895 3fe5 00       		.byte	0
 13896 3fe6 00       		.byte	0
 13897 3fe7 00       		.byte	0
 13898 3fe8 00       		.byte	0
 13899 3fe9 41       		.uleb128 0x41
 13900 3fea DA040000 		.4byte	.LVL439
 13901 3fee 3F4C0000 		.4byte	0x4c3f
 13902 3ff2 41       		.uleb128 0x41
 13903 3ff3 18050000 		.4byte	.LVL445
 13904 3ff7 3F4C0000 		.4byte	0x4c3f
 13905 3ffb 3C       		.uleb128 0x3c
 13906 3ffc BA060000 		.4byte	.LVL458
 13907 4000 2A560000 		.4byte	0x562a
 13908 4004 3B       		.uleb128 0x3b
 13909 4005 01       		.uleb128 0x1
 13910 4006 51       		.byte	0x51
 13911 4007 01       		.uleb128 0x1
 13912 4008 31       		.byte	0x31
 13913 4009 00       		.byte	0
 13914 400a 00       		.byte	0
 13915 400b 35       		.uleb128 0x35
 13916 400c C8010000 		.4byte	.Ldebug_ranges0+0x1c8
 13917 4010 D6400000 		.4byte	0x40d6
 13918 4014 37       		.uleb128 0x37
 13919 4015 97090000 		.4byte	.LASF934
 13920 4019 01       		.byte	0x1
 13921 401a AF04     		.2byte	0x4af
 13922 401c B1000000 		.4byte	0xb1
 13923 4020 86040000 		.4byte	.LLST79
 13924 4024 4A       		.uleb128 0x4a
 13925 4025 A94F0000 		.4byte	0x4fa9
 13926 4029 C2060000 		.4byte	.LBB181
 13927 402d 06000000 		.4byte	.LBE181-.LBB181
 13928 4031 01       		.byte	0x1
 13929 4032 BC04     		.2byte	0x4bc
 13930 4034 75400000 		.4byte	0x4075
ARM GAS  C:\Users\CHRIST~1\AppData\Local\Temp\ccb3oWGE.s 			page 247


 13931 4038 4B       		.uleb128 0x4b
 13932 4039 BB4F0000 		.4byte	0x4fbb
 13933 403d C2060000 		.4byte	.LBB182
 13934 4041 06000000 		.4byte	.LBE182-.LBB182
 13935 4045 2C       		.byte	0x2c
 13936 4046 8401     		.2byte	0x184
 13937 4048 4B       		.uleb128 0x4b
 13938 4049 CD4F0000 		.4byte	0x4fcd
 13939 404d C2060000 		.4byte	.LBB183
 13940 4051 06000000 		.4byte	.LBE183-.LBB183
 13941 4055 0E       		.byte	0xe
 13942 4056 DB01     		.2byte	0x1db
 13943 4058 4B       		.uleb128 0x4b
 13944 4059 D64F0000 		.4byte	0x4fd6
 13945 405d C2060000 		.4byte	.LBB184
 13946 4061 06000000 		.4byte	.LBE184-.LBB184
 13947 4065 0E       		.byte	0xe
 13948 4066 BF01     		.2byte	0x1bf
 13949 4068 3E       		.uleb128 0x3e
 13950 4069 E34F0000 		.4byte	0x4fe3
 13951 406d D9040000 		.4byte	.LLST80
 13952 4071 00       		.byte	0
 13953 4072 00       		.byte	0
 13954 4073 00       		.byte	0
 13955 4074 00       		.byte	0
 13956 4075 4A       		.uleb128 0x4a
 13957 4076 A04F0000 		.4byte	0x4fa0
 13958 407a D2060000 		.4byte	.LBB186
 13959 407e 3E000000 		.4byte	.LBE186-.LBB186
 13960 4082 01       		.byte	0x1
 13961 4083 BE04     		.2byte	0x4be
 13962 4085 C6400000 		.4byte	0x40c6
 13963 4089 4B       		.uleb128 0x4b
 13964 408a B24F0000 		.4byte	0x4fb2
 13965 408e D2060000 		.4byte	.LBB187
 13966 4092 3E000000 		.4byte	.LBE187-.LBB187
 13967 4096 2C       		.byte	0x2c
 13968 4097 9A01     		.2byte	0x19a
 13969 4099 4B       		.uleb128 0x4b
 13970 409a C44F0000 		.4byte	0x4fc4
 13971 409e D2060000 		.4byte	.LBB188
 13972 40a2 3E000000 		.4byte	.LBE188-.LBB188
 13973 40a6 0E       		.byte	0xe
 13974 40a7 E601     		.2byte	0x1e6
 13975 40a9 4B       		.uleb128 0x4b
 13976 40aa D64F0000 		.4byte	0x4fd6
 13977 40ae D2060000 		.4byte	.LBB189
 13978 40b2 3E000000 		.4byte	.LBE189-.LBB189
 13979 40b6 0E       		.byte	0xe
 13980 40b7 CD01     		.2byte	0x1cd
 13981 40b9 3E       		.uleb128 0x3e
 13982 40ba E34F0000 		.4byte	0x4fe3
 13983 40be EE040000 		.4byte	.LLST81
 13984 40c2 00       		.byte	0
 13985 40c3 00       		.byte	0
 13986 40c4 00       		.byte	0
 13987 40c5 00       		.byte	0
ARM GAS  C:\Users\CHRIST~1\AppData\Local\Temp\ccb3oWGE.s 			page 248


 13988 40c6 3C       		.uleb128 0x3c
 13989 40c7 D2060000 		.4byte	.LVL462
 13990 40cb 2A560000 		.4byte	0x562a
 13991 40cf 3B       		.uleb128 0x3b
 13992 40d0 01       		.uleb128 0x1
 13993 40d1 51       		.byte	0x51
 13994 40d2 01       		.uleb128 0x1
 13995 40d3 31       		.byte	0x31
 13996 40d4 00       		.byte	0
 13997 40d5 00       		.byte	0
 13998 40d6 35       		.uleb128 0x35
 13999 40d7 F0010000 		.4byte	.Ldebug_ranges0+0x1f0
 14000 40db 55410000 		.4byte	0x4155
 14001 40df 4C       		.uleb128 0x4c
 14002 40e0 6100     		.ascii	"a\000"
 14003 40e2 01       		.byte	0x1
 14004 40e3 CE04     		.2byte	0x4ce
 14005 40e5 B1000000 		.4byte	0xb1
 14006 40e9 05       		.uleb128 0x5
 14007 40ea 03       		.byte	0x3
 14008 40eb 00000000 		.4byte	a.12082
 14009 40ef 38       		.uleb128 0x38
 14010 40f0 08020000 		.4byte	.Ldebug_ranges0+0x208
 14011 40f4 37       		.uleb128 0x37
 14012 40f5 C8270000 		.4byte	.LASF935
 14013 40f9 01       		.byte	0x1
 14014 40fa D804     		.2byte	0x4d8
 14015 40fc EE000000 		.4byte	0xee
 14016 4100 02050000 		.4byte	.LLST82
 14017 4104 4D       		.uleb128 0x4d
 14018 4105 E4440000 		.4byte	0x44e4
 14019 4109 86030000 		.4byte	.LBB193
 14020 410d 20020000 		.4byte	.Ldebug_ranges0+0x220
 14021 4111 01       		.byte	0x1
 14022 4112 FB04     		.2byte	0x4fb
 14023 4114 41       		.uleb128 0x41
 14024 4115 D0020000 		.4byte	.LVL396
 14025 4119 3F4C0000 		.4byte	0x4c3f
 14026 411d 41       		.uleb128 0x41
 14027 411e 3E030000 		.4byte	.LVL397
 14028 4122 F9470000 		.4byte	0x47f9
 14029 4126 41       		.uleb128 0x41
 14030 4127 7E030000 		.4byte	.LVL398
 14031 412b 35560000 		.4byte	0x5635
 14032 412f 41       		.uleb128 0x41
 14033 4130 84030000 		.4byte	.LVL400
 14034 4134 40560000 		.4byte	0x5640
 14035 4138 41       		.uleb128 0x41
 14036 4139 D6050000 		.4byte	.LVL451
 14037 413d 4B560000 		.4byte	0x564b
 14038 4141 41       		.uleb128 0x41
 14039 4142 04060000 		.4byte	.LVL453
 14040 4146 35560000 		.4byte	0x5635
 14041 414a 41       		.uleb128 0x41
 14042 414b 26060000 		.4byte	.LVL454
 14043 414f 35560000 		.4byte	0x5635
 14044 4153 00       		.byte	0
ARM GAS  C:\Users\CHRIST~1\AppData\Local\Temp\ccb3oWGE.s 			page 249


 14045 4154 00       		.byte	0
 14046 4155 3F       		.uleb128 0x3f
 14047 4156 C7430000 		.4byte	0x43c7
 14048 415a 2C010000 		.4byte	.LBB171
 14049 415e 80010000 		.4byte	.Ldebug_ranges0+0x180
 14050 4162 01       		.byte	0x1
 14051 4163 4F04     		.2byte	0x44f
 14052 4165 73410000 		.4byte	0x4173
 14053 4169 3E       		.uleb128 0x3e
 14054 416a D4430000 		.4byte	0x43d4
 14055 416e 20050000 		.4byte	.LLST77
 14056 4172 00       		.byte	0
 14057 4173 4A       		.uleb128 0x4a
 14058 4174 C7430000 		.4byte	0x43c7
 14059 4178 E0010000 		.4byte	.LBB175
 14060 417c 06000000 		.4byte	.LBE175-.LBB175
 14061 4180 01       		.byte	0x1
 14062 4181 4B04     		.2byte	0x44b
 14063 4183 9C410000 		.4byte	0x419c
 14064 4187 4E       		.uleb128 0x4e
 14065 4188 D4430000 		.4byte	0x43d4
 14066 418c 3C       		.uleb128 0x3c
 14067 418d E6010000 		.4byte	.LVL388
 14068 4191 F04F0000 		.4byte	0x4ff0
 14069 4195 3B       		.uleb128 0x3b
 14070 4196 01       		.uleb128 0x1
 14071 4197 50       		.byte	0x50
 14072 4198 01       		.uleb128 0x1
 14073 4199 34       		.byte	0x34
 14074 419a 00       		.byte	0
 14075 419b 00       		.byte	0
 14076 419c 3F       		.uleb128 0x3f
 14077 419d C7430000 		.4byte	0x43c7
 14078 41a1 EE010000 		.4byte	.LBB177
 14079 41a5 B0010000 		.4byte	.Ldebug_ranges0+0x1b0
 14080 41a9 01       		.byte	0x1
 14081 41aa 5504     		.2byte	0x455
 14082 41ac C9410000 		.4byte	0x41c9
 14083 41b0 3E       		.uleb128 0x3e
 14084 41b1 D4430000 		.4byte	0x43d4
 14085 41b5 4C050000 		.4byte	.LLST78
 14086 41b9 3C       		.uleb128 0x3c
 14087 41ba A0040000 		.4byte	.LVL426
 14088 41be F04F0000 		.4byte	0x4ff0
 14089 41c2 3B       		.uleb128 0x3b
 14090 41c3 01       		.uleb128 0x1
 14091 41c4 50       		.byte	0x50
 14092 41c5 01       		.uleb128 0x1
 14093 41c6 33       		.byte	0x33
 14094 41c7 00       		.byte	0
 14095 41c8 00       		.byte	0
 14096 41c9 3F       		.uleb128 0x3f
 14097 41ca C7430000 		.4byte	0x43c7
 14098 41ce C8030000 		.4byte	.LBB199
 14099 41d2 38020000 		.4byte	.Ldebug_ranges0+0x238
 14100 41d6 01       		.byte	0x1
 14101 41d7 2304     		.2byte	0x423
ARM GAS  C:\Users\CHRIST~1\AppData\Local\Temp\ccb3oWGE.s 			page 250


 14102 41d9 F0410000 		.4byte	0x41f0
 14103 41dd 3E       		.uleb128 0x3e
 14104 41de D4430000 		.4byte	0x43d4
 14105 41e2 6C050000 		.4byte	.LLST83
 14106 41e6 41       		.uleb128 0x41
 14107 41e7 B4040000 		.4byte	.LVL432
 14108 41eb F04F0000 		.4byte	0x4ff0
 14109 41ef 00       		.byte	0
 14110 41f0 3F       		.uleb128 0x3f
 14111 41f1 A94F0000 		.4byte	0x4fa9
 14112 41f5 4E040000 		.4byte	.LBB217
 14113 41f9 88020000 		.4byte	.Ldebug_ranges0+0x288
 14114 41fd 01       		.byte	0x1
 14115 41fe 8704     		.2byte	0x487
 14116 4200 41420000 		.4byte	0x4241
 14117 4204 3D       		.uleb128 0x3d
 14118 4205 BB4F0000 		.4byte	0x4fbb
 14119 4209 4E040000 		.4byte	.LBB218
 14120 420d 88020000 		.4byte	.Ldebug_ranges0+0x288
 14121 4211 2C       		.byte	0x2c
 14122 4212 8401     		.2byte	0x184
 14123 4214 3D       		.uleb128 0x3d
 14124 4215 CD4F0000 		.4byte	0x4fcd
 14125 4219 4E040000 		.4byte	.LBB219
 14126 421d 88020000 		.4byte	.Ldebug_ranges0+0x288
 14127 4221 0E       		.byte	0xe
 14128 4222 DB01     		.2byte	0x1db
 14129 4224 3D       		.uleb128 0x3d
 14130 4225 D64F0000 		.4byte	0x4fd6
 14131 4229 4E040000 		.4byte	.LBB220
 14132 422d 88020000 		.4byte	.Ldebug_ranges0+0x288
 14133 4231 0E       		.byte	0xe
 14134 4232 BF01     		.2byte	0x1bf
 14135 4234 3E       		.uleb128 0x3e
 14136 4235 E34F0000 		.4byte	0x4fe3
 14137 4239 8A050000 		.4byte	.LLST87
 14138 423d 00       		.byte	0
 14139 423e 00       		.byte	0
 14140 423f 00       		.byte	0
 14141 4240 00       		.byte	0
 14142 4241 4A       		.uleb128 0x4a
 14143 4242 A04F0000 		.4byte	0x4fa0
 14144 4246 62040000 		.4byte	.LBB227
 14145 424a 04000000 		.4byte	.LBE227-.LBB227
 14146 424e 01       		.byte	0x1
 14147 424f 8904     		.2byte	0x489
 14148 4251 92420000 		.4byte	0x4292
 14149 4255 4B       		.uleb128 0x4b
 14150 4256 B24F0000 		.4byte	0x4fb2
 14151 425a 62040000 		.4byte	.LBB228
 14152 425e 04000000 		.4byte	.LBE228-.LBB228
 14153 4262 2C       		.byte	0x2c
 14154 4263 9A01     		.2byte	0x19a
 14155 4265 4B       		.uleb128 0x4b
 14156 4266 C44F0000 		.4byte	0x4fc4
 14157 426a 62040000 		.4byte	.LBB229
 14158 426e 04000000 		.4byte	.LBE229-.LBB229
ARM GAS  C:\Users\CHRIST~1\AppData\Local\Temp\ccb3oWGE.s 			page 251


 14159 4272 0E       		.byte	0xe
 14160 4273 E601     		.2byte	0x1e6
 14161 4275 4B       		.uleb128 0x4b
 14162 4276 D64F0000 		.4byte	0x4fd6
 14163 427a 62040000 		.4byte	.LBB230
 14164 427e 04000000 		.4byte	.LBE230-.LBB230
 14165 4282 0E       		.byte	0xe
 14166 4283 CD01     		.2byte	0x1cd
 14167 4285 3E       		.uleb128 0x3e
 14168 4286 E34F0000 		.4byte	0x4fe3
 14169 428a 9F050000 		.4byte	.LLST88
 14170 428e 00       		.byte	0
 14171 428f 00       		.byte	0
 14172 4290 00       		.byte	0
 14173 4291 00       		.byte	0
 14174 4292 3F       		.uleb128 0x3f
 14175 4293 A94F0000 		.4byte	0x4fa9
 14176 4297 84040000 		.4byte	.LBB232
 14177 429b A0020000 		.4byte	.Ldebug_ranges0+0x2a0
 14178 429f 01       		.byte	0x1
 14179 42a0 7704     		.2byte	0x477
 14180 42a2 E3420000 		.4byte	0x42e3
 14181 42a6 3D       		.uleb128 0x3d
 14182 42a7 BB4F0000 		.4byte	0x4fbb
 14183 42ab 84040000 		.4byte	.LBB233
 14184 42af A0020000 		.4byte	.Ldebug_ranges0+0x2a0
 14185 42b3 2C       		.byte	0x2c
 14186 42b4 8401     		.2byte	0x184
 14187 42b6 3D       		.uleb128 0x3d
 14188 42b7 CD4F0000 		.4byte	0x4fcd
 14189 42bb 84040000 		.4byte	.LBB234
 14190 42bf A0020000 		.4byte	.Ldebug_ranges0+0x2a0
 14191 42c3 0E       		.byte	0xe
 14192 42c4 DB01     		.2byte	0x1db
 14193 42c6 3D       		.uleb128 0x3d
 14194 42c7 D64F0000 		.4byte	0x4fd6
 14195 42cb 84040000 		.4byte	.LBB235
 14196 42cf A0020000 		.4byte	.Ldebug_ranges0+0x2a0
 14197 42d3 0E       		.byte	0xe
 14198 42d4 BF01     		.2byte	0x1bf
 14199 42d6 3E       		.uleb128 0x3e
 14200 42d7 E34F0000 		.4byte	0x4fe3
 14201 42db B3050000 		.4byte	.LLST89
 14202 42df 00       		.byte	0
 14203 42e0 00       		.byte	0
 14204 42e1 00       		.byte	0
 14205 42e2 00       		.byte	0
 14206 42e3 4A       		.uleb128 0x4a
 14207 42e4 A04F0000 		.4byte	0x4fa0
 14208 42e8 94040000 		.4byte	.LBB242
 14209 42ec 06000000 		.4byte	.LBE242-.LBB242
 14210 42f0 01       		.byte	0x1
 14211 42f1 7904     		.2byte	0x479
 14212 42f3 34430000 		.4byte	0x4334
 14213 42f7 4B       		.uleb128 0x4b
 14214 42f8 B24F0000 		.4byte	0x4fb2
 14215 42fc 94040000 		.4byte	.LBB243
ARM GAS  C:\Users\CHRIST~1\AppData\Local\Temp\ccb3oWGE.s 			page 252


 14216 4300 06000000 		.4byte	.LBE243-.LBB243
 14217 4304 2C       		.byte	0x2c
 14218 4305 9A01     		.2byte	0x19a
 14219 4307 4B       		.uleb128 0x4b
 14220 4308 C44F0000 		.4byte	0x4fc4
 14221 430c 94040000 		.4byte	.LBB244
 14222 4310 06000000 		.4byte	.LBE244-.LBB244
 14223 4314 0E       		.byte	0xe
 14224 4315 E601     		.2byte	0x1e6
 14225 4317 4B       		.uleb128 0x4b
 14226 4318 D64F0000 		.4byte	0x4fd6
 14227 431c 94040000 		.4byte	.LBB245
 14228 4320 06000000 		.4byte	.LBE245-.LBB245
 14229 4324 0E       		.byte	0xe
 14230 4325 CD01     		.2byte	0x1cd
 14231 4327 3E       		.uleb128 0x3e
 14232 4328 E34F0000 		.4byte	0x4fe3
 14233 432c C8050000 		.4byte	.LLST90
 14234 4330 00       		.byte	0
 14235 4331 00       		.byte	0
 14236 4332 00       		.byte	0
 14237 4333 00       		.byte	0
 14238 4334 41       		.uleb128 0x41
 14239 4335 12000000 		.4byte	.LVL365
 14240 4339 56560000 		.4byte	0x5656
 14241 433d 41       		.uleb128 0x41
 14242 433e 5C000000 		.4byte	.LVL367
 14243 4342 3F4C0000 		.4byte	0x4c3f
 14244 4346 41       		.uleb128 0x41
 14245 4347 74000000 		.4byte	.LVL369
 14246 434b BB470000 		.4byte	0x47bb
 14247 434f 41       		.uleb128 0x41
 14248 4350 7C000000 		.4byte	.LVL371
 14249 4354 C5460000 		.4byte	0x46c5
 14250 4358 41       		.uleb128 0x41
 14251 4359 C0000000 		.4byte	.LVL373
 14252 435d 61560000 		.4byte	0x5661
 14253 4361 41       		.uleb128 0x41
 14254 4362 D2000000 		.4byte	.LVL374
 14255 4366 6C560000 		.4byte	0x566c
 14256 436a 41       		.uleb128 0x41
 14257 436b 00010000 		.4byte	.LVL375
 14258 436f F9470000 		.4byte	0x47f9
 14259 4373 41       		.uleb128 0x41
 14260 4374 4A010000 		.4byte	.LVL382
 14261 4378 54490000 		.4byte	0x4954
 14262 437c 41       		.uleb128 0x41
 14263 437d EA030000 		.4byte	.LVL407
 14264 4381 3F4C0000 		.4byte	0x4c3f
 14265 4385 41       		.uleb128 0x41
 14266 4386 24040000 		.4byte	.LVL413
 14267 438a 3F4C0000 		.4byte	0x4c3f
 14268 438e 3A       		.uleb128 0x3a
 14269 438f 62040000 		.4byte	.LVL418
 14270 4393 2A560000 		.4byte	0x562a
 14271 4397 A1430000 		.4byte	0x43a1
 14272 439b 3B       		.uleb128 0x3b
ARM GAS  C:\Users\CHRIST~1\AppData\Local\Temp\ccb3oWGE.s 			page 253


 14273 439c 01       		.uleb128 0x1
 14274 439d 51       		.byte	0x51
 14275 439e 01       		.uleb128 0x1
 14276 439f 31       		.byte	0x31
 14277 43a0 00       		.byte	0
 14278 43a1 3A       		.uleb128 0x3a
 14279 43a2 94040000 		.4byte	.LVL423
 14280 43a6 2A560000 		.4byte	0x562a
 14281 43aa B4430000 		.4byte	0x43b4
 14282 43ae 3B       		.uleb128 0x3b
 14283 43af 01       		.uleb128 0x1
 14284 43b0 51       		.byte	0x51
 14285 43b1 01       		.uleb128 0x1
 14286 43b2 31       		.byte	0x31
 14287 43b3 00       		.byte	0
 14288 43b4 41       		.uleb128 0x41
 14289 43b5 A6040000 		.4byte	.LVL428
 14290 43b9 77560000 		.4byte	0x5677
 14291 43bd 41       		.uleb128 0x41
 14292 43be AE040000 		.4byte	.LVL430
 14293 43c2 82560000 		.4byte	0x5682
 14294 43c6 00       		.byte	0
 14295 43c7 4F       		.uleb128 0x4f
 14296 43c8 F2380000 		.4byte	.LASF975
 14297 43cc 01       		.byte	0x1
 14298 43cd DF03     		.2byte	0x3df
 14299 43cf 01       		.byte	0x1
 14300 43d0 13440000 		.4byte	0x4413
 14301 43d4 43       		.uleb128 0x43
 14302 43d5 B4270000 		.4byte	.LASF398
 14303 43d9 01       		.byte	0x1
 14304 43da DF03     		.2byte	0x3df
 14305 43dc E0100000 		.4byte	0x10e0
 14306 43e0 46       		.uleb128 0x46
 14307 43e1 44       		.uleb128 0x44
 14308 43e2 1B080000 		.4byte	.LASF937
 14309 43e6 01       		.byte	0x1
 14310 43e7 E903     		.2byte	0x3e9
 14311 43e9 B8000000 		.4byte	0xb8
 14312 43ed 44       		.uleb128 0x44
 14313 43ee 7E080000 		.4byte	.LASF938
 14314 43f2 01       		.byte	0x1
 14315 43f3 EA03     		.2byte	0x3ea
 14316 43f5 B8000000 		.4byte	0xb8
 14317 43f9 44       		.uleb128 0x44
 14318 43fa ED2D0000 		.4byte	.LASF407
 14319 43fe 01       		.byte	0x1
 14320 43ff EB03     		.2byte	0x3eb
 14321 4401 B8000000 		.4byte	0xb8
 14322 4405 44       		.uleb128 0x44
 14323 4406 87110000 		.4byte	.LASF939
 14324 440a 01       		.byte	0x1
 14325 440b EE03     		.2byte	0x3ee
 14326 440d 58180000 		.4byte	0x1858
 14327 4411 00       		.byte	0
 14328 4412 00       		.byte	0
 14329 4413 50       		.uleb128 0x50
ARM GAS  C:\Users\CHRIST~1\AppData\Local\Temp\ccb3oWGE.s 			page 254


 14330 4414 62200000 		.4byte	.LASF945
 14331 4418 01       		.byte	0x1
 14332 4419 B903     		.2byte	0x3b9
 14333 441b B1000000 		.4byte	0xb1
 14334 441f 00000000 		.4byte	.LFB305
 14335 4423 74000000 		.4byte	.LFE305-.LFB305
 14336 4427 01       		.uleb128 0x1
 14337 4428 9C       		.byte	0x9c
 14338 4429 62440000 		.4byte	0x4462
 14339 442d 37       		.uleb128 0x37
 14340 442e D7350000 		.4byte	.LASF940
 14341 4432 01       		.byte	0x1
 14342 4433 C003     		.2byte	0x3c0
 14343 4435 B1000000 		.4byte	0xb1
 14344 4439 DC050000 		.4byte	.LLST56
 14345 443d 41       		.uleb128 0x41
 14346 443e 06000000 		.4byte	.LVL283
 14347 4442 3F4C0000 		.4byte	0x4c3f
 14348 4446 41       		.uleb128 0x41
 14349 4447 28000000 		.4byte	.LVL286
 14350 444b 8D560000 		.4byte	0x568d
 14351 444f 41       		.uleb128 0x41
 14352 4450 48000000 		.4byte	.LVL291
 14353 4454 98560000 		.4byte	0x5698
 14354 4458 41       		.uleb128 0x41
 14355 4459 54000000 		.4byte	.LVL294
 14356 445d A3560000 		.4byte	0x56a3
 14357 4461 00       		.byte	0
 14358 4462 51       		.uleb128 0x51
 14359 4463 BD1E0000 		.4byte	.LASF941
 14360 4467 01       		.byte	0x1
 14361 4468 AB03     		.2byte	0x3ab
 14362 446a 25000000 		.4byte	0x25
 14363 446e 00000000 		.4byte	.LFB304
 14364 4472 0C000000 		.4byte	.LFE304-.LFB304
 14365 4476 01       		.uleb128 0x1
 14366 4477 9C       		.byte	0x9c
 14367 4478 51       		.uleb128 0x51
 14368 4479 77260000 		.4byte	.LASF942
 14369 447d 01       		.byte	0x1
 14370 447e A003     		.2byte	0x3a0
 14371 4480 25000000 		.4byte	0x25
 14372 4484 00000000 		.4byte	.LFB303
 14373 4488 0C000000 		.4byte	.LFE303-.LFB303
 14374 448c 01       		.uleb128 0x1
 14375 448d 9C       		.byte	0x9c
 14376 448e 47       		.uleb128 0x47
 14377 448f 64230000 		.4byte	.LASF943
 14378 4493 01       		.byte	0x1
 14379 4494 8903     		.2byte	0x389
 14380 4496 00000000 		.4byte	.LFB302
 14381 449a 50000000 		.4byte	.LFE302-.LFB302
 14382 449e 01       		.uleb128 0x1
 14383 449f 9C       		.byte	0x9c
 14384 44a0 E4440000 		.4byte	0x44e4
 14385 44a4 52       		.uleb128 0x52
 14386 44a5 FF0A0000 		.4byte	.LASF525
ARM GAS  C:\Users\CHRIST~1\AppData\Local\Temp\ccb3oWGE.s 			page 255


 14387 44a9 01       		.byte	0x1
 14388 44aa 8903     		.2byte	0x389
 14389 44ac 8F110000 		.4byte	0x118f
 14390 44b0 2B060000 		.4byte	.LLST53
 14391 44b4 34       		.uleb128 0x34
 14392 44b5 6C656E00 		.ascii	"len\000"
 14393 44b9 01       		.byte	0x1
 14394 44ba 8903     		.2byte	0x389
 14395 44bc FE000000 		.4byte	0xfe
 14396 44c0 4C060000 		.4byte	.LLST54
 14397 44c4 52       		.uleb128 0x52
 14398 44c5 21360000 		.4byte	.LASF944
 14399 44c9 01       		.byte	0x1
 14400 44ca 8903     		.2byte	0x389
 14401 44cc D9000000 		.4byte	0xd9
 14402 44d0 6A060000 		.4byte	.LLST55
 14403 44d4 53       		.uleb128 0x53
 14404 44d5 38000000 		.4byte	.LVL282
 14405 44d9 AE560000 		.4byte	0x56ae
 14406 44dd 3B       		.uleb128 0x3b
 14407 44de 01       		.uleb128 0x1
 14408 44df 51       		.byte	0x51
 14409 44e0 01       		.uleb128 0x1
 14410 44e1 31       		.byte	0x31
 14411 44e2 00       		.byte	0
 14412 44e3 00       		.byte	0
 14413 44e4 54       		.uleb128 0x54
 14414 44e5 841B0000 		.4byte	.LASF1091
 14415 44e9 01       		.byte	0x1
 14416 44ea 8503     		.2byte	0x385
 14417 44ec 25000000 		.4byte	0x25
 14418 44f0 01       		.byte	0x1
 14419 44f1 50       		.uleb128 0x50
 14420 44f2 341B0000 		.4byte	.LASF946
 14421 44f6 01       		.byte	0x1
 14422 44f7 7103     		.2byte	0x371
 14423 44f9 25000000 		.4byte	0x25
 14424 44fd 00000000 		.4byte	.LFB300
 14425 4501 38000000 		.4byte	.LFE300-.LFB300
 14426 4505 01       		.uleb128 0x1
 14427 4506 9C       		.byte	0x9c
 14428 4507 2E450000 		.4byte	0x452e
 14429 450b 36       		.uleb128 0x36
 14430 450c 72657400 		.ascii	"ret\000"
 14431 4510 01       		.byte	0x1
 14432 4511 7203     		.2byte	0x372
 14433 4513 25000000 		.4byte	0x25
 14434 4517 8B060000 		.4byte	.LLST52
 14435 451b 41       		.uleb128 0x41
 14436 451c 26000000 		.4byte	.LVL275
 14437 4520 B9560000 		.4byte	0x56b9
 14438 4524 41       		.uleb128 0x41
 14439 4525 2C000000 		.4byte	.LVL277
 14440 4529 C4560000 		.4byte	0x56c4
 14441 452d 00       		.byte	0
 14442 452e 51       		.uleb128 0x51
 14443 452f E12E0000 		.4byte	.LASF947
ARM GAS  C:\Users\CHRIST~1\AppData\Local\Temp\ccb3oWGE.s 			page 256


 14444 4533 01       		.byte	0x1
 14445 4534 6D03     		.2byte	0x36d
 14446 4536 25000000 		.4byte	0x25
 14447 453a 00000000 		.4byte	.LFB299
 14448 453e 0C000000 		.4byte	.LFE299-.LFB299
 14449 4542 01       		.uleb128 0x1
 14450 4543 9C       		.byte	0x9c
 14451 4544 50       		.uleb128 0x50
 14452 4545 95270000 		.4byte	.LASF948
 14453 4549 01       		.byte	0x1
 14454 454a 6603     		.2byte	0x366
 14455 454c 25000000 		.4byte	0x25
 14456 4550 00000000 		.4byte	.LFB298
 14457 4554 30000000 		.4byte	.LFE298-.LFB298
 14458 4558 01       		.uleb128 0x1
 14459 4559 9C       		.byte	0x9c
 14460 455a 6F450000 		.4byte	0x456f
 14461 455e 36       		.uleb128 0x36
 14462 455f 72657300 		.ascii	"res\000"
 14463 4563 01       		.byte	0x1
 14464 4564 6703     		.2byte	0x367
 14465 4566 25000000 		.4byte	0x25
 14466 456a E7060000 		.4byte	.LLST51
 14467 456e 00       		.byte	0
 14468 456f 50       		.uleb128 0x50
 14469 4570 F81C0000 		.4byte	.LASF949
 14470 4574 01       		.byte	0x1
 14471 4575 5903     		.2byte	0x359
 14472 4577 25000000 		.4byte	0x25
 14473 457b 00000000 		.4byte	.LFB297
 14474 457f 30000000 		.4byte	.LFE297-.LFB297
 14475 4583 01       		.uleb128 0x1
 14476 4584 9C       		.byte	0x9c
 14477 4585 9A450000 		.4byte	0x459a
 14478 4589 36       		.uleb128 0x36
 14479 458a 72657300 		.ascii	"res\000"
 14480 458e 01       		.byte	0x1
 14481 458f 5A03     		.2byte	0x35a
 14482 4591 25000000 		.4byte	0x25
 14483 4595 0D070000 		.4byte	.LLST50
 14484 4599 00       		.byte	0
 14485 459a 50       		.uleb128 0x50
 14486 459b 76130000 		.4byte	.LASF950
 14487 459f 01       		.byte	0x1
 14488 45a0 4C03     		.2byte	0x34c
 14489 45a2 25000000 		.4byte	0x25
 14490 45a6 00000000 		.4byte	.LFB296
 14491 45aa 20000000 		.4byte	.LFE296-.LFB296
 14492 45ae 01       		.uleb128 0x1
 14493 45af 9C       		.byte	0x9c
 14494 45b0 C5450000 		.4byte	0x45c5
 14495 45b4 36       		.uleb128 0x36
 14496 45b5 72657300 		.ascii	"res\000"
 14497 45b9 01       		.byte	0x1
 14498 45ba 4D03     		.2byte	0x34d
 14499 45bc 25000000 		.4byte	0x25
 14500 45c0 33070000 		.4byte	.LLST49
ARM GAS  C:\Users\CHRIST~1\AppData\Local\Temp\ccb3oWGE.s 			page 257


 14501 45c4 00       		.byte	0
 14502 45c5 50       		.uleb128 0x50
 14503 45c6 DB0E0000 		.4byte	.LASF951
 14504 45ca 01       		.byte	0x1
 14505 45cb 4503     		.2byte	0x345
 14506 45cd 25000000 		.4byte	0x25
 14507 45d1 00000000 		.4byte	.LFB295
 14508 45d5 20000000 		.4byte	.LFE295-.LFB295
 14509 45d9 01       		.uleb128 0x1
 14510 45da 9C       		.byte	0x9c
 14511 45db F0450000 		.4byte	0x45f0
 14512 45df 36       		.uleb128 0x36
 14513 45e0 72657300 		.ascii	"res\000"
 14514 45e4 01       		.byte	0x1
 14515 45e5 4603     		.2byte	0x346
 14516 45e7 25000000 		.4byte	0x25
 14517 45eb 59070000 		.4byte	.LLST48
 14518 45ef 00       		.byte	0
 14519 45f0 50       		.uleb128 0x50
 14520 45f1 1A1C0000 		.4byte	.LASF952
 14521 45f5 01       		.byte	0x1
 14522 45f6 3103     		.2byte	0x331
 14523 45f8 25000000 		.4byte	0x25
 14524 45fc 00000000 		.4byte	.LFB294
 14525 4600 24000000 		.4byte	.LFE294-.LFB294
 14526 4604 01       		.uleb128 0x1
 14527 4605 9C       		.byte	0x9c
 14528 4606 2E460000 		.4byte	0x462e
 14529 460a 55       		.uleb128 0x55
 14530 460b 72657400 		.ascii	"ret\000"
 14531 460f 01       		.byte	0x1
 14532 4610 3203     		.2byte	0x332
 14533 4612 25000000 		.4byte	0x25
 14534 4616 04       		.byte	0x4
 14535 4617 00000000 		.4byte	0
 14536 461b 48       		.uleb128 0x48
 14537 461c 12000000 		.4byte	.LVL261
 14538 4620 CF560000 		.4byte	0x56cf
 14539 4624 48       		.uleb128 0x48
 14540 4625 1C000000 		.4byte	.LVL262
 14541 4629 DA560000 		.4byte	0x56da
 14542 462d 00       		.byte	0
 14543 462e 50       		.uleb128 0x50
 14544 462f 852A0000 		.4byte	.LASF953
 14545 4633 01       		.byte	0x1
 14546 4634 1D03     		.2byte	0x31d
 14547 4636 B1000000 		.4byte	0xb1
 14548 463a 00000000 		.4byte	.LFB293
 14549 463e 20000000 		.4byte	.LFE293-.LFB293
 14550 4642 01       		.uleb128 0x1
 14551 4643 9C       		.byte	0x9c
 14552 4644 78460000 		.4byte	0x4678
 14553 4648 52       		.uleb128 0x52
 14554 4649 D61D0000 		.4byte	.LASF954
 14555 464d 01       		.byte	0x1
 14556 464e 1D03     		.2byte	0x31d
 14557 4650 54160000 		.4byte	0x1654
ARM GAS  C:\Users\CHRIST~1\AppData\Local\Temp\ccb3oWGE.s 			page 258


 14558 4654 7F070000 		.4byte	.LLST47
 14559 4658 56       		.uleb128 0x56
 14560 4659 72657400 		.ascii	"ret\000"
 14561 465d 01       		.byte	0x1
 14562 465e 1E03     		.2byte	0x31e
 14563 4660 B1000000 		.4byte	0xb1
 14564 4664 00       		.byte	0
 14565 4665 48       		.uleb128 0x48
 14566 4666 12000000 		.4byte	.LVL256
 14567 466a E5560000 		.4byte	0x56e5
 14568 466e 48       		.uleb128 0x48
 14569 466f 1A000000 		.4byte	.LVL259
 14570 4673 F0560000 		.4byte	0x56f0
 14571 4677 00       		.byte	0
 14572 4678 50       		.uleb128 0x50
 14573 4679 66100000 		.4byte	.LASF955
 14574 467d 01       		.byte	0x1
 14575 467e 0903     		.2byte	0x309
 14576 4680 B1000000 		.4byte	0xb1
 14577 4684 00000000 		.4byte	.LFB292
 14578 4688 4C000000 		.4byte	.LFE292-.LFB292
 14579 468c 01       		.uleb128 0x1
 14580 468d 9C       		.byte	0x9c
 14581 468e C5460000 		.4byte	0x46c5
 14582 4692 52       		.uleb128 0x52
 14583 4693 D61D0000 		.4byte	.LASF954
 14584 4697 01       		.byte	0x1
 14585 4698 0903     		.2byte	0x309
 14586 469a 54160000 		.4byte	0x1654
 14587 469e D2070000 		.4byte	.LLST13
 14588 46a2 36       		.uleb128 0x36
 14589 46a3 72657400 		.ascii	"ret\000"
 14590 46a7 01       		.byte	0x1
 14591 46a8 0A03     		.2byte	0x30a
 14592 46aa B1000000 		.4byte	0xb1
 14593 46ae 25080000 		.4byte	.LLST14
 14594 46b2 41       		.uleb128 0x41
 14595 46b3 2C000000 		.4byte	.LVL105
 14596 46b7 FB560000 		.4byte	0x56fb
 14597 46bb 41       		.uleb128 0x41
 14598 46bc 3A000000 		.4byte	.LVL107
 14599 46c0 06570000 		.4byte	0x5706
 14600 46c4 00       		.byte	0
 14601 46c5 50       		.uleb128 0x50
 14602 46c6 0D090000 		.4byte	.LASF956
 14603 46ca 01       		.byte	0x1
 14604 46cb F502     		.2byte	0x2f5
 14605 46cd 25000000 		.4byte	0x25
 14606 46d1 00000000 		.4byte	.LFB291
 14607 46d5 24000000 		.4byte	.LFE291-.LFB291
 14608 46d9 01       		.uleb128 0x1
 14609 46da 9C       		.byte	0x9c
 14610 46db 03470000 		.4byte	0x4703
 14611 46df 55       		.uleb128 0x55
 14612 46e0 72657400 		.ascii	"ret\000"
 14613 46e4 01       		.byte	0x1
 14614 46e5 F602     		.2byte	0x2f6
ARM GAS  C:\Users\CHRIST~1\AppData\Local\Temp\ccb3oWGE.s 			page 259


 14615 46e7 25000000 		.4byte	0x25
 14616 46eb 04       		.byte	0x4
 14617 46ec 00000000 		.4byte	0
 14618 46f0 48       		.uleb128 0x48
 14619 46f1 12000000 		.4byte	.LVL100
 14620 46f5 11570000 		.4byte	0x5711
 14621 46f9 48       		.uleb128 0x48
 14622 46fa 1C000000 		.4byte	.LVL101
 14623 46fe 1C570000 		.4byte	0x571c
 14624 4702 00       		.byte	0
 14625 4703 50       		.uleb128 0x50
 14626 4704 080D0000 		.4byte	.LASF957
 14627 4708 01       		.byte	0x1
 14628 4709 E102     		.2byte	0x2e1
 14629 470b 25000000 		.4byte	0x25
 14630 470f 00000000 		.4byte	.LFB290
 14631 4713 24000000 		.4byte	.LFE290-.LFB290
 14632 4717 01       		.uleb128 0x1
 14633 4718 9C       		.byte	0x9c
 14634 4719 41470000 		.4byte	0x4741
 14635 471d 55       		.uleb128 0x55
 14636 471e 72657400 		.ascii	"ret\000"
 14637 4722 01       		.byte	0x1
 14638 4723 E202     		.2byte	0x2e2
 14639 4725 25000000 		.4byte	0x25
 14640 4729 04       		.byte	0x4
 14641 472a 00000000 		.4byte	0
 14642 472e 48       		.uleb128 0x48
 14643 472f 12000000 		.4byte	.LVL97
 14644 4733 27570000 		.4byte	0x5727
 14645 4737 48       		.uleb128 0x48
 14646 4738 1C000000 		.4byte	.LVL98
 14647 473c 32570000 		.4byte	0x5732
 14648 4740 00       		.byte	0
 14649 4741 50       		.uleb128 0x50
 14650 4742 1A1E0000 		.4byte	.LASF958
 14651 4746 01       		.byte	0x1
 14652 4747 CD02     		.2byte	0x2cd
 14653 4749 25000000 		.4byte	0x25
 14654 474d 00000000 		.4byte	.LFB289
 14655 4751 38000000 		.4byte	.LFE289-.LFB289
 14656 4755 01       		.uleb128 0x1
 14657 4756 9C       		.byte	0x9c
 14658 4757 7E470000 		.4byte	0x477e
 14659 475b 36       		.uleb128 0x36
 14660 475c 72657400 		.ascii	"ret\000"
 14661 4760 01       		.byte	0x1
 14662 4761 CE02     		.2byte	0x2ce
 14663 4763 25000000 		.4byte	0x25
 14664 4767 67080000 		.4byte	.LLST12
 14665 476b 41       		.uleb128 0x41
 14666 476c 26000000 		.4byte	.LVL93
 14667 4770 3D570000 		.4byte	0x573d
 14668 4774 41       		.uleb128 0x41
 14669 4775 2C000000 		.4byte	.LVL95
 14670 4779 48570000 		.4byte	0x5748
 14671 477d 00       		.byte	0
ARM GAS  C:\Users\CHRIST~1\AppData\Local\Temp\ccb3oWGE.s 			page 260


 14672 477e 50       		.uleb128 0x50
 14673 477f 7E030000 		.4byte	.LASF959
 14674 4783 01       		.byte	0x1
 14675 4784 B902     		.2byte	0x2b9
 14676 4786 25000000 		.4byte	0x25
 14677 478a 00000000 		.4byte	.LFB288
 14678 478e 38000000 		.4byte	.LFE288-.LFB288
 14679 4792 01       		.uleb128 0x1
 14680 4793 9C       		.byte	0x9c
 14681 4794 BB470000 		.4byte	0x47bb
 14682 4798 36       		.uleb128 0x36
 14683 4799 72657400 		.ascii	"ret\000"
 14684 479d 01       		.byte	0x1
 14685 479e BA02     		.2byte	0x2ba
 14686 47a0 25000000 		.4byte	0x25
 14687 47a4 C3080000 		.4byte	.LLST11
 14688 47a8 41       		.uleb128 0x41
 14689 47a9 26000000 		.4byte	.LVL86
 14690 47ad 53570000 		.4byte	0x5753
 14691 47b1 41       		.uleb128 0x41
 14692 47b2 2C000000 		.4byte	.LVL88
 14693 47b6 5E570000 		.4byte	0x575e
 14694 47ba 00       		.byte	0
 14695 47bb 50       		.uleb128 0x50
 14696 47bc BB230000 		.4byte	.LASF960
 14697 47c0 01       		.byte	0x1
 14698 47c1 A502     		.2byte	0x2a5
 14699 47c3 25000000 		.4byte	0x25
 14700 47c7 00000000 		.4byte	.LFB287
 14701 47cb 24000000 		.4byte	.LFE287-.LFB287
 14702 47cf 01       		.uleb128 0x1
 14703 47d0 9C       		.byte	0x9c
 14704 47d1 F9470000 		.4byte	0x47f9
 14705 47d5 55       		.uleb128 0x55
 14706 47d6 72657400 		.ascii	"ret\000"
 14707 47da 01       		.byte	0x1
 14708 47db A602     		.2byte	0x2a6
 14709 47dd 25000000 		.4byte	0x25
 14710 47e1 04       		.byte	0x4
 14711 47e2 00000000 		.4byte	0
 14712 47e6 48       		.uleb128 0x48
 14713 47e7 12000000 		.4byte	.LVL80
 14714 47eb 69570000 		.4byte	0x5769
 14715 47ef 48       		.uleb128 0x48
 14716 47f0 1C000000 		.4byte	.LVL81
 14717 47f4 74570000 		.4byte	0x5774
 14718 47f8 00       		.byte	0
 14719 47f9 50       		.uleb128 0x50
 14720 47fa 1C120000 		.4byte	.LASF961
 14721 47fe 01       		.byte	0x1
 14722 47ff 9102     		.2byte	0x291
 14723 4801 25000000 		.4byte	0x25
 14724 4805 00000000 		.4byte	.LFB286
 14725 4809 24000000 		.4byte	.LFE286-.LFB286
 14726 480d 01       		.uleb128 0x1
 14727 480e 9C       		.byte	0x9c
 14728 480f 37480000 		.4byte	0x4837
ARM GAS  C:\Users\CHRIST~1\AppData\Local\Temp\ccb3oWGE.s 			page 261


 14729 4813 55       		.uleb128 0x55
 14730 4814 72657400 		.ascii	"ret\000"
 14731 4818 01       		.byte	0x1
 14732 4819 9202     		.2byte	0x292
 14733 481b 25000000 		.4byte	0x25
 14734 481f 04       		.byte	0x4
 14735 4820 00000000 		.4byte	0
 14736 4824 48       		.uleb128 0x48
 14737 4825 12000000 		.4byte	.LVL77
 14738 4829 7F570000 		.4byte	0x577f
 14739 482d 48       		.uleb128 0x48
 14740 482e 1C000000 		.4byte	.LVL78
 14741 4832 8A570000 		.4byte	0x578a
 14742 4836 00       		.byte	0
 14743 4837 50       		.uleb128 0x50
 14744 4838 33390000 		.4byte	.LASF962
 14745 483c 01       		.byte	0x1
 14746 483d 8702     		.2byte	0x287
 14747 483f 25000000 		.4byte	0x25
 14748 4843 00000000 		.4byte	.LFB285
 14749 4847 20000000 		.4byte	.LFE285-.LFB285
 14750 484b 01       		.uleb128 0x1
 14751 484c 9C       		.byte	0x9c
 14752 484d 6F480000 		.4byte	0x486f
 14753 4851 57       		.uleb128 0x57
 14754 4852 D61D0000 		.4byte	.LASF954
 14755 4856 01       		.byte	0x1
 14756 4857 8702     		.2byte	0x287
 14757 4859 54160000 		.4byte	0x1654
 14758 485d 01       		.uleb128 0x1
 14759 485e 50       		.byte	0x50
 14760 485f 4C       		.uleb128 0x4c
 14761 4860 76616C00 		.ascii	"val\000"
 14762 4864 01       		.byte	0x1
 14763 4865 8802     		.2byte	0x288
 14764 4867 25000000 		.4byte	0x25
 14765 486b 02       		.uleb128 0x2
 14766 486c 90       		.byte	0x90
 14767 486d 40       		.uleb128 0x40
 14768 486e 00       		.byte	0
 14769 486f 50       		.uleb128 0x50
 14770 4870 0A250000 		.4byte	.LASF963
 14771 4874 01       		.byte	0x1
 14772 4875 7402     		.2byte	0x274
 14773 4877 25000000 		.4byte	0x25
 14774 487b 00000000 		.4byte	.LFB284
 14775 487f 20000000 		.4byte	.LFE284-.LFB284
 14776 4883 01       		.uleb128 0x1
 14777 4884 9C       		.byte	0x9c
 14778 4885 A7480000 		.4byte	0x48a7
 14779 4889 57       		.uleb128 0x57
 14780 488a D61D0000 		.4byte	.LASF954
 14781 488e 01       		.byte	0x1
 14782 488f 7402     		.2byte	0x274
 14783 4891 54160000 		.4byte	0x1654
 14784 4895 01       		.uleb128 0x1
 14785 4896 50       		.byte	0x50
ARM GAS  C:\Users\CHRIST~1\AppData\Local\Temp\ccb3oWGE.s 			page 262


 14786 4897 4C       		.uleb128 0x4c
 14787 4898 76616C00 		.ascii	"val\000"
 14788 489c 01       		.byte	0x1
 14789 489d 7502     		.2byte	0x275
 14790 489f 25000000 		.4byte	0x25
 14791 48a3 02       		.uleb128 0x2
 14792 48a4 90       		.byte	0x90
 14793 48a5 40       		.uleb128 0x40
 14794 48a6 00       		.byte	0
 14795 48a7 50       		.uleb128 0x50
 14796 48a8 F1270000 		.4byte	.LASF964
 14797 48ac 01       		.byte	0x1
 14798 48ad 6102     		.2byte	0x261
 14799 48af 25000000 		.4byte	0x25
 14800 48b3 00000000 		.4byte	.LFB283
 14801 48b7 20000000 		.4byte	.LFE283-.LFB283
 14802 48bb 01       		.uleb128 0x1
 14803 48bc 9C       		.byte	0x9c
 14804 48bd DF480000 		.4byte	0x48df
 14805 48c1 57       		.uleb128 0x57
 14806 48c2 D61D0000 		.4byte	.LASF954
 14807 48c6 01       		.byte	0x1
 14808 48c7 6102     		.2byte	0x261
 14809 48c9 54160000 		.4byte	0x1654
 14810 48cd 01       		.uleb128 0x1
 14811 48ce 50       		.byte	0x50
 14812 48cf 4C       		.uleb128 0x4c
 14813 48d0 76616C00 		.ascii	"val\000"
 14814 48d4 01       		.byte	0x1
 14815 48d5 6202     		.2byte	0x262
 14816 48d7 25000000 		.4byte	0x25
 14817 48db 02       		.uleb128 0x2
 14818 48dc 90       		.byte	0x90
 14819 48dd 40       		.uleb128 0x40
 14820 48de 00       		.byte	0
 14821 48df 50       		.uleb128 0x50
 14822 48e0 85350000 		.4byte	.LASF965
 14823 48e4 01       		.byte	0x1
 14824 48e5 4E02     		.2byte	0x24e
 14825 48e7 25000000 		.4byte	0x25
 14826 48eb 00000000 		.4byte	.LFB282
 14827 48ef 20000000 		.4byte	.LFE282-.LFB282
 14828 48f3 01       		.uleb128 0x1
 14829 48f4 9C       		.byte	0x9c
 14830 48f5 17490000 		.4byte	0x4917
 14831 48f9 57       		.uleb128 0x57
 14832 48fa D61D0000 		.4byte	.LASF954
 14833 48fe 01       		.byte	0x1
 14834 48ff 4E02     		.2byte	0x24e
 14835 4901 54160000 		.4byte	0x1654
 14836 4905 01       		.uleb128 0x1
 14837 4906 50       		.byte	0x50
 14838 4907 4C       		.uleb128 0x4c
 14839 4908 76616C00 		.ascii	"val\000"
 14840 490c 01       		.byte	0x1
 14841 490d 4F02     		.2byte	0x24f
 14842 490f 25000000 		.4byte	0x25
ARM GAS  C:\Users\CHRIST~1\AppData\Local\Temp\ccb3oWGE.s 			page 263


 14843 4913 02       		.uleb128 0x2
 14844 4914 90       		.byte	0x90
 14845 4915 40       		.uleb128 0x40
 14846 4916 00       		.byte	0
 14847 4917 50       		.uleb128 0x50
 14848 4918 61240000 		.4byte	.LASF966
 14849 491c 01       		.byte	0x1
 14850 491d 3102     		.2byte	0x231
 14851 491f 25000000 		.4byte	0x25
 14852 4923 00000000 		.4byte	.LFB281
 14853 4927 38000000 		.4byte	.LFE281-.LFB281
 14854 492b 01       		.uleb128 0x1
 14855 492c 9C       		.byte	0x9c
 14856 492d 54490000 		.4byte	0x4954
 14857 4931 36       		.uleb128 0x36
 14858 4932 72657400 		.ascii	"ret\000"
 14859 4936 01       		.byte	0x1
 14860 4937 3202     		.2byte	0x232
 14861 4939 25000000 		.4byte	0x25
 14862 493d 1F090000 		.4byte	.LLST10
 14863 4941 41       		.uleb128 0x41
 14864 4942 26000000 		.4byte	.LVL65
 14865 4946 95570000 		.4byte	0x5795
 14866 494a 41       		.uleb128 0x41
 14867 494b 2C000000 		.4byte	.LVL67
 14868 494f A0570000 		.4byte	0x57a0
 14869 4953 00       		.byte	0
 14870 4954 50       		.uleb128 0x50
 14871 4955 881A0000 		.4byte	.LASF967
 14872 4959 01       		.byte	0x1
 14873 495a 1D02     		.2byte	0x21d
 14874 495c 25000000 		.4byte	0x25
 14875 4960 00000000 		.4byte	.LFB280
 14876 4964 24000000 		.4byte	.LFE280-.LFB280
 14877 4968 01       		.uleb128 0x1
 14878 4969 9C       		.byte	0x9c
 14879 496a 92490000 		.4byte	0x4992
 14880 496e 55       		.uleb128 0x55
 14881 496f 72657400 		.ascii	"ret\000"
 14882 4973 01       		.byte	0x1
 14883 4974 1E02     		.2byte	0x21e
 14884 4976 25000000 		.4byte	0x25
 14885 497a 04       		.byte	0x4
 14886 497b 00000000 		.4byte	0
 14887 497f 48       		.uleb128 0x48
 14888 4980 12000000 		.4byte	.LVL59
 14889 4984 AB570000 		.4byte	0x57ab
 14890 4988 48       		.uleb128 0x48
 14891 4989 1C000000 		.4byte	.LVL60
 14892 498d B6570000 		.4byte	0x57b6
 14893 4991 00       		.byte	0
 14894 4992 50       		.uleb128 0x50
 14895 4993 FF140000 		.4byte	.LASF968
 14896 4997 01       		.byte	0x1
 14897 4998 0902     		.2byte	0x209
 14898 499a 25000000 		.4byte	0x25
 14899 499e 00000000 		.4byte	.LFB279
ARM GAS  C:\Users\CHRIST~1\AppData\Local\Temp\ccb3oWGE.s 			page 264


 14900 49a2 38000000 		.4byte	.LFE279-.LFB279
 14901 49a6 01       		.uleb128 0x1
 14902 49a7 9C       		.byte	0x9c
 14903 49a8 CF490000 		.4byte	0x49cf
 14904 49ac 36       		.uleb128 0x36
 14905 49ad 72657400 		.ascii	"ret\000"
 14906 49b1 01       		.byte	0x1
 14907 49b2 0A02     		.2byte	0x20a
 14908 49b4 25000000 		.4byte	0x25
 14909 49b8 7B090000 		.4byte	.LLST9
 14910 49bc 41       		.uleb128 0x41
 14911 49bd 26000000 		.4byte	.LVL55
 14912 49c1 C1570000 		.4byte	0x57c1
 14913 49c5 41       		.uleb128 0x41
 14914 49c6 2C000000 		.4byte	.LVL57
 14915 49ca CC570000 		.4byte	0x57cc
 14916 49ce 00       		.byte	0
 14917 49cf 50       		.uleb128 0x50
 14918 49d0 8E280000 		.4byte	.LASF969
 14919 49d4 01       		.byte	0x1
 14920 49d5 F501     		.2byte	0x1f5
 14921 49d7 25000000 		.4byte	0x25
 14922 49db 00000000 		.4byte	.LFB278
 14923 49df 38000000 		.4byte	.LFE278-.LFB278
 14924 49e3 01       		.uleb128 0x1
 14925 49e4 9C       		.byte	0x9c
 14926 49e5 0C4A0000 		.4byte	0x4a0c
 14927 49e9 36       		.uleb128 0x36
 14928 49ea 72657400 		.ascii	"ret\000"
 14929 49ee 01       		.byte	0x1
 14930 49ef F601     		.2byte	0x1f6
 14931 49f1 25000000 		.4byte	0x25
 14932 49f5 D7090000 		.4byte	.LLST8
 14933 49f9 41       		.uleb128 0x41
 14934 49fa 26000000 		.4byte	.LVL48
 14935 49fe D7570000 		.4byte	0x57d7
 14936 4a02 41       		.uleb128 0x41
 14937 4a03 2C000000 		.4byte	.LVL50
 14938 4a07 E2570000 		.4byte	0x57e2
 14939 4a0b 00       		.byte	0
 14940 4a0c 47       		.uleb128 0x47
 14941 4a0d 832B0000 		.4byte	.LASF970
 14942 4a11 01       		.byte	0x1
 14943 4a12 EE01     		.2byte	0x1ee
 14944 4a14 00000000 		.4byte	.LFB277
 14945 4a18 0C000000 		.4byte	.LFE277-.LFB277
 14946 4a1c 01       		.uleb128 0x1
 14947 4a1d 9C       		.byte	0x9c
 14948 4a1e 394A0000 		.4byte	0x4a39
 14949 4a22 53       		.uleb128 0x53
 14950 4a23 08000000 		.4byte	.LVL343
 14951 4a27 454B0000 		.4byte	0x4b45
 14952 4a2b 3B       		.uleb128 0x3b
 14953 4a2c 02       		.uleb128 0x2
 14954 4a2d 90       		.byte	0x90
 14955 4a2e 40       		.uleb128 0x40
 14956 4a2f 07       		.uleb128 0x7
ARM GAS  C:\Users\CHRIST~1\AppData\Local\Temp\ccb3oWGE.s 			page 265


 14957 4a30 F4       		.byte	0xf4
 14958 4a31 25       		.uleb128 0x25
 14959 4a32 04       		.byte	0x4
 14960 4a33 00000000 		.4byte	0
 14961 4a37 00       		.byte	0
 14962 4a38 00       		.byte	0
 14963 4a39 47       		.uleb128 0x47
 14964 4a3a A6100000 		.4byte	.LASF971
 14965 4a3e 01       		.byte	0x1
 14966 4a3f E701     		.2byte	0x1e7
 14967 4a41 00000000 		.4byte	.LFB276
 14968 4a45 0C000000 		.4byte	.LFE276-.LFB276
 14969 4a49 01       		.uleb128 0x1
 14970 4a4a 9C       		.byte	0x9c
 14971 4a4b 664A0000 		.4byte	0x4a66
 14972 4a4f 53       		.uleb128 0x53
 14973 4a50 08000000 		.4byte	.LVL305
 14974 4a54 254C0000 		.4byte	0x4c25
 14975 4a58 3B       		.uleb128 0x3b
 14976 4a59 02       		.uleb128 0x2
 14977 4a5a 90       		.byte	0x90
 14978 4a5b 40       		.uleb128 0x40
 14979 4a5c 07       		.uleb128 0x7
 14980 4a5d F4       		.byte	0xf4
 14981 4a5e 25       		.uleb128 0x25
 14982 4a5f 04       		.byte	0x4
 14983 4a60 00000000 		.4byte	0
 14984 4a64 00       		.byte	0
 14985 4a65 00       		.byte	0
 14986 4a66 47       		.uleb128 0x47
 14987 4a67 77320000 		.4byte	.LASF972
 14988 4a6b 01       		.byte	0x1
 14989 4a6c D201     		.2byte	0x1d2
 14990 4a6e 00000000 		.4byte	.LFB275
 14991 4a72 48000000 		.4byte	.LFE275-.LFB275
 14992 4a76 01       		.uleb128 0x1
 14993 4a77 9C       		.byte	0x9c
 14994 4a78 C24A0000 		.4byte	0x4ac2
 14995 4a7c 52       		.uleb128 0x52
 14996 4a7d 231F0000 		.4byte	.LASF399
 14997 4a81 01       		.byte	0x1
 14998 4a82 D201     		.2byte	0x1d2
 14999 4a84 25000000 		.4byte	0x25
 15000 4a88 330A0000 		.4byte	.LLST68
 15001 4a8c 41       		.uleb128 0x41
 15002 4a8d 0E000000 		.4byte	.LVL356
 15003 4a91 13440000 		.4byte	0x4413
 15004 4a95 58       		.uleb128 0x58
 15005 4a96 2E000000 		.4byte	.LVL358
 15006 4a9a ED570000 		.4byte	0x57ed
 15007 4a9e AD4A0000 		.4byte	0x4aad
 15008 4aa2 3B       		.uleb128 0x3b
 15009 4aa3 02       		.uleb128 0x2
 15010 4aa4 90       		.byte	0x90
 15011 4aa5 40       		.uleb128 0x40
 15012 4aa6 05       		.uleb128 0x5
 15013 4aa7 F3       		.byte	0xf3
ARM GAS  C:\Users\CHRIST~1\AppData\Local\Temp\ccb3oWGE.s 			page 266


 15014 4aa8 03       		.uleb128 0x3
 15015 4aa9 F5       		.byte	0xf5
 15016 4aaa 40       		.uleb128 0x40
 15017 4aab 25       		.uleb128 0x25
 15018 4aac 00       		.byte	0
 15019 4aad 53       		.uleb128 0x53
 15020 4aae 44000000 		.4byte	.LVL362
 15021 4ab2 F8570000 		.4byte	0x57f8
 15022 4ab6 3B       		.uleb128 0x3b
 15023 4ab7 02       		.uleb128 0x2
 15024 4ab8 90       		.byte	0x90
 15025 4ab9 40       		.uleb128 0x40
 15026 4aba 05       		.uleb128 0x5
 15027 4abb F3       		.byte	0xf3
 15028 4abc 03       		.uleb128 0x3
 15029 4abd F5       		.byte	0xf5
 15030 4abe 40       		.uleb128 0x40
 15031 4abf 25       		.uleb128 0x25
 15032 4ac0 00       		.byte	0
 15033 4ac1 00       		.byte	0
 15034 4ac2 47       		.uleb128 0x47
 15035 4ac3 F8250000 		.4byte	.LASF973
 15036 4ac7 01       		.byte	0x1
 15037 4ac8 CE01     		.2byte	0x1ce
 15038 4aca 00000000 		.4byte	.LFB274
 15039 4ace 14000000 		.4byte	.LFE274-.LFB274
 15040 4ad2 01       		.uleb128 0x1
 15041 4ad3 9C       		.byte	0x9c
 15042 4ad4 F24A0000 		.4byte	0x4af2
 15043 4ad8 34       		.uleb128 0x34
 15044 4ad9 76616C00 		.ascii	"val\000"
 15045 4add 01       		.byte	0x1
 15046 4ade CE01     		.2byte	0x1ce
 15047 4ae0 25000000 		.4byte	0x25
 15048 4ae4 B30A0000 		.4byte	.LLST67
 15049 4ae8 48       		.uleb128 0x48
 15050 4ae9 0E000000 		.4byte	.LVL354
 15051 4aed 2B4B0000 		.4byte	0x4b2b
 15052 4af1 00       		.byte	0
 15053 4af2 47       		.uleb128 0x47
 15054 4af3 0A1A0000 		.4byte	.LASF974
 15055 4af7 01       		.byte	0x1
 15056 4af8 C001     		.2byte	0x1c0
 15057 4afa 00000000 		.4byte	.LFB273
 15058 4afe 2C000000 		.4byte	.LFE273-.LFB273
 15059 4b02 01       		.uleb128 0x1
 15060 4b03 9C       		.byte	0x9c
 15061 4b04 2B4B0000 		.4byte	0x4b2b
 15062 4b08 34       		.uleb128 0x34
 15063 4b09 76616C00 		.ascii	"val\000"
 15064 4b0d 01       		.byte	0x1
 15065 4b0e C001     		.2byte	0x1c0
 15066 4b10 25000000 		.4byte	0x25
 15067 4b14 D70A0000 		.4byte	.LLST64
 15068 4b18 48       		.uleb128 0x48
 15069 4b19 18000000 		.4byte	.LVL340
 15070 4b1d 454B0000 		.4byte	0x4b45
ARM GAS  C:\Users\CHRIST~1\AppData\Local\Temp\ccb3oWGE.s 			page 267


 15071 4b21 48       		.uleb128 0x48
 15072 4b22 28000000 		.4byte	.LVL342
 15073 4b26 454B0000 		.4byte	0x4b45
 15074 4b2a 00       		.byte	0
 15075 4b2b 4F       		.uleb128 0x4f
 15076 4b2c A4310000 		.4byte	.LASF976
 15077 4b30 01       		.byte	0x1
 15078 4b31 A601     		.2byte	0x1a6
 15079 4b33 01       		.byte	0x1
 15080 4b34 454B0000 		.4byte	0x4b45
 15081 4b38 43       		.uleb128 0x43
 15082 4b39 231F0000 		.4byte	.LASF399
 15083 4b3d 01       		.byte	0x1
 15084 4b3e A601     		.2byte	0x1a6
 15085 4b40 25000000 		.4byte	0x25
 15086 4b44 00       		.byte	0
 15087 4b45 4F       		.uleb128 0x4f
 15088 4b46 DE350000 		.4byte	.LASF977
 15089 4b4a 01       		.byte	0x1
 15090 4b4b 9201     		.2byte	0x192
 15091 4b4d 01       		.byte	0x1
 15092 4b4e 5F4B0000 		.4byte	0x4b5f
 15093 4b52 43       		.uleb128 0x43
 15094 4b53 231F0000 		.4byte	.LASF399
 15095 4b57 01       		.byte	0x1
 15096 4b58 9201     		.2byte	0x192
 15097 4b5a 25000000 		.4byte	0x25
 15098 4b5e 00       		.byte	0
 15099 4b5f 47       		.uleb128 0x47
 15100 4b60 A92C0000 		.4byte	.LASF978
 15101 4b64 01       		.byte	0x1
 15102 4b65 7C01     		.2byte	0x17c
 15103 4b67 00000000 		.4byte	.LFB270
 15104 4b6b 84000000 		.4byte	.LFE270-.LFB270
 15105 4b6f 01       		.uleb128 0x1
 15106 4b70 9C       		.byte	0x9c
 15107 4b71 A14B0000 		.4byte	0x4ba1
 15108 4b75 34       		.uleb128 0x34
 15109 4b76 706F7300 		.ascii	"pos\000"
 15110 4b7a 01       		.byte	0x1
 15111 4b7b 7C01     		.2byte	0x17c
 15112 4b7d 25000000 		.4byte	0x25
 15113 4b81 170B0000 		.4byte	.LLST61
 15114 4b85 41       		.uleb128 0x41
 15115 4b86 0E000000 		.4byte	.LVL323
 15116 4b8a 13440000 		.4byte	0x4413
 15117 4b8e 48       		.uleb128 0x48
 15118 4b8f 4C000000 		.4byte	.LVL325
 15119 4b93 03580000 		.4byte	0x5803
 15120 4b97 48       		.uleb128 0x48
 15121 4b98 7A000000 		.4byte	.LVL329
 15122 4b9c 0E580000 		.4byte	0x580e
 15123 4ba0 00       		.byte	0
 15124 4ba1 47       		.uleb128 0x47
 15125 4ba2 740A0000 		.4byte	.LASF979
 15126 4ba6 01       		.byte	0x1
 15127 4ba7 6801     		.2byte	0x168
ARM GAS  C:\Users\CHRIST~1\AppData\Local\Temp\ccb3oWGE.s 			page 268


 15128 4ba9 00000000 		.4byte	.LFB269
 15129 4bad 5C000000 		.4byte	.LFE269-.LFB269
 15130 4bb1 01       		.uleb128 0x1
 15131 4bb2 9C       		.byte	0x9c
 15132 4bb3 E34B0000 		.4byte	0x4be3
 15133 4bb7 34       		.uleb128 0x34
 15134 4bb8 72706D00 		.ascii	"rpm\000"
 15135 4bbc 01       		.byte	0x1
 15136 4bbd 6801     		.2byte	0x168
 15137 4bbf 25000000 		.4byte	0x25
 15138 4bc3 9D0B0000 		.4byte	.LLST60
 15139 4bc7 41       		.uleb128 0x41
 15140 4bc8 0E000000 		.4byte	.LVL315
 15141 4bcc 13440000 		.4byte	0x4413
 15142 4bd0 48       		.uleb128 0x48
 15143 4bd1 38000000 		.4byte	.LVL317
 15144 4bd5 19580000 		.4byte	0x5819
 15145 4bd9 48       		.uleb128 0x48
 15146 4bda 58000000 		.4byte	.LVL321
 15147 4bde 24580000 		.4byte	0x5824
 15148 4be2 00       		.byte	0
 15149 4be3 47       		.uleb128 0x47
 15150 4be4 C0330000 		.4byte	.LASF980
 15151 4be8 01       		.byte	0x1
 15152 4be9 5401     		.2byte	0x154
 15153 4beb 00000000 		.4byte	.LFB268
 15154 4bef 5C000000 		.4byte	.LFE268-.LFB268
 15155 4bf3 01       		.uleb128 0x1
 15156 4bf4 9C       		.byte	0x9c
 15157 4bf5 254C0000 		.4byte	0x4c25
 15158 4bf9 52       		.uleb128 0x52
 15159 4bfa A0190000 		.4byte	.LASF981
 15160 4bfe 01       		.byte	0x1
 15161 4bff 5401     		.2byte	0x154
 15162 4c01 25000000 		.4byte	0x25
 15163 4c05 050C0000 		.4byte	.LLST59
 15164 4c09 41       		.uleb128 0x41
 15165 4c0a 0E000000 		.4byte	.LVL307
 15166 4c0e 13440000 		.4byte	0x4413
 15167 4c12 48       		.uleb128 0x48
 15168 4c13 38000000 		.4byte	.LVL309
 15169 4c17 2F580000 		.4byte	0x582f
 15170 4c1b 48       		.uleb128 0x48
 15171 4c1c 58000000 		.4byte	.LVL313
 15172 4c20 3A580000 		.4byte	0x583a
 15173 4c24 00       		.byte	0
 15174 4c25 4F       		.uleb128 0x4f
 15175 4c26 98370000 		.4byte	.LASF982
 15176 4c2a 01       		.byte	0x1
 15177 4c2b 4001     		.2byte	0x140
 15178 4c2d 01       		.byte	0x1
 15179 4c2e 3F4C0000 		.4byte	0x4c3f
 15180 4c32 43       		.uleb128 0x43
 15181 4c33 A0190000 		.4byte	.LASF981
 15182 4c37 01       		.byte	0x1
 15183 4c38 4001     		.2byte	0x140
 15184 4c3a 25000000 		.4byte	0x25
ARM GAS  C:\Users\CHRIST~1\AppData\Local\Temp\ccb3oWGE.s 			page 269


 15185 4c3e 00       		.byte	0
 15186 4c3f 50       		.uleb128 0x50
 15187 4c40 EE310000 		.4byte	.LASF983
 15188 4c44 01       		.byte	0x1
 15189 4c45 2D01     		.2byte	0x12d
 15190 4c47 CC0F0000 		.4byte	0xfcc
 15191 4c4b 00000000 		.4byte	.LFB266
 15192 4c4f 20000000 		.4byte	.LFE266-.LFB266
 15193 4c53 01       		.uleb128 0x1
 15194 4c54 9C       		.byte	0x9c
 15195 4c55 794C0000 		.4byte	0x4c79
 15196 4c59 56       		.uleb128 0x56
 15197 4c5a 72657400 		.ascii	"ret\000"
 15198 4c5e 01       		.byte	0x1
 15199 4c5f 2E01     		.2byte	0x12e
 15200 4c61 CC0F0000 		.4byte	0xfcc
 15201 4c65 00       		.byte	0
 15202 4c66 48       		.uleb128 0x48
 15203 4c67 12000000 		.4byte	.LVL42
 15204 4c6b 45580000 		.4byte	0x5845
 15205 4c6f 48       		.uleb128 0x48
 15206 4c70 1A000000 		.4byte	.LVL43
 15207 4c74 50580000 		.4byte	0x5850
 15208 4c78 00       		.byte	0
 15209 4c79 50       		.uleb128 0x50
 15210 4c7a A30E0000 		.4byte	.LASF984
 15211 4c7e 01       		.byte	0x1
 15212 4c7f 2001     		.2byte	0x120
 15213 4c81 170D0000 		.4byte	0xd17
 15214 4c85 00000000 		.4byte	.LFB265
 15215 4c89 18000000 		.4byte	.LFE265-.LFB265
 15216 4c8d 01       		.uleb128 0x1
 15217 4c8e 9C       		.byte	0x9c
 15218 4c8f A44C0000 		.4byte	0x4ca4
 15219 4c93 52       		.uleb128 0x52
 15220 4c94 B4270000 		.4byte	.LASF398
 15221 4c98 01       		.byte	0x1
 15222 4c99 2001     		.2byte	0x120
 15223 4c9b E0100000 		.4byte	0x10e0
 15224 4c9f 6D0C0000 		.4byte	.LLST7
 15225 4ca3 00       		.byte	0
 15226 4ca4 51       		.uleb128 0x51
 15227 4ca5 32170000 		.4byte	.LASF985
 15228 4ca9 01       		.byte	0x1
 15229 4caa 1C01     		.2byte	0x11c
 15230 4cac E0100000 		.4byte	0x10e0
 15231 4cb0 00000000 		.4byte	.LFB264
 15232 4cb4 0C000000 		.4byte	.LFE264-.LFB264
 15233 4cb8 01       		.uleb128 0x1
 15234 4cb9 9C       		.byte	0x9c
 15235 4cba 59       		.uleb128 0x59
 15236 4cbb 723B0000 		.4byte	.LASF986
 15237 4cbf 01       		.byte	0x1
 15238 4cc0 1801     		.2byte	0x118
 15239 4cc2 00000000 		.4byte	.LFB263
 15240 4cc6 0C000000 		.4byte	.LFE263-.LFB263
 15241 4cca 01       		.uleb128 0x1
ARM GAS  C:\Users\CHRIST~1\AppData\Local\Temp\ccb3oWGE.s 			page 270


 15242 4ccb 9C       		.byte	0x9c
 15243 4ccc 59       		.uleb128 0x59
 15244 4ccd 4A2D0000 		.4byte	.LASF987
 15245 4cd1 01       		.byte	0x1
 15246 4cd2 1101     		.2byte	0x111
 15247 4cd4 00000000 		.4byte	.LFB262
 15248 4cd8 0C000000 		.4byte	.LFE262-.LFB262
 15249 4cdc 01       		.uleb128 0x1
 15250 4cdd 9C       		.byte	0x9c
 15251 4cde 59       		.uleb128 0x59
 15252 4cdf A7170000 		.4byte	.LASF988
 15253 4ce3 01       		.byte	0x1
 15254 4ce4 0A01     		.2byte	0x10a
 15255 4ce6 00000000 		.4byte	.LFB261
 15256 4cea 0C000000 		.4byte	.LFE261-.LFB261
 15257 4cee 01       		.uleb128 0x1
 15258 4cef 9C       		.byte	0x9c
 15259 4cf0 47       		.uleb128 0x47
 15260 4cf1 7B0D0000 		.4byte	.LASF989
 15261 4cf5 01       		.byte	0x1
 15262 4cf6 0301     		.2byte	0x103
 15263 4cf8 00000000 		.4byte	.LFB260
 15264 4cfc 0C000000 		.4byte	.LFE260-.LFB260
 15265 4d00 01       		.uleb128 0x1
 15266 4d01 9C       		.byte	0x9c
 15267 4d02 154D0000 		.4byte	0x4d15
 15268 4d06 57       		.uleb128 0x57
 15269 4d07 3A3A0000 		.4byte	.LASF990
 15270 4d0b 01       		.byte	0x1
 15271 4d0c 0301     		.2byte	0x103
 15272 4d0e 76310000 		.4byte	0x3176
 15273 4d12 01       		.uleb128 0x1
 15274 4d13 50       		.byte	0x50
 15275 4d14 00       		.byte	0
 15276 4d15 5A       		.uleb128 0x5a
 15277 4d16 88010000 		.4byte	.LASF991
 15278 4d1a 01       		.byte	0x1
 15279 4d1b EA       		.byte	0xea
 15280 4d1c 54160000 		.4byte	0x1654
 15281 4d20 00000000 		.4byte	.LFB259
 15282 4d24 20000000 		.4byte	.LFE259-.LFB259
 15283 4d28 01       		.uleb128 0x1
 15284 4d29 9C       		.byte	0x9c
 15285 4d2a 4D4D0000 		.4byte	0x4d4d
 15286 4d2e 5B       		.uleb128 0x5b
 15287 4d2f 72657400 		.ascii	"ret\000"
 15288 4d33 01       		.byte	0x1
 15289 4d34 EB       		.byte	0xeb
 15290 4d35 54160000 		.4byte	0x1654
 15291 4d39 00       		.byte	0
 15292 4d3a 48       		.uleb128 0x48
 15293 4d3b 12000000 		.4byte	.LVL36
 15294 4d3f 5B580000 		.4byte	0x585b
 15295 4d43 48       		.uleb128 0x48
 15296 4d44 1A000000 		.4byte	.LVL37
 15297 4d48 66580000 		.4byte	0x5866
 15298 4d4c 00       		.byte	0
ARM GAS  C:\Users\CHRIST~1\AppData\Local\Temp\ccb3oWGE.s 			page 271


 15299 4d4d 5C       		.uleb128 0x5c
 15300 4d4e 23190000 		.4byte	.LASF992
 15301 4d52 01       		.byte	0x1
 15302 4d53 AF       		.byte	0xaf
 15303 4d54 00000000 		.4byte	.LFB258
 15304 4d58 DC000000 		.4byte	.LFE258-.LFB258
 15305 4d5c 01       		.uleb128 0x1
 15306 4d5d 9C       		.byte	0x9c
 15307 4d5e 734E0000 		.4byte	0x4e73
 15308 4d62 5D       		.uleb128 0x5d
 15309 4d63 BA270000 		.4byte	.LASF590
 15310 4d67 01       		.byte	0x1
 15311 4d68 AF       		.byte	0xaf
 15312 4d69 734E0000 		.4byte	0x4e73
 15313 4d6d 8E0C0000 		.4byte	.LLST45
 15314 4d71 3A       		.uleb128 0x3a
 15315 4d72 34000000 		.4byte	.LVL233
 15316 4d76 71580000 		.4byte	0x5871
 15317 4d7a 924D0000 		.4byte	0x4d92
 15318 4d7e 3B       		.uleb128 0x3b
 15319 4d7f 01       		.uleb128 0x1
 15320 4d80 50       		.byte	0x50
 15321 4d81 02       		.uleb128 0x2
 15322 4d82 75       		.byte	0x75
 15323 4d83 00       		.sleb128 0
 15324 4d84 3B       		.uleb128 0x3b
 15325 4d85 01       		.uleb128 0x1
 15326 4d86 51       		.byte	0x51
 15327 4d87 02       		.uleb128 0x2
 15328 4d88 74       		.byte	0x74
 15329 4d89 00       		.sleb128 0
 15330 4d8a 3B       		.uleb128 0x3b
 15331 4d8b 01       		.uleb128 0x1
 15332 4d8c 52       		.byte	0x52
 15333 4d8d 03       		.uleb128 0x3
 15334 4d8e 0A       		.byte	0xa
 15335 4d8f 7401     		.2byte	0x174
 15336 4d91 00       		.byte	0
 15337 4d92 41       		.uleb128 0x41
 15338 4d93 38000000 		.4byte	.LVL234
 15339 4d97 CB500000 		.4byte	0x50cb
 15340 4d9b 58       		.uleb128 0x58
 15341 4d9c 4E000000 		.4byte	.LVL236
 15342 4da0 80580000 		.4byte	0x5880
 15343 4da4 B24D0000 		.4byte	0x4db2
 15344 4da8 3B       		.uleb128 0x3b
 15345 4da9 01       		.uleb128 0x1
 15346 4daa 50       		.byte	0x50
 15347 4dab 05       		.uleb128 0x5
 15348 4dac 03       		.byte	0x3
 15349 4dad 00000000 		.4byte	.LANCHOR12
 15350 4db1 00       		.byte	0
 15351 4db2 41       		.uleb128 0x41
 15352 4db3 54000000 		.4byte	.LVL238
 15353 4db7 8B580000 		.4byte	0x588b
 15354 4dbb 41       		.uleb128 0x41
 15355 4dbc 64000000 		.4byte	.LVL239
ARM GAS  C:\Users\CHRIST~1\AppData\Local\Temp\ccb3oWGE.s 			page 272


 15356 4dc0 96580000 		.4byte	0x5896
 15357 4dc4 41       		.uleb128 0x41
 15358 4dc5 74000000 		.4byte	.LVL240
 15359 4dc9 A1580000 		.4byte	0x58a1
 15360 4dcd 41       		.uleb128 0x41
 15361 4dce 8A000000 		.4byte	.LVL241
 15362 4dd2 AC580000 		.4byte	0x58ac
 15363 4dd6 3A       		.uleb128 0x3a
 15364 4dd7 96000000 		.4byte	.LVL242
 15365 4ddb 71580000 		.4byte	0x5871
 15366 4ddf F74D0000 		.4byte	0x4df7
 15367 4de3 3B       		.uleb128 0x3b
 15368 4de4 01       		.uleb128 0x1
 15369 4de5 50       		.byte	0x50
 15370 4de6 02       		.uleb128 0x2
 15371 4de7 75       		.byte	0x75
 15372 4de8 00       		.sleb128 0
 15373 4de9 3B       		.uleb128 0x3b
 15374 4dea 01       		.uleb128 0x1
 15375 4deb 51       		.byte	0x51
 15376 4dec 02       		.uleb128 0x2
 15377 4ded 74       		.byte	0x74
 15378 4dee 00       		.sleb128 0
 15379 4def 3B       		.uleb128 0x3b
 15380 4df0 01       		.uleb128 0x1
 15381 4df1 52       		.byte	0x52
 15382 4df2 03       		.uleb128 0x3
 15383 4df3 0A       		.byte	0xa
 15384 4df4 7401     		.2byte	0x174
 15385 4df6 00       		.byte	0
 15386 4df7 3A       		.uleb128 0x3a
 15387 4df8 9C000000 		.4byte	.LVL243
 15388 4dfc B7580000 		.4byte	0x58b7
 15389 4e00 0B4E0000 		.4byte	0x4e0b
 15390 4e04 3B       		.uleb128 0x3b
 15391 4e05 01       		.uleb128 0x1
 15392 4e06 50       		.byte	0x50
 15393 4e07 02       		.uleb128 0x2
 15394 4e08 75       		.byte	0x75
 15395 4e09 00       		.sleb128 0
 15396 4e0a 00       		.byte	0
 15397 4e0b 41       		.uleb128 0x41
 15398 4e0c A0000000 		.4byte	.LVL244
 15399 4e10 CB500000 		.4byte	0x50cb
 15400 4e14 58       		.uleb128 0x58
 15401 4e15 B2000000 		.4byte	.LVL246
 15402 4e19 C2580000 		.4byte	0x58c2
 15403 4e1d 2B4E0000 		.4byte	0x4e2b
 15404 4e21 3B       		.uleb128 0x3b
 15405 4e22 01       		.uleb128 0x1
 15406 4e23 50       		.byte	0x50
 15407 4e24 05       		.uleb128 0x5
 15408 4e25 03       		.byte	0x3
 15409 4e26 00000000 		.4byte	.LANCHOR12
 15410 4e2a 00       		.byte	0
 15411 4e2b 41       		.uleb128 0x41
 15412 4e2c B6000000 		.4byte	.LVL247
ARM GAS  C:\Users\CHRIST~1\AppData\Local\Temp\ccb3oWGE.s 			page 273


 15413 4e30 CD580000 		.4byte	0x58cd
 15414 4e34 3A       		.uleb128 0x3a
 15415 4e35 C2000000 		.4byte	.LVL248
 15416 4e39 71580000 		.4byte	0x5871
 15417 4e3d 554E0000 		.4byte	0x4e55
 15418 4e41 3B       		.uleb128 0x3b
 15419 4e42 01       		.uleb128 0x1
 15420 4e43 50       		.byte	0x50
 15421 4e44 02       		.uleb128 0x2
 15422 4e45 75       		.byte	0x75
 15423 4e46 00       		.sleb128 0
 15424 4e47 3B       		.uleb128 0x3b
 15425 4e48 01       		.uleb128 0x1
 15426 4e49 51       		.byte	0x51
 15427 4e4a 02       		.uleb128 0x2
 15428 4e4b 74       		.byte	0x74
 15429 4e4c 00       		.sleb128 0
 15430 4e4d 3B       		.uleb128 0x3b
 15431 4e4e 01       		.uleb128 0x1
 15432 4e4f 52       		.byte	0x52
 15433 4e50 03       		.uleb128 0x3
 15434 4e51 0A       		.byte	0xa
 15435 4e52 7401     		.2byte	0x174
 15436 4e54 00       		.byte	0
 15437 4e55 3A       		.uleb128 0x3a
 15438 4e56 C8000000 		.4byte	.LVL249
 15439 4e5a D8580000 		.4byte	0x58d8
 15440 4e5e 694E0000 		.4byte	0x4e69
 15441 4e62 3B       		.uleb128 0x3b
 15442 4e63 01       		.uleb128 0x1
 15443 4e64 50       		.byte	0x50
 15444 4e65 02       		.uleb128 0x2
 15445 4e66 75       		.byte	0x75
 15446 4e67 00       		.sleb128 0
 15447 4e68 00       		.byte	0
 15448 4e69 41       		.uleb128 0x41
 15449 4e6a D2000000 		.4byte	.LVL250
 15450 4e6e E3580000 		.4byte	0x58e3
 15451 4e72 00       		.byte	0
 15452 4e73 0B       		.uleb128 0xb
 15453 4e74 04       		.byte	0x4
 15454 4e75 80160000 		.4byte	0x1680
 15455 4e79 5E       		.uleb128 0x5e
 15456 4e7a 35320000 		.4byte	.LASF993
 15457 4e7e 01       		.byte	0x1
 15458 4e7f AB       		.byte	0xab
 15459 4e80 8E4E0000 		.4byte	0x4e8e
 15460 4e84 00000000 		.4byte	.LFB257
 15461 4e88 08000000 		.4byte	.LFE257-.LFB257
 15462 4e8c 01       		.uleb128 0x1
 15463 4e8d 9C       		.byte	0x9c
 15464 4e8e 0B       		.uleb128 0xb
 15465 4e8f 04       		.byte	0x4
 15466 4e90 90160000 		.4byte	0x1690
 15467 4e94 5C       		.uleb128 0x5c
 15468 4e95 603B0000 		.4byte	.LASF994
 15469 4e99 01       		.byte	0x1
ARM GAS  C:\Users\CHRIST~1\AppData\Local\Temp\ccb3oWGE.s 			page 274


 15470 4e9a 63       		.byte	0x63
 15471 4e9b 00000000 		.4byte	.LFB256
 15472 4e9f 78010000 		.4byte	.LFE256-.LFB256
 15473 4ea3 01       		.uleb128 0x1
 15474 4ea4 9C       		.byte	0x9c
 15475 4ea5 7C4F0000 		.4byte	0x4f7c
 15476 4ea9 5D       		.uleb128 0x5d
 15477 4eaa BA270000 		.4byte	.LASF590
 15478 4eae 01       		.byte	0x1
 15479 4eaf 63       		.byte	0x63
 15480 4eb0 734E0000 		.4byte	0x4e73
 15481 4eb4 F40C0000 		.4byte	.LLST6
 15482 4eb8 3A       		.uleb128 0x3a
 15483 4eb9 16000000 		.4byte	.LVL28
 15484 4ebd 71580000 		.4byte	0x5871
 15485 4ec1 DA4E0000 		.4byte	0x4eda
 15486 4ec5 3B       		.uleb128 0x3b
 15487 4ec6 01       		.uleb128 0x1
 15488 4ec7 50       		.byte	0x50
 15489 4ec8 02       		.uleb128 0x2
 15490 4ec9 75       		.byte	0x75
 15491 4eca 00       		.sleb128 0
 15492 4ecb 3B       		.uleb128 0x3b
 15493 4ecc 01       		.uleb128 0x1
 15494 4ecd 51       		.byte	0x51
 15495 4ece 03       		.uleb128 0x3
 15496 4ecf F3       		.byte	0xf3
 15497 4ed0 01       		.uleb128 0x1
 15498 4ed1 50       		.byte	0x50
 15499 4ed2 3B       		.uleb128 0x3b
 15500 4ed3 01       		.uleb128 0x1
 15501 4ed4 52       		.byte	0x52
 15502 4ed5 03       		.uleb128 0x3
 15503 4ed6 0A       		.byte	0xa
 15504 4ed7 7401     		.2byte	0x174
 15505 4ed9 00       		.byte	0
 15506 4eda 3A       		.uleb128 0x3a
 15507 4edb 9A000000 		.4byte	.LVL29
 15508 4edf EE580000 		.4byte	0x58ee
 15509 4ee3 074F0000 		.4byte	0x4f07
 15510 4ee7 3B       		.uleb128 0x3b
 15511 4ee8 01       		.uleb128 0x1
 15512 4ee9 50       		.byte	0x50
 15513 4eea 05       		.uleb128 0x5
 15514 4eeb 03       		.byte	0x3
 15515 4eec 00000000 		.4byte	.LANCHOR37
 15516 4ef0 3B       		.uleb128 0x3b
 15517 4ef1 01       		.uleb128 0x1
 15518 4ef2 51       		.byte	0x51
 15519 4ef3 03       		.uleb128 0x3
 15520 4ef4 0A       		.byte	0xa
 15521 4ef5 9805     		.2byte	0x598
 15522 4ef7 3B       		.uleb128 0x3b
 15523 4ef8 01       		.uleb128 0x1
 15524 4ef9 52       		.byte	0x52
 15525 4efa 02       		.uleb128 0x2
 15526 4efb 08       		.byte	0x8
ARM GAS  C:\Users\CHRIST~1\AppData\Local\Temp\ccb3oWGE.s 			page 275


 15527 4efc 40       		.byte	0x40
 15528 4efd 3B       		.uleb128 0x3b
 15529 4efe 01       		.uleb128 0x1
 15530 4eff 53       		.byte	0x53
 15531 4f00 05       		.uleb128 0x5
 15532 4f01 03       		.byte	0x3
 15533 4f02 00000000 		.4byte	timer_thread
 15534 4f06 00       		.byte	0
 15535 4f07 3A       		.uleb128 0x3a
 15536 4f08 AA000000 		.4byte	.LVL30
 15537 4f0c EE580000 		.4byte	0x58ee
 15538 4f10 3B4F0000 		.4byte	0x4f3b
 15539 4f14 3B       		.uleb128 0x3b
 15540 4f15 01       		.uleb128 0x1
 15541 4f16 50       		.byte	0x50
 15542 4f17 05       		.uleb128 0x5
 15543 4f18 03       		.byte	0x3
 15544 4f19 00000000 		.4byte	.LANCHOR38
 15545 4f1d 3B       		.uleb128 0x3b
 15546 4f1e 01       		.uleb128 0x1
 15547 4f1f 51       		.byte	0x51
 15548 4f20 03       		.uleb128 0x3
 15549 4f21 0A       		.byte	0xa
 15550 4f22 9805     		.2byte	0x598
 15551 4f24 3B       		.uleb128 0x3b
 15552 4f25 01       		.uleb128 0x1
 15553 4f26 52       		.byte	0x52
 15554 4f27 02       		.uleb128 0x2
 15555 4f28 08       		.byte	0x8
 15556 4f29 3F       		.byte	0x3f
 15557 4f2a 3B       		.uleb128 0x3b
 15558 4f2b 01       		.uleb128 0x1
 15559 4f2c 53       		.byte	0x53
 15560 4f2d 05       		.uleb128 0x5
 15561 4f2e 03       		.byte	0x3
 15562 4f2f 00000000 		.4byte	sample_send_thread
 15563 4f33 3B       		.uleb128 0x3b
 15564 4f34 02       		.uleb128 0x2
 15565 4f35 7D       		.byte	0x7d
 15566 4f36 00       		.sleb128 0
 15567 4f37 02       		.uleb128 0x2
 15568 4f38 74       		.byte	0x74
 15569 4f39 00       		.sleb128 0
 15570 4f3a 00       		.byte	0
 15571 4f3b 58       		.uleb128 0x58
 15572 4f3c D0000000 		.4byte	.LVL31
 15573 4f40 B7580000 		.4byte	0x58b7
 15574 4f44 524F0000 		.4byte	0x4f52
 15575 4f48 3B       		.uleb128 0x3b
 15576 4f49 01       		.uleb128 0x1
 15577 4f4a 50       		.byte	0x50
 15578 4f4b 05       		.uleb128 0x5
 15579 4f4c 03       		.byte	0x3
 15580 4f4d 00000000 		.4byte	.LANCHOR12
 15581 4f51 00       		.byte	0
 15582 4f52 41       		.uleb128 0x41
 15583 4f53 D4000000 		.4byte	.LVL32
ARM GAS  C:\Users\CHRIST~1\AppData\Local\Temp\ccb3oWGE.s 			page 276


 15584 4f57 96580000 		.4byte	0x5896
 15585 4f5b 58       		.uleb128 0x58
 15586 4f5c E8000000 		.4byte	.LVL33
 15587 4f60 D8580000 		.4byte	0x58d8
 15588 4f64 724F0000 		.4byte	0x4f72
 15589 4f68 3B       		.uleb128 0x3b
 15590 4f69 01       		.uleb128 0x1
 15591 4f6a 50       		.byte	0x50
 15592 4f6b 05       		.uleb128 0x5
 15593 4f6c 03       		.byte	0x3
 15594 4f6d 00000000 		.4byte	.LANCHOR12
 15595 4f71 00       		.byte	0
 15596 4f72 41       		.uleb128 0x41
 15597 4f73 F4000000 		.4byte	.LVL34
 15598 4f77 E3580000 		.4byte	0x58e3
 15599 4f7b 00       		.byte	0
 15600 4f7c 5F       		.uleb128 0x5f
 15601 4f7d DD330000 		.4byte	.LASF996
 15602 4f81 02       		.byte	0x2
 15603 4f82 84       		.byte	0x84
 15604 4f83 03       		.byte	0x3
 15605 4f84 944F0000 		.4byte	0x4f94
 15606 4f88 60       		.uleb128 0x60
 15607 4f89 F0330000 		.4byte	.LASF997
 15608 4f8d 02       		.byte	0x2
 15609 4f8e 84       		.byte	0x84
 15610 4f8f 170D0000 		.4byte	0xd17
 15611 4f93 00       		.byte	0
 15612 4f94 61       		.uleb128 0x61
 15613 4f95 58270000 		.4byte	.LASF1092
 15614 4f99 2F       		.byte	0x2f
 15615 4f9a AE       		.byte	0xae
 15616 4f9b E2020000 		.4byte	0x2e2
 15617 4f9f 03       		.byte	0x3
 15618 4fa0 62       		.uleb128 0x62
 15619 4fa1 64260000 		.4byte	.LASF998
 15620 4fa5 2C       		.byte	0x2c
 15621 4fa6 9601     		.2byte	0x196
 15622 4fa8 03       		.byte	0x3
 15623 4fa9 62       		.uleb128 0x62
 15624 4faa A0360000 		.4byte	.LASF999
 15625 4fae 2C       		.byte	0x2c
 15626 4faf 8201     		.2byte	0x182
 15627 4fb1 03       		.byte	0x3
 15628 4fb2 62       		.uleb128 0x62
 15629 4fb3 B7000000 		.4byte	.LASF1000
 15630 4fb7 0E       		.byte	0xe
 15631 4fb8 E401     		.2byte	0x1e4
 15632 4fba 03       		.byte	0x3
 15633 4fbb 62       		.uleb128 0x62
 15634 4fbc 441D0000 		.4byte	.LASF1001
 15635 4fc0 0E       		.byte	0xe
 15636 4fc1 D901     		.2byte	0x1d9
 15637 4fc3 03       		.byte	0x3
 15638 4fc4 62       		.uleb128 0x62
 15639 4fc5 B2210000 		.4byte	.LASF1002
 15640 4fc9 0E       		.byte	0xe
ARM GAS  C:\Users\CHRIST~1\AppData\Local\Temp\ccb3oWGE.s 			page 277


 15641 4fca CA01     		.2byte	0x1ca
 15642 4fcc 03       		.byte	0x3
 15643 4fcd 62       		.uleb128 0x62
 15644 4fce 76240000 		.4byte	.LASF1003
 15645 4fd2 0E       		.byte	0xe
 15646 4fd3 BC01     		.2byte	0x1bc
 15647 4fd5 03       		.byte	0x3
 15648 4fd6 42       		.uleb128 0x42
 15649 4fd7 DF370000 		.4byte	.LASF1004
 15650 4fdb 03       		.byte	0x3
 15651 4fdc 2002     		.2byte	0x220
 15652 4fde 03       		.byte	0x3
 15653 4fdf F04F0000 		.4byte	0x4ff0
 15654 4fe3 43       		.uleb128 0x43
 15655 4fe4 A70F0000 		.4byte	.LASF1005
 15656 4fe8 03       		.byte	0x3
 15657 4fe9 2002     		.2byte	0x220
 15658 4feb 1E010000 		.4byte	0x11e
 15659 4fef 00       		.byte	0
 15660 4ff0 63       		.uleb128 0x63
 15661 4ff1 C7430000 		.4byte	0x43c7
 15662 4ff5 00000000 		.4byte	.LFB315
 15663 4ff9 40010000 		.4byte	.LFE315-.LFB315
 15664 4ffd 01       		.uleb128 0x1
 15665 4ffe 9C       		.byte	0x9c
 15666 4fff CB500000 		.4byte	0x50cb
 15667 5003 3E       		.uleb128 0x3e
 15668 5004 D4430000 		.4byte	0x43d4
 15669 5008 200D0000 		.4byte	.LLST15
 15670 500c 64       		.uleb128 0x64
 15671 500d E0430000 		.4byte	0x43e0
 15672 5011 3C000000 		.4byte	.LBB126
 15673 5015 04010000 		.4byte	.LBE126-.LBB126
 15674 5019 AF500000 		.4byte	0x50af
 15675 501d 65       		.uleb128 0x65
 15676 501e E1430000 		.4byte	0x43e1
 15677 5022 03       		.uleb128 0x3
 15678 5023 91       		.byte	0x91
 15679 5024 A47F     		.sleb128 -92
 15680 5026 65       		.uleb128 0x65
 15681 5027 ED430000 		.4byte	0x43ed
 15682 502b 03       		.uleb128 0x3
 15683 502c 91       		.byte	0x91
 15684 502d A87F     		.sleb128 -88
 15685 502f 65       		.uleb128 0x65
 15686 5030 F9430000 		.4byte	0x43f9
 15687 5034 03       		.uleb128 0x3
 15688 5035 91       		.byte	0x91
 15689 5036 AC7F     		.sleb128 -84
 15690 5038 65       		.uleb128 0x65
 15691 5039 05440000 		.4byte	0x4405
 15692 503d 03       		.uleb128 0x3
 15693 503e 91       		.byte	0x91
 15694 503f B07F     		.sleb128 -80
 15695 5041 41       		.uleb128 0x41
 15696 5042 40000000 		.4byte	.LVL112
 15697 5046 F9580000 		.4byte	0x58f9
ARM GAS  C:\Users\CHRIST~1\AppData\Local\Temp\ccb3oWGE.s 			page 278


 15698 504a 41       		.uleb128 0x41
 15699 504b 54000000 		.4byte	.LVL113
 15700 504f 04590000 		.4byte	0x5904
 15701 5053 41       		.uleb128 0x41
 15702 5054 5C000000 		.4byte	.LVL114
 15703 5058 F9470000 		.4byte	0x47f9
 15704 505c 41       		.uleb128 0x41
 15705 505d 66000000 		.4byte	.LVL115
 15706 5061 BB470000 		.4byte	0x47bb
 15707 5065 41       		.uleb128 0x41
 15708 5066 8C000000 		.4byte	.LVL116
 15709 506a 92490000 		.4byte	0x4992
 15710 506e 41       		.uleb128 0x41
 15711 506f 94000000 		.4byte	.LVL117
 15712 5073 17490000 		.4byte	0x4917
 15713 5077 3A       		.uleb128 0x3a
 15714 5078 9E000000 		.4byte	.LVL118
 15715 507c 78460000 		.4byte	0x4678
 15716 5080 8B500000 		.4byte	0x508b
 15717 5084 3B       		.uleb128 0x3b
 15718 5085 01       		.uleb128 0x1
 15719 5086 50       		.byte	0x50
 15720 5087 02       		.uleb128 0x2
 15721 5088 76       		.byte	0x76
 15722 5089 00       		.sleb128 0
 15723 508a 00       		.byte	0
 15724 508b 41       		.uleb128 0x41
 15725 508c B6000000 		.4byte	.LVL119
 15726 5090 35560000 		.4byte	0x5635
 15727 5094 41       		.uleb128 0x41
 15728 5095 DA000000 		.4byte	.LVL120
 15729 5099 0F590000 		.4byte	0x590f
 15730 509d 3C       		.uleb128 0x3c
 15731 509e 04010000 		.4byte	.LVL121
 15732 50a2 1B590000 		.4byte	0x591b
 15733 50a6 3B       		.uleb128 0x3b
 15734 50a7 01       		.uleb128 0x1
 15735 50a8 50       		.byte	0x50
 15736 50a9 03       		.uleb128 0x3
 15737 50aa 91       		.byte	0x91
 15738 50ab B07F     		.sleb128 -80
 15739 50ad 00       		.byte	0
 15740 50ae 00       		.byte	0
 15741 50af 41       		.uleb128 0x41
 15742 50b0 0A000000 		.4byte	.LVL109
 15743 50b4 154D0000 		.4byte	0x4d15
 15744 50b8 41       		.uleb128 0x41
 15745 50b9 2C000000 		.4byte	.LVL110
 15746 50bd 26590000 		.4byte	0x5926
 15747 50c1 41       		.uleb128 0x41
 15748 50c2 36000000 		.4byte	.LVL111
 15749 50c6 A3560000 		.4byte	0x56a3
 15750 50ca 00       		.byte	0
 15751 50cb 63       		.uleb128 0x63
 15752 50cc DC3C0000 		.4byte	0x3cdc
 15753 50d0 00000000 		.4byte	.LFB316
 15754 50d4 94050000 		.4byte	.LFE316-.LFB316
ARM GAS  C:\Users\CHRIST~1\AppData\Local\Temp\ccb3oWGE.s 			page 279


 15755 50d8 01       		.uleb128 0x1
 15756 50d9 9C       		.byte	0x9c
 15757 50da D1540000 		.4byte	0x54d1
 15758 50de 66       		.uleb128 0x66
 15759 50df F53C0000 		.4byte	0x3cf5
 15760 50e3 410D0000 		.4byte	.LLST16
 15761 50e7 66       		.uleb128 0x66
 15762 50e8 013D0000 		.4byte	0x3d01
 15763 50ec 610D0000 		.4byte	.LLST17
 15764 50f0 66       		.uleb128 0x66
 15765 50f1 0D3D0000 		.4byte	0x3d0d
 15766 50f5 B10D0000 		.4byte	.LLST18
 15767 50f9 66       		.uleb128 0x66
 15768 50fa 193D0000 		.4byte	0x3d19
 15769 50fe 510E0000 		.4byte	.LLST19
 15770 5102 66       		.uleb128 0x66
 15771 5103 253D0000 		.4byte	0x3d25
 15772 5107 010F0000 		.4byte	.LLST20
 15773 510b 66       		.uleb128 0x66
 15774 510c 313D0000 		.4byte	0x3d31
 15775 5110 890F0000 		.4byte	.LLST21
 15776 5114 66       		.uleb128 0x66
 15777 5115 3D3D0000 		.4byte	0x3d3d
 15778 5119 15100000 		.4byte	.LLST22
 15779 511d 66       		.uleb128 0x66
 15780 511e 493D0000 		.4byte	0x3d49
 15781 5122 4D100000 		.4byte	.LLST23
 15782 5126 66       		.uleb128 0x66
 15783 5127 553D0000 		.4byte	0x3d55
 15784 512b 85100000 		.4byte	.LLST24
 15785 512f 66       		.uleb128 0x66
 15786 5130 613D0000 		.4byte	0x3d61
 15787 5134 D5100000 		.4byte	.LLST25
 15788 5138 66       		.uleb128 0x66
 15789 5139 6D3D0000 		.4byte	0x3d6d
 15790 513d 49110000 		.4byte	.LLST26
 15791 5141 66       		.uleb128 0x66
 15792 5142 793D0000 		.4byte	0x3d79
 15793 5146 BD110000 		.4byte	.LLST27
 15794 514a 66       		.uleb128 0x66
 15795 514b 853D0000 		.4byte	0x3d85
 15796 514f 31120000 		.4byte	.LLST28
 15797 5153 66       		.uleb128 0x66
 15798 5154 913D0000 		.4byte	0x3d91
 15799 5158 A5120000 		.4byte	.LLST29
 15800 515c 66       		.uleb128 0x66
 15801 515d 9D3D0000 		.4byte	0x3d9d
 15802 5161 D1120000 		.4byte	.LLST30
 15803 5165 66       		.uleb128 0x66
 15804 5166 A93D0000 		.4byte	0x3da9
 15805 516a FD120000 		.4byte	.LLST31
 15806 516e 66       		.uleb128 0x66
 15807 516f B53D0000 		.4byte	0x3db5
 15808 5173 59130000 		.4byte	.LLST32
 15809 5177 66       		.uleb128 0x66
 15810 5178 C13D0000 		.4byte	0x3dc1
 15811 517c 85130000 		.4byte	.LLST33
ARM GAS  C:\Users\CHRIST~1\AppData\Local\Temp\ccb3oWGE.s 			page 280


 15812 5180 66       		.uleb128 0x66
 15813 5181 CD3D0000 		.4byte	0x3dcd
 15814 5185 B1130000 		.4byte	.LLST34
 15815 5189 66       		.uleb128 0x66
 15816 518a D93D0000 		.4byte	0x3dd9
 15817 518e 0D140000 		.4byte	.LLST35
 15818 5192 66       		.uleb128 0x66
 15819 5193 E53D0000 		.4byte	0x3de5
 15820 5197 45140000 		.4byte	.LLST36
 15821 519b 66       		.uleb128 0x66
 15822 519c F13D0000 		.4byte	0x3df1
 15823 51a0 A1140000 		.4byte	.LLST37
 15824 51a4 66       		.uleb128 0x66
 15825 51a5 FD3D0000 		.4byte	0x3dfd
 15826 51a9 C7140000 		.4byte	.LLST38
 15827 51ad 66       		.uleb128 0x66
 15828 51ae 093E0000 		.4byte	0x3e09
 15829 51b2 DB140000 		.4byte	.LLST39
 15830 51b6 66       		.uleb128 0x66
 15831 51b7 153E0000 		.4byte	0x3e15
 15832 51bb FB140000 		.4byte	.LLST40
 15833 51bf 40       		.uleb128 0x40
 15834 51c0 E93C0000 		.4byte	0x3ce9
 15835 51c4 06       		.uleb128 0x6
 15836 51c5 03       		.byte	0x3
 15837 51c6 00000000 		.4byte	m_conf
 15838 51ca 9F       		.byte	0x9f
 15839 51cb 3F       		.uleb128 0x3f
 15840 51cc C7430000 		.4byte	0x43c7
 15841 51d0 DA020000 		.4byte	.LBB127
 15842 51d4 90000000 		.4byte	.Ldebug_ranges0+0x90
 15843 51d8 01       		.byte	0x1
 15844 51d9 2505     		.2byte	0x525
 15845 51db F8510000 		.4byte	0x51f8
 15846 51df 3E       		.uleb128 0x3e
 15847 51e0 D4430000 		.4byte	0x43d4
 15848 51e4 0F150000 		.4byte	.LLST41
 15849 51e8 3C       		.uleb128 0x3c
 15850 51e9 86050000 		.4byte	.LVL228
 15851 51ed F04F0000 		.4byte	0x4ff0
 15852 51f1 3B       		.uleb128 0x3b
 15853 51f2 01       		.uleb128 0x1
 15854 51f3 50       		.byte	0x50
 15855 51f4 01       		.uleb128 0x1
 15856 51f5 35       		.byte	0x35
 15857 51f6 00       		.byte	0
 15858 51f7 00       		.byte	0
 15859 51f8 3F       		.uleb128 0x3f
 15860 51f9 C7430000 		.4byte	0x43c7
 15861 51fd 58030000 		.4byte	.LBB133
 15862 5201 B8000000 		.4byte	.Ldebug_ranges0+0xb8
 15863 5205 01       		.byte	0x1
 15864 5206 4005     		.2byte	0x540
 15865 5208 25520000 		.4byte	0x5225
 15866 520c 3E       		.uleb128 0x3e
 15867 520d D4430000 		.4byte	0x43d4
 15868 5211 2F150000 		.4byte	.LLST42
ARM GAS  C:\Users\CHRIST~1\AppData\Local\Temp\ccb3oWGE.s 			page 281


 15869 5215 3C       		.uleb128 0x3c
 15870 5216 76050000 		.4byte	.LVL226
 15871 521a F04F0000 		.4byte	0x4ff0
 15872 521e 3B       		.uleb128 0x3b
 15873 521f 01       		.uleb128 0x1
 15874 5220 50       		.byte	0x50
 15875 5221 01       		.uleb128 0x1
 15876 5222 36       		.byte	0x36
 15877 5223 00       		.byte	0
 15878 5224 00       		.byte	0
 15879 5225 67       		.uleb128 0x67
 15880 5226 213E0000 		.4byte	0x3e21
 15881 522a E0000000 		.4byte	.Ldebug_ranges0+0xe0
 15882 522e 52520000 		.4byte	0x5252
 15883 5232 66       		.uleb128 0x66
 15884 5233 263E0000 		.4byte	0x3e26
 15885 5237 4F150000 		.4byte	.LLST43
 15886 523b 3C       		.uleb128 0x3c
 15887 523c EC030000 		.4byte	.LVL190
 15888 5240 31590000 		.4byte	0x5931
 15889 5244 3B       		.uleb128 0x3b
 15890 5245 02       		.uleb128 0x2
 15891 5246 90       		.byte	0x90
 15892 5247 44       		.uleb128 0x44
 15893 5248 07       		.uleb128 0x7
 15894 5249 F4       		.byte	0xf4
 15895 524a 25       		.uleb128 0x25
 15896 524b 04       		.byte	0x4
 15897 524c 00000000 		.4byte	0
 15898 5250 00       		.byte	0
 15899 5251 00       		.byte	0
 15900 5252 67       		.uleb128 0x67
 15901 5253 333E0000 		.4byte	0x3e33
 15902 5257 00010000 		.4byte	.Ldebug_ranges0+0x100
 15903 525b 7F520000 		.4byte	0x527f
 15904 525f 66       		.uleb128 0x66
 15905 5260 343E0000 		.4byte	0x3e34
 15906 5264 93150000 		.4byte	.LLST44
 15907 5268 3C       		.uleb128 0x3c
 15908 5269 6A040000 		.4byte	.LVL198
 15909 526d 31590000 		.4byte	0x5931
 15910 5271 3B       		.uleb128 0x3b
 15911 5272 02       		.uleb128 0x2
 15912 5273 90       		.byte	0x90
 15913 5274 44       		.uleb128 0x44
 15914 5275 07       		.uleb128 0x7
 15915 5276 F4       		.byte	0xf4
 15916 5277 25       		.uleb128 0x25
 15917 5278 04       		.byte	0x4
 15918 5279 00000000 		.4byte	0
 15919 527d 00       		.byte	0
 15920 527e 00       		.byte	0
 15921 527f 41       		.uleb128 0x41
 15922 5280 40000000 		.4byte	.LVL124
 15923 5284 17490000 		.4byte	0x4917
 15924 5288 41       		.uleb128 0x41
 15925 5289 66000000 		.4byte	.LVL127
ARM GAS  C:\Users\CHRIST~1\AppData\Local\Temp\ccb3oWGE.s 			page 282


 15926 528d 0F590000 		.4byte	0x590f
 15927 5291 41       		.uleb128 0x41
 15928 5292 B0000000 		.4byte	.LVL128
 15929 5296 0F590000 		.4byte	0x590f
 15930 529a 3A       		.uleb128 0x3a
 15931 529b 24010000 		.4byte	.LVL134
 15932 529f 31590000 		.4byte	0x5931
 15933 52a3 C8520000 		.4byte	0x52c8
 15934 52a7 3B       		.uleb128 0x3b
 15935 52a8 02       		.uleb128 0x2
 15936 52a9 90       		.byte	0x90
 15937 52aa 41       		.uleb128 0x41
 15938 52ab 07       		.uleb128 0x7
 15939 52ac F4       		.byte	0xf4
 15940 52ad 25       		.uleb128 0x25
 15941 52ae 04       		.byte	0x4
 15942 52af 00000000 		.4byte	0
 15943 52b3 3B       		.uleb128 0x3b
 15944 52b4 02       		.uleb128 0x2
 15945 52b5 90       		.byte	0x90
 15946 52b6 42       		.uleb128 0x42
 15947 52b7 03       		.uleb128 0x3
 15948 52b8 F5       		.byte	0xf5
 15949 52b9 54       		.uleb128 0x54
 15950 52ba 25       		.uleb128 0x25
 15951 52bb 3B       		.uleb128 0x3b
 15952 52bc 02       		.uleb128 0x2
 15953 52bd 90       		.byte	0x90
 15954 52be 44       		.uleb128 0x44
 15955 52bf 07       		.uleb128 0x7
 15956 52c0 F4       		.byte	0xf4
 15957 52c1 25       		.uleb128 0x25
 15958 52c2 04       		.byte	0x4
 15959 52c3 0000C841 		.4byte	0x41c80000
 15960 52c7 00       		.byte	0
 15961 52c8 3A       		.uleb128 0x3a
 15962 52c9 40010000 		.4byte	.LVL137
 15963 52cd 31590000 		.4byte	0x5931
 15964 52d1 F6520000 		.4byte	0x52f6
 15965 52d5 3B       		.uleb128 0x3b
 15966 52d6 02       		.uleb128 0x2
 15967 52d7 90       		.byte	0x90
 15968 52d8 41       		.uleb128 0x41
 15969 52d9 07       		.uleb128 0x7
 15970 52da F4       		.byte	0xf4
 15971 52db 25       		.uleb128 0x25
 15972 52dc 04       		.byte	0x4
 15973 52dd 00000000 		.4byte	0
 15974 52e1 3B       		.uleb128 0x3b
 15975 52e2 02       		.uleb128 0x2
 15976 52e3 90       		.byte	0x90
 15977 52e4 42       		.uleb128 0x42
 15978 52e5 03       		.uleb128 0x3
 15979 52e6 F5       		.byte	0xf5
 15980 52e7 54       		.uleb128 0x54
 15981 52e8 25       		.uleb128 0x25
 15982 52e9 3B       		.uleb128 0x3b
ARM GAS  C:\Users\CHRIST~1\AppData\Local\Temp\ccb3oWGE.s 			page 283


 15983 52ea 02       		.uleb128 0x2
 15984 52eb 90       		.byte	0x90
 15985 52ec 44       		.uleb128 0x44
 15986 52ed 07       		.uleb128 0x7
 15987 52ee F4       		.byte	0xf4
 15988 52ef 25       		.uleb128 0x25
 15989 52f0 04       		.byte	0x4
 15990 52f1 0000C841 		.4byte	0x41c80000
 15991 52f5 00       		.byte	0
 15992 52f6 3A       		.uleb128 0x3a
 15993 52f7 5C010000 		.4byte	.LVL140
 15994 52fb 31590000 		.4byte	0x5931
 15995 52ff 24530000 		.4byte	0x5324
 15996 5303 3B       		.uleb128 0x3b
 15997 5304 02       		.uleb128 0x2
 15998 5305 90       		.byte	0x90
 15999 5306 41       		.uleb128 0x41
 16000 5307 07       		.uleb128 0x7
 16001 5308 F4       		.byte	0xf4
 16002 5309 25       		.uleb128 0x25
 16003 530a 04       		.byte	0x4
 16004 530b 00000000 		.4byte	0
 16005 530f 3B       		.uleb128 0x3b
 16006 5310 02       		.uleb128 0x2
 16007 5311 90       		.byte	0x90
 16008 5312 42       		.uleb128 0x42
 16009 5313 03       		.uleb128 0x3
 16010 5314 F5       		.byte	0xf5
 16011 5315 54       		.uleb128 0x54
 16012 5316 25       		.uleb128 0x25
 16013 5317 3B       		.uleb128 0x3b
 16014 5318 02       		.uleb128 0x2
 16015 5319 90       		.byte	0x90
 16016 531a 44       		.uleb128 0x44
 16017 531b 07       		.uleb128 0x7
 16018 531c F4       		.byte	0xf4
 16019 531d 25       		.uleb128 0x25
 16020 531e 04       		.byte	0x4
 16021 531f 0000C841 		.4byte	0x41c80000
 16022 5323 00       		.byte	0
 16023 5324 3A       		.uleb128 0x3a
 16024 5325 78010000 		.4byte	.LVL143
 16025 5329 31590000 		.4byte	0x5931
 16026 532d 56530000 		.4byte	0x5356
 16027 5331 3B       		.uleb128 0x3b
 16028 5332 02       		.uleb128 0x2
 16029 5333 90       		.byte	0x90
 16030 5334 41       		.uleb128 0x41
 16031 5335 07       		.uleb128 0x7
 16032 5336 F4       		.byte	0xf4
 16033 5337 25       		.uleb128 0x25
 16034 5338 04       		.byte	0x4
 16035 5339 00000000 		.4byte	0
 16036 533d 3B       		.uleb128 0x3b
 16037 533e 02       		.uleb128 0x2
 16038 533f 90       		.byte	0x90
 16039 5340 42       		.uleb128 0x42
ARM GAS  C:\Users\CHRIST~1\AppData\Local\Temp\ccb3oWGE.s 			page 284


 16040 5341 07       		.uleb128 0x7
 16041 5342 F4       		.byte	0xf4
 16042 5343 25       		.uleb128 0x25
 16043 5344 04       		.byte	0x4
 16044 5345 0000803F 		.4byte	0x3f800000
 16045 5349 3B       		.uleb128 0x3b
 16046 534a 02       		.uleb128 0x2
 16047 534b 90       		.byte	0x90
 16048 534c 44       		.uleb128 0x44
 16049 534d 07       		.uleb128 0x7
 16050 534e F4       		.byte	0xf4
 16051 534f 25       		.uleb128 0x25
 16052 5350 04       		.byte	0x4
 16053 5351 0000C841 		.4byte	0x41c80000
 16054 5355 00       		.byte	0
 16055 5356 3A       		.uleb128 0x3a
 16056 5357 F0010000 		.4byte	.LVL151
 16057 535b 3C590000 		.4byte	0x593c
 16058 535f 74530000 		.4byte	0x5374
 16059 5363 3B       		.uleb128 0x3b
 16060 5364 02       		.uleb128 0x2
 16061 5365 90       		.byte	0x90
 16062 5366 40       		.uleb128 0x40
 16063 5367 03       		.uleb128 0x3
 16064 5368 F5       		.byte	0xf5
 16065 5369 56       		.uleb128 0x56
 16066 536a 25       		.uleb128 0x25
 16067 536b 3B       		.uleb128 0x3b
 16068 536c 02       		.uleb128 0x2
 16069 536d 90       		.byte	0x90
 16070 536e 41       		.uleb128 0x41
 16071 536f 03       		.uleb128 0x3
 16072 5370 F5       		.byte	0xf5
 16073 5371 58       		.uleb128 0x58
 16074 5372 25       		.uleb128 0x25
 16075 5373 00       		.byte	0
 16076 5374 3A       		.uleb128 0x3a
 16077 5375 00020000 		.4byte	.LVL154
 16078 5379 3C590000 		.4byte	0x593c
 16079 537d 92530000 		.4byte	0x5392
 16080 5381 3B       		.uleb128 0x3b
 16081 5382 02       		.uleb128 0x2
 16082 5383 90       		.byte	0x90
 16083 5384 40       		.uleb128 0x40
 16084 5385 03       		.uleb128 0x3
 16085 5386 F5       		.byte	0xf5
 16086 5387 51       		.uleb128 0x51
 16087 5388 25       		.uleb128 0x25
 16088 5389 3B       		.uleb128 0x3b
 16089 538a 02       		.uleb128 0x2
 16090 538b 90       		.byte	0x90
 16091 538c 41       		.uleb128 0x41
 16092 538d 03       		.uleb128 0x3
 16093 538e F5       		.byte	0xf5
 16094 538f 53       		.uleb128 0x53
 16095 5390 25       		.uleb128 0x25
 16096 5391 00       		.byte	0
ARM GAS  C:\Users\CHRIST~1\AppData\Local\Temp\ccb3oWGE.s 			page 285


 16097 5392 3A       		.uleb128 0x3a
 16098 5393 10020000 		.4byte	.LVL157
 16099 5397 3C590000 		.4byte	0x593c
 16100 539b B0530000 		.4byte	0x53b0
 16101 539f 3B       		.uleb128 0x3b
 16102 53a0 02       		.uleb128 0x2
 16103 53a1 90       		.byte	0x90
 16104 53a2 40       		.uleb128 0x40
 16105 53a3 03       		.uleb128 0x3
 16106 53a4 F5       		.byte	0xf5
 16107 53a5 56       		.uleb128 0x56
 16108 53a6 25       		.uleb128 0x25
 16109 53a7 3B       		.uleb128 0x3b
 16110 53a8 02       		.uleb128 0x2
 16111 53a9 90       		.byte	0x90
 16112 53aa 41       		.uleb128 0x41
 16113 53ab 03       		.uleb128 0x3
 16114 53ac F5       		.byte	0xf5
 16115 53ad 57       		.uleb128 0x57
 16116 53ae 25       		.uleb128 0x25
 16117 53af 00       		.byte	0
 16118 53b0 3A       		.uleb128 0x3a
 16119 53b1 18020000 		.4byte	.LVL158
 16120 53b5 3C590000 		.4byte	0x593c
 16121 53b9 C6530000 		.4byte	0x53c6
 16122 53bd 3B       		.uleb128 0x3b
 16123 53be 02       		.uleb128 0x2
 16124 53bf 90       		.byte	0x90
 16125 53c0 41       		.uleb128 0x41
 16126 53c1 03       		.uleb128 0x3
 16127 53c2 F5       		.byte	0xf5
 16128 53c3 52       		.uleb128 0x52
 16129 53c4 25       		.uleb128 0x25
 16130 53c5 00       		.byte	0
 16131 53c6 3A       		.uleb128 0x3a
 16132 53c7 20020000 		.4byte	.LVL159
 16133 53cb 3C590000 		.4byte	0x593c
 16134 53cf DC530000 		.4byte	0x53dc
 16135 53d3 3B       		.uleb128 0x3b
 16136 53d4 02       		.uleb128 0x2
 16137 53d5 90       		.byte	0x90
 16138 53d6 41       		.uleb128 0x41
 16139 53d7 03       		.uleb128 0x3
 16140 53d8 F5       		.byte	0xf5
 16141 53d9 55       		.uleb128 0x55
 16142 53da 25       		.uleb128 0x25
 16143 53db 00       		.byte	0
 16144 53dc 3A       		.uleb128 0x3a
 16145 53dd 28020000 		.4byte	.LVL160
 16146 53e1 3C590000 		.4byte	0x593c
 16147 53e5 F2530000 		.4byte	0x53f2
 16148 53e9 3B       		.uleb128 0x3b
 16149 53ea 02       		.uleb128 0x2
 16150 53eb 90       		.byte	0x90
 16151 53ec 41       		.uleb128 0x41
 16152 53ed 03       		.uleb128 0x3
 16153 53ee F5       		.byte	0xf5
ARM GAS  C:\Users\CHRIST~1\AppData\Local\Temp\ccb3oWGE.s 			page 286


 16154 53ef 54       		.uleb128 0x54
 16155 53f0 25       		.uleb128 0x25
 16156 53f1 00       		.byte	0
 16157 53f2 41       		.uleb128 0x41
 16158 53f3 96020000 		.4byte	.LVL169
 16159 53f7 3C590000 		.4byte	0x593c
 16160 53fb 41       		.uleb128 0x41
 16161 53fc A6020000 		.4byte	.LVL171
 16162 5400 3C590000 		.4byte	0x593c
 16163 5404 3A       		.uleb128 0x3a
 16164 5405 B6020000 		.4byte	.LVL172
 16165 5409 3C590000 		.4byte	0x593c
 16166 540d 1A540000 		.4byte	0x541a
 16167 5411 3B       		.uleb128 0x3b
 16168 5412 02       		.uleb128 0x2
 16169 5413 90       		.byte	0x90
 16170 5414 41       		.uleb128 0x41
 16171 5415 03       		.uleb128 0x3
 16172 5416 F5       		.byte	0xf5
 16173 5417 51       		.uleb128 0x51
 16174 5418 25       		.uleb128 0x25
 16175 5419 00       		.byte	0
 16176 541a 3A       		.uleb128 0x3a
 16177 541b CA040000 		.4byte	.LVL206
 16178 541f 31590000 		.4byte	0x5931
 16179 5423 3C540000 		.4byte	0x543c
 16180 5427 3B       		.uleb128 0x3b
 16181 5428 02       		.uleb128 0x2
 16182 5429 90       		.byte	0x90
 16183 542a 40       		.uleb128 0x40
 16184 542b 03       		.uleb128 0x3
 16185 542c F5       		.byte	0xf5
 16186 542d 50       		.uleb128 0x50
 16187 542e 25       		.uleb128 0x25
 16188 542f 3B       		.uleb128 0x3b
 16189 5430 02       		.uleb128 0x2
 16190 5431 90       		.byte	0x90
 16191 5432 44       		.uleb128 0x44
 16192 5433 07       		.uleb128 0x7
 16193 5434 F4       		.byte	0xf4
 16194 5435 25       		.uleb128 0x25
 16195 5436 04       		.byte	0x4
 16196 5437 00000000 		.4byte	0
 16197 543b 00       		.byte	0
 16198 543c 3A       		.uleb128 0x3a
 16199 543d E0040000 		.4byte	.LVL209
 16200 5441 31590000 		.4byte	0x5931
 16201 5445 5E540000 		.4byte	0x545e
 16202 5449 3B       		.uleb128 0x3b
 16203 544a 02       		.uleb128 0x2
 16204 544b 90       		.byte	0x90
 16205 544c 40       		.uleb128 0x40
 16206 544d 03       		.uleb128 0x3
 16207 544e F5       		.byte	0xf5
 16208 544f 52       		.uleb128 0x52
 16209 5450 25       		.uleb128 0x25
 16210 5451 3B       		.uleb128 0x3b
ARM GAS  C:\Users\CHRIST~1\AppData\Local\Temp\ccb3oWGE.s 			page 287


 16211 5452 02       		.uleb128 0x2
 16212 5453 90       		.byte	0x90
 16213 5454 44       		.uleb128 0x44
 16214 5455 07       		.uleb128 0x7
 16215 5456 F4       		.byte	0xf4
 16216 5457 25       		.uleb128 0x25
 16217 5458 04       		.byte	0x4
 16218 5459 00000000 		.4byte	0
 16219 545d 00       		.byte	0
 16220 545e 3A       		.uleb128 0x3a
 16221 545f FE040000 		.4byte	.LVL212
 16222 5463 31590000 		.4byte	0x5931
 16223 5467 88540000 		.4byte	0x5488
 16224 546b 3B       		.uleb128 0x3b
 16225 546c 02       		.uleb128 0x2
 16226 546d 90       		.byte	0x90
 16227 546e 41       		.uleb128 0x41
 16228 546f 03       		.uleb128 0x3
 16229 5470 F5       		.byte	0xf5
 16230 5471 54       		.uleb128 0x54
 16231 5472 25       		.uleb128 0x25
 16232 5473 3B       		.uleb128 0x3b
 16233 5474 02       		.uleb128 0x2
 16234 5475 90       		.byte	0x90
 16235 5476 42       		.uleb128 0x42
 16236 5477 03       		.uleb128 0x3
 16237 5478 F5       		.byte	0xf5
 16238 5479 57       		.uleb128 0x57
 16239 547a 25       		.uleb128 0x25
 16240 547b 3B       		.uleb128 0x3b
 16241 547c 02       		.uleb128 0x2
 16242 547d 90       		.byte	0x90
 16243 547e 44       		.uleb128 0x44
 16244 547f 07       		.uleb128 0x7
 16245 5480 F4       		.byte	0xf4
 16246 5481 25       		.uleb128 0x25
 16247 5482 04       		.byte	0x4
 16248 5483 00000000 		.4byte	0
 16249 5487 00       		.byte	0
 16250 5488 3A       		.uleb128 0x3a
 16251 5489 1C050000 		.4byte	.LVL216
 16252 548d 31590000 		.4byte	0x5931
 16253 5491 B2540000 		.4byte	0x54b2
 16254 5495 3B       		.uleb128 0x3b
 16255 5496 02       		.uleb128 0x2
 16256 5497 90       		.byte	0x90
 16257 5498 41       		.uleb128 0x41
 16258 5499 03       		.uleb128 0x3
 16259 549a F5       		.byte	0xf5
 16260 549b 55       		.uleb128 0x55
 16261 549c 25       		.uleb128 0x25
 16262 549d 3B       		.uleb128 0x3b
 16263 549e 02       		.uleb128 0x2
 16264 549f 90       		.byte	0x90
 16265 54a0 42       		.uleb128 0x42
 16266 54a1 03       		.uleb128 0x3
 16267 54a2 F5       		.byte	0xf5
ARM GAS  C:\Users\CHRIST~1\AppData\Local\Temp\ccb3oWGE.s 			page 288


 16268 54a3 59       		.uleb128 0x59
 16269 54a4 25       		.uleb128 0x25
 16270 54a5 3B       		.uleb128 0x3b
 16271 54a6 02       		.uleb128 0x2
 16272 54a7 90       		.byte	0x90
 16273 54a8 44       		.uleb128 0x44
 16274 54a9 07       		.uleb128 0x7
 16275 54aa F4       		.byte	0xf4
 16276 54ab 25       		.uleb128 0x25
 16277 54ac 04       		.byte	0x4
 16278 54ad 00000000 		.4byte	0
 16279 54b1 00       		.byte	0
 16280 54b2 3C       		.uleb128 0x3c
 16281 54b3 32050000 		.4byte	.LVL219
 16282 54b7 31590000 		.4byte	0x5931
 16283 54bb 3B       		.uleb128 0x3b
 16284 54bc 02       		.uleb128 0x2
 16285 54bd 90       		.byte	0x90
 16286 54be 40       		.uleb128 0x40
 16287 54bf 03       		.uleb128 0x3
 16288 54c0 F5       		.byte	0xf5
 16289 54c1 52       		.uleb128 0x52
 16290 54c2 25       		.uleb128 0x25
 16291 54c3 3B       		.uleb128 0x3b
 16292 54c4 02       		.uleb128 0x2
 16293 54c5 90       		.byte	0x90
 16294 54c6 44       		.uleb128 0x44
 16295 54c7 07       		.uleb128 0x7
 16296 54c8 F4       		.byte	0xf4
 16297 54c9 25       		.uleb128 0x25
 16298 54ca 04       		.byte	0x4
 16299 54cb 00000000 		.4byte	0
 16300 54cf 00       		.byte	0
 16301 54d0 00       		.byte	0
 16302 54d1 68       		.uleb128 0x68
 16303 54d2 E4440000 		.4byte	0x44e4
 16304 54d6 00000000 		.4byte	.LFB301
 16305 54da 0C000000 		.4byte	.LFE301-.LFB301
 16306 54de 01       		.uleb128 0x1
 16307 54df 9C       		.byte	0x9c
 16308 54e0 63       		.uleb128 0x63
 16309 54e1 254C0000 		.4byte	0x4c25
 16310 54e5 00000000 		.4byte	.LFB267
 16311 54e9 5C000000 		.4byte	.LFE267-.LFB267
 16312 54ed 01       		.uleb128 0x1
 16313 54ee 9C       		.byte	0x9c
 16314 54ef 2F550000 		.4byte	0x552f
 16315 54f3 3E       		.uleb128 0x3e
 16316 54f4 324C0000 		.4byte	0x4c32
 16317 54f8 D7150000 		.4byte	.LLST57
 16318 54fc 67       		.uleb128 0x67
 16319 54fd 254C0000 		.4byte	0x4c25
 16320 5501 38010000 		.4byte	.Ldebug_ranges0+0x138
 16321 5505 1C550000 		.4byte	0x551c
 16322 5509 3E       		.uleb128 0x3e
 16323 550a 324C0000 		.4byte	0x4c32
 16324 550e 3F160000 		.4byte	.LLST58
ARM GAS  C:\Users\CHRIST~1\AppData\Local\Temp\ccb3oWGE.s 			page 289


 16325 5512 48       		.uleb128 0x48
 16326 5513 58000000 		.4byte	.LVL304
 16327 5517 47590000 		.4byte	0x5947
 16328 551b 00       		.byte	0
 16329 551c 41       		.uleb128 0x41
 16330 551d 0E000000 		.4byte	.LVL298
 16331 5521 13440000 		.4byte	0x4413
 16332 5525 48       		.uleb128 0x48
 16333 5526 38000000 		.4byte	.LVL300
 16334 552a 52590000 		.4byte	0x5952
 16335 552e 00       		.byte	0
 16336 552f 63       		.uleb128 0x63
 16337 5530 454B0000 		.4byte	0x4b45
 16338 5534 00000000 		.4byte	.LFB271
 16339 5538 5C000000 		.4byte	.LFE271-.LFB271
 16340 553c 01       		.uleb128 0x1
 16341 553d 9C       		.byte	0x9c
 16342 553e 7E550000 		.4byte	0x557e
 16343 5542 3E       		.uleb128 0x3e
 16344 5543 524B0000 		.4byte	0x4b52
 16345 5547 63160000 		.4byte	.LLST62
 16346 554b 67       		.uleb128 0x67
 16347 554c 454B0000 		.4byte	0x4b45
 16348 5550 50010000 		.4byte	.Ldebug_ranges0+0x150
 16349 5554 6B550000 		.4byte	0x556b
 16350 5558 3E       		.uleb128 0x3e
 16351 5559 524B0000 		.4byte	0x4b52
 16352 555d CB160000 		.4byte	.LLST63
 16353 5561 48       		.uleb128 0x48
 16354 5562 58000000 		.4byte	.LVL337
 16355 5566 5D590000 		.4byte	0x595d
 16356 556a 00       		.byte	0
 16357 556b 41       		.uleb128 0x41
 16358 556c 0E000000 		.4byte	.LVL331
 16359 5570 13440000 		.4byte	0x4413
 16360 5574 48       		.uleb128 0x48
 16361 5575 38000000 		.4byte	.LVL333
 16362 5579 68590000 		.4byte	0x5968
 16363 557d 00       		.byte	0
 16364 557e 63       		.uleb128 0x63
 16365 557f 2B4B0000 		.4byte	0x4b2b
 16366 5583 00000000 		.4byte	.LFB272
 16367 5587 5C000000 		.4byte	.LFE272-.LFB272
 16368 558b 01       		.uleb128 0x1
 16369 558c 9C       		.byte	0x9c
 16370 558d CD550000 		.4byte	0x55cd
 16371 5591 3E       		.uleb128 0x3e
 16372 5592 384B0000 		.4byte	0x4b38
 16373 5596 EF160000 		.4byte	.LLST65
 16374 559a 67       		.uleb128 0x67
 16375 559b 2B4B0000 		.4byte	0x4b2b
 16376 559f 68010000 		.4byte	.Ldebug_ranges0+0x168
 16377 55a3 BA550000 		.4byte	0x55ba
 16378 55a7 3E       		.uleb128 0x3e
 16379 55a8 384B0000 		.4byte	0x4b38
 16380 55ac 57170000 		.4byte	.LLST66
 16381 55b0 48       		.uleb128 0x48
ARM GAS  C:\Users\CHRIST~1\AppData\Local\Temp\ccb3oWGE.s 			page 290


 16382 55b1 58000000 		.4byte	.LVL351
 16383 55b5 F8570000 		.4byte	0x57f8
 16384 55b9 00       		.byte	0
 16385 55ba 41       		.uleb128 0x41
 16386 55bb 0E000000 		.4byte	.LVL345
 16387 55bf 13440000 		.4byte	0x4413
 16388 55c3 48       		.uleb128 0x48
 16389 55c4 38000000 		.4byte	.LVL347
 16390 55c8 73590000 		.4byte	0x5973
 16391 55cc 00       		.byte	0
 16392 55cd 63       		.uleb128 0x63
 16393 55ce C7430000 		.4byte	0x43c7
 16394 55d2 00000000 		.4byte	.LFB306
 16395 55d6 24000000 		.4byte	.LFE306-.LFB306
 16396 55da 01       		.uleb128 0x1
 16397 55db 9C       		.byte	0x9c
 16398 55dc F3550000 		.4byte	0x55f3
 16399 55e0 3E       		.uleb128 0x3e
 16400 55e1 D4430000 		.4byte	0x43d4
 16401 55e5 7B170000 		.4byte	.LLST69
 16402 55e9 48       		.uleb128 0x48
 16403 55ea 0C000000 		.4byte	.LVL364
 16404 55ee F04F0000 		.4byte	0x4ff0
 16405 55f2 00       		.byte	0
 16406 55f3 69       		.uleb128 0x69
 16407 55f4 05010000 		.4byte	.LASF1006
 16408 55f8 05010000 		.4byte	.LASF1006
 16409 55fc 2D       		.byte	0x2d
 16410 55fd 1F       		.byte	0x1f
 16411 55fe 69       		.uleb128 0x69
 16412 55ff 63180000 		.4byte	.LASF1007
 16413 5603 63180000 		.4byte	.LASF1007
 16414 5607 2E       		.byte	0x2e
 16415 5608 1C       		.byte	0x1c
 16416 5609 69       		.uleb128 0x69
 16417 560a 1D3A0000 		.4byte	.LASF1008
 16418 560e 1D3A0000 		.4byte	.LASF1008
 16419 5612 12       		.byte	0x12
 16420 5613 8B       		.byte	0x8b
 16421 5614 69       		.uleb128 0x69
 16422 5615 32300000 		.4byte	.LASF1009
 16423 5619 32300000 		.4byte	.LASF1009
 16424 561d 2F       		.byte	0x2f
 16425 561e 96       		.byte	0x96
 16426 561f 69       		.uleb128 0x69
 16427 5620 302E0000 		.4byte	.LASF1010
 16428 5624 302E0000 		.4byte	.LASF1010
 16429 5628 17       		.byte	0x17
 16430 5629 47       		.byte	0x47
 16431 562a 69       		.uleb128 0x69
 16432 562b 3E060000 		.4byte	.LASF1011
 16433 562f 3E060000 		.4byte	.LASF1011
 16434 5633 12       		.byte	0x12
 16435 5634 85       		.byte	0x85
 16436 5635 69       		.uleb128 0x69
 16437 5636 BD020000 		.4byte	.LASF1012
 16438 563a BD020000 		.4byte	.LASF1012
ARM GAS  C:\Users\CHRIST~1\AppData\Local\Temp\ccb3oWGE.s 			page 291


 16439 563e 17       		.byte	0x17
 16440 563f 27       		.byte	0x27
 16441 5640 69       		.uleb128 0x69
 16442 5641 DA260000 		.4byte	.LASF1013
 16443 5645 DA260000 		.4byte	.LASF1013
 16444 5649 17       		.byte	0x17
 16445 564a 3C       		.byte	0x3c
 16446 564b 69       		.uleb128 0x69
 16447 564c E5280000 		.4byte	.LASF1014
 16448 5650 E5280000 		.4byte	.LASF1014
 16449 5654 30       		.byte	0x30
 16450 5655 3F       		.byte	0x3f
 16451 5656 69       		.uleb128 0x69
 16452 5657 5E150000 		.4byte	.LASF1015
 16453 565b 5E150000 		.4byte	.LASF1015
 16454 565f 31       		.byte	0x31
 16455 5660 23       		.byte	0x23
 16456 5661 69       		.uleb128 0x69
 16457 5662 291D0000 		.4byte	.LASF1016
 16458 5666 291D0000 		.4byte	.LASF1016
 16459 566a 30       		.byte	0x30
 16460 566b 39       		.byte	0x39
 16461 566c 69       		.uleb128 0x69
 16462 566d 571D0000 		.4byte	.LASF1017
 16463 5671 571D0000 		.4byte	.LASF1017
 16464 5675 30       		.byte	0x30
 16465 5676 3A       		.byte	0x3a
 16466 5677 69       		.uleb128 0x69
 16467 5678 77190000 		.4byte	.LASF1018
 16468 567c 77190000 		.4byte	.LASF1018
 16469 5680 30       		.byte	0x30
 16470 5681 34       		.byte	0x34
 16471 5682 69       		.uleb128 0x69
 16472 5683 4D1A0000 		.4byte	.LASF1019
 16473 5687 4D1A0000 		.4byte	.LASF1019
 16474 568b 30       		.byte	0x30
 16475 568c 36       		.byte	0x36
 16476 568d 69       		.uleb128 0x69
 16477 568e 90120000 		.4byte	.LASF1020
 16478 5692 90120000 		.4byte	.LASF1020
 16479 5696 30       		.byte	0x30
 16480 5697 1E       		.byte	0x1e
 16481 5698 69       		.uleb128 0x69
 16482 5699 24070000 		.4byte	.LASF1021
 16483 569d 24070000 		.4byte	.LASF1021
 16484 56a1 17       		.byte	0x17
 16485 56a2 1C       		.byte	0x1c
 16486 56a3 69       		.uleb128 0x69
 16487 56a4 4D050000 		.4byte	.LASF1022
 16488 56a8 4D050000 		.4byte	.LASF1022
 16489 56ac 17       		.byte	0x17
 16490 56ad 31       		.byte	0x31
 16491 56ae 69       		.uleb128 0x69
 16492 56af 3B270000 		.4byte	.LASF1023
 16493 56b3 3B270000 		.4byte	.LASF1023
 16494 56b7 12       		.byte	0x12
 16495 56b8 84       		.byte	0x84
ARM GAS  C:\Users\CHRIST~1\AppData\Local\Temp\ccb3oWGE.s 			page 292


 16496 56b9 69       		.uleb128 0x69
 16497 56ba C9050000 		.4byte	.LASF1024
 16498 56be C9050000 		.4byte	.LASF1024
 16499 56c2 30       		.byte	0x30
 16500 56c3 2E       		.byte	0x2e
 16501 56c4 69       		.uleb128 0x69
 16502 56c5 61290000 		.4byte	.LASF1025
 16503 56c9 61290000 		.4byte	.LASF1025
 16504 56cd 32       		.byte	0x32
 16505 56ce 1E       		.byte	0x1e
 16506 56cf 69       		.uleb128 0x69
 16507 56d0 5D1F0000 		.4byte	.LASF1026
 16508 56d4 5D1F0000 		.4byte	.LASF1026
 16509 56d8 30       		.byte	0x30
 16510 56d9 4A       		.byte	0x4a
 16511 56da 69       		.uleb128 0x69
 16512 56db A23B0000 		.4byte	.LASF1027
 16513 56df A23B0000 		.4byte	.LASF1027
 16514 56e3 17       		.byte	0x17
 16515 56e4 41       		.byte	0x41
 16516 56e5 69       		.uleb128 0x69
 16517 56e6 77020000 		.4byte	.LASF1028
 16518 56ea 77020000 		.4byte	.LASF1028
 16519 56ee 30       		.byte	0x30
 16520 56ef 3E       		.byte	0x3e
 16521 56f0 69       		.uleb128 0x69
 16522 56f1 222F0000 		.4byte	.LASF1029
 16523 56f5 222F0000 		.4byte	.LASF1029
 16524 56f9 17       		.byte	0x17
 16525 56fa 30       		.byte	0x30
 16526 56fb 69       		.uleb128 0x69
 16527 56fc 1F280000 		.4byte	.LASF1030
 16528 5700 1F280000 		.4byte	.LASF1030
 16529 5704 30       		.byte	0x30
 16530 5705 3D       		.byte	0x3d
 16531 5706 69       		.uleb128 0x69
 16532 5707 63080000 		.4byte	.LASF1031
 16533 570b 63080000 		.4byte	.LASF1031
 16534 570f 17       		.byte	0x17
 16535 5710 2F       		.byte	0x2f
 16536 5711 69       		.uleb128 0x69
 16537 5712 0C130000 		.4byte	.LASF1032
 16538 5716 0C130000 		.4byte	.LASF1032
 16539 571a 30       		.byte	0x30
 16540 571b 3C       		.byte	0x3c
 16541 571c 69       		.uleb128 0x69
 16542 571d 42380000 		.4byte	.LASF1033
 16543 5721 42380000 		.4byte	.LASF1033
 16544 5725 17       		.byte	0x17
 16545 5726 37       		.byte	0x37
 16546 5727 69       		.uleb128 0x69
 16547 5728 781C0000 		.4byte	.LASF1034
 16548 572c 781C0000 		.4byte	.LASF1034
 16549 5730 30       		.byte	0x30
 16550 5731 3B       		.byte	0x3b
 16551 5732 69       		.uleb128 0x69
 16552 5733 AD030000 		.4byte	.LASF1035
ARM GAS  C:\Users\CHRIST~1\AppData\Local\Temp\ccb3oWGE.s 			page 293


 16553 5737 AD030000 		.4byte	.LASF1035
 16554 573b 17       		.byte	0x17
 16555 573c 36       		.byte	0x36
 16556 573d 69       		.uleb128 0x69
 16557 573e 54170000 		.4byte	.LASF1036
 16558 5742 54170000 		.4byte	.LASF1036
 16559 5746 30       		.byte	0x30
 16560 5747 38       		.byte	0x38
 16561 5748 69       		.uleb128 0x69
 16562 5749 B6080000 		.4byte	.LASF1037
 16563 574d B6080000 		.4byte	.LASF1037
 16564 5751 17       		.byte	0x17
 16565 5752 35       		.byte	0x35
 16566 5753 69       		.uleb128 0x69
 16567 5754 E20C0000 		.4byte	.LASF1038
 16568 5758 E20C0000 		.4byte	.LASF1038
 16569 575c 30       		.byte	0x30
 16570 575d 37       		.byte	0x37
 16571 575e 69       		.uleb128 0x69
 16572 575f C5240000 		.4byte	.LASF1039
 16573 5763 C5240000 		.4byte	.LASF1039
 16574 5767 17       		.byte	0x17
 16575 5768 34       		.byte	0x34
 16576 5769 69       		.uleb128 0x69
 16577 576a 9E140000 		.4byte	.LASF1040
 16578 576e 9E140000 		.4byte	.LASF1040
 16579 5772 30       		.byte	0x30
 16580 5773 33       		.byte	0x33
 16581 5774 69       		.uleb128 0x69
 16582 5775 7E000000 		.4byte	.LASF1041
 16583 5779 7E000000 		.4byte	.LASF1041
 16584 577d 17       		.byte	0x17
 16585 577e 33       		.byte	0x33
 16586 577f 69       		.uleb128 0x69
 16587 5780 D0180000 		.4byte	.LASF1042
 16588 5784 D0180000 		.4byte	.LASF1042
 16589 5788 30       		.byte	0x30
 16590 5789 32       		.byte	0x32
 16591 578a 69       		.uleb128 0x69
 16592 578b A71E0000 		.4byte	.LASF1043
 16593 578f A71E0000 		.4byte	.LASF1043
 16594 5793 17       		.byte	0x17
 16595 5794 32       		.byte	0x32
 16596 5795 69       		.uleb128 0x69
 16597 5796 0E2B0000 		.4byte	.LASF1044
 16598 579a 0E2B0000 		.4byte	.LASF1044
 16599 579e 30       		.byte	0x30
 16600 579f 31       		.byte	0x31
 16601 57a0 69       		.uleb128 0x69
 16602 57a1 79140000 		.4byte	.LASF1045
 16603 57a5 79140000 		.4byte	.LASF1045
 16604 57a9 17       		.byte	0x17
 16605 57aa 2B       		.byte	0x2b
 16606 57ab 69       		.uleb128 0x69
 16607 57ac 06170000 		.4byte	.LASF1046
 16608 57b0 06170000 		.4byte	.LASF1046
 16609 57b4 30       		.byte	0x30
ARM GAS  C:\Users\CHRIST~1\AppData\Local\Temp\ccb3oWGE.s 			page 294


 16610 57b5 30       		.byte	0x30
 16611 57b6 69       		.uleb128 0x69
 16612 57b7 D6170000 		.4byte	.LASF1047
 16613 57bb D6170000 		.4byte	.LASF1047
 16614 57bf 17       		.byte	0x17
 16615 57c0 2A       		.byte	0x2a
 16616 57c1 69       		.uleb128 0x69
 16617 57c2 9F2D0000 		.4byte	.LASF1048
 16618 57c6 9F2D0000 		.4byte	.LASF1048
 16619 57ca 30       		.byte	0x30
 16620 57cb 2C       		.byte	0x2c
 16621 57cc 69       		.uleb128 0x69
 16622 57cd 390B0000 		.4byte	.LASF1049
 16623 57d1 390B0000 		.4byte	.LASF1049
 16624 57d5 17       		.byte	0x17
 16625 57d6 29       		.byte	0x29
 16626 57d7 69       		.uleb128 0x69
 16627 57d8 69040000 		.4byte	.LASF1050
 16628 57dc 69040000 		.4byte	.LASF1050
 16629 57e0 30       		.byte	0x30
 16630 57e1 2B       		.byte	0x2b
 16631 57e2 69       		.uleb128 0x69
 16632 57e3 0A1F0000 		.4byte	.LASF1051
 16633 57e7 0A1F0000 		.4byte	.LASF1051
 16634 57eb 17       		.byte	0x17
 16635 57ec 28       		.byte	0x28
 16636 57ed 69       		.uleb128 0x69
 16637 57ee DC070000 		.4byte	.LASF1052
 16638 57f2 DC070000 		.4byte	.LASF1052
 16639 57f6 30       		.byte	0x30
 16640 57f7 29       		.byte	0x29
 16641 57f8 69       		.uleb128 0x69
 16642 57f9 83170000 		.4byte	.LASF1053
 16643 57fd 83170000 		.4byte	.LASF1053
 16644 5801 17       		.byte	0x17
 16645 5802 24       		.byte	0x24
 16646 5803 69       		.uleb128 0x69
 16647 5804 CC0C0000 		.4byte	.LASF1054
 16648 5808 CC0C0000 		.4byte	.LASF1054
 16649 580c 30       		.byte	0x30
 16650 580d 26       		.byte	0x26
 16651 580e 69       		.uleb128 0x69
 16652 580f D0150000 		.4byte	.LASF1055
 16653 5813 D0150000 		.4byte	.LASF1055
 16654 5817 17       		.byte	0x17
 16655 5818 22       		.byte	0x22
 16656 5819 69       		.uleb128 0x69
 16657 581a 21140000 		.4byte	.LASF1056
 16658 581e 21140000 		.4byte	.LASF1056
 16659 5822 30       		.byte	0x30
 16660 5823 25       		.byte	0x25
 16661 5824 69       		.uleb128 0x69
 16662 5825 83230000 		.4byte	.LASF1057
 16663 5829 83230000 		.4byte	.LASF1057
 16664 582d 17       		.byte	0x17
 16665 582e 21       		.byte	0x21
 16666 582f 69       		.uleb128 0x69
ARM GAS  C:\Users\CHRIST~1\AppData\Local\Temp\ccb3oWGE.s 			page 295


 16667 5830 B2380000 		.4byte	.LASF1058
 16668 5834 B2380000 		.4byte	.LASF1058
 16669 5838 30       		.byte	0x30
 16670 5839 24       		.byte	0x24
 16671 583a 69       		.uleb128 0x69
 16672 583b 9A020000 		.4byte	.LASF1059
 16673 583f 9A020000 		.4byte	.LASF1059
 16674 5843 17       		.byte	0x17
 16675 5844 20       		.byte	0x20
 16676 5845 69       		.uleb128 0x69
 16677 5846 AA190000 		.4byte	.LASF1060
 16678 584a AA190000 		.4byte	.LASF1060
 16679 584e 30       		.byte	0x30
 16680 584f 20       		.byte	0x20
 16681 5850 69       		.uleb128 0x69
 16682 5851 C30A0000 		.4byte	.LASF1061
 16683 5855 C30A0000 		.4byte	.LASF1061
 16684 5859 17       		.byte	0x17
 16685 585a 2C       		.byte	0x2c
 16686 585b 69       		.uleb128 0x69
 16687 585c D3250000 		.4byte	.LASF1062
 16688 5860 D3250000 		.4byte	.LASF1062
 16689 5864 30       		.byte	0x30
 16690 5865 21       		.byte	0x21
 16691 5866 69       		.uleb128 0x69
 16692 5867 6D370000 		.4byte	.LASF1063
 16693 586b 6D370000 		.4byte	.LASF1063
 16694 586f 17       		.byte	0x17
 16695 5870 43       		.byte	0x43
 16696 5871 6A       		.uleb128 0x6a
 16697 5872 650D0000 		.4byte	.LASF1093
 16698 5876 D62C0000 		.4byte	.LASF1094
 16699 587a 35       		.byte	0x35
 16700 587b 00       		.byte	0
 16701 587c 650D0000 		.4byte	.LASF1093
 16702 5880 69       		.uleb128 0x69
 16703 5881 2F080000 		.4byte	.LASF1064
 16704 5885 2F080000 		.4byte	.LASF1064
 16705 5889 30       		.byte	0x30
 16706 588a 1F       		.byte	0x1f
 16707 588b 69       		.uleb128 0x69
 16708 588c 6F000000 		.4byte	.LASF1065
 16709 5890 6F000000 		.4byte	.LASF1065
 16710 5894 32       		.byte	0x32
 16711 5895 1A       		.byte	0x1a
 16712 5896 69       		.uleb128 0x69
 16713 5897 2B290000 		.4byte	.LASF1066
 16714 589b 2B290000 		.4byte	.LASF1066
 16715 589f 32       		.byte	0x32
 16716 58a0 1C       		.byte	0x1c
 16717 58a1 69       		.uleb128 0x69
 16718 58a2 632C0000 		.4byte	.LASF1067
 16719 58a6 632C0000 		.4byte	.LASF1067
 16720 58aa 32       		.byte	0x32
 16721 58ab 21       		.byte	0x21
 16722 58ac 69       		.uleb128 0x69
 16723 58ad A9150000 		.4byte	.LASF1068
ARM GAS  C:\Users\CHRIST~1\AppData\Local\Temp\ccb3oWGE.s 			page 296


 16724 58b1 A9150000 		.4byte	.LASF1068
 16725 58b5 17       		.byte	0x17
 16726 58b6 1B       		.byte	0x1b
 16727 58b7 69       		.uleb128 0x69
 16728 58b8 5C030000 		.4byte	.LASF1069
 16729 58bc 5C030000 		.4byte	.LASF1069
 16730 58c0 30       		.byte	0x30
 16731 58c1 1C       		.byte	0x1c
 16732 58c2 69       		.uleb128 0x69
 16733 58c3 351A0000 		.4byte	.LASF1070
 16734 58c7 351A0000 		.4byte	.LASF1070
 16735 58cb 17       		.byte	0x17
 16736 58cc 1D       		.byte	0x1d
 16737 58cd 69       		.uleb128 0x69
 16738 58ce 3E090000 		.4byte	.LASF1071
 16739 58d2 3E090000 		.4byte	.LASF1071
 16740 58d6 30       		.byte	0x30
 16741 58d7 1D       		.byte	0x1d
 16742 58d8 69       		.uleb128 0x69
 16743 58d9 4C040000 		.4byte	.LASF1072
 16744 58dd 4C040000 		.4byte	.LASF1072
 16745 58e1 17       		.byte	0x17
 16746 58e2 1A       		.byte	0x1a
 16747 58e3 69       		.uleb128 0x69
 16748 58e4 4B330000 		.4byte	.LASF1073
 16749 58e8 4B330000 		.4byte	.LASF1073
 16750 58ec 32       		.byte	0x32
 16751 58ed 1B       		.byte	0x1b
 16752 58ee 69       		.uleb128 0x69
 16753 58ef F60B0000 		.4byte	.LASF1074
 16754 58f3 F60B0000 		.4byte	.LASF1074
 16755 58f7 2F       		.byte	0x2f
 16756 58f8 89       		.byte	0x89
 16757 58f9 69       		.uleb128 0x69
 16758 58fa B9220000 		.4byte	.LASF1075
 16759 58fe B9220000 		.4byte	.LASF1075
 16760 5902 33       		.byte	0x33
 16761 5903 31       		.byte	0x31
 16762 5904 69       		.uleb128 0x69
 16763 5905 EE200000 		.4byte	.LASF1076
 16764 5909 EE200000 		.4byte	.LASF1076
 16765 590d 33       		.byte	0x33
 16766 590e 32       		.byte	0x32
 16767 590f 6B       		.uleb128 0x6b
 16768 5910 FE2D0000 		.4byte	.LASF1077
 16769 5914 FE2D0000 		.4byte	.LASF1077
 16770 5918 2B       		.byte	0x2b
 16771 5919 6B01     		.2byte	0x16b
 16772 591b 69       		.uleb128 0x69
 16773 591c F0260000 		.4byte	.LASF1078
 16774 5920 F0260000 		.4byte	.LASF1078
 16775 5924 34       		.byte	0x34
 16776 5925 1B       		.byte	0x1b
 16777 5926 69       		.uleb128 0x69
 16778 5927 F61B0000 		.4byte	.LASF1079
 16779 592b F61B0000 		.4byte	.LASF1079
 16780 592f 30       		.byte	0x30
ARM GAS  C:\Users\CHRIST~1\AppData\Local\Temp\ccb3oWGE.s 			page 297


 16781 5930 22       		.byte	0x22
 16782 5931 69       		.uleb128 0x69
 16783 5932 8E370000 		.4byte	.LASF1080
 16784 5936 8E370000 		.4byte	.LASF1080
 16785 593a 33       		.byte	0x33
 16786 593b 20       		.byte	0x20
 16787 593c 69       		.uleb128 0x69
 16788 593d BF170000 		.4byte	.LASF1081
 16789 5941 BF170000 		.4byte	.LASF1081
 16790 5945 33       		.byte	0x33
 16791 5946 2D       		.byte	0x2d
 16792 5947 69       		.uleb128 0x69
 16793 5948 CA3A0000 		.4byte	.LASF1082
 16794 594c CA3A0000 		.4byte	.LASF1082
 16795 5950 17       		.byte	0x17
 16796 5951 1F       		.byte	0x1f
 16797 5952 69       		.uleb128 0x69
 16798 5953 29220000 		.4byte	.LASF1083
 16799 5957 29220000 		.4byte	.LASF1083
 16800 595b 30       		.byte	0x30
 16801 595c 23       		.byte	0x23
 16802 595d 69       		.uleb128 0x69
 16803 595e EF0D0000 		.4byte	.LASF1084
 16804 5962 EF0D0000 		.4byte	.LASF1084
 16805 5966 17       		.byte	0x17
 16806 5967 23       		.byte	0x23
 16807 5968 69       		.uleb128 0x69
 16808 5969 391F0000 		.4byte	.LASF1085
 16809 596d 391F0000 		.4byte	.LASF1085
 16810 5971 30       		.byte	0x30
 16811 5972 27       		.byte	0x27
 16812 5973 69       		.uleb128 0x69
 16813 5974 ED370000 		.4byte	.LASF1086
 16814 5978 ED370000 		.4byte	.LASF1086
 16815 597c 30       		.byte	0x30
 16816 597d 28       		.byte	0x28
 16817 597e 00       		.byte	0
 16818              		.section	.debug_abbrev,"",%progbits
 16819              	.Ldebug_abbrev0:
 16820 0000 01       		.uleb128 0x1
 16821 0001 11       		.uleb128 0x11
 16822 0002 01       		.byte	0x1
 16823 0003 25       		.uleb128 0x25
 16824 0004 0E       		.uleb128 0xe
 16825 0005 13       		.uleb128 0x13
 16826 0006 0B       		.uleb128 0xb
 16827 0007 03       		.uleb128 0x3
 16828 0008 0E       		.uleb128 0xe
 16829 0009 1B       		.uleb128 0x1b
 16830 000a 0E       		.uleb128 0xe
 16831 000b 55       		.uleb128 0x55
 16832 000c 17       		.uleb128 0x17
 16833 000d 11       		.uleb128 0x11
 16834 000e 01       		.uleb128 0x1
 16835 000f 10       		.uleb128 0x10
 16836 0010 17       		.uleb128 0x17
 16837 0011 00       		.byte	0
ARM GAS  C:\Users\CHRIST~1\AppData\Local\Temp\ccb3oWGE.s 			page 298


 16838 0012 00       		.byte	0
 16839 0013 02       		.uleb128 0x2
 16840 0014 24       		.uleb128 0x24
 16841 0015 00       		.byte	0
 16842 0016 0B       		.uleb128 0xb
 16843 0017 0B       		.uleb128 0xb
 16844 0018 3E       		.uleb128 0x3e
 16845 0019 0B       		.uleb128 0xb
 16846 001a 03       		.uleb128 0x3
 16847 001b 0E       		.uleb128 0xe
 16848 001c 00       		.byte	0
 16849 001d 00       		.byte	0
 16850 001e 03       		.uleb128 0x3
 16851 001f 16       		.uleb128 0x16
 16852 0020 00       		.byte	0
 16853 0021 03       		.uleb128 0x3
 16854 0022 0E       		.uleb128 0xe
 16855 0023 3A       		.uleb128 0x3a
 16856 0024 0B       		.uleb128 0xb
 16857 0025 3B       		.uleb128 0x3b
 16858 0026 0B       		.uleb128 0xb
 16859 0027 49       		.uleb128 0x49
 16860 0028 13       		.uleb128 0x13
 16861 0029 00       		.byte	0
 16862 002a 00       		.byte	0
 16863 002b 04       		.uleb128 0x4
 16864 002c 24       		.uleb128 0x24
 16865 002d 00       		.byte	0
 16866 002e 0B       		.uleb128 0xb
 16867 002f 0B       		.uleb128 0xb
 16868 0030 3E       		.uleb128 0x3e
 16869 0031 0B       		.uleb128 0xb
 16870 0032 03       		.uleb128 0x3
 16871 0033 08       		.uleb128 0x8
 16872 0034 00       		.byte	0
 16873 0035 00       		.byte	0
 16874 0036 05       		.uleb128 0x5
 16875 0037 35       		.uleb128 0x35
 16876 0038 00       		.byte	0
 16877 0039 49       		.uleb128 0x49
 16878 003a 13       		.uleb128 0x13
 16879 003b 00       		.byte	0
 16880 003c 00       		.byte	0
 16881 003d 06       		.uleb128 0x6
 16882 003e 26       		.uleb128 0x26
 16883 003f 00       		.byte	0
 16884 0040 49       		.uleb128 0x49
 16885 0041 13       		.uleb128 0x13
 16886 0042 00       		.byte	0
 16887 0043 00       		.byte	0
 16888 0044 07       		.uleb128 0x7
 16889 0045 13       		.uleb128 0x13
 16890 0046 01       		.byte	0x1
 16891 0047 03       		.uleb128 0x3
 16892 0048 0E       		.uleb128 0xe
 16893 0049 0B       		.uleb128 0xb
 16894 004a 0B       		.uleb128 0xb
ARM GAS  C:\Users\CHRIST~1\AppData\Local\Temp\ccb3oWGE.s 			page 299


 16895 004b 3A       		.uleb128 0x3a
 16896 004c 0B       		.uleb128 0xb
 16897 004d 3B       		.uleb128 0x3b
 16898 004e 0B       		.uleb128 0xb
 16899 004f 01       		.uleb128 0x1
 16900 0050 13       		.uleb128 0x13
 16901 0051 00       		.byte	0
 16902 0052 00       		.byte	0
 16903 0053 08       		.uleb128 0x8
 16904 0054 0D       		.uleb128 0xd
 16905 0055 00       		.byte	0
 16906 0056 03       		.uleb128 0x3
 16907 0057 0E       		.uleb128 0xe
 16908 0058 3A       		.uleb128 0x3a
 16909 0059 0B       		.uleb128 0xb
 16910 005a 3B       		.uleb128 0x3b
 16911 005b 0B       		.uleb128 0xb
 16912 005c 49       		.uleb128 0x49
 16913 005d 13       		.uleb128 0x13
 16914 005e 38       		.uleb128 0x38
 16915 005f 0B       		.uleb128 0xb
 16916 0060 00       		.byte	0
 16917 0061 00       		.byte	0
 16918 0062 09       		.uleb128 0x9
 16919 0063 0D       		.uleb128 0xd
 16920 0064 00       		.byte	0
 16921 0065 03       		.uleb128 0x3
 16922 0066 08       		.uleb128 0x8
 16923 0067 3A       		.uleb128 0x3a
 16924 0068 0B       		.uleb128 0xb
 16925 0069 3B       		.uleb128 0x3b
 16926 006a 05       		.uleb128 0x5
 16927 006b 49       		.uleb128 0x49
 16928 006c 13       		.uleb128 0x13
 16929 006d 38       		.uleb128 0x38
 16930 006e 0B       		.uleb128 0xb
 16931 006f 00       		.byte	0
 16932 0070 00       		.byte	0
 16933 0071 0A       		.uleb128 0xa
 16934 0072 0D       		.uleb128 0xd
 16935 0073 00       		.byte	0
 16936 0074 03       		.uleb128 0x3
 16937 0075 0E       		.uleb128 0xe
 16938 0076 3A       		.uleb128 0x3a
 16939 0077 0B       		.uleb128 0xb
 16940 0078 3B       		.uleb128 0x3b
 16941 0079 05       		.uleb128 0x5
 16942 007a 49       		.uleb128 0x49
 16943 007b 13       		.uleb128 0x13
 16944 007c 38       		.uleb128 0x38
 16945 007d 0B       		.uleb128 0xb
 16946 007e 00       		.byte	0
 16947 007f 00       		.byte	0
 16948 0080 0B       		.uleb128 0xb
 16949 0081 0F       		.uleb128 0xf
 16950 0082 00       		.byte	0
 16951 0083 0B       		.uleb128 0xb
ARM GAS  C:\Users\CHRIST~1\AppData\Local\Temp\ccb3oWGE.s 			page 300


 16952 0084 0B       		.uleb128 0xb
 16953 0085 49       		.uleb128 0x49
 16954 0086 13       		.uleb128 0x13
 16955 0087 00       		.byte	0
 16956 0088 00       		.byte	0
 16957 0089 0C       		.uleb128 0xc
 16958 008a 13       		.uleb128 0x13
 16959 008b 01       		.byte	0x1
 16960 008c 03       		.uleb128 0x3
 16961 008d 0E       		.uleb128 0xe
 16962 008e 0B       		.uleb128 0xb
 16963 008f 0B       		.uleb128 0xb
 16964 0090 3A       		.uleb128 0x3a
 16965 0091 0B       		.uleb128 0xb
 16966 0092 3B       		.uleb128 0x3b
 16967 0093 05       		.uleb128 0x5
 16968 0094 01       		.uleb128 0x1
 16969 0095 13       		.uleb128 0x13
 16970 0096 00       		.byte	0
 16971 0097 00       		.byte	0
 16972 0098 0D       		.uleb128 0xd
 16973 0099 15       		.uleb128 0x15
 16974 009a 01       		.byte	0x1
 16975 009b 27       		.uleb128 0x27
 16976 009c 19       		.uleb128 0x19
 16977 009d 01       		.uleb128 0x1
 16978 009e 13       		.uleb128 0x13
 16979 009f 00       		.byte	0
 16980 00a0 00       		.byte	0
 16981 00a1 0E       		.uleb128 0xe
 16982 00a2 05       		.uleb128 0x5
 16983 00a3 00       		.byte	0
 16984 00a4 49       		.uleb128 0x49
 16985 00a5 13       		.uleb128 0x13
 16986 00a6 00       		.byte	0
 16987 00a7 00       		.byte	0
 16988 00a8 0F       		.uleb128 0xf
 16989 00a9 0F       		.uleb128 0xf
 16990 00aa 00       		.byte	0
 16991 00ab 0B       		.uleb128 0xb
 16992 00ac 0B       		.uleb128 0xb
 16993 00ad 00       		.byte	0
 16994 00ae 00       		.byte	0
 16995 00af 10       		.uleb128 0x10
 16996 00b0 13       		.uleb128 0x13
 16997 00b1 01       		.byte	0x1
 16998 00b2 03       		.uleb128 0x3
 16999 00b3 0E       		.uleb128 0xe
 17000 00b4 0B       		.uleb128 0xb
 17001 00b5 05       		.uleb128 0x5
 17002 00b6 3A       		.uleb128 0x3a
 17003 00b7 0B       		.uleb128 0xb
 17004 00b8 3B       		.uleb128 0x3b
 17005 00b9 05       		.uleb128 0x5
 17006 00ba 01       		.uleb128 0x1
 17007 00bb 13       		.uleb128 0x13
 17008 00bc 00       		.byte	0
ARM GAS  C:\Users\CHRIST~1\AppData\Local\Temp\ccb3oWGE.s 			page 301


 17009 00bd 00       		.byte	0
 17010 00be 11       		.uleb128 0x11
 17011 00bf 01       		.uleb128 0x1
 17012 00c0 01       		.byte	0x1
 17013 00c1 49       		.uleb128 0x49
 17014 00c2 13       		.uleb128 0x13
 17015 00c3 01       		.uleb128 0x1
 17016 00c4 13       		.uleb128 0x13
 17017 00c5 00       		.byte	0
 17018 00c6 00       		.byte	0
 17019 00c7 12       		.uleb128 0x12
 17020 00c8 21       		.uleb128 0x21
 17021 00c9 00       		.byte	0
 17022 00ca 49       		.uleb128 0x49
 17023 00cb 13       		.uleb128 0x13
 17024 00cc 2F       		.uleb128 0x2f
 17025 00cd 0B       		.uleb128 0xb
 17026 00ce 00       		.byte	0
 17027 00cf 00       		.byte	0
 17028 00d0 13       		.uleb128 0x13
 17029 00d1 34       		.uleb128 0x34
 17030 00d2 00       		.byte	0
 17031 00d3 03       		.uleb128 0x3
 17032 00d4 0E       		.uleb128 0xe
 17033 00d5 3A       		.uleb128 0x3a
 17034 00d6 0B       		.uleb128 0xb
 17035 00d7 3B       		.uleb128 0x3b
 17036 00d8 05       		.uleb128 0x5
 17037 00d9 49       		.uleb128 0x49
 17038 00da 13       		.uleb128 0x13
 17039 00db 3F       		.uleb128 0x3f
 17040 00dc 19       		.uleb128 0x19
 17041 00dd 3C       		.uleb128 0x3c
 17042 00de 19       		.uleb128 0x19
 17043 00df 00       		.byte	0
 17044 00e0 00       		.byte	0
 17045 00e1 14       		.uleb128 0x14
 17046 00e2 34       		.uleb128 0x34
 17047 00e3 00       		.byte	0
 17048 00e4 03       		.uleb128 0x3
 17049 00e5 0E       		.uleb128 0xe
 17050 00e6 3A       		.uleb128 0x3a
 17051 00e7 0B       		.uleb128 0xb
 17052 00e8 3B       		.uleb128 0x3b
 17053 00e9 0B       		.uleb128 0xb
 17054 00ea 49       		.uleb128 0x49
 17055 00eb 13       		.uleb128 0x13
 17056 00ec 3F       		.uleb128 0x3f
 17057 00ed 19       		.uleb128 0x19
 17058 00ee 3C       		.uleb128 0x3c
 17059 00ef 19       		.uleb128 0x19
 17060 00f0 00       		.byte	0
 17061 00f1 00       		.byte	0
 17062 00f2 15       		.uleb128 0x15
 17063 00f3 13       		.uleb128 0x13
 17064 00f4 01       		.byte	0x1
 17065 00f5 0B       		.uleb128 0xb
ARM GAS  C:\Users\CHRIST~1\AppData\Local\Temp\ccb3oWGE.s 			page 302


 17066 00f6 0B       		.uleb128 0xb
 17067 00f7 3A       		.uleb128 0x3a
 17068 00f8 0B       		.uleb128 0xb
 17069 00f9 3B       		.uleb128 0x3b
 17070 00fa 0B       		.uleb128 0xb
 17071 00fb 01       		.uleb128 0x1
 17072 00fc 13       		.uleb128 0x13
 17073 00fd 00       		.byte	0
 17074 00fe 00       		.byte	0
 17075 00ff 16       		.uleb128 0x16
 17076 0100 0D       		.uleb128 0xd
 17077 0101 00       		.byte	0
 17078 0102 03       		.uleb128 0x3
 17079 0103 08       		.uleb128 0x8
 17080 0104 3A       		.uleb128 0x3a
 17081 0105 0B       		.uleb128 0xb
 17082 0106 3B       		.uleb128 0x3b
 17083 0107 0B       		.uleb128 0xb
 17084 0108 49       		.uleb128 0x49
 17085 0109 13       		.uleb128 0x13
 17086 010a 38       		.uleb128 0x38
 17087 010b 0B       		.uleb128 0xb
 17088 010c 00       		.byte	0
 17089 010d 00       		.byte	0
 17090 010e 17       		.uleb128 0x17
 17091 010f 13       		.uleb128 0x13
 17092 0110 01       		.byte	0x1
 17093 0111 0B       		.uleb128 0xb
 17094 0112 0B       		.uleb128 0xb
 17095 0113 3A       		.uleb128 0x3a
 17096 0114 0B       		.uleb128 0xb
 17097 0115 3B       		.uleb128 0x3b
 17098 0116 05       		.uleb128 0x5
 17099 0117 01       		.uleb128 0x1
 17100 0118 13       		.uleb128 0x13
 17101 0119 00       		.byte	0
 17102 011a 00       		.byte	0
 17103 011b 18       		.uleb128 0x18
 17104 011c 16       		.uleb128 0x16
 17105 011d 00       		.byte	0
 17106 011e 03       		.uleb128 0x3
 17107 011f 0E       		.uleb128 0xe
 17108 0120 3A       		.uleb128 0x3a
 17109 0121 0B       		.uleb128 0xb
 17110 0122 3B       		.uleb128 0x3b
 17111 0123 05       		.uleb128 0x5
 17112 0124 49       		.uleb128 0x49
 17113 0125 13       		.uleb128 0x13
 17114 0126 00       		.byte	0
 17115 0127 00       		.byte	0
 17116 0128 19       		.uleb128 0x19
 17117 0129 13       		.uleb128 0x13
 17118 012a 01       		.byte	0x1
 17119 012b 0B       		.uleb128 0xb
 17120 012c 05       		.uleb128 0x5
 17121 012d 3A       		.uleb128 0x3a
 17122 012e 0B       		.uleb128 0xb
ARM GAS  C:\Users\CHRIST~1\AppData\Local\Temp\ccb3oWGE.s 			page 303


 17123 012f 3B       		.uleb128 0x3b
 17124 0130 05       		.uleb128 0x5
 17125 0131 01       		.uleb128 0x1
 17126 0132 13       		.uleb128 0x13
 17127 0133 00       		.byte	0
 17128 0134 00       		.byte	0
 17129 0135 1A       		.uleb128 0x1a
 17130 0136 0D       		.uleb128 0xd
 17131 0137 00       		.byte	0
 17132 0138 03       		.uleb128 0x3
 17133 0139 0E       		.uleb128 0xe
 17134 013a 3A       		.uleb128 0x3a
 17135 013b 0B       		.uleb128 0xb
 17136 013c 3B       		.uleb128 0x3b
 17137 013d 05       		.uleb128 0x5
 17138 013e 49       		.uleb128 0x49
 17139 013f 13       		.uleb128 0x13
 17140 0140 38       		.uleb128 0x38
 17141 0141 05       		.uleb128 0x5
 17142 0142 00       		.byte	0
 17143 0143 00       		.byte	0
 17144 0144 1B       		.uleb128 0x1b
 17145 0145 0D       		.uleb128 0xd
 17146 0146 00       		.byte	0
 17147 0147 03       		.uleb128 0x3
 17148 0148 08       		.uleb128 0x8
 17149 0149 3A       		.uleb128 0x3a
 17150 014a 0B       		.uleb128 0xb
 17151 014b 3B       		.uleb128 0x3b
 17152 014c 05       		.uleb128 0x5
 17153 014d 49       		.uleb128 0x49
 17154 014e 13       		.uleb128 0x13
 17155 014f 38       		.uleb128 0x38
 17156 0150 05       		.uleb128 0x5
 17157 0151 00       		.byte	0
 17158 0152 00       		.byte	0
 17159 0153 1C       		.uleb128 0x1c
 17160 0154 17       		.uleb128 0x17
 17161 0155 01       		.byte	0x1
 17162 0156 0B       		.uleb128 0xb
 17163 0157 0B       		.uleb128 0xb
 17164 0158 3A       		.uleb128 0x3a
 17165 0159 0B       		.uleb128 0xb
 17166 015a 3B       		.uleb128 0x3b
 17167 015b 0B       		.uleb128 0xb
 17168 015c 01       		.uleb128 0x1
 17169 015d 13       		.uleb128 0x13
 17170 015e 00       		.byte	0
 17171 015f 00       		.byte	0
 17172 0160 1D       		.uleb128 0x1d
 17173 0161 0D       		.uleb128 0xd
 17174 0162 00       		.byte	0
 17175 0163 03       		.uleb128 0x3
 17176 0164 0E       		.uleb128 0xe
 17177 0165 3A       		.uleb128 0x3a
 17178 0166 0B       		.uleb128 0xb
 17179 0167 3B       		.uleb128 0x3b
ARM GAS  C:\Users\CHRIST~1\AppData\Local\Temp\ccb3oWGE.s 			page 304


 17180 0168 05       		.uleb128 0x5
 17181 0169 49       		.uleb128 0x49
 17182 016a 13       		.uleb128 0x13
 17183 016b 00       		.byte	0
 17184 016c 00       		.byte	0
 17185 016d 1E       		.uleb128 0x1e
 17186 016e 34       		.uleb128 0x34
 17187 016f 00       		.byte	0
 17188 0170 03       		.uleb128 0x3
 17189 0171 08       		.uleb128 0x8
 17190 0172 3A       		.uleb128 0x3a
 17191 0173 0B       		.uleb128 0xb
 17192 0174 3B       		.uleb128 0x3b
 17193 0175 05       		.uleb128 0x5
 17194 0176 49       		.uleb128 0x49
 17195 0177 13       		.uleb128 0x13
 17196 0178 3F       		.uleb128 0x3f
 17197 0179 19       		.uleb128 0x19
 17198 017a 3C       		.uleb128 0x3c
 17199 017b 19       		.uleb128 0x19
 17200 017c 00       		.byte	0
 17201 017d 00       		.byte	0
 17202 017e 1F       		.uleb128 0x1f
 17203 017f 04       		.uleb128 0x4
 17204 0180 01       		.byte	0x1
 17205 0181 3E       		.uleb128 0x3e
 17206 0182 0B       		.uleb128 0xb
 17207 0183 0B       		.uleb128 0xb
 17208 0184 0B       		.uleb128 0xb
 17209 0185 49       		.uleb128 0x49
 17210 0186 13       		.uleb128 0x13
 17211 0187 3A       		.uleb128 0x3a
 17212 0188 0B       		.uleb128 0xb
 17213 0189 3B       		.uleb128 0x3b
 17214 018a 0B       		.uleb128 0xb
 17215 018b 01       		.uleb128 0x1
 17216 018c 13       		.uleb128 0x13
 17217 018d 00       		.byte	0
 17218 018e 00       		.byte	0
 17219 018f 20       		.uleb128 0x20
 17220 0190 28       		.uleb128 0x28
 17221 0191 00       		.byte	0
 17222 0192 03       		.uleb128 0x3
 17223 0193 0E       		.uleb128 0xe
 17224 0194 1C       		.uleb128 0x1c
 17225 0195 0B       		.uleb128 0xb
 17226 0196 00       		.byte	0
 17227 0197 00       		.byte	0
 17228 0198 21       		.uleb128 0x21
 17229 0199 13       		.uleb128 0x13
 17230 019a 01       		.byte	0x1
 17231 019b 0B       		.uleb128 0xb
 17232 019c 05       		.uleb128 0x5
 17233 019d 3A       		.uleb128 0x3a
 17234 019e 0B       		.uleb128 0xb
 17235 019f 3B       		.uleb128 0x3b
 17236 01a0 0B       		.uleb128 0xb
ARM GAS  C:\Users\CHRIST~1\AppData\Local\Temp\ccb3oWGE.s 			page 305


 17237 01a1 01       		.uleb128 0x1
 17238 01a2 13       		.uleb128 0x13
 17239 01a3 00       		.byte	0
 17240 01a4 00       		.byte	0
 17241 01a5 22       		.uleb128 0x22
 17242 01a6 0D       		.uleb128 0xd
 17243 01a7 00       		.byte	0
 17244 01a8 03       		.uleb128 0x3
 17245 01a9 0E       		.uleb128 0xe
 17246 01aa 3A       		.uleb128 0x3a
 17247 01ab 0B       		.uleb128 0xb
 17248 01ac 3B       		.uleb128 0x3b
 17249 01ad 0B       		.uleb128 0xb
 17250 01ae 49       		.uleb128 0x49
 17251 01af 13       		.uleb128 0x13
 17252 01b0 38       		.uleb128 0x38
 17253 01b1 05       		.uleb128 0x5
 17254 01b2 00       		.byte	0
 17255 01b3 00       		.byte	0
 17256 01b4 23       		.uleb128 0x23
 17257 01b5 04       		.uleb128 0x4
 17258 01b6 01       		.byte	0x1
 17259 01b7 3E       		.uleb128 0x3e
 17260 01b8 0B       		.uleb128 0xb
 17261 01b9 0B       		.uleb128 0xb
 17262 01ba 0B       		.uleb128 0xb
 17263 01bb 49       		.uleb128 0x49
 17264 01bc 13       		.uleb128 0x13
 17265 01bd 3A       		.uleb128 0x3a
 17266 01be 0B       		.uleb128 0xb
 17267 01bf 3B       		.uleb128 0x3b
 17268 01c0 05       		.uleb128 0x5
 17269 01c1 01       		.uleb128 0x1
 17270 01c2 13       		.uleb128 0x13
 17271 01c3 00       		.byte	0
 17272 01c4 00       		.byte	0
 17273 01c5 24       		.uleb128 0x24
 17274 01c6 21       		.uleb128 0x21
 17275 01c7 00       		.byte	0
 17276 01c8 00       		.byte	0
 17277 01c9 00       		.byte	0
 17278 01ca 25       		.uleb128 0x25
 17279 01cb 0D       		.uleb128 0xd
 17280 01cc 00       		.byte	0
 17281 01cd 03       		.uleb128 0x3
 17282 01ce 08       		.uleb128 0x8
 17283 01cf 3A       		.uleb128 0x3a
 17284 01d0 0B       		.uleb128 0xb
 17285 01d1 3B       		.uleb128 0x3b
 17286 01d2 0B       		.uleb128 0xb
 17287 01d3 49       		.uleb128 0x49
 17288 01d4 13       		.uleb128 0x13
 17289 01d5 00       		.byte	0
 17290 01d6 00       		.byte	0
 17291 01d7 26       		.uleb128 0x26
 17292 01d8 15       		.uleb128 0x15
 17293 01d9 01       		.byte	0x1
ARM GAS  C:\Users\CHRIST~1\AppData\Local\Temp\ccb3oWGE.s 			page 306


 17294 01da 27       		.uleb128 0x27
 17295 01db 19       		.uleb128 0x19
 17296 01dc 49       		.uleb128 0x49
 17297 01dd 13       		.uleb128 0x13
 17298 01de 01       		.uleb128 0x1
 17299 01df 13       		.uleb128 0x13
 17300 01e0 00       		.byte	0
 17301 01e1 00       		.byte	0
 17302 01e2 27       		.uleb128 0x27
 17303 01e3 13       		.uleb128 0x13
 17304 01e4 01       		.byte	0x1
 17305 01e5 0B       		.uleb128 0xb
 17306 01e6 06       		.uleb128 0x6
 17307 01e7 3A       		.uleb128 0x3a
 17308 01e8 0B       		.uleb128 0xb
 17309 01e9 3B       		.uleb128 0x3b
 17310 01ea 0B       		.uleb128 0xb
 17311 01eb 01       		.uleb128 0x1
 17312 01ec 13       		.uleb128 0x13
 17313 01ed 00       		.byte	0
 17314 01ee 00       		.byte	0
 17315 01ef 28       		.uleb128 0x28
 17316 01f0 0D       		.uleb128 0xd
 17317 01f1 00       		.byte	0
 17318 01f2 03       		.uleb128 0x3
 17319 01f3 08       		.uleb128 0x8
 17320 01f4 3A       		.uleb128 0x3a
 17321 01f5 0B       		.uleb128 0xb
 17322 01f6 3B       		.uleb128 0x3b
 17323 01f7 0B       		.uleb128 0xb
 17324 01f8 49       		.uleb128 0x49
 17325 01f9 13       		.uleb128 0x13
 17326 01fa 38       		.uleb128 0x38
 17327 01fb 05       		.uleb128 0x5
 17328 01fc 00       		.byte	0
 17329 01fd 00       		.byte	0
 17330 01fe 29       		.uleb128 0x29
 17331 01ff 21       		.uleb128 0x21
 17332 0200 00       		.byte	0
 17333 0201 49       		.uleb128 0x49
 17334 0202 13       		.uleb128 0x13
 17335 0203 2F       		.uleb128 0x2f
 17336 0204 05       		.uleb128 0x5
 17337 0205 00       		.byte	0
 17338 0206 00       		.byte	0
 17339 0207 2A       		.uleb128 0x2a
 17340 0208 0D       		.uleb128 0xd
 17341 0209 00       		.byte	0
 17342 020a 03       		.uleb128 0x3
 17343 020b 0E       		.uleb128 0xe
 17344 020c 3A       		.uleb128 0x3a
 17345 020d 0B       		.uleb128 0xb
 17346 020e 3B       		.uleb128 0x3b
 17347 020f 0B       		.uleb128 0xb
 17348 0210 49       		.uleb128 0x49
 17349 0211 13       		.uleb128 0x13
 17350 0212 00       		.byte	0
ARM GAS  C:\Users\CHRIST~1\AppData\Local\Temp\ccb3oWGE.s 			page 307


 17351 0213 00       		.byte	0
 17352 0214 2B       		.uleb128 0x2b
 17353 0215 17       		.uleb128 0x17
 17354 0216 01       		.byte	0x1
 17355 0217 0B       		.uleb128 0xb
 17356 0218 0B       		.uleb128 0xb
 17357 0219 3A       		.uleb128 0x3a
 17358 021a 0B       		.uleb128 0xb
 17359 021b 3B       		.uleb128 0x3b
 17360 021c 05       		.uleb128 0x5
 17361 021d 01       		.uleb128 0x1
 17362 021e 13       		.uleb128 0x13
 17363 021f 00       		.byte	0
 17364 0220 00       		.byte	0
 17365 0221 2C       		.uleb128 0x2c
 17366 0222 13       		.uleb128 0x13
 17367 0223 00       		.byte	0
 17368 0224 03       		.uleb128 0x3
 17369 0225 0E       		.uleb128 0xe
 17370 0226 3C       		.uleb128 0x3c
 17371 0227 19       		.uleb128 0x19
 17372 0228 00       		.byte	0
 17373 0229 00       		.byte	0
 17374 022a 2D       		.uleb128 0x2d
 17375 022b 13       		.uleb128 0x13
 17376 022c 01       		.byte	0x1
 17377 022d 03       		.uleb128 0x3
 17378 022e 0E       		.uleb128 0xe
 17379 022f 0B       		.uleb128 0xb
 17380 0230 05       		.uleb128 0x5
 17381 0231 3A       		.uleb128 0x3a
 17382 0232 0B       		.uleb128 0xb
 17383 0233 3B       		.uleb128 0x3b
 17384 0234 0B       		.uleb128 0xb
 17385 0235 01       		.uleb128 0x1
 17386 0236 13       		.uleb128 0x13
 17387 0237 00       		.byte	0
 17388 0238 00       		.byte	0
 17389 0239 2E       		.uleb128 0x2e
 17390 023a 15       		.uleb128 0x15
 17391 023b 00       		.byte	0
 17392 023c 27       		.uleb128 0x27
 17393 023d 19       		.uleb128 0x19
 17394 023e 00       		.byte	0
 17395 023f 00       		.byte	0
 17396 0240 2F       		.uleb128 0x2f
 17397 0241 04       		.uleb128 0x4
 17398 0242 01       		.byte	0x1
 17399 0243 03       		.uleb128 0x3
 17400 0244 0E       		.uleb128 0xe
 17401 0245 3E       		.uleb128 0x3e
 17402 0246 0B       		.uleb128 0xb
 17403 0247 0B       		.uleb128 0xb
 17404 0248 0B       		.uleb128 0xb
 17405 0249 49       		.uleb128 0x49
 17406 024a 13       		.uleb128 0x13
 17407 024b 3A       		.uleb128 0x3a
ARM GAS  C:\Users\CHRIST~1\AppData\Local\Temp\ccb3oWGE.s 			page 308


 17408 024c 0B       		.uleb128 0xb
 17409 024d 3B       		.uleb128 0x3b
 17410 024e 05       		.uleb128 0x5
 17411 024f 01       		.uleb128 0x1
 17412 0250 13       		.uleb128 0x13
 17413 0251 00       		.byte	0
 17414 0252 00       		.byte	0
 17415 0253 30       		.uleb128 0x30
 17416 0254 28       		.uleb128 0x28
 17417 0255 00       		.byte	0
 17418 0256 03       		.uleb128 0x3
 17419 0257 0E       		.uleb128 0xe
 17420 0258 1C       		.uleb128 0x1c
 17421 0259 0D       		.uleb128 0xd
 17422 025a 00       		.byte	0
 17423 025b 00       		.byte	0
 17424 025c 31       		.uleb128 0x31
 17425 025d 34       		.uleb128 0x34
 17426 025e 00       		.byte	0
 17427 025f 47       		.uleb128 0x47
 17428 0260 13       		.uleb128 0x13
 17429 0261 3A       		.uleb128 0x3a
 17430 0262 0B       		.uleb128 0xb
 17431 0263 3B       		.uleb128 0x3b
 17432 0264 0B       		.uleb128 0xb
 17433 0265 02       		.uleb128 0x2
 17434 0266 18       		.uleb128 0x18
 17435 0267 00       		.byte	0
 17436 0268 00       		.byte	0
 17437 0269 32       		.uleb128 0x32
 17438 026a 34       		.uleb128 0x34
 17439 026b 00       		.byte	0
 17440 026c 03       		.uleb128 0x3
 17441 026d 0E       		.uleb128 0xe
 17442 026e 3A       		.uleb128 0x3a
 17443 026f 0B       		.uleb128 0xb
 17444 0270 3B       		.uleb128 0x3b
 17445 0271 0B       		.uleb128 0xb
 17446 0272 49       		.uleb128 0x49
 17447 0273 13       		.uleb128 0x13
 17448 0274 02       		.uleb128 0x2
 17449 0275 18       		.uleb128 0x18
 17450 0276 00       		.byte	0
 17451 0277 00       		.byte	0
 17452 0278 33       		.uleb128 0x33
 17453 0279 2E       		.uleb128 0x2e
 17454 027a 01       		.byte	0x1
 17455 027b 03       		.uleb128 0x3
 17456 027c 0E       		.uleb128 0xe
 17457 027d 3A       		.uleb128 0x3a
 17458 027e 0B       		.uleb128 0xb
 17459 027f 3B       		.uleb128 0x3b
 17460 0280 05       		.uleb128 0x5
 17461 0281 27       		.uleb128 0x27
 17462 0282 19       		.uleb128 0x19
 17463 0283 11       		.uleb128 0x11
 17464 0284 01       		.uleb128 0x1
ARM GAS  C:\Users\CHRIST~1\AppData\Local\Temp\ccb3oWGE.s 			page 309


 17465 0285 12       		.uleb128 0x12
 17466 0286 06       		.uleb128 0x6
 17467 0287 40       		.uleb128 0x40
 17468 0288 18       		.uleb128 0x18
 17469 0289 9742     		.uleb128 0x2117
 17470 028b 19       		.uleb128 0x19
 17471 028c 01       		.uleb128 0x1
 17472 028d 13       		.uleb128 0x13
 17473 028e 00       		.byte	0
 17474 028f 00       		.byte	0
 17475 0290 34       		.uleb128 0x34
 17476 0291 05       		.uleb128 0x5
 17477 0292 00       		.byte	0
 17478 0293 03       		.uleb128 0x3
 17479 0294 08       		.uleb128 0x8
 17480 0295 3A       		.uleb128 0x3a
 17481 0296 0B       		.uleb128 0xb
 17482 0297 3B       		.uleb128 0x3b
 17483 0298 05       		.uleb128 0x5
 17484 0299 49       		.uleb128 0x49
 17485 029a 13       		.uleb128 0x13
 17486 029b 02       		.uleb128 0x2
 17487 029c 17       		.uleb128 0x17
 17488 029d 00       		.byte	0
 17489 029e 00       		.byte	0
 17490 029f 35       		.uleb128 0x35
 17491 02a0 0B       		.uleb128 0xb
 17492 02a1 01       		.byte	0x1
 17493 02a2 55       		.uleb128 0x55
 17494 02a3 17       		.uleb128 0x17
 17495 02a4 01       		.uleb128 0x1
 17496 02a5 13       		.uleb128 0x13
 17497 02a6 00       		.byte	0
 17498 02a7 00       		.byte	0
 17499 02a8 36       		.uleb128 0x36
 17500 02a9 34       		.uleb128 0x34
 17501 02aa 00       		.byte	0
 17502 02ab 03       		.uleb128 0x3
 17503 02ac 08       		.uleb128 0x8
 17504 02ad 3A       		.uleb128 0x3a
 17505 02ae 0B       		.uleb128 0xb
 17506 02af 3B       		.uleb128 0x3b
 17507 02b0 05       		.uleb128 0x5
 17508 02b1 49       		.uleb128 0x49
 17509 02b2 13       		.uleb128 0x13
 17510 02b3 02       		.uleb128 0x2
 17511 02b4 17       		.uleb128 0x17
 17512 02b5 00       		.byte	0
 17513 02b6 00       		.byte	0
 17514 02b7 37       		.uleb128 0x37
 17515 02b8 34       		.uleb128 0x34
 17516 02b9 00       		.byte	0
 17517 02ba 03       		.uleb128 0x3
 17518 02bb 0E       		.uleb128 0xe
 17519 02bc 3A       		.uleb128 0x3a
 17520 02bd 0B       		.uleb128 0xb
 17521 02be 3B       		.uleb128 0x3b
ARM GAS  C:\Users\CHRIST~1\AppData\Local\Temp\ccb3oWGE.s 			page 310


 17522 02bf 05       		.uleb128 0x5
 17523 02c0 49       		.uleb128 0x49
 17524 02c1 13       		.uleb128 0x13
 17525 02c2 02       		.uleb128 0x2
 17526 02c3 17       		.uleb128 0x17
 17527 02c4 00       		.byte	0
 17528 02c5 00       		.byte	0
 17529 02c6 38       		.uleb128 0x38
 17530 02c7 0B       		.uleb128 0xb
 17531 02c8 01       		.byte	0x1
 17532 02c9 55       		.uleb128 0x55
 17533 02ca 17       		.uleb128 0x17
 17534 02cb 00       		.byte	0
 17535 02cc 00       		.byte	0
 17536 02cd 39       		.uleb128 0x39
 17537 02ce 34       		.uleb128 0x34
 17538 02cf 00       		.byte	0
 17539 02d0 03       		.uleb128 0x3
 17540 02d1 0E       		.uleb128 0xe
 17541 02d2 3A       		.uleb128 0x3a
 17542 02d3 0B       		.uleb128 0xb
 17543 02d4 3B       		.uleb128 0x3b
 17544 02d5 05       		.uleb128 0x5
 17545 02d6 49       		.uleb128 0x49
 17546 02d7 13       		.uleb128 0x13
 17547 02d8 02       		.uleb128 0x2
 17548 02d9 18       		.uleb128 0x18
 17549 02da 00       		.byte	0
 17550 02db 00       		.byte	0
 17551 02dc 3A       		.uleb128 0x3a
 17552 02dd 898201   		.uleb128 0x4109
 17553 02e0 01       		.byte	0x1
 17554 02e1 11       		.uleb128 0x11
 17555 02e2 01       		.uleb128 0x1
 17556 02e3 31       		.uleb128 0x31
 17557 02e4 13       		.uleb128 0x13
 17558 02e5 01       		.uleb128 0x1
 17559 02e6 13       		.uleb128 0x13
 17560 02e7 00       		.byte	0
 17561 02e8 00       		.byte	0
 17562 02e9 3B       		.uleb128 0x3b
 17563 02ea 8A8201   		.uleb128 0x410a
 17564 02ed 00       		.byte	0
 17565 02ee 02       		.uleb128 0x2
 17566 02ef 18       		.uleb128 0x18
 17567 02f0 9142     		.uleb128 0x2111
 17568 02f2 18       		.uleb128 0x18
 17569 02f3 00       		.byte	0
 17570 02f4 00       		.byte	0
 17571 02f5 3C       		.uleb128 0x3c
 17572 02f6 898201   		.uleb128 0x4109
 17573 02f9 01       		.byte	0x1
 17574 02fa 11       		.uleb128 0x11
 17575 02fb 01       		.uleb128 0x1
 17576 02fc 31       		.uleb128 0x31
 17577 02fd 13       		.uleb128 0x13
 17578 02fe 00       		.byte	0
ARM GAS  C:\Users\CHRIST~1\AppData\Local\Temp\ccb3oWGE.s 			page 311


 17579 02ff 00       		.byte	0
 17580 0300 3D       		.uleb128 0x3d
 17581 0301 1D       		.uleb128 0x1d
 17582 0302 01       		.byte	0x1
 17583 0303 31       		.uleb128 0x31
 17584 0304 13       		.uleb128 0x13
 17585 0305 52       		.uleb128 0x52
 17586 0306 01       		.uleb128 0x1
 17587 0307 55       		.uleb128 0x55
 17588 0308 17       		.uleb128 0x17
 17589 0309 58       		.uleb128 0x58
 17590 030a 0B       		.uleb128 0xb
 17591 030b 59       		.uleb128 0x59
 17592 030c 05       		.uleb128 0x5
 17593 030d 00       		.byte	0
 17594 030e 00       		.byte	0
 17595 030f 3E       		.uleb128 0x3e
 17596 0310 05       		.uleb128 0x5
 17597 0311 00       		.byte	0
 17598 0312 31       		.uleb128 0x31
 17599 0313 13       		.uleb128 0x13
 17600 0314 02       		.uleb128 0x2
 17601 0315 17       		.uleb128 0x17
 17602 0316 00       		.byte	0
 17603 0317 00       		.byte	0
 17604 0318 3F       		.uleb128 0x3f
 17605 0319 1D       		.uleb128 0x1d
 17606 031a 01       		.byte	0x1
 17607 031b 31       		.uleb128 0x31
 17608 031c 13       		.uleb128 0x13
 17609 031d 52       		.uleb128 0x52
 17610 031e 01       		.uleb128 0x1
 17611 031f 55       		.uleb128 0x55
 17612 0320 17       		.uleb128 0x17
 17613 0321 58       		.uleb128 0x58
 17614 0322 0B       		.uleb128 0xb
 17615 0323 59       		.uleb128 0x59
 17616 0324 05       		.uleb128 0x5
 17617 0325 01       		.uleb128 0x1
 17618 0326 13       		.uleb128 0x13
 17619 0327 00       		.byte	0
 17620 0328 00       		.byte	0
 17621 0329 40       		.uleb128 0x40
 17622 032a 05       		.uleb128 0x5
 17623 032b 00       		.byte	0
 17624 032c 31       		.uleb128 0x31
 17625 032d 13       		.uleb128 0x13
 17626 032e 02       		.uleb128 0x2
 17627 032f 18       		.uleb128 0x18
 17628 0330 00       		.byte	0
 17629 0331 00       		.byte	0
 17630 0332 41       		.uleb128 0x41
 17631 0333 898201   		.uleb128 0x4109
 17632 0336 00       		.byte	0
 17633 0337 11       		.uleb128 0x11
 17634 0338 01       		.uleb128 0x1
 17635 0339 31       		.uleb128 0x31
ARM GAS  C:\Users\CHRIST~1\AppData\Local\Temp\ccb3oWGE.s 			page 312


 17636 033a 13       		.uleb128 0x13
 17637 033b 00       		.byte	0
 17638 033c 00       		.byte	0
 17639 033d 42       		.uleb128 0x42
 17640 033e 2E       		.uleb128 0x2e
 17641 033f 01       		.byte	0x1
 17642 0340 03       		.uleb128 0x3
 17643 0341 0E       		.uleb128 0xe
 17644 0342 3A       		.uleb128 0x3a
 17645 0343 0B       		.uleb128 0xb
 17646 0344 3B       		.uleb128 0x3b
 17647 0345 05       		.uleb128 0x5
 17648 0346 27       		.uleb128 0x27
 17649 0347 19       		.uleb128 0x19
 17650 0348 20       		.uleb128 0x20
 17651 0349 0B       		.uleb128 0xb
 17652 034a 01       		.uleb128 0x1
 17653 034b 13       		.uleb128 0x13
 17654 034c 00       		.byte	0
 17655 034d 00       		.byte	0
 17656 034e 43       		.uleb128 0x43
 17657 034f 05       		.uleb128 0x5
 17658 0350 00       		.byte	0
 17659 0351 03       		.uleb128 0x3
 17660 0352 0E       		.uleb128 0xe
 17661 0353 3A       		.uleb128 0x3a
 17662 0354 0B       		.uleb128 0xb
 17663 0355 3B       		.uleb128 0x3b
 17664 0356 05       		.uleb128 0x5
 17665 0357 49       		.uleb128 0x49
 17666 0358 13       		.uleb128 0x13
 17667 0359 00       		.byte	0
 17668 035a 00       		.byte	0
 17669 035b 44       		.uleb128 0x44
 17670 035c 34       		.uleb128 0x34
 17671 035d 00       		.byte	0
 17672 035e 03       		.uleb128 0x3
 17673 035f 0E       		.uleb128 0xe
 17674 0360 3A       		.uleb128 0x3a
 17675 0361 0B       		.uleb128 0xb
 17676 0362 3B       		.uleb128 0x3b
 17677 0363 05       		.uleb128 0x5
 17678 0364 49       		.uleb128 0x49
 17679 0365 13       		.uleb128 0x13
 17680 0366 00       		.byte	0
 17681 0367 00       		.byte	0
 17682 0368 45       		.uleb128 0x45
 17683 0369 0B       		.uleb128 0xb
 17684 036a 01       		.byte	0x1
 17685 036b 01       		.uleb128 0x1
 17686 036c 13       		.uleb128 0x13
 17687 036d 00       		.byte	0
 17688 036e 00       		.byte	0
 17689 036f 46       		.uleb128 0x46
 17690 0370 0B       		.uleb128 0xb
 17691 0371 01       		.byte	0x1
 17692 0372 00       		.byte	0
ARM GAS  C:\Users\CHRIST~1\AppData\Local\Temp\ccb3oWGE.s 			page 313


 17693 0373 00       		.byte	0
 17694 0374 47       		.uleb128 0x47
 17695 0375 2E       		.uleb128 0x2e
 17696 0376 01       		.byte	0x1
 17697 0377 3F       		.uleb128 0x3f
 17698 0378 19       		.uleb128 0x19
 17699 0379 03       		.uleb128 0x3
 17700 037a 0E       		.uleb128 0xe
 17701 037b 3A       		.uleb128 0x3a
 17702 037c 0B       		.uleb128 0xb
 17703 037d 3B       		.uleb128 0x3b
 17704 037e 05       		.uleb128 0x5
 17705 037f 27       		.uleb128 0x27
 17706 0380 19       		.uleb128 0x19
 17707 0381 11       		.uleb128 0x11
 17708 0382 01       		.uleb128 0x1
 17709 0383 12       		.uleb128 0x12
 17710 0384 06       		.uleb128 0x6
 17711 0385 40       		.uleb128 0x40
 17712 0386 18       		.uleb128 0x18
 17713 0387 9742     		.uleb128 0x2117
 17714 0389 19       		.uleb128 0x19
 17715 038a 01       		.uleb128 0x1
 17716 038b 13       		.uleb128 0x13
 17717 038c 00       		.byte	0
 17718 038d 00       		.byte	0
 17719 038e 48       		.uleb128 0x48
 17720 038f 898201   		.uleb128 0x4109
 17721 0392 00       		.byte	0
 17722 0393 11       		.uleb128 0x11
 17723 0394 01       		.uleb128 0x1
 17724 0395 9542     		.uleb128 0x2115
 17725 0397 19       		.uleb128 0x19
 17726 0398 31       		.uleb128 0x31
 17727 0399 13       		.uleb128 0x13
 17728 039a 00       		.byte	0
 17729 039b 00       		.byte	0
 17730 039c 49       		.uleb128 0x49
 17731 039d 2E       		.uleb128 0x2e
 17732 039e 01       		.byte	0x1
 17733 039f 3F       		.uleb128 0x3f
 17734 03a0 19       		.uleb128 0x19
 17735 03a1 03       		.uleb128 0x3
 17736 03a2 0E       		.uleb128 0xe
 17737 03a3 3A       		.uleb128 0x3a
 17738 03a4 0B       		.uleb128 0xb
 17739 03a5 3B       		.uleb128 0x3b
 17740 03a6 05       		.uleb128 0x5
 17741 03a7 27       		.uleb128 0x27
 17742 03a8 19       		.uleb128 0x19
 17743 03a9 11       		.uleb128 0x11
 17744 03aa 01       		.uleb128 0x1
 17745 03ab 12       		.uleb128 0x12
 17746 03ac 06       		.uleb128 0x6
 17747 03ad 40       		.uleb128 0x40
 17748 03ae 18       		.uleb128 0x18
 17749 03af 9642     		.uleb128 0x2116
ARM GAS  C:\Users\CHRIST~1\AppData\Local\Temp\ccb3oWGE.s 			page 314


 17750 03b1 19       		.uleb128 0x19
 17751 03b2 01       		.uleb128 0x1
 17752 03b3 13       		.uleb128 0x13
 17753 03b4 00       		.byte	0
 17754 03b5 00       		.byte	0
 17755 03b6 4A       		.uleb128 0x4a
 17756 03b7 1D       		.uleb128 0x1d
 17757 03b8 01       		.byte	0x1
 17758 03b9 31       		.uleb128 0x31
 17759 03ba 13       		.uleb128 0x13
 17760 03bb 11       		.uleb128 0x11
 17761 03bc 01       		.uleb128 0x1
 17762 03bd 12       		.uleb128 0x12
 17763 03be 06       		.uleb128 0x6
 17764 03bf 58       		.uleb128 0x58
 17765 03c0 0B       		.uleb128 0xb
 17766 03c1 59       		.uleb128 0x59
 17767 03c2 05       		.uleb128 0x5
 17768 03c3 01       		.uleb128 0x1
 17769 03c4 13       		.uleb128 0x13
 17770 03c5 00       		.byte	0
 17771 03c6 00       		.byte	0
 17772 03c7 4B       		.uleb128 0x4b
 17773 03c8 1D       		.uleb128 0x1d
 17774 03c9 01       		.byte	0x1
 17775 03ca 31       		.uleb128 0x31
 17776 03cb 13       		.uleb128 0x13
 17777 03cc 11       		.uleb128 0x11
 17778 03cd 01       		.uleb128 0x1
 17779 03ce 12       		.uleb128 0x12
 17780 03cf 06       		.uleb128 0x6
 17781 03d0 58       		.uleb128 0x58
 17782 03d1 0B       		.uleb128 0xb
 17783 03d2 59       		.uleb128 0x59
 17784 03d3 05       		.uleb128 0x5
 17785 03d4 00       		.byte	0
 17786 03d5 00       		.byte	0
 17787 03d6 4C       		.uleb128 0x4c
 17788 03d7 34       		.uleb128 0x34
 17789 03d8 00       		.byte	0
 17790 03d9 03       		.uleb128 0x3
 17791 03da 08       		.uleb128 0x8
 17792 03db 3A       		.uleb128 0x3a
 17793 03dc 0B       		.uleb128 0xb
 17794 03dd 3B       		.uleb128 0x3b
 17795 03de 05       		.uleb128 0x5
 17796 03df 49       		.uleb128 0x49
 17797 03e0 13       		.uleb128 0x13
 17798 03e1 02       		.uleb128 0x2
 17799 03e2 18       		.uleb128 0x18
 17800 03e3 00       		.byte	0
 17801 03e4 00       		.byte	0
 17802 03e5 4D       		.uleb128 0x4d
 17803 03e6 1D       		.uleb128 0x1d
 17804 03e7 00       		.byte	0
 17805 03e8 31       		.uleb128 0x31
 17806 03e9 13       		.uleb128 0x13
ARM GAS  C:\Users\CHRIST~1\AppData\Local\Temp\ccb3oWGE.s 			page 315


 17807 03ea 52       		.uleb128 0x52
 17808 03eb 01       		.uleb128 0x1
 17809 03ec 55       		.uleb128 0x55
 17810 03ed 17       		.uleb128 0x17
 17811 03ee 58       		.uleb128 0x58
 17812 03ef 0B       		.uleb128 0xb
 17813 03f0 59       		.uleb128 0x59
 17814 03f1 05       		.uleb128 0x5
 17815 03f2 00       		.byte	0
 17816 03f3 00       		.byte	0
 17817 03f4 4E       		.uleb128 0x4e
 17818 03f5 05       		.uleb128 0x5
 17819 03f6 00       		.byte	0
 17820 03f7 31       		.uleb128 0x31
 17821 03f8 13       		.uleb128 0x13
 17822 03f9 00       		.byte	0
 17823 03fa 00       		.byte	0
 17824 03fb 4F       		.uleb128 0x4f
 17825 03fc 2E       		.uleb128 0x2e
 17826 03fd 01       		.byte	0x1
 17827 03fe 3F       		.uleb128 0x3f
 17828 03ff 19       		.uleb128 0x19
 17829 0400 03       		.uleb128 0x3
 17830 0401 0E       		.uleb128 0xe
 17831 0402 3A       		.uleb128 0x3a
 17832 0403 0B       		.uleb128 0xb
 17833 0404 3B       		.uleb128 0x3b
 17834 0405 05       		.uleb128 0x5
 17835 0406 27       		.uleb128 0x27
 17836 0407 19       		.uleb128 0x19
 17837 0408 20       		.uleb128 0x20
 17838 0409 0B       		.uleb128 0xb
 17839 040a 01       		.uleb128 0x1
 17840 040b 13       		.uleb128 0x13
 17841 040c 00       		.byte	0
 17842 040d 00       		.byte	0
 17843 040e 50       		.uleb128 0x50
 17844 040f 2E       		.uleb128 0x2e
 17845 0410 01       		.byte	0x1
 17846 0411 3F       		.uleb128 0x3f
 17847 0412 19       		.uleb128 0x19
 17848 0413 03       		.uleb128 0x3
 17849 0414 0E       		.uleb128 0xe
 17850 0415 3A       		.uleb128 0x3a
 17851 0416 0B       		.uleb128 0xb
 17852 0417 3B       		.uleb128 0x3b
 17853 0418 05       		.uleb128 0x5
 17854 0419 27       		.uleb128 0x27
 17855 041a 19       		.uleb128 0x19
 17856 041b 49       		.uleb128 0x49
 17857 041c 13       		.uleb128 0x13
 17858 041d 11       		.uleb128 0x11
 17859 041e 01       		.uleb128 0x1
 17860 041f 12       		.uleb128 0x12
 17861 0420 06       		.uleb128 0x6
 17862 0421 40       		.uleb128 0x40
 17863 0422 18       		.uleb128 0x18
ARM GAS  C:\Users\CHRIST~1\AppData\Local\Temp\ccb3oWGE.s 			page 316


 17864 0423 9742     		.uleb128 0x2117
 17865 0425 19       		.uleb128 0x19
 17866 0426 01       		.uleb128 0x1
 17867 0427 13       		.uleb128 0x13
 17868 0428 00       		.byte	0
 17869 0429 00       		.byte	0
 17870 042a 51       		.uleb128 0x51
 17871 042b 2E       		.uleb128 0x2e
 17872 042c 00       		.byte	0
 17873 042d 3F       		.uleb128 0x3f
 17874 042e 19       		.uleb128 0x19
 17875 042f 03       		.uleb128 0x3
 17876 0430 0E       		.uleb128 0xe
 17877 0431 3A       		.uleb128 0x3a
 17878 0432 0B       		.uleb128 0xb
 17879 0433 3B       		.uleb128 0x3b
 17880 0434 05       		.uleb128 0x5
 17881 0435 27       		.uleb128 0x27
 17882 0436 19       		.uleb128 0x19
 17883 0437 49       		.uleb128 0x49
 17884 0438 13       		.uleb128 0x13
 17885 0439 11       		.uleb128 0x11
 17886 043a 01       		.uleb128 0x1
 17887 043b 12       		.uleb128 0x12
 17888 043c 06       		.uleb128 0x6
 17889 043d 40       		.uleb128 0x40
 17890 043e 18       		.uleb128 0x18
 17891 043f 9742     		.uleb128 0x2117
 17892 0441 19       		.uleb128 0x19
 17893 0442 00       		.byte	0
 17894 0443 00       		.byte	0
 17895 0444 52       		.uleb128 0x52
 17896 0445 05       		.uleb128 0x5
 17897 0446 00       		.byte	0
 17898 0447 03       		.uleb128 0x3
 17899 0448 0E       		.uleb128 0xe
 17900 0449 3A       		.uleb128 0x3a
 17901 044a 0B       		.uleb128 0xb
 17902 044b 3B       		.uleb128 0x3b
 17903 044c 05       		.uleb128 0x5
 17904 044d 49       		.uleb128 0x49
 17905 044e 13       		.uleb128 0x13
 17906 044f 02       		.uleb128 0x2
 17907 0450 17       		.uleb128 0x17
 17908 0451 00       		.byte	0
 17909 0452 00       		.byte	0
 17910 0453 53       		.uleb128 0x53
 17911 0454 898201   		.uleb128 0x4109
 17912 0457 01       		.byte	0x1
 17913 0458 11       		.uleb128 0x11
 17914 0459 01       		.uleb128 0x1
 17915 045a 9542     		.uleb128 0x2115
 17916 045c 19       		.uleb128 0x19
 17917 045d 31       		.uleb128 0x31
 17918 045e 13       		.uleb128 0x13
 17919 045f 00       		.byte	0
 17920 0460 00       		.byte	0
ARM GAS  C:\Users\CHRIST~1\AppData\Local\Temp\ccb3oWGE.s 			page 317


 17921 0461 54       		.uleb128 0x54
 17922 0462 2E       		.uleb128 0x2e
 17923 0463 00       		.byte	0
 17924 0464 3F       		.uleb128 0x3f
 17925 0465 19       		.uleb128 0x19
 17926 0466 03       		.uleb128 0x3
 17927 0467 0E       		.uleb128 0xe
 17928 0468 3A       		.uleb128 0x3a
 17929 0469 0B       		.uleb128 0xb
 17930 046a 3B       		.uleb128 0x3b
 17931 046b 05       		.uleb128 0x5
 17932 046c 27       		.uleb128 0x27
 17933 046d 19       		.uleb128 0x19
 17934 046e 49       		.uleb128 0x49
 17935 046f 13       		.uleb128 0x13
 17936 0470 20       		.uleb128 0x20
 17937 0471 0B       		.uleb128 0xb
 17938 0472 00       		.byte	0
 17939 0473 00       		.byte	0
 17940 0474 55       		.uleb128 0x55
 17941 0475 34       		.uleb128 0x34
 17942 0476 00       		.byte	0
 17943 0477 03       		.uleb128 0x3
 17944 0478 08       		.uleb128 0x8
 17945 0479 3A       		.uleb128 0x3a
 17946 047a 0B       		.uleb128 0xb
 17947 047b 3B       		.uleb128 0x3b
 17948 047c 05       		.uleb128 0x5
 17949 047d 49       		.uleb128 0x49
 17950 047e 13       		.uleb128 0x13
 17951 047f 1C       		.uleb128 0x1c
 17952 0480 0A       		.uleb128 0xa
 17953 0481 00       		.byte	0
 17954 0482 00       		.byte	0
 17955 0483 56       		.uleb128 0x56
 17956 0484 34       		.uleb128 0x34
 17957 0485 00       		.byte	0
 17958 0486 03       		.uleb128 0x3
 17959 0487 08       		.uleb128 0x8
 17960 0488 3A       		.uleb128 0x3a
 17961 0489 0B       		.uleb128 0xb
 17962 048a 3B       		.uleb128 0x3b
 17963 048b 05       		.uleb128 0x5
 17964 048c 49       		.uleb128 0x49
 17965 048d 13       		.uleb128 0x13
 17966 048e 1C       		.uleb128 0x1c
 17967 048f 0B       		.uleb128 0xb
 17968 0490 00       		.byte	0
 17969 0491 00       		.byte	0
 17970 0492 57       		.uleb128 0x57
 17971 0493 05       		.uleb128 0x5
 17972 0494 00       		.byte	0
 17973 0495 03       		.uleb128 0x3
 17974 0496 0E       		.uleb128 0xe
 17975 0497 3A       		.uleb128 0x3a
 17976 0498 0B       		.uleb128 0xb
 17977 0499 3B       		.uleb128 0x3b
ARM GAS  C:\Users\CHRIST~1\AppData\Local\Temp\ccb3oWGE.s 			page 318


 17978 049a 05       		.uleb128 0x5
 17979 049b 49       		.uleb128 0x49
 17980 049c 13       		.uleb128 0x13
 17981 049d 02       		.uleb128 0x2
 17982 049e 18       		.uleb128 0x18
 17983 049f 00       		.byte	0
 17984 04a0 00       		.byte	0
 17985 04a1 58       		.uleb128 0x58
 17986 04a2 898201   		.uleb128 0x4109
 17987 04a5 01       		.byte	0x1
 17988 04a6 11       		.uleb128 0x11
 17989 04a7 01       		.uleb128 0x1
 17990 04a8 9542     		.uleb128 0x2115
 17991 04aa 19       		.uleb128 0x19
 17992 04ab 31       		.uleb128 0x31
 17993 04ac 13       		.uleb128 0x13
 17994 04ad 01       		.uleb128 0x1
 17995 04ae 13       		.uleb128 0x13
 17996 04af 00       		.byte	0
 17997 04b0 00       		.byte	0
 17998 04b1 59       		.uleb128 0x59
 17999 04b2 2E       		.uleb128 0x2e
 18000 04b3 00       		.byte	0
 18001 04b4 3F       		.uleb128 0x3f
 18002 04b5 19       		.uleb128 0x19
 18003 04b6 03       		.uleb128 0x3
 18004 04b7 0E       		.uleb128 0xe
 18005 04b8 3A       		.uleb128 0x3a
 18006 04b9 0B       		.uleb128 0xb
 18007 04ba 3B       		.uleb128 0x3b
 18008 04bb 05       		.uleb128 0x5
 18009 04bc 27       		.uleb128 0x27
 18010 04bd 19       		.uleb128 0x19
 18011 04be 11       		.uleb128 0x11
 18012 04bf 01       		.uleb128 0x1
 18013 04c0 12       		.uleb128 0x12
 18014 04c1 06       		.uleb128 0x6
 18015 04c2 40       		.uleb128 0x40
 18016 04c3 18       		.uleb128 0x18
 18017 04c4 9742     		.uleb128 0x2117
 18018 04c6 19       		.uleb128 0x19
 18019 04c7 00       		.byte	0
 18020 04c8 00       		.byte	0
 18021 04c9 5A       		.uleb128 0x5a
 18022 04ca 2E       		.uleb128 0x2e
 18023 04cb 01       		.byte	0x1
 18024 04cc 3F       		.uleb128 0x3f
 18025 04cd 19       		.uleb128 0x19
 18026 04ce 03       		.uleb128 0x3
 18027 04cf 0E       		.uleb128 0xe
 18028 04d0 3A       		.uleb128 0x3a
 18029 04d1 0B       		.uleb128 0xb
 18030 04d2 3B       		.uleb128 0x3b
 18031 04d3 0B       		.uleb128 0xb
 18032 04d4 27       		.uleb128 0x27
 18033 04d5 19       		.uleb128 0x19
 18034 04d6 49       		.uleb128 0x49
ARM GAS  C:\Users\CHRIST~1\AppData\Local\Temp\ccb3oWGE.s 			page 319


 18035 04d7 13       		.uleb128 0x13
 18036 04d8 11       		.uleb128 0x11
 18037 04d9 01       		.uleb128 0x1
 18038 04da 12       		.uleb128 0x12
 18039 04db 06       		.uleb128 0x6
 18040 04dc 40       		.uleb128 0x40
 18041 04dd 18       		.uleb128 0x18
 18042 04de 9742     		.uleb128 0x2117
 18043 04e0 19       		.uleb128 0x19
 18044 04e1 01       		.uleb128 0x1
 18045 04e2 13       		.uleb128 0x13
 18046 04e3 00       		.byte	0
 18047 04e4 00       		.byte	0
 18048 04e5 5B       		.uleb128 0x5b
 18049 04e6 34       		.uleb128 0x34
 18050 04e7 00       		.byte	0
 18051 04e8 03       		.uleb128 0x3
 18052 04e9 08       		.uleb128 0x8
 18053 04ea 3A       		.uleb128 0x3a
 18054 04eb 0B       		.uleb128 0xb
 18055 04ec 3B       		.uleb128 0x3b
 18056 04ed 0B       		.uleb128 0xb
 18057 04ee 49       		.uleb128 0x49
 18058 04ef 13       		.uleb128 0x13
 18059 04f0 1C       		.uleb128 0x1c
 18060 04f1 0B       		.uleb128 0xb
 18061 04f2 00       		.byte	0
 18062 04f3 00       		.byte	0
 18063 04f4 5C       		.uleb128 0x5c
 18064 04f5 2E       		.uleb128 0x2e
 18065 04f6 01       		.byte	0x1
 18066 04f7 3F       		.uleb128 0x3f
 18067 04f8 19       		.uleb128 0x19
 18068 04f9 03       		.uleb128 0x3
 18069 04fa 0E       		.uleb128 0xe
 18070 04fb 3A       		.uleb128 0x3a
 18071 04fc 0B       		.uleb128 0xb
 18072 04fd 3B       		.uleb128 0x3b
 18073 04fe 0B       		.uleb128 0xb
 18074 04ff 27       		.uleb128 0x27
 18075 0500 19       		.uleb128 0x19
 18076 0501 11       		.uleb128 0x11
 18077 0502 01       		.uleb128 0x1
 18078 0503 12       		.uleb128 0x12
 18079 0504 06       		.uleb128 0x6
 18080 0505 40       		.uleb128 0x40
 18081 0506 18       		.uleb128 0x18
 18082 0507 9742     		.uleb128 0x2117
 18083 0509 19       		.uleb128 0x19
 18084 050a 01       		.uleb128 0x1
 18085 050b 13       		.uleb128 0x13
 18086 050c 00       		.byte	0
 18087 050d 00       		.byte	0
 18088 050e 5D       		.uleb128 0x5d
 18089 050f 05       		.uleb128 0x5
 18090 0510 00       		.byte	0
 18091 0511 03       		.uleb128 0x3
ARM GAS  C:\Users\CHRIST~1\AppData\Local\Temp\ccb3oWGE.s 			page 320


 18092 0512 0E       		.uleb128 0xe
 18093 0513 3A       		.uleb128 0x3a
 18094 0514 0B       		.uleb128 0xb
 18095 0515 3B       		.uleb128 0x3b
 18096 0516 0B       		.uleb128 0xb
 18097 0517 49       		.uleb128 0x49
 18098 0518 13       		.uleb128 0x13
 18099 0519 02       		.uleb128 0x2
 18100 051a 17       		.uleb128 0x17
 18101 051b 00       		.byte	0
 18102 051c 00       		.byte	0
 18103 051d 5E       		.uleb128 0x5e
 18104 051e 2E       		.uleb128 0x2e
 18105 051f 00       		.byte	0
 18106 0520 3F       		.uleb128 0x3f
 18107 0521 19       		.uleb128 0x19
 18108 0522 03       		.uleb128 0x3
 18109 0523 0E       		.uleb128 0xe
 18110 0524 3A       		.uleb128 0x3a
 18111 0525 0B       		.uleb128 0xb
 18112 0526 3B       		.uleb128 0x3b
 18113 0527 0B       		.uleb128 0xb
 18114 0528 27       		.uleb128 0x27
 18115 0529 19       		.uleb128 0x19
 18116 052a 49       		.uleb128 0x49
 18117 052b 13       		.uleb128 0x13
 18118 052c 11       		.uleb128 0x11
 18119 052d 01       		.uleb128 0x1
 18120 052e 12       		.uleb128 0x12
 18121 052f 06       		.uleb128 0x6
 18122 0530 40       		.uleb128 0x40
 18123 0531 18       		.uleb128 0x18
 18124 0532 9742     		.uleb128 0x2117
 18125 0534 19       		.uleb128 0x19
 18126 0535 00       		.byte	0
 18127 0536 00       		.byte	0
 18128 0537 5F       		.uleb128 0x5f
 18129 0538 2E       		.uleb128 0x2e
 18130 0539 01       		.byte	0x1
 18131 053a 03       		.uleb128 0x3
 18132 053b 0E       		.uleb128 0xe
 18133 053c 3A       		.uleb128 0x3a
 18134 053d 0B       		.uleb128 0xb
 18135 053e 3B       		.uleb128 0x3b
 18136 053f 0B       		.uleb128 0xb
 18137 0540 27       		.uleb128 0x27
 18138 0541 19       		.uleb128 0x19
 18139 0542 20       		.uleb128 0x20
 18140 0543 0B       		.uleb128 0xb
 18141 0544 01       		.uleb128 0x1
 18142 0545 13       		.uleb128 0x13
 18143 0546 00       		.byte	0
 18144 0547 00       		.byte	0
 18145 0548 60       		.uleb128 0x60
 18146 0549 05       		.uleb128 0x5
 18147 054a 00       		.byte	0
 18148 054b 03       		.uleb128 0x3
ARM GAS  C:\Users\CHRIST~1\AppData\Local\Temp\ccb3oWGE.s 			page 321


 18149 054c 0E       		.uleb128 0xe
 18150 054d 3A       		.uleb128 0x3a
 18151 054e 0B       		.uleb128 0xb
 18152 054f 3B       		.uleb128 0x3b
 18153 0550 0B       		.uleb128 0xb
 18154 0551 49       		.uleb128 0x49
 18155 0552 13       		.uleb128 0x13
 18156 0553 00       		.byte	0
 18157 0554 00       		.byte	0
 18158 0555 61       		.uleb128 0x61
 18159 0556 2E       		.uleb128 0x2e
 18160 0557 00       		.byte	0
 18161 0558 03       		.uleb128 0x3
 18162 0559 0E       		.uleb128 0xe
 18163 055a 3A       		.uleb128 0x3a
 18164 055b 0B       		.uleb128 0xb
 18165 055c 3B       		.uleb128 0x3b
 18166 055d 0B       		.uleb128 0xb
 18167 055e 27       		.uleb128 0x27
 18168 055f 19       		.uleb128 0x19
 18169 0560 49       		.uleb128 0x49
 18170 0561 13       		.uleb128 0x13
 18171 0562 20       		.uleb128 0x20
 18172 0563 0B       		.uleb128 0xb
 18173 0564 00       		.byte	0
 18174 0565 00       		.byte	0
 18175 0566 62       		.uleb128 0x62
 18176 0567 2E       		.uleb128 0x2e
 18177 0568 00       		.byte	0
 18178 0569 03       		.uleb128 0x3
 18179 056a 0E       		.uleb128 0xe
 18180 056b 3A       		.uleb128 0x3a
 18181 056c 0B       		.uleb128 0xb
 18182 056d 3B       		.uleb128 0x3b
 18183 056e 05       		.uleb128 0x5
 18184 056f 27       		.uleb128 0x27
 18185 0570 19       		.uleb128 0x19
 18186 0571 20       		.uleb128 0x20
 18187 0572 0B       		.uleb128 0xb
 18188 0573 00       		.byte	0
 18189 0574 00       		.byte	0
 18190 0575 63       		.uleb128 0x63
 18191 0576 2E       		.uleb128 0x2e
 18192 0577 01       		.byte	0x1
 18193 0578 31       		.uleb128 0x31
 18194 0579 13       		.uleb128 0x13
 18195 057a 11       		.uleb128 0x11
 18196 057b 01       		.uleb128 0x1
 18197 057c 12       		.uleb128 0x12
 18198 057d 06       		.uleb128 0x6
 18199 057e 40       		.uleb128 0x40
 18200 057f 18       		.uleb128 0x18
 18201 0580 9742     		.uleb128 0x2117
 18202 0582 19       		.uleb128 0x19
 18203 0583 01       		.uleb128 0x1
 18204 0584 13       		.uleb128 0x13
 18205 0585 00       		.byte	0
ARM GAS  C:\Users\CHRIST~1\AppData\Local\Temp\ccb3oWGE.s 			page 322


 18206 0586 00       		.byte	0
 18207 0587 64       		.uleb128 0x64
 18208 0588 0B       		.uleb128 0xb
 18209 0589 01       		.byte	0x1
 18210 058a 31       		.uleb128 0x31
 18211 058b 13       		.uleb128 0x13
 18212 058c 11       		.uleb128 0x11
 18213 058d 01       		.uleb128 0x1
 18214 058e 12       		.uleb128 0x12
 18215 058f 06       		.uleb128 0x6
 18216 0590 01       		.uleb128 0x1
 18217 0591 13       		.uleb128 0x13
 18218 0592 00       		.byte	0
 18219 0593 00       		.byte	0
 18220 0594 65       		.uleb128 0x65
 18221 0595 34       		.uleb128 0x34
 18222 0596 00       		.byte	0
 18223 0597 31       		.uleb128 0x31
 18224 0598 13       		.uleb128 0x13
 18225 0599 02       		.uleb128 0x2
 18226 059a 18       		.uleb128 0x18
 18227 059b 00       		.byte	0
 18228 059c 00       		.byte	0
 18229 059d 66       		.uleb128 0x66
 18230 059e 34       		.uleb128 0x34
 18231 059f 00       		.byte	0
 18232 05a0 31       		.uleb128 0x31
 18233 05a1 13       		.uleb128 0x13
 18234 05a2 02       		.uleb128 0x2
 18235 05a3 17       		.uleb128 0x17
 18236 05a4 00       		.byte	0
 18237 05a5 00       		.byte	0
 18238 05a6 67       		.uleb128 0x67
 18239 05a7 0B       		.uleb128 0xb
 18240 05a8 01       		.byte	0x1
 18241 05a9 31       		.uleb128 0x31
 18242 05aa 13       		.uleb128 0x13
 18243 05ab 55       		.uleb128 0x55
 18244 05ac 17       		.uleb128 0x17
 18245 05ad 01       		.uleb128 0x1
 18246 05ae 13       		.uleb128 0x13
 18247 05af 00       		.byte	0
 18248 05b0 00       		.byte	0
 18249 05b1 68       		.uleb128 0x68
 18250 05b2 2E       		.uleb128 0x2e
 18251 05b3 00       		.byte	0
 18252 05b4 31       		.uleb128 0x31
 18253 05b5 13       		.uleb128 0x13
 18254 05b6 11       		.uleb128 0x11
 18255 05b7 01       		.uleb128 0x1
 18256 05b8 12       		.uleb128 0x12
 18257 05b9 06       		.uleb128 0x6
 18258 05ba 40       		.uleb128 0x40
 18259 05bb 18       		.uleb128 0x18
 18260 05bc 9742     		.uleb128 0x2117
 18261 05be 19       		.uleb128 0x19
 18262 05bf 00       		.byte	0
ARM GAS  C:\Users\CHRIST~1\AppData\Local\Temp\ccb3oWGE.s 			page 323


 18263 05c0 00       		.byte	0
 18264 05c1 69       		.uleb128 0x69
 18265 05c2 2E       		.uleb128 0x2e
 18266 05c3 00       		.byte	0
 18267 05c4 3F       		.uleb128 0x3f
 18268 05c5 19       		.uleb128 0x19
 18269 05c6 3C       		.uleb128 0x3c
 18270 05c7 19       		.uleb128 0x19
 18271 05c8 6E       		.uleb128 0x6e
 18272 05c9 0E       		.uleb128 0xe
 18273 05ca 03       		.uleb128 0x3
 18274 05cb 0E       		.uleb128 0xe
 18275 05cc 3A       		.uleb128 0x3a
 18276 05cd 0B       		.uleb128 0xb
 18277 05ce 3B       		.uleb128 0x3b
 18278 05cf 0B       		.uleb128 0xb
 18279 05d0 00       		.byte	0
 18280 05d1 00       		.byte	0
 18281 05d2 6A       		.uleb128 0x6a
 18282 05d3 2E       		.uleb128 0x2e
 18283 05d4 00       		.byte	0
 18284 05d5 3F       		.uleb128 0x3f
 18285 05d6 19       		.uleb128 0x19
 18286 05d7 3C       		.uleb128 0x3c
 18287 05d8 19       		.uleb128 0x19
 18288 05d9 6E       		.uleb128 0x6e
 18289 05da 0E       		.uleb128 0xe
 18290 05db 03       		.uleb128 0x3
 18291 05dc 0E       		.uleb128 0xe
 18292 05dd 3A       		.uleb128 0x3a
 18293 05de 0B       		.uleb128 0xb
 18294 05df 3B       		.uleb128 0x3b
 18295 05e0 0B       		.uleb128 0xb
 18296 05e1 6E       		.uleb128 0x6e
 18297 05e2 0E       		.uleb128 0xe
 18298 05e3 00       		.byte	0
 18299 05e4 00       		.byte	0
 18300 05e5 6B       		.uleb128 0x6b
 18301 05e6 2E       		.uleb128 0x2e
 18302 05e7 00       		.byte	0
 18303 05e8 3F       		.uleb128 0x3f
 18304 05e9 19       		.uleb128 0x19
 18305 05ea 3C       		.uleb128 0x3c
 18306 05eb 19       		.uleb128 0x19
 18307 05ec 6E       		.uleb128 0x6e
 18308 05ed 0E       		.uleb128 0xe
 18309 05ee 03       		.uleb128 0x3
 18310 05ef 0E       		.uleb128 0xe
 18311 05f0 3A       		.uleb128 0x3a
 18312 05f1 0B       		.uleb128 0xb
 18313 05f2 3B       		.uleb128 0x3b
 18314 05f3 05       		.uleb128 0x5
 18315 05f4 00       		.byte	0
 18316 05f5 00       		.byte	0
 18317 05f6 00       		.byte	0
 18318              		.section	.debug_loc,"",%progbits
 18319              	.Ldebug_loc0:
ARM GAS  C:\Users\CHRIST~1\AppData\Local\Temp\ccb3oWGE.s 			page 324


 18320              	.LLST0:
 18321 0000 00000000 		.4byte	.LVL0
 18322 0004 34000000 		.4byte	.LVL2
 18323 0008 0100     		.2byte	0x1
 18324 000a 50       		.byte	0x50
 18325 000b 34000000 		.4byte	.LVL2
 18326 000f 40020000 		.4byte	.LFE311
 18327 0013 0400     		.2byte	0x4
 18328 0015 F3       		.byte	0xf3
 18329 0016 01       		.uleb128 0x1
 18330 0017 50       		.byte	0x50
 18331 0018 9F       		.byte	0x9f
 18332 0019 00000000 		.4byte	0
 18333 001d 00000000 		.4byte	0
 18334              	.LLST2:
 18335 0021 3A000000 		.4byte	.LVL3
 18336 0025 54000000 		.4byte	.LVL4
 18337 0029 0200     		.2byte	0x2
 18338 002b 30       		.byte	0x30
 18339 002c 9F       		.byte	0x9f
 18340 002d 54000000 		.4byte	.LVL4
 18341 0031 60000000 		.4byte	.LVL5
 18342 0035 0100     		.2byte	0x1
 18343 0037 58       		.byte	0x58
 18344 0038 E0010000 		.4byte	.LVL24
 18345 003c 40020000 		.4byte	.LFE311
 18346 0040 0400     		.2byte	0x4
 18347 0042 0A       		.byte	0xa
 18348 0043 D007     		.2byte	0x7d0
 18349 0045 9F       		.byte	0x9f
 18350 0046 00000000 		.4byte	0
 18351 004a 00000000 		.4byte	0
 18352              	.LLST3:
 18353 004e 3A000000 		.4byte	.LVL3
 18354 0052 60000000 		.4byte	.LVL5
 18355 0056 0200     		.2byte	0x2
 18356 0058 30       		.byte	0x30
 18357 0059 9F       		.byte	0x9f
 18358 005a E0010000 		.4byte	.LVL24
 18359 005e F0010000 		.4byte	.LVL25
 18360 0062 0200     		.2byte	0x2
 18361 0064 30       		.byte	0x30
 18362 0065 9F       		.byte	0x9f
 18363 0066 F0010000 		.4byte	.LVL25
 18364 006a 40020000 		.4byte	.LFE311
 18365 006e 0100     		.2byte	0x1
 18366 0070 59       		.byte	0x59
 18367 0071 00000000 		.4byte	0
 18368 0075 00000000 		.4byte	0
 18369              	.LLST4:
 18370 0079 54000000 		.4byte	.LVL4
 18371 007d 68000000 		.4byte	.LVL6
 18372 0081 0200     		.2byte	0x2
 18373 0083 30       		.byte	0x30
 18374 0084 9F       		.byte	0x9f
 18375 0085 68000000 		.4byte	.LVL6
 18376 0089 D8000000 		.4byte	.LVL11
ARM GAS  C:\Users\CHRIST~1\AppData\Local\Temp\ccb3oWGE.s 			page 325


 18377 008d 0100     		.2byte	0x1
 18378 008f 57       		.byte	0x57
 18379 0090 D8000000 		.4byte	.LVL11
 18380 0094 C0010000 		.4byte	.LVL20
 18381 0098 0300     		.2byte	0x3
 18382 009a 77       		.byte	0x77
 18383 009b 7F       		.sleb128 -1
 18384 009c 9F       		.byte	0x9f
 18385 009d C0010000 		.4byte	.LVL20
 18386 00a1 E0010000 		.4byte	.LVL24
 18387 00a5 0100     		.2byte	0x1
 18388 00a7 57       		.byte	0x57
 18389 00a8 F0010000 		.4byte	.LVL25
 18390 00ac 40020000 		.4byte	.LFE311
 18391 00b0 0200     		.2byte	0x2
 18392 00b2 30       		.byte	0x30
 18393 00b3 9F       		.byte	0x9f
 18394 00b4 00000000 		.4byte	0
 18395 00b8 00000000 		.4byte	0
 18396              	.LLST5:
 18397 00bc 6A000000 		.4byte	.LVL7
 18398 00c0 A0010000 		.4byte	.LVL18
 18399 00c4 0100     		.2byte	0x1
 18400 00c6 54       		.byte	0x54
 18401 00c7 A0010000 		.4byte	.LVL18
 18402 00cb B2010000 		.4byte	.LVL19
 18403 00cf 0900     		.2byte	0x9
 18404 00d1 74       		.byte	0x74
 18405 00d2 00       		.sleb128 0
 18406 00d3 03       		.byte	0x3
 18407 00d4 C8760000 		.4byte	.LANCHOR11
 18408 00d8 1C       		.byte	0x1c
 18409 00d9 9F       		.byte	0x9f
 18410 00da CC010000 		.4byte	.LVL21
 18411 00de D8010000 		.4byte	.LVL22
 18412 00e2 0100     		.2byte	0x1
 18413 00e4 54       		.byte	0x54
 18414 00e5 D8010000 		.4byte	.LVL22
 18415 00e9 DC010000 		.4byte	.LVL23
 18416 00ed 0400     		.2byte	0x4
 18417 00ef 74       		.byte	0x74
 18418 00f0 D00F     		.sleb128 2000
 18419 00f2 9F       		.byte	0x9f
 18420 00f3 DC010000 		.4byte	.LVL23
 18421 00f7 E0010000 		.4byte	.LVL24
 18422 00fb 0100     		.2byte	0x1
 18423 00fd 54       		.byte	0x54
 18424 00fe 00000000 		.4byte	0
 18425 0102 00000000 		.4byte	0
 18426              	.LLST1:
 18427 0106 00000000 		.4byte	.LVL0
 18428 010a 30000000 		.4byte	.LVL1
 18429 010e 0600     		.2byte	0x6
 18430 0110 03       		.byte	0x3
 18431 0111 00000000 		.4byte	.LC0
 18432 0115 9F       		.byte	0x9f
 18433 0116 00000000 		.4byte	0
ARM GAS  C:\Users\CHRIST~1\AppData\Local\Temp\ccb3oWGE.s 			page 326


 18434 011a 00000000 		.4byte	0
 18435              	.LLST46:
 18436 011e 00000000 		.4byte	.LVL251
 18437 0122 14000000 		.4byte	.LVL252
 18438 0126 0100     		.2byte	0x1
 18439 0128 50       		.byte	0x50
 18440 0129 14000000 		.4byte	.LVL252
 18441 012d 48000000 		.4byte	.LFE310
 18442 0131 0400     		.2byte	0x4
 18443 0133 F3       		.byte	0xf3
 18444 0134 01       		.uleb128 0x1
 18445 0135 50       		.byte	0x50
 18446 0136 9F       		.byte	0x9f
 18447 0137 00000000 		.4byte	0
 18448 013b 00000000 		.4byte	0
 18449              	.LLST70:
 18450 013f 30000000 		.4byte	.LVL366
 18451 0143 9E010000 		.4byte	.LVL385
 18452 0147 0200     		.2byte	0x2
 18453 0149 90       		.byte	0x90
 18454 014a 50       		.uleb128 0x50
 18455 014b E0010000 		.4byte	.LVL387
 18456 014f 64020000 		.4byte	.LVL390
 18457 0153 0200     		.2byte	0x2
 18458 0155 90       		.byte	0x90
 18459 0156 50       		.uleb128 0x50
 18460 0157 A8030000 		.4byte	.LVL402
 18461 015b 02040000 		.4byte	.LVL408
 18462 015f 0200     		.2byte	0x2
 18463 0161 90       		.byte	0x90
 18464 0162 50       		.uleb128 0x50
 18465 0163 9A040000 		.4byte	.LVL425
 18466 0167 B6040000 		.4byte	.LVL433
 18467 016b 0200     		.2byte	0x2
 18468 016d 90       		.byte	0x90
 18469 016e 50       		.uleb128 0x50
 18470 016f 00000000 		.4byte	0
 18471 0173 00000000 		.4byte	0
 18472              	.LLST71:
 18473 0177 78000000 		.4byte	.LVL370
 18474 017b 7B000000 		.4byte	.LVL371-1
 18475 017f 0200     		.2byte	0x2
 18476 0181 90       		.byte	0x90
 18477 0182 40       		.uleb128 0x40
 18478 0183 7B000000 		.4byte	.LVL371-1
 18479 0187 4E010000 		.4byte	.LVL383
 18480 018b 0200     		.2byte	0x2
 18481 018d 90       		.byte	0x90
 18482 018e 51       		.uleb128 0x51
 18483 018f E0010000 		.4byte	.LVL387
 18484 0193 64020000 		.4byte	.LVL390
 18485 0197 0200     		.2byte	0x2
 18486 0199 90       		.byte	0x90
 18487 019a 51       		.uleb128 0x51
 18488 019b A8030000 		.4byte	.LVL402
 18489 019f C4030000 		.4byte	.LVL405
 18490 01a3 0200     		.2byte	0x2
ARM GAS  C:\Users\CHRIST~1\AppData\Local\Temp\ccb3oWGE.s 			page 327


 18491 01a5 90       		.byte	0x90
 18492 01a6 51       		.uleb128 0x51
 18493 01a7 9A040000 		.4byte	.LVL425
 18494 01ab B0040000 		.4byte	.LVL431
 18495 01af 0200     		.2byte	0x2
 18496 01b1 90       		.byte	0x90
 18497 01b2 51       		.uleb128 0x51
 18498 01b3 00000000 		.4byte	0
 18499 01b7 00000000 		.4byte	0
 18500              	.LLST72:
 18501 01bb A0000000 		.4byte	.LVL372
 18502 01bf BF000000 		.4byte	.LVL373-1
 18503 01c3 0200     		.2byte	0x2
 18504 01c5 90       		.byte	0x90
 18505 01c6 40       		.uleb128 0x40
 18506 01c7 BF000000 		.4byte	.LVL373-1
 18507 01cb C4030000 		.4byte	.LVL405
 18508 01cf 0200     		.2byte	0x2
 18509 01d1 90       		.byte	0x90
 18510 01d2 53       		.uleb128 0x53
 18511 01d3 02040000 		.4byte	.LVL408
 18512 01d7 B0040000 		.4byte	.LVL431
 18513 01db 0200     		.2byte	0x2
 18514 01dd 90       		.byte	0x90
 18515 01de 53       		.uleb128 0x53
 18516 01df B6040000 		.4byte	.LVL433
 18517 01e3 10070000 		.4byte	.LFE307
 18518 01e7 0200     		.2byte	0x2
 18519 01e9 90       		.byte	0x90
 18520 01ea 53       		.uleb128 0x53
 18521 01eb 00000000 		.4byte	0
 18522 01ef 00000000 		.4byte	0
 18523              	.LLST73:
 18524 01f3 08010000 		.4byte	.LVL376
 18525 01f7 10010000 		.4byte	.LVL377
 18526 01fb 0200     		.2byte	0x2
 18527 01fd 90       		.byte	0x90
 18528 01fe 40       		.uleb128 0x40
 18529 01ff 10010000 		.4byte	.LVL377
 18530 0203 34010000 		.4byte	.LVL380
 18531 0207 0200     		.2byte	0x2
 18532 0209 90       		.byte	0x90
 18533 020a 52       		.uleb128 0x52
 18534 020b A8030000 		.4byte	.LVL402
 18535 020f AC030000 		.4byte	.LVL403
 18536 0213 0200     		.2byte	0x2
 18537 0215 90       		.byte	0x90
 18538 0216 52       		.uleb128 0x52
 18539 0217 A2040000 		.4byte	.LVL427
 18540 021b A5040000 		.4byte	.LVL428-1
 18541 021f 0200     		.2byte	0x2
 18542 0221 90       		.byte	0x90
 18543 0222 40       		.uleb128 0x40
 18544 0223 A5040000 		.4byte	.LVL428-1
 18545 0227 AA040000 		.4byte	.LVL429
 18546 022b 0200     		.2byte	0x2
 18547 022d 90       		.byte	0x90
ARM GAS  C:\Users\CHRIST~1\AppData\Local\Temp\ccb3oWGE.s 			page 328


 18548 022e 52       		.uleb128 0x52
 18549 022f AA040000 		.4byte	.LVL429
 18550 0233 AD040000 		.4byte	.LVL430-1
 18551 0237 0200     		.2byte	0x2
 18552 0239 90       		.byte	0x90
 18553 023a 40       		.uleb128 0x40
 18554 023b AD040000 		.4byte	.LVL430-1
 18555 023f B0040000 		.4byte	.LVL431
 18556 0243 0200     		.2byte	0x2
 18557 0245 90       		.byte	0x90
 18558 0246 52       		.uleb128 0x52
 18559 0247 00000000 		.4byte	0
 18560 024b 00000000 		.4byte	0
 18561              	.LLST74:
 18562 024f 08010000 		.4byte	.LVL376
 18563 0253 10010000 		.4byte	.LVL377
 18564 0257 0200     		.2byte	0x2
 18565 0259 90       		.byte	0x90
 18566 025a 51       		.uleb128 0x51
 18567 025b 10010000 		.4byte	.LVL377
 18568 025f 22010000 		.4byte	.LVL378
 18569 0263 0200     		.2byte	0x2
 18570 0265 90       		.byte	0x90
 18571 0266 40       		.uleb128 0x40
 18572 0267 A8030000 		.4byte	.LVL402
 18573 026b C4030000 		.4byte	.LVL405
 18574 026f 0200     		.2byte	0x2
 18575 0271 90       		.byte	0x90
 18576 0272 40       		.uleb128 0x40
 18577 0273 A2040000 		.4byte	.LVL427
 18578 0277 AE040000 		.4byte	.LVL430
 18579 027b 0200     		.2byte	0x2
 18580 027d 90       		.byte	0x90
 18581 027e 51       		.uleb128 0x51
 18582 027f AE040000 		.4byte	.LVL430
 18583 0283 B0040000 		.4byte	.LVL431
 18584 0287 0200     		.2byte	0x2
 18585 0289 90       		.byte	0x90
 18586 028a 40       		.uleb128 0x40
 18587 028b 00000000 		.4byte	0
 18588 028f 00000000 		.4byte	0
 18589              	.LLST75:
 18590 0293 5E010000 		.4byte	.LVL384
 18591 0297 E0010000 		.4byte	.LVL387
 18592 029b 0200     		.2byte	0x2
 18593 029d 90       		.byte	0x90
 18594 029e 40       		.uleb128 0x40
 18595 029f 64020000 		.4byte	.LVL390
 18596 02a3 86020000 		.4byte	.LVL393
 18597 02a7 0200     		.2byte	0x2
 18598 02a9 90       		.byte	0x90
 18599 02aa 40       		.uleb128 0x40
 18600 02ab 86020000 		.4byte	.LVL393
 18601 02af A4030000 		.4byte	.LVL401
 18602 02b3 0200     		.2byte	0x2
 18603 02b5 90       		.byte	0x90
 18604 02b6 52       		.uleb128 0x52
ARM GAS  C:\Users\CHRIST~1\AppData\Local\Temp\ccb3oWGE.s 			page 329


 18605 02b7 02040000 		.4byte	.LVL408
 18606 02bb 23040000 		.4byte	.LVL413-1
 18607 02bf 0200     		.2byte	0x2
 18608 02c1 90       		.byte	0x90
 18609 02c2 40       		.uleb128 0x40
 18610 02c3 23040000 		.4byte	.LVL413-1
 18611 02c7 6E040000 		.4byte	.LVL420
 18612 02cb 0200     		.2byte	0x2
 18613 02cd 90       		.byte	0x90
 18614 02ce 52       		.uleb128 0x52
 18615 02cf 6E040000 		.4byte	.LVL420
 18616 02d3 93040000 		.4byte	.LVL423-1
 18617 02d7 0200     		.2byte	0x2
 18618 02d9 90       		.byte	0x90
 18619 02da 40       		.uleb128 0x40
 18620 02db 93040000 		.4byte	.LVL423-1
 18621 02df 9A040000 		.4byte	.LVL425
 18622 02e3 0200     		.2byte	0x2
 18623 02e5 90       		.byte	0x90
 18624 02e6 52       		.uleb128 0x52
 18625 02e7 B6040000 		.4byte	.LVL433
 18626 02eb D9040000 		.4byte	.LVL439-1
 18627 02ef 0200     		.2byte	0x2
 18628 02f1 90       		.byte	0x90
 18629 02f2 40       		.uleb128 0x40
 18630 02f3 D9040000 		.4byte	.LVL439-1
 18631 02f7 E2040000 		.4byte	.LVL440
 18632 02fb 0200     		.2byte	0x2
 18633 02fd 90       		.byte	0x90
 18634 02fe 52       		.uleb128 0x52
 18635 02ff E2040000 		.4byte	.LVL440
 18636 0303 10050000 		.4byte	.LVL444
 18637 0307 0200     		.2byte	0x2
 18638 0309 90       		.byte	0x90
 18639 030a 40       		.uleb128 0x40
 18640 030b 10050000 		.4byte	.LVL444
 18641 030f 30050000 		.4byte	.LVL446
 18642 0313 0200     		.2byte	0x2
 18643 0315 90       		.byte	0x90
 18644 0316 52       		.uleb128 0x52
 18645 0317 30050000 		.4byte	.LVL446
 18646 031b 40050000 		.4byte	.LVL449
 18647 031f 0200     		.2byte	0x2
 18648 0321 90       		.byte	0x90
 18649 0322 40       		.uleb128 0x40
 18650 0323 40050000 		.4byte	.LVL449
 18651 0327 AA060000 		.4byte	.LVL456
 18652 032b 0200     		.2byte	0x2
 18653 032d 90       		.byte	0x90
 18654 032e 52       		.uleb128 0x52
 18655 032f AA060000 		.4byte	.LVL456
 18656 0333 B9060000 		.4byte	.LVL458-1
 18657 0337 0200     		.2byte	0x2
 18658 0339 90       		.byte	0x90
 18659 033a 40       		.uleb128 0x40
 18660 033b B9060000 		.4byte	.LVL458-1
 18661 033f C2060000 		.4byte	.LVL460
ARM GAS  C:\Users\CHRIST~1\AppData\Local\Temp\ccb3oWGE.s 			page 330


 18662 0343 0200     		.2byte	0x2
 18663 0345 90       		.byte	0x90
 18664 0346 52       		.uleb128 0x52
 18665 0347 C2060000 		.4byte	.LVL460
 18666 034b D1060000 		.4byte	.LVL462-1
 18667 034f 0200     		.2byte	0x2
 18668 0351 90       		.byte	0x90
 18669 0352 40       		.uleb128 0x40
 18670 0353 D1060000 		.4byte	.LVL462-1
 18671 0357 10070000 		.4byte	.LFE307
 18672 035b 0200     		.2byte	0x2
 18673 035d 90       		.byte	0x90
 18674 035e 52       		.uleb128 0x52
 18675 035f 00000000 		.4byte	0
 18676 0363 00000000 		.4byte	0
 18677              	.LLST76:
 18678 0367 C4010000 		.4byte	.LVL386
 18679 036b E0010000 		.4byte	.LVL387
 18680 036f 0200     		.2byte	0x2
 18681 0371 30       		.byte	0x30
 18682 0372 9F       		.byte	0x9f
 18683 0373 64020000 		.4byte	.LVL390
 18684 0377 94020000 		.4byte	.LVL394
 18685 037b 0200     		.2byte	0x2
 18686 037d 31       		.byte	0x31
 18687 037e 9F       		.byte	0x9f
 18688 037f 02040000 		.4byte	.LVL408
 18689 0383 20040000 		.4byte	.LVL412
 18690 0387 0200     		.2byte	0x2
 18691 0389 31       		.byte	0x31
 18692 038a 9F       		.byte	0x9f
 18693 038b 20040000 		.4byte	.LVL412
 18694 038f 32040000 		.4byte	.LVL414
 18695 0393 0200     		.2byte	0x2
 18696 0395 30       		.byte	0x30
 18697 0396 9F       		.byte	0x9f
 18698 0397 32040000 		.4byte	.LVL414
 18699 039b 42040000 		.4byte	.LVL415
 18700 039f 0200     		.2byte	0x2
 18701 03a1 31       		.byte	0x31
 18702 03a2 9F       		.byte	0x9f
 18703 03a3 66040000 		.4byte	.LVL419
 18704 03a7 6E040000 		.4byte	.LVL420
 18705 03ab 0100     		.2byte	0x1
 18706 03ad 59       		.byte	0x59
 18707 03ae 6E040000 		.4byte	.LVL420
 18708 03b2 9A040000 		.4byte	.LVL425
 18709 03b6 0200     		.2byte	0x2
 18710 03b8 30       		.byte	0x30
 18711 03b9 9F       		.byte	0x9f
 18712 03ba B6040000 		.4byte	.LVL433
 18713 03be E2040000 		.4byte	.LVL440
 18714 03c2 0200     		.2byte	0x2
 18715 03c4 31       		.byte	0x31
 18716 03c5 9F       		.byte	0x9f
 18717 03c6 00050000 		.4byte	.LVL441
 18718 03ca 08050000 		.4byte	.LVL443
ARM GAS  C:\Users\CHRIST~1\AppData\Local\Temp\ccb3oWGE.s 			page 331


 18719 03ce 0200     		.2byte	0x2
 18720 03d0 31       		.byte	0x31
 18721 03d1 9F       		.byte	0x9f
 18722 03d2 08050000 		.4byte	.LVL443
 18723 03d6 30050000 		.4byte	.LVL446
 18724 03da 0200     		.2byte	0x2
 18725 03dc 30       		.byte	0x30
 18726 03dd 9F       		.byte	0x9f
 18727 03de 30050000 		.4byte	.LVL446
 18728 03e2 38050000 		.4byte	.LVL448
 18729 03e6 0200     		.2byte	0x2
 18730 03e8 31       		.byte	0x31
 18731 03e9 9F       		.byte	0x9f
 18732 03ea 38050000 		.4byte	.LVL448
 18733 03ee C0050000 		.4byte	.LVL450
 18734 03f2 0200     		.2byte	0x2
 18735 03f4 30       		.byte	0x30
 18736 03f5 9F       		.byte	0x9f
 18737 03f6 98060000 		.4byte	.LVL455
 18738 03fa 10070000 		.4byte	.LFE307
 18739 03fe 0200     		.2byte	0x2
 18740 0400 30       		.byte	0x30
 18741 0401 9F       		.byte	0x9f
 18742 0402 00000000 		.4byte	0
 18743 0406 00000000 		.4byte	0
 18744              	.LLST84:
 18745 040a 02040000 		.4byte	.LVL408
 18746 040e 16040000 		.4byte	.LVL409
 18747 0412 0300     		.2byte	0x3
 18748 0414 09       		.byte	0x9
 18749 0415 FF       		.byte	0xff
 18750 0416 9F       		.byte	0x9f
 18751 0417 16040000 		.4byte	.LVL409
 18752 041b 18040000 		.4byte	.LVL410
 18753 041f 0600     		.2byte	0x6
 18754 0421 73       		.byte	0x73
 18755 0422 00       		.sleb128 0
 18756 0423 72       		.byte	0x72
 18757 0424 00       		.sleb128 0
 18758 0425 1C       		.byte	0x1c
 18759 0426 9F       		.byte	0x9f
 18760 0427 18040000 		.4byte	.LVL410
 18761 042b 20040000 		.4byte	.LVL412
 18762 042f 0100     		.2byte	0x1
 18763 0431 53       		.byte	0x53
 18764 0432 CA040000 		.4byte	.LVL437
 18765 0436 CE040000 		.4byte	.LVL438
 18766 043a 0300     		.2byte	0x3
 18767 043c 09       		.byte	0x9
 18768 043d FF       		.byte	0xff
 18769 043e 9F       		.byte	0x9f
 18770 043f CE040000 		.4byte	.LVL438
 18771 0443 D9040000 		.4byte	.LVL439-1
 18772 0447 0100     		.2byte	0x1
 18773 0449 53       		.byte	0x53
 18774 044a 00050000 		.4byte	.LVL441
 18775 044e 02050000 		.4byte	.LVL442
ARM GAS  C:\Users\CHRIST~1\AppData\Local\Temp\ccb3oWGE.s 			page 332


 18776 0452 0100     		.2byte	0x1
 18777 0454 53       		.byte	0x53
 18778 0455 00000000 		.4byte	0
 18779 0459 00000000 		.4byte	0
 18780              	.LLST85:
 18781 045d AA060000 		.4byte	.LVL456
 18782 0461 B0060000 		.4byte	.LVL457
 18783 0465 0300     		.2byte	0x3
 18784 0467 08       		.byte	0x8
 18785 0468 20       		.byte	0x20
 18786 0469 9F       		.byte	0x9f
 18787 046a 00000000 		.4byte	0
 18788 046e 00000000 		.4byte	0
 18789              	.LLST86:
 18790 0472 BA060000 		.4byte	.LVL458
 18791 0476 C0060000 		.4byte	.LVL459
 18792 047a 0200     		.2byte	0x2
 18793 047c 30       		.byte	0x30
 18794 047d 9F       		.byte	0x9f
 18795 047e 00000000 		.4byte	0
 18796 0482 00000000 		.4byte	0
 18797              	.LLST79:
 18798 0486 64020000 		.4byte	.LVL390
 18799 048a 76020000 		.4byte	.LVL391
 18800 048e 0300     		.2byte	0x3
 18801 0490 09       		.byte	0x9
 18802 0491 FF       		.byte	0xff
 18803 0492 9F       		.byte	0x9f
 18804 0493 76020000 		.4byte	.LVL391
 18805 0497 82020000 		.4byte	.LVL392
 18806 049b 0100     		.2byte	0x1
 18807 049d 53       		.byte	0x53
 18808 049e B6040000 		.4byte	.LVL433
 18809 04a2 BE040000 		.4byte	.LVL434
 18810 04a6 0300     		.2byte	0x3
 18811 04a8 09       		.byte	0x9
 18812 04a9 FF       		.byte	0xff
 18813 04aa 9F       		.byte	0x9f
 18814 04ab BE040000 		.4byte	.LVL434
 18815 04af C0040000 		.4byte	.LVL435
 18816 04b3 0600     		.2byte	0x6
 18817 04b5 73       		.byte	0x73
 18818 04b6 00       		.sleb128 0
 18819 04b7 72       		.byte	0x72
 18820 04b8 00       		.sleb128 0
 18821 04b9 1C       		.byte	0x1c
 18822 04ba 9F       		.byte	0x9f
 18823 04bb C0040000 		.4byte	.LVL435
 18824 04bf CA040000 		.4byte	.LVL437
 18825 04c3 0100     		.2byte	0x1
 18826 04c5 53       		.byte	0x53
 18827 04c6 30050000 		.4byte	.LVL446
 18828 04ca 32050000 		.4byte	.LVL447
 18829 04ce 0100     		.2byte	0x1
 18830 04d0 53       		.byte	0x53
 18831 04d1 00000000 		.4byte	0
 18832 04d5 00000000 		.4byte	0
ARM GAS  C:\Users\CHRIST~1\AppData\Local\Temp\ccb3oWGE.s 			page 333


 18833              	.LLST80:
 18834 04d9 C2060000 		.4byte	.LVL460
 18835 04dd C8060000 		.4byte	.LVL461
 18836 04e1 0300     		.2byte	0x3
 18837 04e3 08       		.byte	0x8
 18838 04e4 20       		.byte	0x20
 18839 04e5 9F       		.byte	0x9f
 18840 04e6 00000000 		.4byte	0
 18841 04ea 00000000 		.4byte	0
 18842              	.LLST81:
 18843 04ee D2060000 		.4byte	.LVL462
 18844 04f2 D8060000 		.4byte	.LVL463
 18845 04f6 0200     		.2byte	0x2
 18846 04f8 30       		.byte	0x30
 18847 04f9 9F       		.byte	0x9f
 18848 04fa 00000000 		.4byte	0
 18849 04fe 00000000 		.4byte	0
 18850              	.LLST82:
 18851 0502 C8020000 		.4byte	.LVL395
 18852 0506 80030000 		.4byte	.LVL399
 18853 050a 0100     		.2byte	0x1
 18854 050c 54       		.byte	0x54
 18855 050d EA050000 		.4byte	.LVL452
 18856 0511 98060000 		.4byte	.LVL455
 18857 0515 0100     		.2byte	0x1
 18858 0517 54       		.byte	0x54
 18859 0518 00000000 		.4byte	0
 18860 051c 00000000 		.4byte	0
 18861              	.LLST77:
 18862 0520 2C010000 		.4byte	.LVL379
 18863 0524 46010000 		.4byte	.LVL381
 18864 0528 0200     		.2byte	0x2
 18865 052a 34       		.byte	0x34
 18866 052b 9F       		.byte	0x9f
 18867 052c E0010000 		.4byte	.LVL387
 18868 0530 E6010000 		.4byte	.LVL388
 18869 0534 0200     		.2byte	0x2
 18870 0536 34       		.byte	0x34
 18871 0537 9F       		.byte	0x9f
 18872 0538 B8030000 		.4byte	.LVL404
 18873 053c C4030000 		.4byte	.LVL405
 18874 0540 0200     		.2byte	0x2
 18875 0542 34       		.byte	0x34
 18876 0543 9F       		.byte	0x9f
 18877 0544 00000000 		.4byte	0
 18878 0548 00000000 		.4byte	0
 18879              	.LLST78:
 18880 054c EE010000 		.4byte	.LVL389
 18881 0550 64020000 		.4byte	.LVL390
 18882 0554 0200     		.2byte	0x2
 18883 0556 33       		.byte	0x33
 18884 0557 9F       		.byte	0x9f
 18885 0558 9A040000 		.4byte	.LVL425
 18886 055c A2040000 		.4byte	.LVL427
 18887 0560 0200     		.2byte	0x2
 18888 0562 33       		.byte	0x33
 18889 0563 9F       		.byte	0x9f
ARM GAS  C:\Users\CHRIST~1\AppData\Local\Temp\ccb3oWGE.s 			page 334


 18890 0564 00000000 		.4byte	0
 18891 0568 00000000 		.4byte	0
 18892              	.LLST83:
 18893 056c DA030000 		.4byte	.LVL406
 18894 0570 E9030000 		.4byte	.LVL407-1
 18895 0574 0100     		.2byte	0x1
 18896 0576 50       		.byte	0x50
 18897 0577 B0040000 		.4byte	.LVL431
 18898 057b B3040000 		.4byte	.LVL432-1
 18899 057f 0100     		.2byte	0x1
 18900 0581 50       		.byte	0x50
 18901 0582 00000000 		.4byte	0
 18902 0586 00000000 		.4byte	0
 18903              	.LLST87:
 18904 058a 54040000 		.4byte	.LVL416
 18905 058e 58040000 		.4byte	.LVL417
 18906 0592 0300     		.2byte	0x3
 18907 0594 08       		.byte	0x8
 18908 0595 20       		.byte	0x20
 18909 0596 9F       		.byte	0x9f
 18910 0597 00000000 		.4byte	0
 18911 059b 00000000 		.4byte	0
 18912              	.LLST88:
 18913 059f 62040000 		.4byte	.LVL418
 18914 05a3 66040000 		.4byte	.LVL419
 18915 05a7 0200     		.2byte	0x2
 18916 05a9 30       		.byte	0x30
 18917 05aa 9F       		.byte	0x9f
 18918 05ab 00000000 		.4byte	0
 18919 05af 00000000 		.4byte	0
 18920              	.LLST89:
 18921 05b3 88040000 		.4byte	.LVL421
 18922 05b7 8C040000 		.4byte	.LVL422
 18923 05bb 0300     		.2byte	0x3
 18924 05bd 08       		.byte	0x8
 18925 05be 20       		.byte	0x20
 18926 05bf 9F       		.byte	0x9f
 18927 05c0 00000000 		.4byte	0
 18928 05c4 00000000 		.4byte	0
 18929              	.LLST90:
 18930 05c8 94040000 		.4byte	.LVL423
 18931 05cc 98040000 		.4byte	.LVL424
 18932 05d0 0200     		.2byte	0x2
 18933 05d2 30       		.byte	0x30
 18934 05d3 9F       		.byte	0x9f
 18935 05d4 00000000 		.4byte	0
 18936 05d8 00000000 		.4byte	0
 18937              	.LLST56:
 18938 05dc 0E000000 		.4byte	.LVL284
 18939 05e0 2A000000 		.4byte	.LVL287
 18940 05e4 0100     		.2byte	0x1
 18941 05e6 54       		.byte	0x54
 18942 05e7 2A000000 		.4byte	.LVL287
 18943 05eb 2C000000 		.4byte	.LVL288
 18944 05ef 0200     		.2byte	0x2
 18945 05f1 31       		.byte	0x31
 18946 05f2 9F       		.byte	0x9f
ARM GAS  C:\Users\CHRIST~1\AppData\Local\Temp\ccb3oWGE.s 			page 335


 18947 05f3 30000000 		.4byte	.LVL289
 18948 05f7 4C000000 		.4byte	.LVL292
 18949 05fb 0100     		.2byte	0x1
 18950 05fd 54       		.byte	0x54
 18951 05fe 4C000000 		.4byte	.LVL292
 18952 0602 50000000 		.4byte	.LVL293
 18953 0606 0200     		.2byte	0x2
 18954 0608 31       		.byte	0x31
 18955 0609 9F       		.byte	0x9f
 18956 060a 5C000000 		.4byte	.LVL295
 18957 060e 5E000000 		.4byte	.LVL296
 18958 0612 0400     		.2byte	0x4
 18959 0614 0A       		.byte	0xa
 18960 0615 F401     		.2byte	0x1f4
 18961 0617 9F       		.byte	0x9f
 18962 0618 5E000000 		.4byte	.LVL296
 18963 061c 74000000 		.4byte	.LFE305
 18964 0620 0100     		.2byte	0x1
 18965 0622 54       		.byte	0x54
 18966 0623 00000000 		.4byte	0
 18967 0627 00000000 		.4byte	0
 18968              	.LLST53:
 18969 062b 00000000 		.4byte	.LVL278
 18970 062f 34000000 		.4byte	.LVL281
 18971 0633 0100     		.2byte	0x1
 18972 0635 50       		.byte	0x50
 18973 0636 34000000 		.4byte	.LVL281
 18974 063a 50000000 		.4byte	.LFE302
 18975 063e 0400     		.2byte	0x4
 18976 0640 F3       		.byte	0xf3
 18977 0641 01       		.uleb128 0x1
 18978 0642 50       		.byte	0x50
 18979 0643 9F       		.byte	0x9f
 18980 0644 00000000 		.4byte	0
 18981 0648 00000000 		.4byte	0
 18982              	.LLST54:
 18983 064c 00000000 		.4byte	.LVL278
 18984 0650 0A000000 		.4byte	.LVL279
 18985 0654 0100     		.2byte	0x1
 18986 0656 51       		.byte	0x51
 18987 0657 0A000000 		.4byte	.LVL279
 18988 065b 32000000 		.4byte	.LVL280
 18989 065f 0100     		.2byte	0x1
 18990 0661 51       		.byte	0x51
 18991 0662 00000000 		.4byte	0
 18992 0666 00000000 		.4byte	0
 18993              	.LLST55:
 18994 066a 00000000 		.4byte	.LVL278
 18995 066e 37000000 		.4byte	.LVL282-1
 18996 0672 0100     		.2byte	0x1
 18997 0674 52       		.byte	0x52
 18998 0675 37000000 		.4byte	.LVL282-1
 18999 0679 50000000 		.4byte	.LFE302
 19000 067d 0400     		.2byte	0x4
 19001 067f F3       		.byte	0xf3
 19002 0680 01       		.uleb128 0x1
 19003 0681 52       		.byte	0x52
ARM GAS  C:\Users\CHRIST~1\AppData\Local\Temp\ccb3oWGE.s 			page 336


 19004 0682 9F       		.byte	0x9f
 19005 0683 00000000 		.4byte	0
 19006 0687 00000000 		.4byte	0
 19007              	.LLST52:
 19008 068b 00000000 		.4byte	.LVL271
 19009 068f 14000000 		.4byte	.LVL272
 19010 0693 0600     		.2byte	0x6
 19011 0695 9E       		.byte	0x9e
 19012 0696 04       		.uleb128 0x4
 19013 0697 00000000 		.4byte	0
 19014 069b 14000000 		.4byte	.LVL272
 19015 069f 20000000 		.4byte	.LVL273
 19016 06a3 0200     		.2byte	0x2
 19017 06a5 90       		.byte	0x90
 19018 06a6 40       		.uleb128 0x40
 19019 06a7 22000000 		.4byte	.LVL274
 19020 06ab 26000000 		.4byte	.LVL275
 19021 06af 0600     		.2byte	0x6
 19022 06b1 9E       		.byte	0x9e
 19023 06b2 04       		.uleb128 0x4
 19024 06b3 00000000 		.4byte	0
 19025 06b7 26000000 		.4byte	.LVL275
 19026 06bb 28000000 		.4byte	.LVL276
 19027 06bf 0200     		.2byte	0x2
 19028 06c1 90       		.byte	0x90
 19029 06c2 40       		.uleb128 0x40
 19030 06c3 28000000 		.4byte	.LVL276
 19031 06c7 2C000000 		.4byte	.LVL277
 19032 06cb 0600     		.2byte	0x6
 19033 06cd 9E       		.byte	0x9e
 19034 06ce 04       		.uleb128 0x4
 19035 06cf 00000000 		.4byte	0
 19036 06d3 2C000000 		.4byte	.LVL277
 19037 06d7 38000000 		.4byte	.LFE300
 19038 06db 0200     		.2byte	0x2
 19039 06dd 90       		.byte	0x90
 19040 06de 40       		.uleb128 0x40
 19041 06df 00000000 		.4byte	0
 19042 06e3 00000000 		.4byte	0
 19043              	.LLST51:
 19044 06e7 1C000000 		.4byte	.LVL269
 19045 06eb 22000000 		.4byte	.LVL270
 19046 06ef 0200     		.2byte	0x2
 19047 06f1 90       		.byte	0x90
 19048 06f2 40       		.uleb128 0x40
 19049 06f3 22000000 		.4byte	.LVL270
 19050 06f7 30000000 		.4byte	.LFE298
 19051 06fb 0800     		.2byte	0x8
 19052 06fd F5       		.byte	0xf5
 19053 06fe 4E       		.uleb128 0x4e
 19054 06ff 25       		.uleb128 0x25
 19055 0700 F5       		.byte	0xf5
 19056 0701 4F       		.uleb128 0x4f
 19057 0702 25       		.uleb128 0x25
 19058 0703 1B       		.byte	0x1b
 19059 0704 9F       		.byte	0x9f
 19060 0705 00000000 		.4byte	0
ARM GAS  C:\Users\CHRIST~1\AppData\Local\Temp\ccb3oWGE.s 			page 337


 19061 0709 00000000 		.4byte	0
 19062              	.LLST50:
 19063 070d 1C000000 		.4byte	.LVL267
 19064 0711 22000000 		.4byte	.LVL268
 19065 0715 0200     		.2byte	0x2
 19066 0717 90       		.byte	0x90
 19067 0718 40       		.uleb128 0x40
 19068 0719 22000000 		.4byte	.LVL268
 19069 071d 30000000 		.4byte	.LFE297
 19070 0721 0800     		.2byte	0x8
 19071 0723 F5       		.byte	0xf5
 19072 0724 4E       		.uleb128 0x4e
 19073 0725 25       		.uleb128 0x25
 19074 0726 F5       		.byte	0xf5
 19075 0727 4F       		.uleb128 0x4f
 19076 0728 25       		.uleb128 0x25
 19077 0729 1B       		.byte	0x1b
 19078 072a 9F       		.byte	0x9f
 19079 072b 00000000 		.4byte	0
 19080 072f 00000000 		.4byte	0
 19081              	.LLST49:
 19082 0733 0C000000 		.4byte	.LVL265
 19083 0737 14000000 		.4byte	.LVL266
 19084 073b 0800     		.2byte	0x8
 19085 073d F5       		.byte	0xf5
 19086 073e 40       		.uleb128 0x40
 19087 073f 25       		.uleb128 0x25
 19088 0740 F5       		.byte	0xf5
 19089 0741 4F       		.uleb128 0x4f
 19090 0742 25       		.uleb128 0x25
 19091 0743 1B       		.byte	0x1b
 19092 0744 9F       		.byte	0x9f
 19093 0745 14000000 		.4byte	.LVL266
 19094 0749 20000000 		.4byte	.LFE296
 19095 074d 0200     		.2byte	0x2
 19096 074f 90       		.byte	0x90
 19097 0750 40       		.uleb128 0x40
 19098 0751 00000000 		.4byte	0
 19099 0755 00000000 		.4byte	0
 19100              	.LLST48:
 19101 0759 0C000000 		.4byte	.LVL263
 19102 075d 14000000 		.4byte	.LVL264
 19103 0761 0800     		.2byte	0x8
 19104 0763 F5       		.byte	0xf5
 19105 0764 40       		.uleb128 0x40
 19106 0765 25       		.uleb128 0x25
 19107 0766 F5       		.byte	0xf5
 19108 0767 4F       		.uleb128 0x4f
 19109 0768 25       		.uleb128 0x25
 19110 0769 1B       		.byte	0x1b
 19111 076a 9F       		.byte	0x9f
 19112 076b 14000000 		.4byte	.LVL264
 19113 076f 20000000 		.4byte	.LFE295
 19114 0773 0200     		.2byte	0x2
 19115 0775 90       		.byte	0x90
 19116 0776 40       		.uleb128 0x40
 19117 0777 00000000 		.4byte	0
ARM GAS  C:\Users\CHRIST~1\AppData\Local\Temp\ccb3oWGE.s 			page 338


 19118 077b 00000000 		.4byte	0
 19119              	.LLST47:
 19120 077f 00000000 		.4byte	.LVL255
 19121 0783 11000000 		.4byte	.LVL256-1
 19122 0787 0100     		.2byte	0x1
 19123 0789 50       		.byte	0x50
 19124 078a 11000000 		.4byte	.LVL256-1
 19125 078e 12000000 		.4byte	.LVL256
 19126 0792 0400     		.2byte	0x4
 19127 0794 F3       		.byte	0xf3
 19128 0795 01       		.uleb128 0x1
 19129 0796 50       		.byte	0x50
 19130 0797 9F       		.byte	0x9f
 19131 0798 12000000 		.4byte	.LVL256
 19132 079c 14000000 		.4byte	.LVL257
 19133 07a0 0100     		.2byte	0x1
 19134 07a2 50       		.byte	0x50
 19135 07a3 14000000 		.4byte	.LVL257
 19136 07a7 16000000 		.4byte	.LVL258
 19137 07ab 0400     		.2byte	0x4
 19138 07ad F3       		.byte	0xf3
 19139 07ae 01       		.uleb128 0x1
 19140 07af 50       		.byte	0x50
 19141 07b0 9F       		.byte	0x9f
 19142 07b1 16000000 		.4byte	.LVL258
 19143 07b5 19000000 		.4byte	.LVL259-1
 19144 07b9 0100     		.2byte	0x1
 19145 07bb 50       		.byte	0x50
 19146 07bc 19000000 		.4byte	.LVL259-1
 19147 07c0 20000000 		.4byte	.LFE293
 19148 07c4 0400     		.2byte	0x4
 19149 07c6 F3       		.byte	0xf3
 19150 07c7 01       		.uleb128 0x1
 19151 07c8 50       		.byte	0x50
 19152 07c9 9F       		.byte	0x9f
 19153 07ca 00000000 		.4byte	0
 19154 07ce 00000000 		.4byte	0
 19155              	.LLST13:
 19156 07d2 00000000 		.4byte	.LVL102
 19157 07d6 14000000 		.4byte	.LVL103
 19158 07da 0100     		.2byte	0x1
 19159 07dc 50       		.byte	0x50
 19160 07dd 14000000 		.4byte	.LVL103
 19161 07e1 28000000 		.4byte	.LVL104
 19162 07e5 0400     		.2byte	0x4
 19163 07e7 F3       		.byte	0xf3
 19164 07e8 01       		.uleb128 0x1
 19165 07e9 50       		.byte	0x50
 19166 07ea 9F       		.byte	0x9f
 19167 07eb 28000000 		.4byte	.LVL104
 19168 07ef 2B000000 		.4byte	.LVL105-1
 19169 07f3 0100     		.2byte	0x1
 19170 07f5 50       		.byte	0x50
 19171 07f6 2B000000 		.4byte	.LVL105-1
 19172 07fa 36000000 		.4byte	.LVL106
 19173 07fe 0400     		.2byte	0x4
 19174 0800 F3       		.byte	0xf3
ARM GAS  C:\Users\CHRIST~1\AppData\Local\Temp\ccb3oWGE.s 			page 339


 19175 0801 01       		.uleb128 0x1
 19176 0802 50       		.byte	0x50
 19177 0803 9F       		.byte	0x9f
 19178 0804 36000000 		.4byte	.LVL106
 19179 0808 39000000 		.4byte	.LVL107-1
 19180 080c 0100     		.2byte	0x1
 19181 080e 50       		.byte	0x50
 19182 080f 39000000 		.4byte	.LVL107-1
 19183 0813 4C000000 		.4byte	.LFE292
 19184 0817 0400     		.2byte	0x4
 19185 0819 F3       		.byte	0xf3
 19186 081a 01       		.uleb128 0x1
 19187 081b 50       		.byte	0x50
 19188 081c 9F       		.byte	0x9f
 19189 081d 00000000 		.4byte	0
 19190 0821 00000000 		.4byte	0
 19191              	.LLST14:
 19192 0825 00000000 		.4byte	.LVL102
 19193 0829 14000000 		.4byte	.LVL103
 19194 082d 0200     		.2byte	0x2
 19195 082f 30       		.byte	0x30
 19196 0830 9F       		.byte	0x9f
 19197 0831 28000000 		.4byte	.LVL104
 19198 0835 2C000000 		.4byte	.LVL105
 19199 0839 0200     		.2byte	0x2
 19200 083b 30       		.byte	0x30
 19201 083c 9F       		.byte	0x9f
 19202 083d 2C000000 		.4byte	.LVL105
 19203 0841 36000000 		.4byte	.LVL106
 19204 0845 0100     		.2byte	0x1
 19205 0847 50       		.byte	0x50
 19206 0848 36000000 		.4byte	.LVL106
 19207 084c 3A000000 		.4byte	.LVL107
 19208 0850 0200     		.2byte	0x2
 19209 0852 30       		.byte	0x30
 19210 0853 9F       		.byte	0x9f
 19211 0854 3A000000 		.4byte	.LVL107
 19212 0858 4C000000 		.4byte	.LFE292
 19213 085c 0100     		.2byte	0x1
 19214 085e 50       		.byte	0x50
 19215 085f 00000000 		.4byte	0
 19216 0863 00000000 		.4byte	0
 19217              	.LLST12:
 19218 0867 00000000 		.4byte	.LVL89
 19219 086b 14000000 		.4byte	.LVL90
 19220 086f 0600     		.2byte	0x6
 19221 0871 9E       		.byte	0x9e
 19222 0872 04       		.uleb128 0x4
 19223 0873 00000000 		.4byte	0
 19224 0877 14000000 		.4byte	.LVL90
 19225 087b 20000000 		.4byte	.LVL91
 19226 087f 0200     		.2byte	0x2
 19227 0881 90       		.byte	0x90
 19228 0882 40       		.uleb128 0x40
 19229 0883 22000000 		.4byte	.LVL92
 19230 0887 26000000 		.4byte	.LVL93
 19231 088b 0600     		.2byte	0x6
ARM GAS  C:\Users\CHRIST~1\AppData\Local\Temp\ccb3oWGE.s 			page 340


 19232 088d 9E       		.byte	0x9e
 19233 088e 04       		.uleb128 0x4
 19234 088f 00000000 		.4byte	0
 19235 0893 26000000 		.4byte	.LVL93
 19236 0897 28000000 		.4byte	.LVL94
 19237 089b 0200     		.2byte	0x2
 19238 089d 90       		.byte	0x90
 19239 089e 40       		.uleb128 0x40
 19240 089f 28000000 		.4byte	.LVL94
 19241 08a3 2C000000 		.4byte	.LVL95
 19242 08a7 0600     		.2byte	0x6
 19243 08a9 9E       		.byte	0x9e
 19244 08aa 04       		.uleb128 0x4
 19245 08ab 00000000 		.4byte	0
 19246 08af 2C000000 		.4byte	.LVL95
 19247 08b3 38000000 		.4byte	.LFE289
 19248 08b7 0200     		.2byte	0x2
 19249 08b9 90       		.byte	0x90
 19250 08ba 40       		.uleb128 0x40
 19251 08bb 00000000 		.4byte	0
 19252 08bf 00000000 		.4byte	0
 19253              	.LLST11:
 19254 08c3 00000000 		.4byte	.LVL82
 19255 08c7 14000000 		.4byte	.LVL83
 19256 08cb 0600     		.2byte	0x6
 19257 08cd 9E       		.byte	0x9e
 19258 08ce 04       		.uleb128 0x4
 19259 08cf 00000000 		.4byte	0
 19260 08d3 14000000 		.4byte	.LVL83
 19261 08d7 20000000 		.4byte	.LVL84
 19262 08db 0200     		.2byte	0x2
 19263 08dd 90       		.byte	0x90
 19264 08de 40       		.uleb128 0x40
 19265 08df 22000000 		.4byte	.LVL85
 19266 08e3 26000000 		.4byte	.LVL86
 19267 08e7 0600     		.2byte	0x6
 19268 08e9 9E       		.byte	0x9e
 19269 08ea 04       		.uleb128 0x4
 19270 08eb 00000000 		.4byte	0
 19271 08ef 26000000 		.4byte	.LVL86
 19272 08f3 28000000 		.4byte	.LVL87
 19273 08f7 0200     		.2byte	0x2
 19274 08f9 90       		.byte	0x90
 19275 08fa 40       		.uleb128 0x40
 19276 08fb 28000000 		.4byte	.LVL87
 19277 08ff 2C000000 		.4byte	.LVL88
 19278 0903 0600     		.2byte	0x6
 19279 0905 9E       		.byte	0x9e
 19280 0906 04       		.uleb128 0x4
 19281 0907 00000000 		.4byte	0
 19282 090b 2C000000 		.4byte	.LVL88
 19283 090f 38000000 		.4byte	.LFE288
 19284 0913 0200     		.2byte	0x2
 19285 0915 90       		.byte	0x90
 19286 0916 40       		.uleb128 0x40
 19287 0917 00000000 		.4byte	0
 19288 091b 00000000 		.4byte	0
ARM GAS  C:\Users\CHRIST~1\AppData\Local\Temp\ccb3oWGE.s 			page 341


 19289              	.LLST10:
 19290 091f 00000000 		.4byte	.LVL61
 19291 0923 14000000 		.4byte	.LVL62
 19292 0927 0600     		.2byte	0x6
 19293 0929 9E       		.byte	0x9e
 19294 092a 04       		.uleb128 0x4
 19295 092b 00000000 		.4byte	0
 19296 092f 14000000 		.4byte	.LVL62
 19297 0933 20000000 		.4byte	.LVL63
 19298 0937 0200     		.2byte	0x2
 19299 0939 90       		.byte	0x90
 19300 093a 40       		.uleb128 0x40
 19301 093b 22000000 		.4byte	.LVL64
 19302 093f 26000000 		.4byte	.LVL65
 19303 0943 0600     		.2byte	0x6
 19304 0945 9E       		.byte	0x9e
 19305 0946 04       		.uleb128 0x4
 19306 0947 00000000 		.4byte	0
 19307 094b 26000000 		.4byte	.LVL65
 19308 094f 28000000 		.4byte	.LVL66
 19309 0953 0200     		.2byte	0x2
 19310 0955 90       		.byte	0x90
 19311 0956 40       		.uleb128 0x40
 19312 0957 28000000 		.4byte	.LVL66
 19313 095b 2C000000 		.4byte	.LVL67
 19314 095f 0600     		.2byte	0x6
 19315 0961 9E       		.byte	0x9e
 19316 0962 04       		.uleb128 0x4
 19317 0963 00000000 		.4byte	0
 19318 0967 2C000000 		.4byte	.LVL67
 19319 096b 38000000 		.4byte	.LFE281
 19320 096f 0200     		.2byte	0x2
 19321 0971 90       		.byte	0x90
 19322 0972 40       		.uleb128 0x40
 19323 0973 00000000 		.4byte	0
 19324 0977 00000000 		.4byte	0
 19325              	.LLST9:
 19326 097b 00000000 		.4byte	.LVL51
 19327 097f 14000000 		.4byte	.LVL52
 19328 0983 0600     		.2byte	0x6
 19329 0985 9E       		.byte	0x9e
 19330 0986 04       		.uleb128 0x4
 19331 0987 00000000 		.4byte	0
 19332 098b 14000000 		.4byte	.LVL52
 19333 098f 20000000 		.4byte	.LVL53
 19334 0993 0200     		.2byte	0x2
 19335 0995 90       		.byte	0x90
 19336 0996 40       		.uleb128 0x40
 19337 0997 22000000 		.4byte	.LVL54
 19338 099b 26000000 		.4byte	.LVL55
 19339 099f 0600     		.2byte	0x6
 19340 09a1 9E       		.byte	0x9e
 19341 09a2 04       		.uleb128 0x4
 19342 09a3 00000000 		.4byte	0
 19343 09a7 26000000 		.4byte	.LVL55
 19344 09ab 28000000 		.4byte	.LVL56
 19345 09af 0200     		.2byte	0x2
ARM GAS  C:\Users\CHRIST~1\AppData\Local\Temp\ccb3oWGE.s 			page 342


 19346 09b1 90       		.byte	0x90
 19347 09b2 40       		.uleb128 0x40
 19348 09b3 28000000 		.4byte	.LVL56
 19349 09b7 2C000000 		.4byte	.LVL57
 19350 09bb 0600     		.2byte	0x6
 19351 09bd 9E       		.byte	0x9e
 19352 09be 04       		.uleb128 0x4
 19353 09bf 00000000 		.4byte	0
 19354 09c3 2C000000 		.4byte	.LVL57
 19355 09c7 38000000 		.4byte	.LFE279
 19356 09cb 0200     		.2byte	0x2
 19357 09cd 90       		.byte	0x90
 19358 09ce 40       		.uleb128 0x40
 19359 09cf 00000000 		.4byte	0
 19360 09d3 00000000 		.4byte	0
 19361              	.LLST8:
 19362 09d7 00000000 		.4byte	.LVL44
 19363 09db 14000000 		.4byte	.LVL45
 19364 09df 0600     		.2byte	0x6
 19365 09e1 9E       		.byte	0x9e
 19366 09e2 04       		.uleb128 0x4
 19367 09e3 00000000 		.4byte	0
 19368 09e7 14000000 		.4byte	.LVL45
 19369 09eb 20000000 		.4byte	.LVL46
 19370 09ef 0200     		.2byte	0x2
 19371 09f1 90       		.byte	0x90
 19372 09f2 40       		.uleb128 0x40
 19373 09f3 22000000 		.4byte	.LVL47
 19374 09f7 26000000 		.4byte	.LVL48
 19375 09fb 0600     		.2byte	0x6
 19376 09fd 9E       		.byte	0x9e
 19377 09fe 04       		.uleb128 0x4
 19378 09ff 00000000 		.4byte	0
 19379 0a03 26000000 		.4byte	.LVL48
 19380 0a07 28000000 		.4byte	.LVL49
 19381 0a0b 0200     		.2byte	0x2
 19382 0a0d 90       		.byte	0x90
 19383 0a0e 40       		.uleb128 0x40
 19384 0a0f 28000000 		.4byte	.LVL49
 19385 0a13 2C000000 		.4byte	.LVL50
 19386 0a17 0600     		.2byte	0x6
 19387 0a19 9E       		.byte	0x9e
 19388 0a1a 04       		.uleb128 0x4
 19389 0a1b 00000000 		.4byte	0
 19390 0a1f 2C000000 		.4byte	.LVL50
 19391 0a23 38000000 		.4byte	.LFE278
 19392 0a27 0200     		.2byte	0x2
 19393 0a29 90       		.byte	0x90
 19394 0a2a 40       		.uleb128 0x40
 19395 0a2b 00000000 		.4byte	0
 19396 0a2f 00000000 		.4byte	0
 19397              	.LLST68:
 19398 0a33 00000000 		.4byte	.LVL355
 19399 0a37 0D000000 		.4byte	.LVL356-1
 19400 0a3b 0200     		.2byte	0x2
 19401 0a3d 90       		.byte	0x90
 19402 0a3e 40       		.uleb128 0x40
ARM GAS  C:\Users\CHRIST~1\AppData\Local\Temp\ccb3oWGE.s 			page 343


 19403 0a3f 0D000000 		.4byte	.LVL356-1
 19404 0a43 26000000 		.4byte	.LVL357
 19405 0a47 0200     		.2byte	0x2
 19406 0a49 90       		.byte	0x90
 19407 0a4a 50       		.uleb128 0x50
 19408 0a4b 26000000 		.4byte	.LVL357
 19409 0a4f 2D000000 		.4byte	.LVL358-1
 19410 0a53 0200     		.2byte	0x2
 19411 0a55 90       		.byte	0x90
 19412 0a56 40       		.uleb128 0x40
 19413 0a57 2D000000 		.4byte	.LVL358-1
 19414 0a5b 2E000000 		.4byte	.LVL358
 19415 0a5f 0600     		.2byte	0x6
 19416 0a61 F3       		.byte	0xf3
 19417 0a62 03       		.uleb128 0x3
 19418 0a63 F5       		.byte	0xf5
 19419 0a64 40       		.uleb128 0x40
 19420 0a65 25       		.uleb128 0x25
 19421 0a66 9F       		.byte	0x9f
 19422 0a67 2E000000 		.4byte	.LVL358
 19423 0a6b 32000000 		.4byte	.LVL359
 19424 0a6f 0200     		.2byte	0x2
 19425 0a71 90       		.byte	0x90
 19426 0a72 50       		.uleb128 0x50
 19427 0a73 32000000 		.4byte	.LVL359
 19428 0a77 34000000 		.4byte	.LVL360
 19429 0a7b 0600     		.2byte	0x6
 19430 0a7d F3       		.byte	0xf3
 19431 0a7e 03       		.uleb128 0x3
 19432 0a7f F5       		.byte	0xf5
 19433 0a80 40       		.uleb128 0x40
 19434 0a81 25       		.uleb128 0x25
 19435 0a82 9F       		.byte	0x9f
 19436 0a83 34000000 		.4byte	.LVL360
 19437 0a87 3C000000 		.4byte	.LVL361
 19438 0a8b 0200     		.2byte	0x2
 19439 0a8d 90       		.byte	0x90
 19440 0a8e 50       		.uleb128 0x50
 19441 0a8f 3C000000 		.4byte	.LVL361
 19442 0a93 43000000 		.4byte	.LVL362-1
 19443 0a97 0200     		.2byte	0x2
 19444 0a99 90       		.byte	0x90
 19445 0a9a 40       		.uleb128 0x40
 19446 0a9b 43000000 		.4byte	.LVL362-1
 19447 0a9f 48000000 		.4byte	.LFE275
 19448 0aa3 0600     		.2byte	0x6
 19449 0aa5 F3       		.byte	0xf3
 19450 0aa6 03       		.uleb128 0x3
 19451 0aa7 F5       		.byte	0xf5
 19452 0aa8 40       		.uleb128 0x40
 19453 0aa9 25       		.uleb128 0x25
 19454 0aaa 9F       		.byte	0x9f
 19455 0aab 00000000 		.4byte	0
 19456 0aaf 00000000 		.4byte	0
 19457              	.LLST67:
 19458 0ab3 00000000 		.4byte	.LVL352
 19459 0ab7 0A000000 		.4byte	.LVL353
ARM GAS  C:\Users\CHRIST~1\AppData\Local\Temp\ccb3oWGE.s 			page 344


 19460 0abb 0200     		.2byte	0x2
 19461 0abd 90       		.byte	0x90
 19462 0abe 40       		.uleb128 0x40
 19463 0abf 0A000000 		.4byte	.LVL353
 19464 0ac3 14000000 		.4byte	.LFE274
 19465 0ac7 0600     		.2byte	0x6
 19466 0ac9 F3       		.byte	0xf3
 19467 0aca 03       		.uleb128 0x3
 19468 0acb F5       		.byte	0xf5
 19469 0acc 40       		.uleb128 0x40
 19470 0acd 25       		.uleb128 0x25
 19471 0ace 9F       		.byte	0x9f
 19472 0acf 00000000 		.4byte	0
 19473 0ad3 00000000 		.4byte	0
 19474              	.LLST64:
 19475 0ad7 00000000 		.4byte	.LVL338
 19476 0adb 14000000 		.4byte	.LVL339
 19477 0adf 0200     		.2byte	0x2
 19478 0ae1 90       		.byte	0x90
 19479 0ae2 40       		.uleb128 0x40
 19480 0ae3 14000000 		.4byte	.LVL339
 19481 0ae7 18000000 		.4byte	.LVL340
 19482 0aeb 0600     		.2byte	0x6
 19483 0aed F3       		.byte	0xf3
 19484 0aee 03       		.uleb128 0x3
 19485 0aef F5       		.byte	0xf5
 19486 0af0 40       		.uleb128 0x40
 19487 0af1 25       		.uleb128 0x25
 19488 0af2 9F       		.byte	0x9f
 19489 0af3 18000000 		.4byte	.LVL340
 19490 0af7 24000000 		.4byte	.LVL341
 19491 0afb 0200     		.2byte	0x2
 19492 0afd 90       		.byte	0x90
 19493 0afe 40       		.uleb128 0x40
 19494 0aff 24000000 		.4byte	.LVL341
 19495 0b03 2C000000 		.4byte	.LFE273
 19496 0b07 0600     		.2byte	0x6
 19497 0b09 F3       		.byte	0xf3
 19498 0b0a 03       		.uleb128 0x3
 19499 0b0b F5       		.byte	0xf5
 19500 0b0c 40       		.uleb128 0x40
 19501 0b0d 25       		.uleb128 0x25
 19502 0b0e 9F       		.byte	0x9f
 19503 0b0f 00000000 		.4byte	0
 19504 0b13 00000000 		.4byte	0
 19505              	.LLST61:
 19506 0b17 00000000 		.4byte	.LVL322
 19507 0b1b 0D000000 		.4byte	.LVL323-1
 19508 0b1f 0200     		.2byte	0x2
 19509 0b21 90       		.byte	0x90
 19510 0b22 40       		.uleb128 0x40
 19511 0b23 0D000000 		.4byte	.LVL323-1
 19512 0b27 28000000 		.4byte	.LVL324
 19513 0b2b 0200     		.2byte	0x2
 19514 0b2d 90       		.byte	0x90
 19515 0b2e 50       		.uleb128 0x50
 19516 0b2f 28000000 		.4byte	.LVL324
ARM GAS  C:\Users\CHRIST~1\AppData\Local\Temp\ccb3oWGE.s 			page 345


 19517 0b33 4B000000 		.4byte	.LVL325-1
 19518 0b37 0500     		.2byte	0x5
 19519 0b39 03       		.byte	0x3
 19520 0b3a 00000000 		.4byte	m_position_set
 19521 0b3e 4B000000 		.4byte	.LVL325-1
 19522 0b42 4C000000 		.4byte	.LVL325
 19523 0b46 0600     		.2byte	0x6
 19524 0b48 F3       		.byte	0xf3
 19525 0b49 03       		.uleb128 0x3
 19526 0b4a F5       		.byte	0xf5
 19527 0b4b 40       		.uleb128 0x40
 19528 0b4c 25       		.uleb128 0x25
 19529 0b4d 9F       		.byte	0x9f
 19530 0b4e 4C000000 		.4byte	.LVL325
 19531 0b52 50000000 		.4byte	.LVL326
 19532 0b56 0200     		.2byte	0x2
 19533 0b58 90       		.byte	0x90
 19534 0b59 50       		.uleb128 0x50
 19535 0b5a 50000000 		.4byte	.LVL326
 19536 0b5e 52000000 		.4byte	.LVL327
 19537 0b62 0600     		.2byte	0x6
 19538 0b64 F3       		.byte	0xf3
 19539 0b65 03       		.uleb128 0x3
 19540 0b66 F5       		.byte	0xf5
 19541 0b67 40       		.uleb128 0x40
 19542 0b68 25       		.uleb128 0x25
 19543 0b69 9F       		.byte	0x9f
 19544 0b6a 52000000 		.4byte	.LVL327
 19545 0b6e 56000000 		.4byte	.LVL328
 19546 0b72 0200     		.2byte	0x2
 19547 0b74 90       		.byte	0x90
 19548 0b75 50       		.uleb128 0x50
 19549 0b76 56000000 		.4byte	.LVL328
 19550 0b7a 79000000 		.4byte	.LVL329-1
 19551 0b7e 0500     		.2byte	0x5
 19552 0b80 03       		.byte	0x3
 19553 0b81 00000000 		.4byte	m_position_set
 19554 0b85 79000000 		.4byte	.LVL329-1
 19555 0b89 84000000 		.4byte	.LFE270
 19556 0b8d 0600     		.2byte	0x6
 19557 0b8f F3       		.byte	0xf3
 19558 0b90 03       		.uleb128 0x3
 19559 0b91 F5       		.byte	0xf5
 19560 0b92 40       		.uleb128 0x40
 19561 0b93 25       		.uleb128 0x25
 19562 0b94 9F       		.byte	0x9f
 19563 0b95 00000000 		.4byte	0
 19564 0b99 00000000 		.4byte	0
 19565              	.LLST60:
 19566 0b9d 00000000 		.4byte	.LVL314
 19567 0ba1 0D000000 		.4byte	.LVL315-1
 19568 0ba5 0200     		.2byte	0x2
 19569 0ba7 90       		.byte	0x90
 19570 0ba8 40       		.uleb128 0x40
 19571 0ba9 0D000000 		.4byte	.LVL315-1
 19572 0bad 28000000 		.4byte	.LVL316
 19573 0bb1 0200     		.2byte	0x2
ARM GAS  C:\Users\CHRIST~1\AppData\Local\Temp\ccb3oWGE.s 			page 346


 19574 0bb3 90       		.byte	0x90
 19575 0bb4 50       		.uleb128 0x50
 19576 0bb5 28000000 		.4byte	.LVL316
 19577 0bb9 38000000 		.4byte	.LVL317
 19578 0bbd 0600     		.2byte	0x6
 19579 0bbf F3       		.byte	0xf3
 19580 0bc0 03       		.uleb128 0x3
 19581 0bc1 F5       		.byte	0xf5
 19582 0bc2 40       		.uleb128 0x40
 19583 0bc3 25       		.uleb128 0x25
 19584 0bc4 9F       		.byte	0x9f
 19585 0bc5 38000000 		.4byte	.LVL317
 19586 0bc9 3C000000 		.4byte	.LVL318
 19587 0bcd 0200     		.2byte	0x2
 19588 0bcf 90       		.byte	0x90
 19589 0bd0 50       		.uleb128 0x50
 19590 0bd1 3C000000 		.4byte	.LVL318
 19591 0bd5 3E000000 		.4byte	.LVL319
 19592 0bd9 0600     		.2byte	0x6
 19593 0bdb F3       		.byte	0xf3
 19594 0bdc 03       		.uleb128 0x3
 19595 0bdd F5       		.byte	0xf5
 19596 0bde 40       		.uleb128 0x40
 19597 0bdf 25       		.uleb128 0x25
 19598 0be0 9F       		.byte	0x9f
 19599 0be1 3E000000 		.4byte	.LVL319
 19600 0be5 48000000 		.4byte	.LVL320
 19601 0be9 0200     		.2byte	0x2
 19602 0beb 90       		.byte	0x90
 19603 0bec 50       		.uleb128 0x50
 19604 0bed 48000000 		.4byte	.LVL320
 19605 0bf1 5C000000 		.4byte	.LFE269
 19606 0bf5 0600     		.2byte	0x6
 19607 0bf7 F3       		.byte	0xf3
 19608 0bf8 03       		.uleb128 0x3
 19609 0bf9 F5       		.byte	0xf5
 19610 0bfa 40       		.uleb128 0x40
 19611 0bfb 25       		.uleb128 0x25
 19612 0bfc 9F       		.byte	0x9f
 19613 0bfd 00000000 		.4byte	0
 19614 0c01 00000000 		.4byte	0
 19615              	.LLST59:
 19616 0c05 00000000 		.4byte	.LVL306
 19617 0c09 0D000000 		.4byte	.LVL307-1
 19618 0c0d 0200     		.2byte	0x2
 19619 0c0f 90       		.byte	0x90
 19620 0c10 40       		.uleb128 0x40
 19621 0c11 0D000000 		.4byte	.LVL307-1
 19622 0c15 28000000 		.4byte	.LVL308
 19623 0c19 0200     		.2byte	0x2
 19624 0c1b 90       		.byte	0x90
 19625 0c1c 50       		.uleb128 0x50
 19626 0c1d 28000000 		.4byte	.LVL308
 19627 0c21 38000000 		.4byte	.LVL309
 19628 0c25 0600     		.2byte	0x6
 19629 0c27 F3       		.byte	0xf3
 19630 0c28 03       		.uleb128 0x3
ARM GAS  C:\Users\CHRIST~1\AppData\Local\Temp\ccb3oWGE.s 			page 347


 19631 0c29 F5       		.byte	0xf5
 19632 0c2a 40       		.uleb128 0x40
 19633 0c2b 25       		.uleb128 0x25
 19634 0c2c 9F       		.byte	0x9f
 19635 0c2d 38000000 		.4byte	.LVL309
 19636 0c31 3C000000 		.4byte	.LVL310
 19637 0c35 0200     		.2byte	0x2
 19638 0c37 90       		.byte	0x90
 19639 0c38 50       		.uleb128 0x50
 19640 0c39 3C000000 		.4byte	.LVL310
 19641 0c3d 3E000000 		.4byte	.LVL311
 19642 0c41 0600     		.2byte	0x6
 19643 0c43 F3       		.byte	0xf3
 19644 0c44 03       		.uleb128 0x3
 19645 0c45 F5       		.byte	0xf5
 19646 0c46 40       		.uleb128 0x40
 19647 0c47 25       		.uleb128 0x25
 19648 0c48 9F       		.byte	0x9f
 19649 0c49 3E000000 		.4byte	.LVL311
 19650 0c4d 48000000 		.4byte	.LVL312
 19651 0c51 0200     		.2byte	0x2
 19652 0c53 90       		.byte	0x90
 19653 0c54 50       		.uleb128 0x50
 19654 0c55 48000000 		.4byte	.LVL312
 19655 0c59 5C000000 		.4byte	.LFE268
 19656 0c5d 0600     		.2byte	0x6
 19657 0c5f F3       		.byte	0xf3
 19658 0c60 03       		.uleb128 0x3
 19659 0c61 F5       		.byte	0xf5
 19660 0c62 40       		.uleb128 0x40
 19661 0c63 25       		.uleb128 0x25
 19662 0c64 9F       		.byte	0x9f
 19663 0c65 00000000 		.4byte	0
 19664 0c69 00000000 		.4byte	0
 19665              	.LLST7:
 19666 0c6d 00000000 		.4byte	.LVL39
 19667 0c71 0A000000 		.4byte	.LVL40
 19668 0c75 0100     		.2byte	0x1
 19669 0c77 50       		.byte	0x50
 19670 0c78 0A000000 		.4byte	.LVL40
 19671 0c7c 18000000 		.4byte	.LFE265
 19672 0c80 0400     		.2byte	0x4
 19673 0c82 F3       		.byte	0xf3
 19674 0c83 01       		.uleb128 0x1
 19675 0c84 50       		.byte	0x50
 19676 0c85 9F       		.byte	0x9f
 19677 0c86 00000000 		.4byte	0
 19678 0c8a 00000000 		.4byte	0
 19679              	.LLST45:
 19680 0c8e 00000000 		.4byte	.LVL231
 19681 0c92 12000000 		.4byte	.LVL232
 19682 0c96 0100     		.2byte	0x1
 19683 0c98 50       		.byte	0x50
 19684 0c99 12000000 		.4byte	.LVL232
 19685 0c9d 4A000000 		.4byte	.LVL235
 19686 0ca1 0100     		.2byte	0x1
 19687 0ca3 54       		.byte	0x54
ARM GAS  C:\Users\CHRIST~1\AppData\Local\Temp\ccb3oWGE.s 			page 348


 19688 0ca4 4A000000 		.4byte	.LVL235
 19689 0ca8 4E000000 		.4byte	.LVL236
 19690 0cac 0400     		.2byte	0x4
 19691 0cae F3       		.byte	0xf3
 19692 0caf 01       		.uleb128 0x1
 19693 0cb0 50       		.byte	0x50
 19694 0cb1 9F       		.byte	0x9f
 19695 0cb2 4E000000 		.4byte	.LVL236
 19696 0cb6 50000000 		.4byte	.LVL237
 19697 0cba 0100     		.2byte	0x1
 19698 0cbc 54       		.byte	0x54
 19699 0cbd 50000000 		.4byte	.LVL237
 19700 0cc1 53000000 		.4byte	.LVL238-1
 19701 0cc5 0100     		.2byte	0x1
 19702 0cc7 50       		.byte	0x50
 19703 0cc8 53000000 		.4byte	.LVL238-1
 19704 0ccc AE000000 		.4byte	.LVL245
 19705 0cd0 0100     		.2byte	0x1
 19706 0cd2 54       		.byte	0x54
 19707 0cd3 AE000000 		.4byte	.LVL245
 19708 0cd7 B2000000 		.4byte	.LVL246
 19709 0cdb 0400     		.2byte	0x4
 19710 0cdd F3       		.byte	0xf3
 19711 0cde 01       		.uleb128 0x1
 19712 0cdf 50       		.byte	0x50
 19713 0ce0 9F       		.byte	0x9f
 19714 0ce1 B2000000 		.4byte	.LVL246
 19715 0ce5 DC000000 		.4byte	.LFE258
 19716 0ce9 0100     		.2byte	0x1
 19717 0ceb 54       		.byte	0x54
 19718 0cec 00000000 		.4byte	0
 19719 0cf0 00000000 		.4byte	0
 19720              	.LLST6:
 19721 0cf4 00000000 		.4byte	.LVL26
 19722 0cf8 12000000 		.4byte	.LVL27
 19723 0cfc 0100     		.2byte	0x1
 19724 0cfe 50       		.byte	0x50
 19725 0cff 12000000 		.4byte	.LVL27
 19726 0d03 15000000 		.4byte	.LVL28-1
 19727 0d07 0100     		.2byte	0x1
 19728 0d09 51       		.byte	0x51
 19729 0d0a 15000000 		.4byte	.LVL28-1
 19730 0d0e 78010000 		.4byte	.LFE256
 19731 0d12 0400     		.2byte	0x4
 19732 0d14 F3       		.byte	0xf3
 19733 0d15 01       		.uleb128 0x1
 19734 0d16 50       		.byte	0x50
 19735 0d17 9F       		.byte	0x9f
 19736 0d18 00000000 		.4byte	0
 19737 0d1c 00000000 		.4byte	0
 19738              	.LLST15:
 19739 0d20 00000000 		.4byte	.LVL108
 19740 0d24 09000000 		.4byte	.LVL109-1
 19741 0d28 0100     		.2byte	0x1
 19742 0d2a 50       		.byte	0x50
 19743 0d2b 09000000 		.4byte	.LVL109-1
 19744 0d2f 40010000 		.4byte	.LFE315
ARM GAS  C:\Users\CHRIST~1\AppData\Local\Temp\ccb3oWGE.s 			page 349


 19745 0d33 0400     		.2byte	0x4
 19746 0d35 F3       		.byte	0xf3
 19747 0d36 01       		.uleb128 0x1
 19748 0d37 50       		.byte	0x50
 19749 0d38 9F       		.byte	0x9f
 19750 0d39 00000000 		.4byte	0
 19751 0d3d 00000000 		.4byte	0
 19752              	.LLST16:
 19753 0d41 3C000000 		.4byte	.LVL123
 19754 0d45 BA020000 		.4byte	.LVL173
 19755 0d49 0200     		.2byte	0x2
 19756 0d4b 90       		.byte	0x90
 19757 0d4c 50       		.uleb128 0x50
 19758 0d4d C8020000 		.4byte	.LVL174
 19759 0d51 94050000 		.4byte	.LFE316
 19760 0d55 0200     		.2byte	0x2
 19761 0d57 90       		.byte	0x90
 19762 0d58 50       		.uleb128 0x50
 19763 0d59 00000000 		.4byte	0
 19764 0d5d 00000000 		.4byte	0
 19765              	.LLST17:
 19766 0d61 56000000 		.4byte	.LVL125
 19767 0d65 5A000000 		.4byte	.LVL126
 19768 0d69 0200     		.2byte	0x2
 19769 0d6b 90       		.byte	0x90
 19770 0d6c 40       		.uleb128 0x40
 19771 0d6d 5A000000 		.4byte	.LVL126
 19772 0d71 E4010000 		.4byte	.LVL150
 19773 0d75 0200     		.2byte	0x2
 19774 0d77 90       		.byte	0x90
 19775 0d78 52       		.uleb128 0x52
 19776 0d79 C8020000 		.4byte	.LVL174
 19777 0d7d 06030000 		.4byte	.LVL177
 19778 0d81 0200     		.2byte	0x2
 19779 0d83 90       		.byte	0x90
 19780 0d84 52       		.uleb128 0x52
 19781 0d85 08030000 		.4byte	.LVL178
 19782 0d89 AC040000 		.4byte	.LVL202
 19783 0d8d 0200     		.2byte	0x2
 19784 0d8f 90       		.byte	0x90
 19785 0d90 52       		.uleb128 0x52
 19786 0d91 D0040000 		.4byte	.LVL208
 19787 0d95 36050000 		.4byte	.LVL220
 19788 0d99 0200     		.2byte	0x2
 19789 0d9b 90       		.byte	0x90
 19790 0d9c 52       		.uleb128 0x52
 19791 0d9d 38050000 		.4byte	.LVL221
 19792 0da1 94050000 		.4byte	.LFE316
 19793 0da5 0200     		.2byte	0x2
 19794 0da7 90       		.byte	0x90
 19795 0da8 52       		.uleb128 0x52
 19796 0da9 00000000 		.4byte	0
 19797 0dad 00000000 		.4byte	0
 19798              	.LLST18:
 19799 0db1 D4000000 		.4byte	.LVL129
 19800 0db5 F0000000 		.4byte	.LVL131
 19801 0db9 0600     		.2byte	0x6
ARM GAS  C:\Users\CHRIST~1\AppData\Local\Temp\ccb3oWGE.s 			page 350


 19802 0dbb 9E       		.byte	0x9e
 19803 0dbc 04       		.uleb128 0x4
 19804 0dbd 00000000 		.4byte	0
 19805 0dc1 F0000000 		.4byte	.LVL131
 19806 0dc5 F8010000 		.4byte	.LVL152
 19807 0dc9 0200     		.2byte	0x2
 19808 0dcb 90       		.byte	0x90
 19809 0dcc 56       		.uleb128 0x56
 19810 0dcd C8020000 		.4byte	.LVL174
 19811 0dd1 F6020000 		.4byte	.LVL176
 19812 0dd5 0600     		.2byte	0x6
 19813 0dd7 9E       		.byte	0x9e
 19814 0dd8 04       		.uleb128 0x4
 19815 0dd9 00000000 		.4byte	0
 19816 0ddd F6020000 		.4byte	.LVL176
 19817 0de1 B4030000 		.4byte	.LVL186
 19818 0de5 0200     		.2byte	0x2
 19819 0de7 90       		.byte	0x90
 19820 0de8 56       		.uleb128 0x56
 19821 0de9 B4030000 		.4byte	.LVL186
 19822 0ded 08040000 		.4byte	.LVL192
 19823 0df1 0600     		.2byte	0x6
 19824 0df3 9E       		.byte	0x9e
 19825 0df4 04       		.uleb128 0x4
 19826 0df5 00000000 		.4byte	0
 19827 0df9 08040000 		.4byte	.LVL192
 19828 0dfd AC040000 		.4byte	.LVL202
 19829 0e01 0200     		.2byte	0x2
 19830 0e03 90       		.byte	0x90
 19831 0e04 56       		.uleb128 0x56
 19832 0e05 D0040000 		.4byte	.LVL208
 19833 0e09 50050000 		.4byte	.LVL223
 19834 0e0d 0200     		.2byte	0x2
 19835 0e0f 90       		.byte	0x90
 19836 0e10 56       		.uleb128 0x56
 19837 0e11 50050000 		.4byte	.LVL223
 19838 0e15 66050000 		.4byte	.LVL224
 19839 0e19 0600     		.2byte	0x6
 19840 0e1b 9E       		.byte	0x9e
 19841 0e1c 04       		.uleb128 0x4
 19842 0e1d 00000000 		.4byte	0
 19843 0e21 68050000 		.4byte	.LVL225
 19844 0e25 78050000 		.4byte	.LVL227
 19845 0e29 0200     		.2byte	0x2
 19846 0e2b 90       		.byte	0x90
 19847 0e2c 56       		.uleb128 0x56
 19848 0e2d 78050000 		.4byte	.LVL227
 19849 0e31 88050000 		.4byte	.LVL229
 19850 0e35 0600     		.2byte	0x6
 19851 0e37 9E       		.byte	0x9e
 19852 0e38 04       		.uleb128 0x4
 19853 0e39 00000000 		.4byte	0
 19854 0e3d 88050000 		.4byte	.LVL229
 19855 0e41 94050000 		.4byte	.LFE316
 19856 0e45 0200     		.2byte	0x2
 19857 0e47 90       		.byte	0x90
 19858 0e48 56       		.uleb128 0x56
ARM GAS  C:\Users\CHRIST~1\AppData\Local\Temp\ccb3oWGE.s 			page 351


 19859 0e49 00000000 		.4byte	0
 19860 0e4d 00000000 		.4byte	0
 19861              	.LLST19:
 19862 0e51 D4000000 		.4byte	.LVL129
 19863 0e55 EC000000 		.4byte	.LVL130
 19864 0e59 0600     		.2byte	0x6
 19865 0e5b 9E       		.byte	0x9e
 19866 0e5c 04       		.uleb128 0x4
 19867 0e5d 00000000 		.4byte	0
 19868 0e61 EC000000 		.4byte	.LVL130
 19869 0e65 08020000 		.4byte	.LVL155
 19870 0e69 0200     		.2byte	0x2
 19871 0e6b 90       		.byte	0x90
 19872 0e6c 51       		.uleb128 0x51
 19873 0e6d C8020000 		.4byte	.LVL174
 19874 0e71 F6020000 		.4byte	.LVL176
 19875 0e75 0600     		.2byte	0x6
 19876 0e77 9E       		.byte	0x9e
 19877 0e78 04       		.uleb128 0x4
 19878 0e79 00000000 		.4byte	0
 19879 0e7d F6020000 		.4byte	.LVL176
 19880 0e81 B4030000 		.4byte	.LVL186
 19881 0e85 0200     		.2byte	0x2
 19882 0e87 90       		.byte	0x90
 19883 0e88 51       		.uleb128 0x51
 19884 0e89 B4030000 		.4byte	.LVL186
 19885 0e8d 30040000 		.4byte	.LVL193
 19886 0e91 0600     		.2byte	0x6
 19887 0e93 9E       		.byte	0x9e
 19888 0e94 04       		.uleb128 0x4
 19889 0e95 00000000 		.4byte	0
 19890 0e99 32040000 		.4byte	.LVL194
 19891 0e9d AC040000 		.4byte	.LVL202
 19892 0ea1 0200     		.2byte	0x2
 19893 0ea3 90       		.byte	0x90
 19894 0ea4 51       		.uleb128 0x51
 19895 0ea5 D0040000 		.4byte	.LVL208
 19896 0ea9 50050000 		.4byte	.LVL223
 19897 0ead 0200     		.2byte	0x2
 19898 0eaf 90       		.byte	0x90
 19899 0eb0 51       		.uleb128 0x51
 19900 0eb1 50050000 		.4byte	.LVL223
 19901 0eb5 68050000 		.4byte	.LVL225
 19902 0eb9 0600     		.2byte	0x6
 19903 0ebb 9E       		.byte	0x9e
 19904 0ebc 04       		.uleb128 0x4
 19905 0ebd 00000000 		.4byte	0
 19906 0ec1 68050000 		.4byte	.LVL225
 19907 0ec5 78050000 		.4byte	.LVL227
 19908 0ec9 0200     		.2byte	0x2
 19909 0ecb 90       		.byte	0x90
 19910 0ecc 51       		.uleb128 0x51
 19911 0ecd 78050000 		.4byte	.LVL227
 19912 0ed1 88050000 		.4byte	.LVL229
 19913 0ed5 0600     		.2byte	0x6
 19914 0ed7 9E       		.byte	0x9e
 19915 0ed8 04       		.uleb128 0x4
ARM GAS  C:\Users\CHRIST~1\AppData\Local\Temp\ccb3oWGE.s 			page 352


 19916 0ed9 00000000 		.4byte	0
 19917 0edd 88050000 		.4byte	.LVL229
 19918 0ee1 8E050000 		.4byte	.LVL230
 19919 0ee5 0200     		.2byte	0x2
 19920 0ee7 90       		.byte	0x90
 19921 0ee8 51       		.uleb128 0x51
 19922 0ee9 8E050000 		.4byte	.LVL230
 19923 0eed 94050000 		.4byte	.LFE316
 19924 0ef1 0600     		.2byte	0x6
 19925 0ef3 9E       		.byte	0x9e
 19926 0ef4 04       		.uleb128 0x4
 19927 0ef5 00000000 		.4byte	0
 19928 0ef9 00000000 		.4byte	0
 19929 0efd 00000000 		.4byte	0
 19930              	.LLST20:
 19931 0f01 F0000000 		.4byte	.LVL131
 19932 0f05 0C010000 		.4byte	.LVL133
 19933 0f09 0600     		.2byte	0x6
 19934 0f0b 9E       		.byte	0x9e
 19935 0f0c 04       		.uleb128 0x4
 19936 0f0d 00000000 		.4byte	0
 19937 0f11 0C010000 		.4byte	.LVL133
 19938 0f15 BA020000 		.4byte	.LVL173
 19939 0f19 0200     		.2byte	0x2
 19940 0f1b 90       		.byte	0x90
 19941 0f1c 58       		.uleb128 0x58
 19942 0f1d F6020000 		.4byte	.LVL176
 19943 0f21 46030000 		.4byte	.LVL184
 19944 0f25 0200     		.2byte	0x2
 19945 0f27 90       		.byte	0x90
 19946 0f28 58       		.uleb128 0x58
 19947 0f29 46030000 		.4byte	.LVL184
 19948 0f2d B4030000 		.4byte	.LVL186
 19949 0f31 0600     		.2byte	0x6
 19950 0f33 9E       		.byte	0x9e
 19951 0f34 04       		.uleb128 0x4
 19952 0f35 00000000 		.4byte	0
 19953 0f39 32040000 		.4byte	.LVL194
 19954 0f3d 84040000 		.4byte	.LVL200
 19955 0f41 0600     		.2byte	0x6
 19956 0f43 9E       		.byte	0x9e
 19957 0f44 04       		.uleb128 0x4
 19958 0f45 00000000 		.4byte	0
 19959 0f49 84040000 		.4byte	.LVL200
 19960 0f4d 38050000 		.4byte	.LVL221
 19961 0f51 0200     		.2byte	0x2
 19962 0f53 90       		.byte	0x90
 19963 0f54 58       		.uleb128 0x58
 19964 0f55 38050000 		.4byte	.LVL221
 19965 0f59 4E050000 		.4byte	.LVL222
 19966 0f5d 0600     		.2byte	0x6
 19967 0f5f 9E       		.byte	0x9e
 19968 0f60 04       		.uleb128 0x4
 19969 0f61 00000000 		.4byte	0
 19970 0f65 68050000 		.4byte	.LVL225
 19971 0f69 78050000 		.4byte	.LVL227
 19972 0f6d 0600     		.2byte	0x6
ARM GAS  C:\Users\CHRIST~1\AppData\Local\Temp\ccb3oWGE.s 			page 353


 19973 0f6f 9E       		.byte	0x9e
 19974 0f70 04       		.uleb128 0x4
 19975 0f71 00000000 		.4byte	0
 19976 0f75 88050000 		.4byte	.LVL229
 19977 0f79 8E050000 		.4byte	.LVL230
 19978 0f7d 0200     		.2byte	0x2
 19979 0f7f 90       		.byte	0x90
 19980 0f80 58       		.uleb128 0x58
 19981 0f81 00000000 		.4byte	0
 19982 0f85 00000000 		.4byte	0
 19983              	.LLST21:
 19984 0f89 F0000000 		.4byte	.LVL131
 19985 0f8d 08010000 		.4byte	.LVL132
 19986 0f91 0600     		.2byte	0x6
 19987 0f93 9E       		.byte	0x9e
 19988 0f94 04       		.uleb128 0x4
 19989 0f95 00000000 		.4byte	0
 19990 0f99 08010000 		.4byte	.LVL132
 19991 0f9d C8020000 		.4byte	.LVL174
 19992 0fa1 0200     		.2byte	0x2
 19993 0fa3 90       		.byte	0x90
 19994 0fa4 53       		.uleb128 0x53
 19995 0fa5 F6020000 		.4byte	.LVL176
 19996 0fa9 46030000 		.4byte	.LVL184
 19997 0fad 0200     		.2byte	0x2
 19998 0faf 90       		.byte	0x90
 19999 0fb0 53       		.uleb128 0x53
 20000 0fb1 46030000 		.4byte	.LVL184
 20001 0fb5 B4030000 		.4byte	.LVL186
 20002 0fb9 0600     		.2byte	0x6
 20003 0fbb 9E       		.byte	0x9e
 20004 0fbc 04       		.uleb128 0x4
 20005 0fbd 00000000 		.4byte	0
 20006 0fc1 32040000 		.4byte	.LVL194
 20007 0fc5 AA040000 		.4byte	.LVL201
 20008 0fc9 0600     		.2byte	0x6
 20009 0fcb 9E       		.byte	0x9e
 20010 0fcc 04       		.uleb128 0x4
 20011 0fcd 00000000 		.4byte	0
 20012 0fd1 AC040000 		.4byte	.LVL202
 20013 0fd5 38050000 		.4byte	.LVL221
 20014 0fd9 0200     		.2byte	0x2
 20015 0fdb 90       		.byte	0x90
 20016 0fdc 53       		.uleb128 0x53
 20017 0fdd 38050000 		.4byte	.LVL221
 20018 0fe1 50050000 		.4byte	.LVL223
 20019 0fe5 0600     		.2byte	0x6
 20020 0fe7 9E       		.byte	0x9e
 20021 0fe8 04       		.uleb128 0x4
 20022 0fe9 00000000 		.4byte	0
 20023 0fed 68050000 		.4byte	.LVL225
 20024 0ff1 78050000 		.4byte	.LVL227
 20025 0ff5 0600     		.2byte	0x6
 20026 0ff7 9E       		.byte	0x9e
 20027 0ff8 04       		.uleb128 0x4
 20028 0ff9 00000000 		.4byte	0
 20029 0ffd 88050000 		.4byte	.LVL229
ARM GAS  C:\Users\CHRIST~1\AppData\Local\Temp\ccb3oWGE.s 			page 354


 20030 1001 8E050000 		.4byte	.LVL230
 20031 1005 0600     		.2byte	0x6
 20032 1007 9E       		.byte	0x9e
 20033 1008 04       		.uleb128 0x4
 20034 1009 00000000 		.4byte	0
 20035 100d 00000000 		.4byte	0
 20036 1011 00000000 		.4byte	0
 20037              	.LLST22:
 20038 1015 2C010000 		.4byte	.LVL135
 20039 1019 34010000 		.4byte	.LVL136
 20040 101d 0200     		.2byte	0x2
 20041 101f 90       		.byte	0x90
 20042 1020 40       		.uleb128 0x40
 20043 1021 34010000 		.4byte	.LVL136
 20044 1025 90010000 		.4byte	.LVL145
 20045 1029 0200     		.2byte	0x2
 20046 102b 90       		.byte	0x90
 20047 102c 55       		.uleb128 0x55
 20048 102d 30030000 		.4byte	.LVL182
 20049 1031 44030000 		.4byte	.LVL183
 20050 1035 0200     		.2byte	0x2
 20051 1037 90       		.byte	0x90
 20052 1038 55       		.uleb128 0x55
 20053 1039 04050000 		.4byte	.LVL214
 20054 103d 20050000 		.4byte	.LVL217
 20055 1041 0200     		.2byte	0x2
 20056 1043 90       		.byte	0x90
 20057 1044 55       		.uleb128 0x55
 20058 1045 00000000 		.4byte	0
 20059 1049 00000000 		.4byte	0
 20060              	.LLST23:
 20061 104d 50010000 		.4byte	.LVL138
 20062 1051 54010000 		.4byte	.LVL139
 20063 1055 0200     		.2byte	0x2
 20064 1057 90       		.byte	0x90
 20065 1058 40       		.uleb128 0x40
 20066 1059 54010000 		.4byte	.LVL139
 20067 105d C8020000 		.4byte	.LVL174
 20068 1061 0200     		.2byte	0x2
 20069 1063 90       		.byte	0x90
 20070 1064 59       		.uleb128 0x59
 20071 1065 F6020000 		.4byte	.LVL176
 20072 1069 46030000 		.4byte	.LVL184
 20073 106d 0200     		.2byte	0x2
 20074 106f 90       		.byte	0x90
 20075 1070 59       		.uleb128 0x59
 20076 1071 AC040000 		.4byte	.LVL202
 20077 1075 38050000 		.4byte	.LVL221
 20078 1079 0200     		.2byte	0x2
 20079 107b 90       		.byte	0x90
 20080 107c 59       		.uleb128 0x59
 20081 107d 00000000 		.4byte	0
 20082 1081 00000000 		.4byte	0
 20083              	.LLST24:
 20084 1085 64010000 		.4byte	.LVL141
 20085 1089 6C010000 		.4byte	.LVL142
 20086 108d 0200     		.2byte	0x2
ARM GAS  C:\Users\CHRIST~1\AppData\Local\Temp\ccb3oWGE.s 			page 355


 20087 108f 90       		.byte	0x90
 20088 1090 40       		.uleb128 0x40
 20089 1091 6C010000 		.4byte	.LVL142
 20090 1095 A4010000 		.4byte	.LVL146
 20091 1099 0200     		.2byte	0x2
 20092 109b 90       		.byte	0x90
 20093 109c 54       		.uleb128 0x54
 20094 109d 1A030000 		.4byte	.LVL180
 20095 10a1 2E030000 		.4byte	.LVL181
 20096 10a5 0200     		.2byte	0x2
 20097 10a7 90       		.byte	0x90
 20098 10a8 54       		.uleb128 0x54
 20099 10a9 30030000 		.4byte	.LVL182
 20100 10ad 46030000 		.4byte	.LVL184
 20101 10b1 0200     		.2byte	0x2
 20102 10b3 90       		.byte	0x90
 20103 10b4 54       		.uleb128 0x54
 20104 10b5 E6040000 		.4byte	.LVL211
 20105 10b9 02050000 		.4byte	.LVL213
 20106 10bd 0200     		.2byte	0x2
 20107 10bf 90       		.byte	0x90
 20108 10c0 54       		.uleb128 0x54
 20109 10c1 04050000 		.4byte	.LVL214
 20110 10c5 22050000 		.4byte	.LVL218
 20111 10c9 0200     		.2byte	0x2
 20112 10cb 90       		.byte	0x90
 20113 10cc 54       		.uleb128 0x54
 20114 10cd 00000000 		.4byte	0
 20115 10d1 00000000 		.4byte	0
 20116              	.LLST25:
 20117 10d5 88010000 		.4byte	.LVL144
 20118 10d9 90010000 		.4byte	.LVL145
 20119 10dd 0200     		.2byte	0x2
 20120 10df 90       		.byte	0x90
 20121 10e0 40       		.uleb128 0x40
 20122 10e1 90010000 		.4byte	.LVL145
 20123 10e5 C4010000 		.4byte	.LVL148
 20124 10e9 0200     		.2byte	0x2
 20125 10eb 90       		.byte	0x90
 20126 10ec 57       		.uleb128 0x57
 20127 10ed 08030000 		.4byte	.LVL178
 20128 10f1 18030000 		.4byte	.LVL179
 20129 10f5 0200     		.2byte	0x2
 20130 10f7 90       		.byte	0x90
 20131 10f8 57       		.uleb128 0x57
 20132 10f9 1A030000 		.4byte	.LVL180
 20133 10fd 30030000 		.4byte	.LVL182
 20134 1101 0200     		.2byte	0x2
 20135 1103 90       		.byte	0x90
 20136 1104 57       		.uleb128 0x57
 20137 1105 30030000 		.4byte	.LVL182
 20138 1109 46030000 		.4byte	.LVL184
 20139 110d 0200     		.2byte	0x2
 20140 110f 90       		.byte	0x90
 20141 1110 40       		.uleb128 0x40
 20142 1111 D0040000 		.4byte	.LVL208
 20143 1115 E4040000 		.4byte	.LVL210
ARM GAS  C:\Users\CHRIST~1\AppData\Local\Temp\ccb3oWGE.s 			page 356


 20144 1119 0200     		.2byte	0x2
 20145 111b 90       		.byte	0x90
 20146 111c 57       		.uleb128 0x57
 20147 111d E6040000 		.4byte	.LVL211
 20148 1121 04050000 		.4byte	.LVL214
 20149 1125 0200     		.2byte	0x2
 20150 1127 90       		.byte	0x90
 20151 1128 57       		.uleb128 0x57
 20152 1129 04050000 		.4byte	.LVL214
 20153 112d 08050000 		.4byte	.LVL215
 20154 1131 0200     		.2byte	0x2
 20155 1133 90       		.byte	0x90
 20156 1134 40       		.uleb128 0x40
 20157 1135 08050000 		.4byte	.LVL215
 20158 1139 22050000 		.4byte	.LVL218
 20159 113d 0200     		.2byte	0x2
 20160 113f 90       		.byte	0x90
 20161 1140 57       		.uleb128 0x57
 20162 1141 00000000 		.4byte	0
 20163 1145 00000000 		.4byte	0
 20164              	.LLST26:
 20165 1149 88010000 		.4byte	.LVL144
 20166 114d 90010000 		.4byte	.LVL145
 20167 1151 0600     		.2byte	0x6
 20168 1153 9E       		.byte	0x9e
 20169 1154 04       		.uleb128 0x4
 20170 1155 00000000 		.4byte	0
 20171 1159 90010000 		.4byte	.LVL145
 20172 115d C8020000 		.4byte	.LVL174
 20173 1161 0200     		.2byte	0x2
 20174 1163 90       		.byte	0x90
 20175 1164 55       		.uleb128 0x55
 20176 1165 F6020000 		.4byte	.LVL176
 20177 1169 30030000 		.4byte	.LVL182
 20178 116d 0200     		.2byte	0x2
 20179 116f 90       		.byte	0x90
 20180 1170 55       		.uleb128 0x55
 20181 1171 30030000 		.4byte	.LVL182
 20182 1175 46030000 		.4byte	.LVL184
 20183 1179 0600     		.2byte	0x6
 20184 117b 9E       		.byte	0x9e
 20185 117c 04       		.uleb128 0x4
 20186 117d 00000000 		.4byte	0
 20187 1181 AC040000 		.4byte	.LVL202
 20188 1185 04050000 		.4byte	.LVL214
 20189 1189 0200     		.2byte	0x2
 20190 118b 90       		.byte	0x90
 20191 118c 55       		.uleb128 0x55
 20192 118d 04050000 		.4byte	.LVL214
 20193 1191 20050000 		.4byte	.LVL217
 20194 1195 0600     		.2byte	0x6
 20195 1197 9E       		.byte	0x9e
 20196 1198 04       		.uleb128 0x4
 20197 1199 00000000 		.4byte	0
 20198 119d 20050000 		.4byte	.LVL217
 20199 11a1 22050000 		.4byte	.LVL218
 20200 11a5 0200     		.2byte	0x2
ARM GAS  C:\Users\CHRIST~1\AppData\Local\Temp\ccb3oWGE.s 			page 357


 20201 11a7 90       		.byte	0x90
 20202 11a8 40       		.uleb128 0x40
 20203 11a9 22050000 		.4byte	.LVL218
 20204 11ad 38050000 		.4byte	.LVL221
 20205 11b1 0200     		.2byte	0x2
 20206 11b3 90       		.byte	0x90
 20207 11b4 55       		.uleb128 0x55
 20208 11b5 00000000 		.4byte	0
 20209 11b9 00000000 		.4byte	0
 20210              	.LLST27:
 20211 11bd 90010000 		.4byte	.LVL145
 20212 11c1 A4010000 		.4byte	.LVL146
 20213 11c5 0600     		.2byte	0x6
 20214 11c7 9E       		.byte	0x9e
 20215 11c8 04       		.uleb128 0x4
 20216 11c9 00000000 		.4byte	0
 20217 11cd A4010000 		.4byte	.LVL146
 20218 11d1 BA020000 		.4byte	.LVL173
 20219 11d5 0200     		.2byte	0x2
 20220 11d7 90       		.byte	0x90
 20221 11d8 54       		.uleb128 0x54
 20222 11d9 F6020000 		.4byte	.LVL176
 20223 11dd 1A030000 		.4byte	.LVL180
 20224 11e1 0200     		.2byte	0x2
 20225 11e3 90       		.byte	0x90
 20226 11e4 54       		.uleb128 0x54
 20227 11e5 1A030000 		.4byte	.LVL180
 20228 11e9 30030000 		.4byte	.LVL182
 20229 11ed 0600     		.2byte	0x6
 20230 11ef 9E       		.byte	0x9e
 20231 11f0 04       		.uleb128 0x4
 20232 11f1 00000000 		.4byte	0
 20233 11f5 AC040000 		.4byte	.LVL202
 20234 11f9 E6040000 		.4byte	.LVL211
 20235 11fd 0200     		.2byte	0x2
 20236 11ff 90       		.byte	0x90
 20237 1200 54       		.uleb128 0x54
 20238 1201 E6040000 		.4byte	.LVL211
 20239 1205 02050000 		.4byte	.LVL213
 20240 1209 0600     		.2byte	0x6
 20241 120b 9E       		.byte	0x9e
 20242 120c 04       		.uleb128 0x4
 20243 120d 00000000 		.4byte	0
 20244 1211 02050000 		.4byte	.LVL213
 20245 1215 04050000 		.4byte	.LVL214
 20246 1219 0200     		.2byte	0x2
 20247 121b 90       		.byte	0x90
 20248 121c 40       		.uleb128 0x40
 20249 121d 22050000 		.4byte	.LVL218
 20250 1221 38050000 		.4byte	.LVL221
 20251 1225 0200     		.2byte	0x2
 20252 1227 90       		.byte	0x90
 20253 1228 54       		.uleb128 0x54
 20254 1229 00000000 		.4byte	0
 20255 122d 00000000 		.4byte	0
 20256              	.LLST28:
 20257 1231 A4010000 		.4byte	.LVL146
ARM GAS  C:\Users\CHRIST~1\AppData\Local\Temp\ccb3oWGE.s 			page 358


 20258 1235 C4010000 		.4byte	.LVL148
 20259 1239 0600     		.2byte	0x6
 20260 123b 9E       		.byte	0x9e
 20261 123c 04       		.uleb128 0x4
 20262 123d 00000000 		.4byte	0
 20263 1241 C4010000 		.4byte	.LVL148
 20264 1245 C8020000 		.4byte	.LVL174
 20265 1249 0200     		.2byte	0x2
 20266 124b 90       		.byte	0x90
 20267 124c 57       		.uleb128 0x57
 20268 124d F6020000 		.4byte	.LVL176
 20269 1251 08030000 		.4byte	.LVL178
 20270 1255 0200     		.2byte	0x2
 20271 1257 90       		.byte	0x90
 20272 1258 57       		.uleb128 0x57
 20273 1259 08030000 		.4byte	.LVL178
 20274 125d 1A030000 		.4byte	.LVL180
 20275 1261 0600     		.2byte	0x6
 20276 1263 9E       		.byte	0x9e
 20277 1264 04       		.uleb128 0x4
 20278 1265 00000000 		.4byte	0
 20279 1269 AC040000 		.4byte	.LVL202
 20280 126d D0040000 		.4byte	.LVL208
 20281 1271 0200     		.2byte	0x2
 20282 1273 90       		.byte	0x90
 20283 1274 57       		.uleb128 0x57
 20284 1275 D0040000 		.4byte	.LVL208
 20285 1279 E4040000 		.4byte	.LVL210
 20286 127d 0600     		.2byte	0x6
 20287 127f 9E       		.byte	0x9e
 20288 1280 04       		.uleb128 0x4
 20289 1281 00000000 		.4byte	0
 20290 1285 E4040000 		.4byte	.LVL210
 20291 1289 E6040000 		.4byte	.LVL211
 20292 128d 0200     		.2byte	0x2
 20293 128f 90       		.byte	0x90
 20294 1290 40       		.uleb128 0x40
 20295 1291 22050000 		.4byte	.LVL218
 20296 1295 38050000 		.4byte	.LVL221
 20297 1299 0200     		.2byte	0x2
 20298 129b 90       		.byte	0x90
 20299 129c 57       		.uleb128 0x57
 20300 129d 00000000 		.4byte	0
 20301 12a1 00000000 		.4byte	0
 20302              	.LLST29:
 20303 12a5 B4010000 		.4byte	.LVL147
 20304 12a9 C4010000 		.4byte	.LVL148
 20305 12ad 0200     		.2byte	0x2
 20306 12af 90       		.byte	0x90
 20307 12b0 41       		.uleb128 0x41
 20308 12b1 08030000 		.4byte	.LVL178
 20309 12b5 1A030000 		.4byte	.LVL180
 20310 12b9 0200     		.2byte	0x2
 20311 12bb 90       		.byte	0x90
 20312 12bc 41       		.uleb128 0x41
 20313 12bd D0040000 		.4byte	.LVL208
 20314 12c1 DF040000 		.4byte	.LVL209-1
ARM GAS  C:\Users\CHRIST~1\AppData\Local\Temp\ccb3oWGE.s 			page 359


 20315 12c5 0200     		.2byte	0x2
 20316 12c7 90       		.byte	0x90
 20317 12c8 41       		.uleb128 0x41
 20318 12c9 00000000 		.4byte	0
 20319 12cd 00000000 		.4byte	0
 20320              	.LLST30:
 20321 12d1 B4010000 		.4byte	.LVL147
 20322 12d5 C4010000 		.4byte	.LVL148
 20323 12d9 0200     		.2byte	0x2
 20324 12db 90       		.byte	0x90
 20325 12dc 42       		.uleb128 0x42
 20326 12dd 08030000 		.4byte	.LVL178
 20327 12e1 1A030000 		.4byte	.LVL180
 20328 12e5 0200     		.2byte	0x2
 20329 12e7 90       		.byte	0x90
 20330 12e8 42       		.uleb128 0x42
 20331 12e9 D0040000 		.4byte	.LVL208
 20332 12ed DF040000 		.4byte	.LVL209-1
 20333 12f1 0200     		.2byte	0x2
 20334 12f3 90       		.byte	0x90
 20335 12f4 42       		.uleb128 0x42
 20336 12f5 00000000 		.4byte	0
 20337 12f9 00000000 		.4byte	0
 20338              	.LLST31:
 20339 12fd C4010000 		.4byte	.LVL148
 20340 1301 E4010000 		.4byte	.LVL150
 20341 1305 0600     		.2byte	0x6
 20342 1307 9E       		.byte	0x9e
 20343 1308 04       		.uleb128 0x4
 20344 1309 00000000 		.4byte	0
 20345 130d E4010000 		.4byte	.LVL150
 20346 1311 BA020000 		.4byte	.LVL173
 20347 1315 0200     		.2byte	0x2
 20348 1317 90       		.byte	0x90
 20349 1318 52       		.uleb128 0x52
 20350 1319 F6020000 		.4byte	.LVL176
 20351 131d 08030000 		.4byte	.LVL178
 20352 1321 0600     		.2byte	0x6
 20353 1323 9E       		.byte	0x9e
 20354 1324 04       		.uleb128 0x4
 20355 1325 00000000 		.4byte	0
 20356 1329 AC040000 		.4byte	.LVL202
 20357 132d D0040000 		.4byte	.LVL208
 20358 1331 0200     		.2byte	0x2
 20359 1333 90       		.byte	0x90
 20360 1334 52       		.uleb128 0x52
 20361 1335 22050000 		.4byte	.LVL218
 20362 1339 36050000 		.4byte	.LVL220
 20363 133d 0600     		.2byte	0x6
 20364 133f 9E       		.byte	0x9e
 20365 1340 04       		.uleb128 0x4
 20366 1341 00000000 		.4byte	0
 20367 1345 36050000 		.4byte	.LVL220
 20368 1349 38050000 		.4byte	.LVL221
 20369 134d 0200     		.2byte	0x2
 20370 134f 90       		.byte	0x90
 20371 1350 40       		.uleb128 0x40
ARM GAS  C:\Users\CHRIST~1\AppData\Local\Temp\ccb3oWGE.s 			page 360


 20372 1351 00000000 		.4byte	0
 20373 1355 00000000 		.4byte	0
 20374              	.LLST32:
 20375 1359 D4010000 		.4byte	.LVL149
 20376 135d E4010000 		.4byte	.LVL150
 20377 1361 0200     		.2byte	0x2
 20378 1363 90       		.byte	0x90
 20379 1364 41       		.uleb128 0x41
 20380 1365 F6020000 		.4byte	.LVL176
 20381 1369 08030000 		.4byte	.LVL178
 20382 136d 0200     		.2byte	0x2
 20383 136f 90       		.byte	0x90
 20384 1370 41       		.uleb128 0x41
 20385 1371 22050000 		.4byte	.LVL218
 20386 1375 31050000 		.4byte	.LVL219-1
 20387 1379 0200     		.2byte	0x2
 20388 137b 90       		.byte	0x90
 20389 137c 41       		.uleb128 0x41
 20390 137d 00000000 		.4byte	0
 20391 1381 00000000 		.4byte	0
 20392              	.LLST33:
 20393 1385 D4010000 		.4byte	.LVL149
 20394 1389 E4010000 		.4byte	.LVL150
 20395 138d 0200     		.2byte	0x2
 20396 138f 90       		.byte	0x90
 20397 1390 42       		.uleb128 0x42
 20398 1391 F6020000 		.4byte	.LVL176
 20399 1395 08030000 		.4byte	.LVL178
 20400 1399 0200     		.2byte	0x2
 20401 139b 90       		.byte	0x90
 20402 139c 42       		.uleb128 0x42
 20403 139d 22050000 		.4byte	.LVL218
 20404 13a1 31050000 		.4byte	.LVL219-1
 20405 13a5 0200     		.2byte	0x2
 20406 13a7 90       		.byte	0x90
 20407 13a8 42       		.uleb128 0x42
 20408 13a9 00000000 		.4byte	0
 20409 13ad 00000000 		.4byte	0
 20410              	.LLST34:
 20411 13b1 F8010000 		.4byte	.LVL152
 20412 13b5 FC010000 		.4byte	.LVL153
 20413 13b9 0200     		.2byte	0x2
 20414 13bb 90       		.byte	0x90
 20415 13bc 40       		.uleb128 0x40
 20416 13bd FC010000 		.4byte	.LVL153
 20417 13c1 10020000 		.4byte	.LVL157
 20418 13c5 0200     		.2byte	0x2
 20419 13c7 90       		.byte	0x90
 20420 13c8 56       		.uleb128 0x56
 20421 13c9 10020000 		.4byte	.LVL157
 20422 13cd 17020000 		.4byte	.LVL158-1
 20423 13d1 0200     		.2byte	0x2
 20424 13d3 90       		.byte	0x90
 20425 13d4 40       		.uleb128 0x40
 20426 13d5 18020000 		.4byte	.LVL158
 20427 13d9 1F020000 		.4byte	.LVL159-1
 20428 13dd 0200     		.2byte	0x2
ARM GAS  C:\Users\CHRIST~1\AppData\Local\Temp\ccb3oWGE.s 			page 361


 20429 13df 90       		.byte	0x90
 20430 13e0 40       		.uleb128 0x40
 20431 13e1 20020000 		.4byte	.LVL159
 20432 13e5 27020000 		.4byte	.LVL160-1
 20433 13e9 0200     		.2byte	0x2
 20434 13eb 90       		.byte	0x90
 20435 13ec 40       		.uleb128 0x40
 20436 13ed 28020000 		.4byte	.LVL160
 20437 13f1 82020000 		.4byte	.LVL165
 20438 13f5 0200     		.2byte	0x2
 20439 13f7 90       		.byte	0x90
 20440 13f8 40       		.uleb128 0x40
 20441 13f9 AC040000 		.4byte	.LVL202
 20442 13fd C6040000 		.4byte	.LVL205
 20443 1401 0200     		.2byte	0x2
 20444 1403 90       		.byte	0x90
 20445 1404 40       		.uleb128 0x40
 20446 1405 00000000 		.4byte	0
 20447 1409 00000000 		.4byte	0
 20448              	.LLST35:
 20449 140d 08020000 		.4byte	.LVL155
 20450 1411 0C020000 		.4byte	.LVL156
 20451 1415 0200     		.2byte	0x2
 20452 1417 90       		.byte	0x90
 20453 1418 40       		.uleb128 0x40
 20454 1419 0C020000 		.4byte	.LVL156
 20455 141d 50020000 		.4byte	.LVL162
 20456 1421 0200     		.2byte	0x2
 20457 1423 90       		.byte	0x90
 20458 1424 51       		.uleb128 0x51
 20459 1425 5A020000 		.4byte	.LVL163
 20460 1429 8E020000 		.4byte	.LVL167
 20461 142d 0200     		.2byte	0x2
 20462 142f 90       		.byte	0x90
 20463 1430 51       		.uleb128 0x51
 20464 1431 AC040000 		.4byte	.LVL202
 20465 1435 D0040000 		.4byte	.LVL208
 20466 1439 0200     		.2byte	0x2
 20467 143b 90       		.byte	0x90
 20468 143c 51       		.uleb128 0x51
 20469 143d 00000000 		.4byte	0
 20470 1441 00000000 		.4byte	0
 20471              	.LLST36:
 20472 1445 5E020000 		.4byte	.LVL164
 20473 1449 82020000 		.4byte	.LVL165
 20474 144d 0600     		.2byte	0x6
 20475 144f 9E       		.byte	0x9e
 20476 1450 04       		.uleb128 0x4
 20477 1451 00000000 		.4byte	0
 20478 1455 82020000 		.4byte	.LVL165
 20479 1459 95020000 		.4byte	.LVL169-1
 20480 145d 0200     		.2byte	0x2
 20481 145f 90       		.byte	0x90
 20482 1460 41       		.uleb128 0x41
 20483 1461 AC040000 		.4byte	.LVL202
 20484 1465 B0040000 		.4byte	.LVL203
 20485 1469 0600     		.2byte	0x6
ARM GAS  C:\Users\CHRIST~1\AppData\Local\Temp\ccb3oWGE.s 			page 362


 20486 146b 9E       		.byte	0x9e
 20487 146c 04       		.uleb128 0x4
 20488 146d 00000000 		.4byte	0
 20489 1471 B0040000 		.4byte	.LVL203
 20490 1475 B2040000 		.4byte	.LVL204
 20491 1479 0200     		.2byte	0x2
 20492 147b 90       		.byte	0x90
 20493 147c 41       		.uleb128 0x41
 20494 147d B2040000 		.4byte	.LVL204
 20495 1481 CE040000 		.4byte	.LVL207
 20496 1485 0600     		.2byte	0x6
 20497 1487 9E       		.byte	0x9e
 20498 1488 04       		.uleb128 0x4
 20499 1489 00000000 		.4byte	0
 20500 148d CE040000 		.4byte	.LVL207
 20501 1491 D0040000 		.4byte	.LVL208
 20502 1495 0200     		.2byte	0x2
 20503 1497 90       		.byte	0x90
 20504 1498 40       		.uleb128 0x40
 20505 1499 00000000 		.4byte	0
 20506 149d 00000000 		.4byte	0
 20507              	.LLST37:
 20508 14a1 86020000 		.4byte	.LVL166
 20509 14a5 92020000 		.4byte	.LVL168
 20510 14a9 0800     		.2byte	0x8
 20511 14ab F5       		.byte	0xf5
 20512 14ac 40       		.uleb128 0x40
 20513 14ad 25       		.uleb128 0x25
 20514 14ae F5       		.byte	0xf5
 20515 14af 50       		.uleb128 0x50
 20516 14b0 25       		.uleb128 0x25
 20517 14b1 1B       		.byte	0x1b
 20518 14b2 9F       		.byte	0x9f
 20519 14b3 92020000 		.4byte	.LVL168
 20520 14b7 95020000 		.4byte	.LVL169-1
 20521 14bb 0200     		.2byte	0x2
 20522 14bd 90       		.byte	0x90
 20523 14be 40       		.uleb128 0x40
 20524 14bf 00000000 		.4byte	0
 20525 14c3 00000000 		.4byte	0
 20526              	.LLST38:
 20527 14c7 8E020000 		.4byte	.LVL167
 20528 14cb C8020000 		.4byte	.LVL174
 20529 14cf 0200     		.2byte	0x2
 20530 14d1 90       		.byte	0x90
 20531 14d2 51       		.uleb128 0x51
 20532 14d3 00000000 		.4byte	0
 20533 14d7 00000000 		.4byte	0
 20534              	.LLST39:
 20535 14db 96020000 		.4byte	.LVL169
 20536 14df A2020000 		.4byte	.LVL170
 20537 14e3 0200     		.2byte	0x2
 20538 14e5 90       		.byte	0x90
 20539 14e6 40       		.uleb128 0x40
 20540 14e7 A2020000 		.4byte	.LVL170
 20541 14eb A5020000 		.4byte	.LVL171-1
 20542 14ef 0200     		.2byte	0x2
ARM GAS  C:\Users\CHRIST~1\AppData\Local\Temp\ccb3oWGE.s 			page 363


 20543 14f1 90       		.byte	0x90
 20544 14f2 41       		.uleb128 0x41
 20545 14f3 00000000 		.4byte	0
 20546 14f7 00000000 		.4byte	0
 20547              	.LLST40:
 20548 14fb 96020000 		.4byte	.LVL169
 20549 14ff C8020000 		.4byte	.LVL174
 20550 1503 0200     		.2byte	0x2
 20551 1505 90       		.byte	0x90
 20552 1506 51       		.uleb128 0x51
 20553 1507 00000000 		.4byte	0
 20554 150b 00000000 		.4byte	0
 20555              	.LLST41:
 20556 150f DA020000 		.4byte	.LVL175
 20557 1513 F6020000 		.4byte	.LVL176
 20558 1517 0200     		.2byte	0x2
 20559 1519 35       		.byte	0x35
 20560 151a 9F       		.byte	0x9f
 20561 151b 78050000 		.4byte	.LVL227
 20562 151f 88050000 		.4byte	.LVL229
 20563 1523 0200     		.2byte	0x2
 20564 1525 35       		.byte	0x35
 20565 1526 9F       		.byte	0x9f
 20566 1527 00000000 		.4byte	0
 20567 152b 00000000 		.4byte	0
 20568              	.LLST42:
 20569 152f 58030000 		.4byte	.LVL185
 20570 1533 B4030000 		.4byte	.LVL186
 20571 1537 0200     		.2byte	0x2
 20572 1539 36       		.byte	0x36
 20573 153a 9F       		.byte	0x9f
 20574 153b 68050000 		.4byte	.LVL225
 20575 153f 78050000 		.4byte	.LVL227
 20576 1543 0200     		.2byte	0x2
 20577 1545 36       		.byte	0x36
 20578 1546 9F       		.byte	0x9f
 20579 1547 00000000 		.4byte	0
 20580 154b 00000000 		.4byte	0
 20581              	.LLST43:
 20582 154f C4030000 		.4byte	.LVL187
 20583 1553 D6030000 		.4byte	.LVL188
 20584 1557 0200     		.2byte	0x2
 20585 1559 90       		.byte	0x90
 20586 155a 43       		.uleb128 0x43
 20587 155b E8030000 		.4byte	.LVL189
 20588 155f EB030000 		.4byte	.LVL190-1
 20589 1563 0200     		.2byte	0x2
 20590 1565 90       		.byte	0x90
 20591 1566 43       		.uleb128 0x43
 20592 1567 00040000 		.4byte	.LVL191
 20593 156b 32040000 		.4byte	.LVL194
 20594 156f 0200     		.2byte	0x2
 20595 1571 90       		.byte	0x90
 20596 1572 40       		.uleb128 0x40
 20597 1573 50050000 		.4byte	.LVL223
 20598 1577 68050000 		.4byte	.LVL225
 20599 157b 0200     		.2byte	0x2
ARM GAS  C:\Users\CHRIST~1\AppData\Local\Temp\ccb3oWGE.s 			page 364


 20600 157d 90       		.byte	0x90
 20601 157e 40       		.uleb128 0x40
 20602 157f 8E050000 		.4byte	.LVL230
 20603 1583 94050000 		.4byte	.LFE316
 20604 1587 0200     		.2byte	0x2
 20605 1589 90       		.byte	0x90
 20606 158a 40       		.uleb128 0x40
 20607 158b 00000000 		.4byte	0
 20608 158f 00000000 		.4byte	0
 20609              	.LLST44:
 20610 1593 42040000 		.4byte	.LVL195
 20611 1597 54040000 		.4byte	.LVL196
 20612 159b 0200     		.2byte	0x2
 20613 159d 90       		.byte	0x90
 20614 159e 43       		.uleb128 0x43
 20615 159f 66040000 		.4byte	.LVL197
 20616 15a3 69040000 		.4byte	.LVL198-1
 20617 15a7 0200     		.2byte	0x2
 20618 15a9 90       		.byte	0x90
 20619 15aa 43       		.uleb128 0x43
 20620 15ab 7E040000 		.4byte	.LVL199
 20621 15af AC040000 		.4byte	.LVL202
 20622 15b3 0200     		.2byte	0x2
 20623 15b5 90       		.byte	0x90
 20624 15b6 40       		.uleb128 0x40
 20625 15b7 38050000 		.4byte	.LVL221
 20626 15bb 50050000 		.4byte	.LVL223
 20627 15bf 0200     		.2byte	0x2
 20628 15c1 90       		.byte	0x90
 20629 15c2 40       		.uleb128 0x40
 20630 15c3 88050000 		.4byte	.LVL229
 20631 15c7 8E050000 		.4byte	.LVL230
 20632 15cb 0200     		.2byte	0x2
 20633 15cd 90       		.byte	0x90
 20634 15ce 40       		.uleb128 0x40
 20635 15cf 00000000 		.4byte	0
 20636 15d3 00000000 		.4byte	0
 20637              	.LLST57:
 20638 15d7 00000000 		.4byte	.LVL297
 20639 15db 0D000000 		.4byte	.LVL298-1
 20640 15df 0200     		.2byte	0x2
 20641 15e1 90       		.byte	0x90
 20642 15e2 40       		.uleb128 0x40
 20643 15e3 0D000000 		.4byte	.LVL298-1
 20644 15e7 28000000 		.4byte	.LVL299
 20645 15eb 0200     		.2byte	0x2
 20646 15ed 90       		.byte	0x90
 20647 15ee 50       		.uleb128 0x50
 20648 15ef 28000000 		.4byte	.LVL299
 20649 15f3 38000000 		.4byte	.LVL300
 20650 15f7 0600     		.2byte	0x6
 20651 15f9 F3       		.byte	0xf3
 20652 15fa 03       		.uleb128 0x3
 20653 15fb F5       		.byte	0xf5
 20654 15fc 40       		.uleb128 0x40
 20655 15fd 25       		.uleb128 0x25
 20656 15fe 9F       		.byte	0x9f
ARM GAS  C:\Users\CHRIST~1\AppData\Local\Temp\ccb3oWGE.s 			page 365


 20657 15ff 38000000 		.4byte	.LVL300
 20658 1603 3C000000 		.4byte	.LVL301
 20659 1607 0200     		.2byte	0x2
 20660 1609 90       		.byte	0x90
 20661 160a 50       		.uleb128 0x50
 20662 160b 3C000000 		.4byte	.LVL301
 20663 160f 3E000000 		.4byte	.LVL302
 20664 1613 0600     		.2byte	0x6
 20665 1615 F3       		.byte	0xf3
 20666 1616 03       		.uleb128 0x3
 20667 1617 F5       		.byte	0xf5
 20668 1618 40       		.uleb128 0x40
 20669 1619 25       		.uleb128 0x25
 20670 161a 9F       		.byte	0x9f
 20671 161b 3E000000 		.4byte	.LVL302
 20672 161f 48000000 		.4byte	.LVL303
 20673 1623 0200     		.2byte	0x2
 20674 1625 90       		.byte	0x90
 20675 1626 50       		.uleb128 0x50
 20676 1627 48000000 		.4byte	.LVL303
 20677 162b 5C000000 		.4byte	.LFE267
 20678 162f 0600     		.2byte	0x6
 20679 1631 F3       		.byte	0xf3
 20680 1632 03       		.uleb128 0x3
 20681 1633 F5       		.byte	0xf5
 20682 1634 40       		.uleb128 0x40
 20683 1635 25       		.uleb128 0x25
 20684 1636 9F       		.byte	0x9f
 20685 1637 00000000 		.4byte	0
 20686 163b 00000000 		.4byte	0
 20687              	.LLST58:
 20688 163f 3E000000 		.4byte	.LVL302
 20689 1643 48000000 		.4byte	.LVL303
 20690 1647 0200     		.2byte	0x2
 20691 1649 90       		.byte	0x90
 20692 164a 50       		.uleb128 0x50
 20693 164b 48000000 		.4byte	.LVL303
 20694 164f 5C000000 		.4byte	.LFE267
 20695 1653 0600     		.2byte	0x6
 20696 1655 F3       		.byte	0xf3
 20697 1656 03       		.uleb128 0x3
 20698 1657 F5       		.byte	0xf5
 20699 1658 40       		.uleb128 0x40
 20700 1659 25       		.uleb128 0x25
 20701 165a 9F       		.byte	0x9f
 20702 165b 00000000 		.4byte	0
 20703 165f 00000000 		.4byte	0
 20704              	.LLST62:
 20705 1663 00000000 		.4byte	.LVL330
 20706 1667 0D000000 		.4byte	.LVL331-1
 20707 166b 0200     		.2byte	0x2
 20708 166d 90       		.byte	0x90
 20709 166e 40       		.uleb128 0x40
 20710 166f 0D000000 		.4byte	.LVL331-1
 20711 1673 28000000 		.4byte	.LVL332
 20712 1677 0200     		.2byte	0x2
 20713 1679 90       		.byte	0x90
ARM GAS  C:\Users\CHRIST~1\AppData\Local\Temp\ccb3oWGE.s 			page 366


 20714 167a 50       		.uleb128 0x50
 20715 167b 28000000 		.4byte	.LVL332
 20716 167f 38000000 		.4byte	.LVL333
 20717 1683 0600     		.2byte	0x6
 20718 1685 F3       		.byte	0xf3
 20719 1686 03       		.uleb128 0x3
 20720 1687 F5       		.byte	0xf5
 20721 1688 40       		.uleb128 0x40
 20722 1689 25       		.uleb128 0x25
 20723 168a 9F       		.byte	0x9f
 20724 168b 38000000 		.4byte	.LVL333
 20725 168f 3C000000 		.4byte	.LVL334
 20726 1693 0200     		.2byte	0x2
 20727 1695 90       		.byte	0x90
 20728 1696 50       		.uleb128 0x50
 20729 1697 3C000000 		.4byte	.LVL334
 20730 169b 3E000000 		.4byte	.LVL335
 20731 169f 0600     		.2byte	0x6
 20732 16a1 F3       		.byte	0xf3
 20733 16a2 03       		.uleb128 0x3
 20734 16a3 F5       		.byte	0xf5
 20735 16a4 40       		.uleb128 0x40
 20736 16a5 25       		.uleb128 0x25
 20737 16a6 9F       		.byte	0x9f
 20738 16a7 3E000000 		.4byte	.LVL335
 20739 16ab 48000000 		.4byte	.LVL336
 20740 16af 0200     		.2byte	0x2
 20741 16b1 90       		.byte	0x90
 20742 16b2 50       		.uleb128 0x50
 20743 16b3 48000000 		.4byte	.LVL336
 20744 16b7 5C000000 		.4byte	.LFE271
 20745 16bb 0600     		.2byte	0x6
 20746 16bd F3       		.byte	0xf3
 20747 16be 03       		.uleb128 0x3
 20748 16bf F5       		.byte	0xf5
 20749 16c0 40       		.uleb128 0x40
 20750 16c1 25       		.uleb128 0x25
 20751 16c2 9F       		.byte	0x9f
 20752 16c3 00000000 		.4byte	0
 20753 16c7 00000000 		.4byte	0
 20754              	.LLST63:
 20755 16cb 3E000000 		.4byte	.LVL335
 20756 16cf 48000000 		.4byte	.LVL336
 20757 16d3 0200     		.2byte	0x2
 20758 16d5 90       		.byte	0x90
 20759 16d6 50       		.uleb128 0x50
 20760 16d7 48000000 		.4byte	.LVL336
 20761 16db 5C000000 		.4byte	.LFE271
 20762 16df 0600     		.2byte	0x6
 20763 16e1 F3       		.byte	0xf3
 20764 16e2 03       		.uleb128 0x3
 20765 16e3 F5       		.byte	0xf5
 20766 16e4 40       		.uleb128 0x40
 20767 16e5 25       		.uleb128 0x25
 20768 16e6 9F       		.byte	0x9f
 20769 16e7 00000000 		.4byte	0
 20770 16eb 00000000 		.4byte	0
ARM GAS  C:\Users\CHRIST~1\AppData\Local\Temp\ccb3oWGE.s 			page 367


 20771              	.LLST65:
 20772 16ef 00000000 		.4byte	.LVL344
 20773 16f3 0D000000 		.4byte	.LVL345-1
 20774 16f7 0200     		.2byte	0x2
 20775 16f9 90       		.byte	0x90
 20776 16fa 40       		.uleb128 0x40
 20777 16fb 0D000000 		.4byte	.LVL345-1
 20778 16ff 28000000 		.4byte	.LVL346
 20779 1703 0200     		.2byte	0x2
 20780 1705 90       		.byte	0x90
 20781 1706 50       		.uleb128 0x50
 20782 1707 28000000 		.4byte	.LVL346
 20783 170b 38000000 		.4byte	.LVL347
 20784 170f 0600     		.2byte	0x6
 20785 1711 F3       		.byte	0xf3
 20786 1712 03       		.uleb128 0x3
 20787 1713 F5       		.byte	0xf5
 20788 1714 40       		.uleb128 0x40
 20789 1715 25       		.uleb128 0x25
 20790 1716 9F       		.byte	0x9f
 20791 1717 38000000 		.4byte	.LVL347
 20792 171b 3C000000 		.4byte	.LVL348
 20793 171f 0200     		.2byte	0x2
 20794 1721 90       		.byte	0x90
 20795 1722 50       		.uleb128 0x50
 20796 1723 3C000000 		.4byte	.LVL348
 20797 1727 3E000000 		.4byte	.LVL349
 20798 172b 0600     		.2byte	0x6
 20799 172d F3       		.byte	0xf3
 20800 172e 03       		.uleb128 0x3
 20801 172f F5       		.byte	0xf5
 20802 1730 40       		.uleb128 0x40
 20803 1731 25       		.uleb128 0x25
 20804 1732 9F       		.byte	0x9f
 20805 1733 3E000000 		.4byte	.LVL349
 20806 1737 48000000 		.4byte	.LVL350
 20807 173b 0200     		.2byte	0x2
 20808 173d 90       		.byte	0x90
 20809 173e 50       		.uleb128 0x50
 20810 173f 48000000 		.4byte	.LVL350
 20811 1743 5C000000 		.4byte	.LFE272
 20812 1747 0600     		.2byte	0x6
 20813 1749 F3       		.byte	0xf3
 20814 174a 03       		.uleb128 0x3
 20815 174b F5       		.byte	0xf5
 20816 174c 40       		.uleb128 0x40
 20817 174d 25       		.uleb128 0x25
 20818 174e 9F       		.byte	0x9f
 20819 174f 00000000 		.4byte	0
 20820 1753 00000000 		.4byte	0
 20821              	.LLST66:
 20822 1757 3E000000 		.4byte	.LVL349
 20823 175b 48000000 		.4byte	.LVL350
 20824 175f 0200     		.2byte	0x2
 20825 1761 90       		.byte	0x90
 20826 1762 50       		.uleb128 0x50
 20827 1763 48000000 		.4byte	.LVL350
ARM GAS  C:\Users\CHRIST~1\AppData\Local\Temp\ccb3oWGE.s 			page 368


 20828 1767 5C000000 		.4byte	.LFE272
 20829 176b 0600     		.2byte	0x6
 20830 176d F3       		.byte	0xf3
 20831 176e 03       		.uleb128 0x3
 20832 176f F5       		.byte	0xf5
 20833 1770 40       		.uleb128 0x40
 20834 1771 25       		.uleb128 0x25
 20835 1772 9F       		.byte	0x9f
 20836 1773 00000000 		.4byte	0
 20837 1777 00000000 		.4byte	0
 20838              	.LLST69:
 20839 177b 00000000 		.4byte	.LVL363
 20840 177f 0B000000 		.4byte	.LVL364-1
 20841 1783 0100     		.2byte	0x1
 20842 1785 50       		.byte	0x50
 20843 1786 0B000000 		.4byte	.LVL364-1
 20844 178a 0C000000 		.4byte	.LVL364
 20845 178e 0400     		.2byte	0x4
 20846 1790 F3       		.byte	0xf3
 20847 1791 01       		.uleb128 0x1
 20848 1792 50       		.byte	0x50
 20849 1793 9F       		.byte	0x9f
 20850 1794 0C000000 		.4byte	.LVL364
 20851 1798 24000000 		.4byte	.LFE306
 20852 179c 0100     		.2byte	0x1
 20853 179e 50       		.byte	0x50
 20854 179f 00000000 		.4byte	0
 20855 17a3 00000000 		.4byte	0
 20856              		.section	.debug_aranges,"",%progbits
 20857 0000 DC010000 		.4byte	0x1dc
 20858 0004 0200     		.2byte	0x2
 20859 0006 00000000 		.4byte	.Ldebug_info0
 20860 000a 04       		.byte	0x4
 20861 000b 00       		.byte	0
 20862 000c 0000     		.2byte	0
 20863 000e 0000     		.2byte	0
 20864 0010 00000000 		.4byte	.LFB311
 20865 0014 40020000 		.4byte	.LFE311-.LFB311
 20866 0018 00000000 		.4byte	.LFB256
 20867 001c 78010000 		.4byte	.LFE256-.LFB256
 20868 0020 00000000 		.4byte	.LFB257
 20869 0024 08000000 		.4byte	.LFE257-.LFB257
 20870 0028 00000000 		.4byte	.LFB259
 20871 002c 20000000 		.4byte	.LFE259-.LFB259
 20872 0030 00000000 		.4byte	.LFB260
 20873 0034 0C000000 		.4byte	.LFE260-.LFB260
 20874 0038 00000000 		.4byte	.LFB261
 20875 003c 0C000000 		.4byte	.LFE261-.LFB261
 20876 0040 00000000 		.4byte	.LFB262
 20877 0044 0C000000 		.4byte	.LFE262-.LFB262
 20878 0048 00000000 		.4byte	.LFB263
 20879 004c 0C000000 		.4byte	.LFE263-.LFB263
 20880 0050 00000000 		.4byte	.LFB264
 20881 0054 0C000000 		.4byte	.LFE264-.LFB264
 20882 0058 00000000 		.4byte	.LFB265
 20883 005c 18000000 		.4byte	.LFE265-.LFB265
 20884 0060 00000000 		.4byte	.LFB266
ARM GAS  C:\Users\CHRIST~1\AppData\Local\Temp\ccb3oWGE.s 			page 369


 20885 0064 20000000 		.4byte	.LFE266-.LFB266
 20886 0068 00000000 		.4byte	.LFB278
 20887 006c 38000000 		.4byte	.LFE278-.LFB278
 20888 0070 00000000 		.4byte	.LFB279
 20889 0074 38000000 		.4byte	.LFE279-.LFB279
 20890 0078 00000000 		.4byte	.LFB280
 20891 007c 24000000 		.4byte	.LFE280-.LFB280
 20892 0080 00000000 		.4byte	.LFB281
 20893 0084 38000000 		.4byte	.LFE281-.LFB281
 20894 0088 00000000 		.4byte	.LFB282
 20895 008c 20000000 		.4byte	.LFE282-.LFB282
 20896 0090 00000000 		.4byte	.LFB283
 20897 0094 20000000 		.4byte	.LFE283-.LFB283
 20898 0098 00000000 		.4byte	.LFB284
 20899 009c 20000000 		.4byte	.LFE284-.LFB284
 20900 00a0 00000000 		.4byte	.LFB285
 20901 00a4 20000000 		.4byte	.LFE285-.LFB285
 20902 00a8 00000000 		.4byte	.LFB286
 20903 00ac 24000000 		.4byte	.LFE286-.LFB286
 20904 00b0 00000000 		.4byte	.LFB287
 20905 00b4 24000000 		.4byte	.LFE287-.LFB287
 20906 00b8 00000000 		.4byte	.LFB288
 20907 00bc 38000000 		.4byte	.LFE288-.LFB288
 20908 00c0 00000000 		.4byte	.LFB289
 20909 00c4 38000000 		.4byte	.LFE289-.LFB289
 20910 00c8 00000000 		.4byte	.LFB290
 20911 00cc 24000000 		.4byte	.LFE290-.LFB290
 20912 00d0 00000000 		.4byte	.LFB291
 20913 00d4 24000000 		.4byte	.LFE291-.LFB291
 20914 00d8 00000000 		.4byte	.LFB292
 20915 00dc 4C000000 		.4byte	.LFE292-.LFB292
 20916 00e0 00000000 		.4byte	.LFB315
 20917 00e4 40010000 		.4byte	.LFE315-.LFB315
 20918 00e8 00000000 		.4byte	.LFB316
 20919 00ec 94050000 		.4byte	.LFE316-.LFB316
 20920 00f0 00000000 		.4byte	.LFB258
 20921 00f4 DC000000 		.4byte	.LFE258-.LFB258
 20922 00f8 00000000 		.4byte	.LFB310
 20923 00fc 48000000 		.4byte	.LFE310-.LFB310
 20924 0100 00000000 		.4byte	.LFB293
 20925 0104 20000000 		.4byte	.LFE293-.LFB293
 20926 0108 00000000 		.4byte	.LFB294
 20927 010c 24000000 		.4byte	.LFE294-.LFB294
 20928 0110 00000000 		.4byte	.LFB295
 20929 0114 20000000 		.4byte	.LFE295-.LFB295
 20930 0118 00000000 		.4byte	.LFB296
 20931 011c 20000000 		.4byte	.LFE296-.LFB296
 20932 0120 00000000 		.4byte	.LFB297
 20933 0124 30000000 		.4byte	.LFE297-.LFB297
 20934 0128 00000000 		.4byte	.LFB298
 20935 012c 30000000 		.4byte	.LFE298-.LFB298
 20936 0130 00000000 		.4byte	.LFB299
 20937 0134 0C000000 		.4byte	.LFE299-.LFB299
 20938 0138 00000000 		.4byte	.LFB300
 20939 013c 38000000 		.4byte	.LFE300-.LFB300
 20940 0140 00000000 		.4byte	.LFB301
 20941 0144 0C000000 		.4byte	.LFE301-.LFB301
ARM GAS  C:\Users\CHRIST~1\AppData\Local\Temp\ccb3oWGE.s 			page 370


 20942 0148 00000000 		.4byte	.LFB302
 20943 014c 50000000 		.4byte	.LFE302-.LFB302
 20944 0150 00000000 		.4byte	.LFB303
 20945 0154 0C000000 		.4byte	.LFE303-.LFB303
 20946 0158 00000000 		.4byte	.LFB304
 20947 015c 0C000000 		.4byte	.LFE304-.LFB304
 20948 0160 00000000 		.4byte	.LFB305
 20949 0164 74000000 		.4byte	.LFE305-.LFB305
 20950 0168 00000000 		.4byte	.LFB267
 20951 016c 5C000000 		.4byte	.LFE267-.LFB267
 20952 0170 00000000 		.4byte	.LFB276
 20953 0174 0C000000 		.4byte	.LFE276-.LFB276
 20954 0178 00000000 		.4byte	.LFB268
 20955 017c 5C000000 		.4byte	.LFE268-.LFB268
 20956 0180 00000000 		.4byte	.LFB269
 20957 0184 5C000000 		.4byte	.LFE269-.LFB269
 20958 0188 00000000 		.4byte	.LFB270
 20959 018c 84000000 		.4byte	.LFE270-.LFB270
 20960 0190 00000000 		.4byte	.LFB271
 20961 0194 5C000000 		.4byte	.LFE271-.LFB271
 20962 0198 00000000 		.4byte	.LFB273
 20963 019c 2C000000 		.4byte	.LFE273-.LFB273
 20964 01a0 00000000 		.4byte	.LFB277
 20965 01a4 0C000000 		.4byte	.LFE277-.LFB277
 20966 01a8 00000000 		.4byte	.LFB272
 20967 01ac 5C000000 		.4byte	.LFE272-.LFB272
 20968 01b0 00000000 		.4byte	.LFB274
 20969 01b4 14000000 		.4byte	.LFE274-.LFB274
 20970 01b8 00000000 		.4byte	.LFB275
 20971 01bc 48000000 		.4byte	.LFE275-.LFB275
 20972 01c0 00000000 		.4byte	.LFB306
 20973 01c4 24000000 		.4byte	.LFE306-.LFB306
 20974 01c8 00000000 		.4byte	.LFB307
 20975 01cc 10070000 		.4byte	.LFE307-.LFB307
 20976 01d0 00000000 		.4byte	.LFB308
 20977 01d4 14000000 		.4byte	.LFE308-.LFB308
 20978 01d8 00000000 		.4byte	0
 20979 01dc 00000000 		.4byte	0
 20980              		.section	.debug_ranges,"",%progbits
 20981              	.Ldebug_ranges0:
 20982 0000 04000000 		.4byte	.LBB109
 20983 0004 06000000 		.4byte	.LBE109
 20984 0008 08000000 		.4byte	.LBB113
 20985 000c 16000000 		.4byte	.LBE113
 20986 0010 2E000000 		.4byte	.LBB124
 20987 0014 30000000 		.4byte	.LBE124
 20988 0018 00000000 		.4byte	0
 20989 001c 00000000 		.4byte	0
 20990 0020 1A000000 		.4byte	.LBB114
 20991 0024 2E000000 		.4byte	.LBE114
 20992 0028 34000000 		.4byte	.LBB125
 20993 002c 40020000 		.4byte	.LBE125
 20994 0030 00000000 		.4byte	0
 20995 0034 00000000 		.4byte	0
 20996 0038 1A000000 		.4byte	.LBB115
 20997 003c 2E000000 		.4byte	.LBE115
 20998 0040 54000000 		.4byte	.LBB121
ARM GAS  C:\Users\CHRIST~1\AppData\Local\Temp\ccb3oWGE.s 			page 371


 20999 0044 58000000 		.4byte	.LBE121
 21000 0048 5E000000 		.4byte	.LBB122
 21001 004c 64000000 		.4byte	.LBE122
 21002 0050 68000000 		.4byte	.LBB123
 21003 0054 E0010000 		.4byte	.LBE123
 21004 0058 00000000 		.4byte	0
 21005 005c 00000000 		.4byte	0
 21006 0060 1A000000 		.4byte	.LBB116
 21007 0064 2E000000 		.4byte	.LBE116
 21008 0068 60000000 		.4byte	.LBB117
 21009 006c 64000000 		.4byte	.LBE117
 21010 0070 68000000 		.4byte	.LBB118
 21011 0074 D6000000 		.4byte	.LBE118
 21012 0078 D8000000 		.4byte	.LBB119
 21013 007c C0010000 		.4byte	.LBE119
 21014 0080 C6010000 		.4byte	.LBB120
 21015 0084 E0010000 		.4byte	.LBE120
 21016 0088 00000000 		.4byte	0
 21017 008c 00000000 		.4byte	0
 21018 0090 DA020000 		.4byte	.LBB127
 21019 0094 E6020000 		.4byte	.LBE127
 21020 0098 EA020000 		.4byte	.LBB132
 21021 009c F0020000 		.4byte	.LBE132
 21022 00a0 7C050000 		.4byte	.LBB147
 21023 00a4 7E050000 		.4byte	.LBE147
 21024 00a8 82050000 		.4byte	.LBB148
 21025 00ac 88050000 		.4byte	.LBE148
 21026 00b0 00000000 		.4byte	0
 21027 00b4 00000000 		.4byte	0
 21028 00b8 58030000 		.4byte	.LBB133
 21029 00bc 64030000 		.4byte	.LBE133
 21030 00c0 68030000 		.4byte	.LBB138
 21031 00c4 6E030000 		.4byte	.LBE138
 21032 00c8 6C050000 		.4byte	.LBB145
 21033 00cc 6E050000 		.4byte	.LBE145
 21034 00d0 72050000 		.4byte	.LBB146
 21035 00d4 78050000 		.4byte	.LBE146
 21036 00d8 00000000 		.4byte	0
 21037 00dc 00000000 		.4byte	0
 21038 00e0 B4030000 		.4byte	.LBB139
 21039 00e4 04040000 		.4byte	.LBE139
 21040 00e8 08040000 		.4byte	.LBB140
 21041 00ec 32040000 		.4byte	.LBE140
 21042 00f0 50050000 		.4byte	.LBB144
 21043 00f4 68050000 		.4byte	.LBE144
 21044 00f8 00000000 		.4byte	0
 21045 00fc 00000000 		.4byte	0
 21046 0100 32040000 		.4byte	.LBB141
 21047 0104 80040000 		.4byte	.LBE141
 21048 0108 84040000 		.4byte	.LBB142
 21049 010c AC040000 		.4byte	.LBE142
 21050 0110 38050000 		.4byte	.LBB143
 21051 0114 50050000 		.4byte	.LBE143
 21052 0118 00000000 		.4byte	0
 21053 011c 00000000 		.4byte	0
 21054 0120 00000000 		.4byte	.LBB149
 21055 0124 08000000 		.4byte	.LBE149
ARM GAS  C:\Users\CHRIST~1\AppData\Local\Temp\ccb3oWGE.s 			page 372


 21056 0128 10000000 		.4byte	.LBB152
 21057 012c 14000000 		.4byte	.LBE152
 21058 0130 00000000 		.4byte	0
 21059 0134 00000000 		.4byte	0
 21060 0138 3E000000 		.4byte	.LBB155
 21061 013c 4C000000 		.4byte	.LBE155
 21062 0140 54000000 		.4byte	.LBB158
 21063 0144 5C000000 		.4byte	.LBE158
 21064 0148 00000000 		.4byte	0
 21065 014c 00000000 		.4byte	0
 21066 0150 3E000000 		.4byte	.LBB161
 21067 0154 4C000000 		.4byte	.LBE161
 21068 0158 54000000 		.4byte	.LBB164
 21069 015c 5C000000 		.4byte	.LBE164
 21070 0160 00000000 		.4byte	0
 21071 0164 00000000 		.4byte	0
 21072 0168 3E000000 		.4byte	.LBB167
 21073 016c 4C000000 		.4byte	.LBE167
 21074 0170 54000000 		.4byte	.LBB170
 21075 0174 5C000000 		.4byte	.LBE170
 21076 0178 00000000 		.4byte	0
 21077 017c 00000000 		.4byte	0
 21078 0180 2C010000 		.4byte	.LBB171
 21079 0184 3C010000 		.4byte	.LBE171
 21080 0188 B8030000 		.4byte	.LBB198
 21081 018c C4030000 		.4byte	.LBE198
 21082 0190 00000000 		.4byte	0
 21083 0194 00000000 		.4byte	0
 21084 0198 60010000 		.4byte	.LBB174
 21085 019c C4010000 		.4byte	.LBE174
 21086 01a0 E2040000 		.4byte	.LBB251
 21087 01a4 00050000 		.4byte	.LBE251
 21088 01a8 00000000 		.4byte	0
 21089 01ac 00000000 		.4byte	0
 21090 01b0 EE010000 		.4byte	.LBB177
 21091 01b4 64020000 		.4byte	.LBE177
 21092 01b8 9A040000 		.4byte	.LBB247
 21093 01bc A2040000 		.4byte	.LBE247
 21094 01c0 00000000 		.4byte	0
 21095 01c4 00000000 		.4byte	0
 21096 01c8 64020000 		.4byte	.LBB180
 21097 01cc 94020000 		.4byte	.LBE180
 21098 01d0 B6040000 		.4byte	.LBB249
 21099 01d4 CA040000 		.4byte	.LBE249
 21100 01d8 28050000 		.4byte	.LBB253
 21101 01dc C0050000 		.4byte	.LBE253
 21102 01e0 C2060000 		.4byte	.LBB256
 21103 01e4 10070000 		.4byte	.LBE256
 21104 01e8 00000000 		.4byte	0
 21105 01ec 00000000 		.4byte	0
 21106 01f0 94020000 		.4byte	.LBB191
 21107 01f4 9E030000 		.4byte	.LBE191
 21108 01f8 C0050000 		.4byte	.LBB254
 21109 01fc 98060000 		.4byte	.LBE254
 21110 0200 00000000 		.4byte	0
 21111 0204 00000000 		.4byte	0
 21112 0208 A4020000 		.4byte	.LBB192
ARM GAS  C:\Users\CHRIST~1\AppData\Local\Temp\ccb3oWGE.s 			page 373


 21113 020c 9E030000 		.4byte	.LBE192
 21114 0210 C0050000 		.4byte	.LBB197
 21115 0214 98060000 		.4byte	.LBE197
 21116 0218 00000000 		.4byte	0
 21117 021c 00000000 		.4byte	0
 21118 0220 86030000 		.4byte	.LBB193
 21119 0224 88030000 		.4byte	.LBE193
 21120 0228 9A030000 		.4byte	.LBB196
 21121 022c 9C030000 		.4byte	.LBE196
 21122 0230 00000000 		.4byte	0
 21123 0234 00000000 		.4byte	0
 21124 0238 C8030000 		.4byte	.LBB199
 21125 023c CA030000 		.4byte	.LBE199
 21126 0240 D2030000 		.4byte	.LBB204
 21127 0244 D4030000 		.4byte	.LBE204
 21128 0248 DA030000 		.4byte	.LBB205
 21129 024c E6030000 		.4byte	.LBE205
 21130 0250 B0040000 		.4byte	.LBB248
 21131 0254 B6040000 		.4byte	.LBE248
 21132 0258 00000000 		.4byte	0
 21133 025c 00000000 		.4byte	0
 21134 0260 02040000 		.4byte	.LBB206
 21135 0264 20040000 		.4byte	.LBE206
 21136 0268 CA040000 		.4byte	.LBB250
 21137 026c E2040000 		.4byte	.LBE250
 21138 0270 00050000 		.4byte	.LBB252
 21139 0274 28050000 		.4byte	.LBE252
 21140 0278 AA060000 		.4byte	.LBB255
 21141 027c C2060000 		.4byte	.LBE255
 21142 0280 00000000 		.4byte	0
 21143 0284 00000000 		.4byte	0
 21144 0288 4E040000 		.4byte	.LBB217
 21145 028c 50040000 		.4byte	.LBE217
 21146 0290 54040000 		.4byte	.LBB226
 21147 0294 58040000 		.4byte	.LBE226
 21148 0298 00000000 		.4byte	0
 21149 029c 00000000 		.4byte	0
 21150 02a0 84040000 		.4byte	.LBB232
 21151 02a4 86040000 		.4byte	.LBE232
 21152 02a8 88040000 		.4byte	.LBB241
 21153 02ac 8C040000 		.4byte	.LBE241
 21154 02b0 00000000 		.4byte	0
 21155 02b4 00000000 		.4byte	0
 21156 02b8 00000000 		.4byte	.LFB311
 21157 02bc 40020000 		.4byte	.LFE311
 21158 02c0 00000000 		.4byte	.LFB256
 21159 02c4 78010000 		.4byte	.LFE256
 21160 02c8 00000000 		.4byte	.LFB257
 21161 02cc 08000000 		.4byte	.LFE257
 21162 02d0 00000000 		.4byte	.LFB259
 21163 02d4 20000000 		.4byte	.LFE259
 21164 02d8 00000000 		.4byte	.LFB260
 21165 02dc 0C000000 		.4byte	.LFE260
 21166 02e0 00000000 		.4byte	.LFB261
 21167 02e4 0C000000 		.4byte	.LFE261
 21168 02e8 00000000 		.4byte	.LFB262
 21169 02ec 0C000000 		.4byte	.LFE262
ARM GAS  C:\Users\CHRIST~1\AppData\Local\Temp\ccb3oWGE.s 			page 374


 21170 02f0 00000000 		.4byte	.LFB263
 21171 02f4 0C000000 		.4byte	.LFE263
 21172 02f8 00000000 		.4byte	.LFB264
 21173 02fc 0C000000 		.4byte	.LFE264
 21174 0300 00000000 		.4byte	.LFB265
 21175 0304 18000000 		.4byte	.LFE265
 21176 0308 00000000 		.4byte	.LFB266
 21177 030c 20000000 		.4byte	.LFE266
 21178 0310 00000000 		.4byte	.LFB278
 21179 0314 38000000 		.4byte	.LFE278
 21180 0318 00000000 		.4byte	.LFB279
 21181 031c 38000000 		.4byte	.LFE279
 21182 0320 00000000 		.4byte	.LFB280
 21183 0324 24000000 		.4byte	.LFE280
 21184 0328 00000000 		.4byte	.LFB281
 21185 032c 38000000 		.4byte	.LFE281
 21186 0330 00000000 		.4byte	.LFB282
 21187 0334 20000000 		.4byte	.LFE282
 21188 0338 00000000 		.4byte	.LFB283
 21189 033c 20000000 		.4byte	.LFE283
 21190 0340 00000000 		.4byte	.LFB284
 21191 0344 20000000 		.4byte	.LFE284
 21192 0348 00000000 		.4byte	.LFB285
 21193 034c 20000000 		.4byte	.LFE285
 21194 0350 00000000 		.4byte	.LFB286
 21195 0354 24000000 		.4byte	.LFE286
 21196 0358 00000000 		.4byte	.LFB287
 21197 035c 24000000 		.4byte	.LFE287
 21198 0360 00000000 		.4byte	.LFB288
 21199 0364 38000000 		.4byte	.LFE288
 21200 0368 00000000 		.4byte	.LFB289
 21201 036c 38000000 		.4byte	.LFE289
 21202 0370 00000000 		.4byte	.LFB290
 21203 0374 24000000 		.4byte	.LFE290
 21204 0378 00000000 		.4byte	.LFB291
 21205 037c 24000000 		.4byte	.LFE291
 21206 0380 00000000 		.4byte	.LFB292
 21207 0384 4C000000 		.4byte	.LFE292
 21208 0388 00000000 		.4byte	.LFB315
 21209 038c 40010000 		.4byte	.LFE315
 21210 0390 00000000 		.4byte	.LFB316
 21211 0394 94050000 		.4byte	.LFE316
 21212 0398 00000000 		.4byte	.LFB258
 21213 039c DC000000 		.4byte	.LFE258
 21214 03a0 00000000 		.4byte	.LFB310
 21215 03a4 48000000 		.4byte	.LFE310
 21216 03a8 00000000 		.4byte	.LFB293
 21217 03ac 20000000 		.4byte	.LFE293
 21218 03b0 00000000 		.4byte	.LFB294
 21219 03b4 24000000 		.4byte	.LFE294
 21220 03b8 00000000 		.4byte	.LFB295
 21221 03bc 20000000 		.4byte	.LFE295
 21222 03c0 00000000 		.4byte	.LFB296
 21223 03c4 20000000 		.4byte	.LFE296
 21224 03c8 00000000 		.4byte	.LFB297
 21225 03cc 30000000 		.4byte	.LFE297
 21226 03d0 00000000 		.4byte	.LFB298
ARM GAS  C:\Users\CHRIST~1\AppData\Local\Temp\ccb3oWGE.s 			page 375


 21227 03d4 30000000 		.4byte	.LFE298
 21228 03d8 00000000 		.4byte	.LFB299
 21229 03dc 0C000000 		.4byte	.LFE299
 21230 03e0 00000000 		.4byte	.LFB300
 21231 03e4 38000000 		.4byte	.LFE300
 21232 03e8 00000000 		.4byte	.LFB301
 21233 03ec 0C000000 		.4byte	.LFE301
 21234 03f0 00000000 		.4byte	.LFB302
 21235 03f4 50000000 		.4byte	.LFE302
 21236 03f8 00000000 		.4byte	.LFB303
 21237 03fc 0C000000 		.4byte	.LFE303
 21238 0400 00000000 		.4byte	.LFB304
 21239 0404 0C000000 		.4byte	.LFE304
 21240 0408 00000000 		.4byte	.LFB305
 21241 040c 74000000 		.4byte	.LFE305
 21242 0410 00000000 		.4byte	.LFB267
 21243 0414 5C000000 		.4byte	.LFE267
 21244 0418 00000000 		.4byte	.LFB276
 21245 041c 0C000000 		.4byte	.LFE276
 21246 0420 00000000 		.4byte	.LFB268
 21247 0424 5C000000 		.4byte	.LFE268
 21248 0428 00000000 		.4byte	.LFB269
 21249 042c 5C000000 		.4byte	.LFE269
 21250 0430 00000000 		.4byte	.LFB270
 21251 0434 84000000 		.4byte	.LFE270
 21252 0438 00000000 		.4byte	.LFB271
 21253 043c 5C000000 		.4byte	.LFE271
 21254 0440 00000000 		.4byte	.LFB273
 21255 0444 2C000000 		.4byte	.LFE273
 21256 0448 00000000 		.4byte	.LFB277
 21257 044c 0C000000 		.4byte	.LFE277
 21258 0450 00000000 		.4byte	.LFB272
 21259 0454 5C000000 		.4byte	.LFE272
 21260 0458 00000000 		.4byte	.LFB274
 21261 045c 14000000 		.4byte	.LFE274
 21262 0460 00000000 		.4byte	.LFB275
 21263 0464 48000000 		.4byte	.LFE275
 21264 0468 00000000 		.4byte	.LFB306
 21265 046c 24000000 		.4byte	.LFE306
 21266 0470 00000000 		.4byte	.LFB307
 21267 0474 10070000 		.4byte	.LFE307
 21268 0478 00000000 		.4byte	.LFB308
 21269 047c 14000000 		.4byte	.LFE308
 21270 0480 00000000 		.4byte	0
 21271 0484 00000000 		.4byte	0
 21272              		.section	.debug_line,"",%progbits
 21273              	.Ldebug_line0:
 21274 0000 54100000 		.section	.debug_str,"MS",%progbits,1
 21274      02005E06 
 21274      00000201 
 21274      FB0E0D00 
 21274      01010101 
 21275              	.LASF598:
 21276 0000 5553425F 		.ascii	"USB_STOP\000"
 21276      53544F50 
 21276      00
 21277              	.LASF149:
ARM GAS  C:\Users\CHRIST~1\AppData\Local\Temp\ccb3oWGE.s 			page 376


 21278 0009 706F7274 		.ascii	"port_intctx\000"
 21278      5F696E74 
 21278      63747800 
 21279              	.LASF273:
 21280 0015 6C5F6D61 		.ascii	"l_max_erpm_fbrake\000"
 21280      785F6572 
 21280      706D5F66 
 21280      6272616B 
 21280      6500
 21281              	.LASF171:
 21282 0027 63685F70 		.ascii	"ch_ptrsize\000"
 21282      74727369 
 21282      7A6500
 21283              	.LASF269:
 21284 0032 6C5F6162 		.ascii	"l_abs_current_max\000"
 21284      735F6375 
 21284      7272656E 
 21284      745F6D61 
 21284      7800
 21285              	.LASF832:
 21286 0044 5F6D6272 		.ascii	"_mbrtowc_state\000"
 21286      746F7763 
 21286      5F737461 
 21286      746500
 21287              	.LASF457:
 21288 0053 43414E5F 		.ascii	"CAN_STARTING\000"
 21288      53544152 
 21288      54494E47 
 21288      00
 21289              	.LASF868:
 21290 0060 6D5F706F 		.ascii	"m_position_set\000"
 21290      73697469 
 21290      6F6E5F73 
 21290      657400
 21291              	.LASF1065:
 21292 006f 656E636F 		.ascii	"encoder_deinit\000"
 21292      6465725F 
 21292      6465696E 
 21292      697400
 21293              	.LASF1041:
 21294 007e 6D637077 		.ascii	"mcpwm_get_tot_current_filtered\000"
 21294      6D5F6765 
 21294      745F746F 
 21294      745F6375 
 21294      7272656E 
 21295              	.LASF31:
 21296 009d 6D73675F 		.ascii	"msg_t\000"
 21296      7400
 21297              	.LASF483:
 21298 00a3 4F504D4F 		.ascii	"OPMODE_SMBUS_DEVICE\000"
 21298      44455F53 
 21298      4D425553 
 21298      5F444556 
 21298      49434500 
 21299              	.LASF1000:
 21300 00b7 706F7274 		.ascii	"port_unlock_from_isr\000"
 21300      5F756E6C 
ARM GAS  C:\Users\CHRIST~1\AppData\Local\Temp\ccb3oWGE.s 			page 377


 21300      6F636B5F 
 21300      66726F6D 
 21300      5F697372 
 21301              	.LASF551:
 21302 00cc 55415254 		.ascii	"UART_TX_IDLE\000"
 21302      5F54585F 
 21302      49444C45 
 21302      00
 21303              	.LASF388:
 21304 00d9 434F4D4D 		.ascii	"COMM_DETECT_HALL_FOC\000"
 21304      5F444554 
 21304      4543545F 
 21304      48414C4C 
 21304      5F464F43 
 21305              	.LASF315:
 21306 00ee 666F635F 		.ascii	"foc_observer_gain_slow\000"
 21306      6F627365 
 21306      72766572 
 21306      5F676169 
 21306      6E5F736C 
 21307              	.LASF1006:
 21308 0105 62756666 		.ascii	"buffer_append_float32_auto\000"
 21308      65725F61 
 21308      7070656E 
 21308      645F666C 
 21308      6F617433 
 21309              	.LASF657:
 21310 0120 44494550 		.ascii	"DIEPTXF0\000"
 21310      54584630 
 21310      00
 21311              	.LASF733:
 21312 0129 55534244 		.ascii	"USBD1\000"
 21312      3100
 21313              	.LASF456:
 21314 012f 43414E5F 		.ascii	"CAN_STOP\000"
 21314      53544F50 
 21314      00
 21315              	.LASF184:
 21316 0138 63665F6F 		.ascii	"cf_off_time\000"
 21316      66665F74 
 21316      696D6500 
 21317              	.LASF84:
 21318 0144 63685F73 		.ascii	"ch_system_t\000"
 21318      79737465 
 21318      6D5F7400 
 21319              	.LASF3:
 21320 0150 5F5F7569 		.ascii	"__uint8_t\000"
 21320      6E74385F 
 21320      7400
 21321              	.LASF156:
 21322 015a 77747365 		.ascii	"wtsemp\000"
 21322      6D7000
 21323              	.LASF358:
 21324 0161 5F426F6F 		.ascii	"_Bool\000"
 21324      6C00
 21325              	.LASF501:
 21326 0167 646D6172 		.ascii	"dmarx\000"
ARM GAS  C:\Users\CHRIST~1\AppData\Local\Temp\ccb3oWGE.s 			page 378


 21326      7800
 21327              	.LASF786:
 21328 016d 5F6D6273 		.ascii	"_mbstate\000"
 21328      74617465 
 21328      00
 21329              	.LASF765:
 21330 0176 5F617465 		.ascii	"_atexit\000"
 21330      78697400 
 21331              	.LASF422:
 21332 017e 73656C66 		.ascii	"selfindex\000"
 21332      696E6465 
 21332      7800
 21333              	.LASF991:
 21334 0188 6D635F69 		.ascii	"mc_interface_dccal_done\000"
 21334      6E746572 
 21334      66616365 
 21334      5F646363 
 21334      616C5F64 
 21335              	.LASF676:
 21336 01a0 72657376 		.ascii	"resvd700\000"
 21336      64373030 
 21336      00
 21337              	.LASF929:
 21338 01a9 6162735F 		.ascii	"abs_current_filtered\000"
 21338      63757272 
 21338      656E745F 
 21338      66696C74 
 21338      65726564 
 21339              	.LASF687:
 21340 01be 44564255 		.ascii	"DVBUSDIS\000"
 21340      53444953 
 21340      00
 21341              	.LASF495:
 21342 01c7 6572726F 		.ascii	"errors\000"
 21342      727300
 21343              	.LASF541:
 21344 01ce 73706963 		.ascii	"spicallback_t\000"
 21344      616C6C62 
 21344      61636B5F 
 21344      7400
 21345              	.LASF80:
 21346 01dc 76745F73 		.ascii	"vt_systime\000"
 21346      79737469 
 21346      6D6500
 21347              	.LASF353:
 21348 01e7 6D5F6472 		.ascii	"m_drv8301_oc_adj\000"
 21348      76383330 
 21348      315F6F63 
 21348      5F61646A 
 21348      00
 21349              	.LASF596:
 21350 01f8 75736265 		.ascii	"usbep_t\000"
 21350      705F7400 
 21351              	.LASF755:
 21352 0200 5F5F746D 		.ascii	"__tm_mon\000"
 21352      5F6D6F6E 
 21352      00
ARM GAS  C:\Users\CHRIST~1\AppData\Local\Temp\ccb3oWGE.s 			page 379


 21353              	.LASF763:
 21354 0209 5F666E74 		.ascii	"_fntypes\000"
 21354      79706573 
 21354      00
 21355              	.LASF165:
 21356 0212 6D5F6E65 		.ascii	"m_next\000"
 21356      787400
 21357              	.LASF445:
 21358 0219 50434461 		.ascii	"PCData\000"
 21358      746100
 21359              	.LASF900:
 21360 0220 6C6F5F6D 		.ascii	"lo_min_mos\000"
 21360      696E5F6D 
 21360      6F7300
 21361              	.LASF279:
 21362 022b 6C5F736C 		.ascii	"l_slow_abs_current\000"
 21362      6F775F61 
 21362      62735F63 
 21362      75727265 
 21362      6E7400
 21363              	.LASF793:
 21364 023e 5F696E63 		.ascii	"_inc\000"
 21364      00
 21365              	.LASF766:
 21366 0243 5F696E64 		.ascii	"_ind\000"
 21366      00
 21367              	.LASF661:
 21368 0248 47434346 		.ascii	"GCCFG\000"
 21368      4700
 21369              	.LASF268:
 21370 024e 6C5F696E 		.ascii	"l_in_current_min\000"
 21370      5F637572 
 21370      72656E74 
 21370      5F6D696E 
 21370      00
 21371              	.LASF141:
 21372 025f 42445452 		.ascii	"BDTR\000"
 21372      00
 21373              	.LASF493:
 21374 0264 49324343 		.ascii	"I2CConfig\000"
 21374      6F6E6669 
 21374      6700
 21375              	.LASF20:
 21376 026e 75696E74 		.ascii	"uint16_t\000"
 21376      31365F74 
 21376      00
 21377              	.LASF1028:
 21378 0277 6D637077 		.ascii	"mcpwm_foc_get_tachometer_abs_value\000"
 21378      6D5F666F 
 21378      635F6765 
 21378      745F7461 
 21378      63686F6D 
 21379              	.LASF1059:
 21380 029a 6D637077 		.ascii	"mcpwm_set_duty_noramp\000"
 21380      6D5F7365 
 21380      745F6475 
 21380      74795F6E 
ARM GAS  C:\Users\CHRIST~1\AppData\Local\Temp\ccb3oWGE.s 			page 380


 21380      6F72616D 
 21381              	.LASF502:
 21382 02b0 646D6174 		.ascii	"dmatx\000"
 21382      7800
 21383              	.LASF731:
 21384 02b6 736F665F 		.ascii	"sof_cb\000"
 21384      636200
 21385              	.LASF1012:
 21386 02bd 6D637077 		.ascii	"mcpwm_get_comm_step\000"
 21386      6D5F6765 
 21386      745F636F 
 21386      6D6D5F73 
 21386      74657000 
 21387              	.LASF772:
 21388 02d1 5F666C61 		.ascii	"_flags\000"
 21388      677300
 21389              	.LASF438:
 21390 02d8 6F737065 		.ascii	"ospeedr\000"
 21390      65647200 
 21391              	.LASF905:
 21392 02e0 74656D70 		.ascii	"temp_motor_accel_start\000"
 21392      5F6D6F74 
 21392      6F725F61 
 21392      6363656C 
 21392      5F737461 
 21393              	.LASF664:
 21394 02f7 44494550 		.ascii	"DIEPTXF\000"
 21394      54584600 
 21395              	.LASF190:
 21396 02ff 656C5F6E 		.ascii	"el_next\000"
 21396      65787400 
 21397              	.LASF342:
 21398 0307 63635F73 		.ascii	"cc_startup_boost_duty\000"
 21398      74617274 
 21398      75705F62 
 21398      6F6F7374 
 21398      5F647574 
 21399              	.LASF803:
 21400 031d 5F637674 		.ascii	"_cvtlen\000"
 21400      6C656E00 
 21401              	.LASF61:
 21402 0325 63685F74 		.ascii	"ch_threads_queue\000"
 21402      68726561 
 21402      64735F71 
 21402      75657565 
 21402      00
 21403              	.LASF846:
 21404 0336 5F5F6664 		.ascii	"__fdlibm_svid\000"
 21404      6C69626D 
 21404      5F737669 
 21404      6400
 21405              	.LASF270:
 21406 0344 6C5F6D69 		.ascii	"l_min_erpm\000"
 21406      6E5F6572 
 21406      706D00
 21407              	.LASF41:
 21408 034f 705F6E65 		.ascii	"p_newer\000"
ARM GAS  C:\Users\CHRIST~1\AppData\Local\Temp\ccb3oWGE.s 			page 381


 21408      77657200 
 21409              	.LASF674:
 21410 0357 48505254 		.ascii	"HPRT\000"
 21410      00
 21411              	.LASF1069:
 21412 035c 6D637077 		.ascii	"mcpwm_foc_init\000"
 21412      6D5F666F 
 21412      635F696E 
 21412      697400
 21413              	.LASF308:
 21414 036b 666F635F 		.ascii	"foc_encoder_offset\000"
 21414      656E636F 
 21414      6465725F 
 21414      6F666673 
 21414      657400
 21415              	.LASF959:
 21416 037e 6D635F69 		.ascii	"mc_interface_get_tot_current_directional\000"
 21416      6E746572 
 21416      66616365 
 21416      5F676574 
 21416      5F746F74 
 21417              	.LASF628:
 21418 03a7 4843494E 		.ascii	"HCINT\000"
 21418      5400
 21419              	.LASF1035:
 21420 03ad 6D637077 		.ascii	"mcpwm_get_tot_current_in\000"
 21420      6D5F6765 
 21420      745F746F 
 21420      745F6375 
 21420      7272656E 
 21421              	.LASF181:
 21422 03c6 63665F6F 		.ascii	"cf_off_flags\000"
 21422      66665F66 
 21422      6C616773 
 21422      00
 21423              	.LASF785:
 21424 03d3 5F6C6F63 		.ascii	"_lock\000"
 21424      6B00
 21425              	.LASF781:
 21426 03d9 5F6E6275 		.ascii	"_nbuf\000"
 21426      6600
 21427              	.LASF535:
 21428 03df 5350495F 		.ascii	"SPI_STOP\000"
 21428      53544F50 
 21428      00
 21429              	.LASF212:
 21430 03e8 4D435F53 		.ascii	"MC_STATE_DETECTING\000"
 21430      54415445 
 21430      5F444554 
 21430      45435449 
 21430      4E4700
 21431              	.LASF444:
 21432 03fb 50424461 		.ascii	"PBData\000"
 21432      746100
 21433              	.LASF926:
 21434 0402 77726F6E 		.ascii	"wrong_voltage_iterations\000"
 21434      675F766F 
ARM GAS  C:\Users\CHRIST~1\AppData\Local\Temp\ccb3oWGE.s 			page 382


 21434      6C746167 
 21434      655F6974 
 21434      65726174 
 21435              	.LASF169:
 21436 041b 63685F73 		.ascii	"ch_size\000"
 21436      697A6500 
 21437              	.LASF670:
 21438 0423 48505458 		.ascii	"HPTXSTS\000"
 21438      53545300 
 21439              	.LASF437:
 21440 042b 6F747970 		.ascii	"otyper\000"
 21440      657200
 21441              	.LASF899:
 21442 0432 6C6F5F6D 		.ascii	"lo_max_mos\000"
 21442      61785F6D 
 21442      6F7300
 21443              	.LASF281:
 21444 043d 6C5F7465 		.ascii	"l_temp_fet_end\000"
 21444      6D705F66 
 21444      65745F65 
 21444      6E6400
 21445              	.LASF1072:
 21446 044c 6D637077 		.ascii	"mcpwm_init\000"
 21446      6D5F696E 
 21446      697400
 21447              	.LASF428:
 21448 0457 4F545950 		.ascii	"OTYPER\000"
 21448      455200
 21449              	.LASF539:
 21450 045e 73706973 		.ascii	"spistate_t\000"
 21450      74617465 
 21450      5F7400
 21451              	.LASF1050:
 21452 0469 6D637077 		.ascii	"mcpwm_foc_get_duty_cycle_set\000"
 21452      6D5F666F 
 21452      635F6765 
 21452      745F6475 
 21452      74795F63 
 21453              	.LASF626:
 21454 0486 48434348 		.ascii	"HCCHAR\000"
 21454      415200
 21455              	.LASF762:
 21456 048d 5F64736F 		.ascii	"_dso_handle\000"
 21456      5F68616E 
 21456      646C6500 
 21457              	.LASF896:
 21458 0499 74696D65 		.ascii	"timer_thread\000"
 21458      725F7468 
 21458      72656164 
 21458      00
 21459              	.LASF477:
 21460 04a6 4932435F 		.ascii	"I2C_ACTIVE_RX\000"
 21460      41435449 
 21460      56455F52 
 21460      5800
 21461              	.LASF36:
 21462 04b4 74687265 		.ascii	"thread_t\000"
ARM GAS  C:\Users\CHRIST~1\AppData\Local\Temp\ccb3oWGE.s 			page 383


 21462      61645F74 
 21462      00
 21463              	.LASF192:
 21464 04bd 656C5F65 		.ascii	"el_events\000"
 21464      76656E74 
 21464      7300
 21465              	.LASF469:
 21466 04c7 736C6565 		.ascii	"sleep_event\000"
 21466      705F6576 
 21466      656E7400 
 21467              	.LASF79:
 21468 04d3 63685F76 		.ascii	"ch_virtual_timers_list\000"
 21468      69727475 
 21468      616C5F74 
 21468      696D6572 
 21468      735F6C69 
 21469              	.LASF423:
 21470 04ea 76656374 		.ascii	"vector\000"
 21470      6F7200
 21471              	.LASF21:
 21472 04f1 696E7433 		.ascii	"int32_t\000"
 21472      325F7400 
 21473              	.LASF827:
 21474 04f9 5F776374 		.ascii	"_wctomb_state\000"
 21474      6F6D625F 
 21474      73746174 
 21474      6500
 21475              	.LASF491:
 21476 0507 636C6F63 		.ascii	"clock_speed\000"
 21476      6B5F7370 
 21476      65656400 
 21477              	.LASF35:
 21478 0513 73797374 		.ascii	"systime_t\000"
 21478      696D655F 
 21478      7400
 21479              	.LASF471:
 21480 051d 43414E44 		.ascii	"CANDriver\000"
 21480      72697665 
 21480      7200
 21481              	.LASF179:
 21482 0527 63665F6F 		.ascii	"cf_off_stklimit\000"
 21482      66665F73 
 21482      746B6C69 
 21482      6D697400 
 21483              	.LASF118:
 21484 0537 4D304152 		.ascii	"M0AR\000"
 21484      00
 21485              	.LASF247:
 21486 053c 44525638 		.ascii	"DRV8301_OC_LIMIT\000"
 21486      3330315F 
 21486      4F435F4C 
 21486      494D4954 
 21486      00
 21487              	.LASF1022:
 21488 054d 6D637077 		.ascii	"mcpwm_stop_pwm\000"
 21488      6D5F7374 
 21488      6F705F70 
ARM GAS  C:\Users\CHRIST~1\AppData\Local\Temp\ccb3oWGE.s 			page 384


 21488      776D00
 21489              	.LASF481:
 21490 055c 69326366 		.ascii	"i2cflags_t\000"
 21490      6C616773 
 21490      5F7400
 21491              	.LASF671:
 21492 0567 4841494E 		.ascii	"HAINT\000"
 21492      5400
 21493              	.LASF240:
 21494 056d 4641554C 		.ascii	"FAULT_CODE_OVER_TEMP_FET\000"
 21494      545F434F 
 21494      44455F4F 
 21494      5645525F 
 21494      54454D50 
 21495              	.LASF930:
 21496 0586 665F7361 		.ascii	"f_samp\000"
 21496      6D7000
 21497              	.LASF113:
 21498 058d 46413152 		.ascii	"FA1R\000"
 21498      00
 21499              	.LASF218:
 21500 0592 50574D5F 		.ascii	"PWM_MODE_BIPOLAR\000"
 21500      4D4F4445 
 21500      5F424950 
 21500      4F4C4152 
 21500      00
 21501              	.LASF219:
 21502 05a3 6D635F70 		.ascii	"mc_pwm_mode\000"
 21502      776D5F6D 
 21502      6F646500 
 21503              	.LASF568:
 21504 05af 75617274 		.ascii	"uartecb_t\000"
 21504      6563625F 
 21504      7400
 21505              	.LASF668:
 21506 05b9 48464E55 		.ascii	"HFNUM\000"
 21506      4D00
 21507              	.LASF208:
 21508 05bf 716E6F74 		.ascii	"qnotify_t\000"
 21508      6966795F 
 21508      7400
 21509              	.LASF1024:
 21510 05c9 6D637077 		.ascii	"mcpwm_foc_get_pid_pos_now\000"
 21510      6D5F666F 
 21510      635F6765 
 21510      745F7069 
 21510      645F706F 
 21511              	.LASF421:
 21512 05e3 69736869 		.ascii	"ishift\000"
 21512      667400
 21513              	.LASF889:
 21514 05ea 74696D65 		.ascii	"timer_thread_wa\000"
 21514      725F7468 
 21514      72656164 
 21514      5F776100 
 21515              	.LASF203:
 21516 05fa 715F746F 		.ascii	"q_top\000"
ARM GAS  C:\Users\CHRIST~1\AppData\Local\Temp\ccb3oWGE.s 			page 385


 21516      7000
 21517              	.LASF774:
 21518 0600 5F6C6266 		.ascii	"_lbfsize\000"
 21518      73697A65 
 21518      00
 21519              	.LASF619:
 21520 0609 75645F73 		.ascii	"ud_string\000"
 21520      7472696E 
 21520      6700
 21521              	.LASF494:
 21522 0613 49324344 		.ascii	"I2CDriver\000"
 21522      72697665 
 21522      7200
 21523              	.LASF476:
 21524 061d 4932435F 		.ascii	"I2C_ACTIVE_TX\000"
 21524      41435449 
 21524      56455F54 
 21524      5800
 21525              	.LASF424:
 21526 062b 73746D33 		.ascii	"stm32_dma_stream_t\000"
 21526      325F646D 
 21526      615F7374 
 21526      7265616D 
 21526      5F7400
 21527              	.LASF1011:
 21528 063e 63684576 		.ascii	"chEvtSignalI\000"
 21528      74536967 
 21528      6E616C49 
 21528      00
 21529              	.LASF680:
 21530 064b 72657376 		.ascii	"resvd80C\000"
 21530      64383043 
 21530      00
 21531              	.LASF728:
 21532 0654 6576656E 		.ascii	"event_cb\000"
 21532      745F6362 
 21532      00
 21533              	.LASF805:
 21534 065d 5F6E6577 		.ascii	"_new\000"
 21534      00
 21535              	.LASF647:
 21536 0662 474F5447 		.ascii	"GOTGCTL\000"
 21536      43544C00 
 21537              	.LASF584:
 21538 066a 6570306E 		.ascii	"ep0next\000"
 21538      65787400 
 21539              	.LASF622:
 21540 0672 75736265 		.ascii	"usbepcallback_t\000"
 21540      7063616C 
 21540      6C626163 
 21540      6B5F7400 
 21541              	.LASF480:
 21542 0682 69326361 		.ascii	"i2caddr_t\000"
 21542      6464725F 
 21542      7400
 21543              	.LASF87:
 21544 068c 76746C69 		.ascii	"vtlist\000"
ARM GAS  C:\Users\CHRIST~1\AppData\Local\Temp\ccb3oWGE.s 			page 386


 21544      737400
 21545              	.LASF908:
 21546 0693 6C6F5F6D 		.ascii	"lo_motor_temp_accel\000"
 21546      6F746F72 
 21546      5F74656D 
 21546      705F6163 
 21546      63656C00 
 21547              	.LASF506:
 21548 06a7 4943555F 		.ascii	"ICU_READY\000"
 21548      52454144 
 21548      5900
 21549              	.LASF123:
 21550 06b1 54524953 		.ascii	"TRISE\000"
 21550      4500
 21551              	.LASF686:
 21552 06b7 72657376 		.ascii	"resvd824\000"
 21552      64383234 
 21552      00
 21553              	.LASF49:
 21554 06c0 705F7761 		.ascii	"p_waiting\000"
 21554      6974696E 
 21554      6700
 21555              	.LASF893:
 21556 06ca 696E6465 		.ascii	"index\000"
 21556      7800
 21557              	.LASF513:
 21558 06d0 70636372 		.ascii	"pccrp\000"
 21558      7000
 21559              	.LASF200:
 21560 06d6 715F7761 		.ascii	"q_waiting\000"
 21560      6974696E 
 21560      6700
 21561              	.LASF95:
 21562 06e0 43414E5F 		.ascii	"CAN_TxMailBox_TypeDef\000"
 21562      54784D61 
 21562      696C426F 
 21562      785F5479 
 21562      70654465 
 21563              	.LASF86:
 21564 06f6 726C6973 		.ascii	"rlist\000"
 21564      7400
 21565              	.LASF57:
 21566 06fc 74687265 		.ascii	"threads_list_t\000"
 21566      6164735F 
 21566      6C697374 
 21566      5F7400
 21567              	.LASF175:
 21568 070b 63665F6F 		.ascii	"cf_off_ctx\000"
 21568      66665F63 
 21568      747800
 21569              	.LASF209:
 21570 0716 696E7075 		.ascii	"input_queue_t\000"
 21570      745F7175 
 21570      6575655F 
 21570      7400
 21571              	.LASF1021:
 21572 0724 6D637077 		.ascii	"mcpwm_init_done\000"
ARM GAS  C:\Users\CHRIST~1\AppData\Local\Temp\ccb3oWGE.s 			page 387


 21572      6D5F696E 
 21572      69745F64 
 21572      6F6E6500 
 21573              	.LASF840:
 21574 0734 5F5F6C6F 		.ascii	"__lock\000"
 21574      636B00
 21575              	.LASF296:
 21576 073b 736C5F6D 		.ascii	"sl_min_erpm_cycle_int_limit\000"
 21576      696E5F65 
 21576      72706D5F 
 21576      6379636C 
 21576      655F696E 
 21577              	.LASF458:
 21578 0757 43414E5F 		.ascii	"CAN_READY\000"
 21578      52454144 
 21578      5900
 21579              	.LASF177:
 21580 0761 63665F6F 		.ascii	"cf_off_older\000"
 21580      66665F6F 
 21580      6C646572 
 21580      00
 21581              	.LASF305:
 21582 076e 666F635F 		.ascii	"foc_current_ki\000"
 21582      63757272 
 21582      656E745F 
 21582      6B6900
 21583              	.LASF713:
 21584 077d 72787175 		.ascii	"rxqueued\000"
 21584      65756564 
 21584      00
 21585              	.LASF304:
 21586 0786 666F635F 		.ascii	"foc_current_kp\000"
 21586      63757272 
 21586      656E745F 
 21586      6B7000
 21587              	.LASF877:
 21588 0795 6D5F7374 		.ascii	"m_status_samples\000"
 21588      61747573 
 21588      5F73616D 
 21588      706C6573 
 21588      00
 21589              	.LASF524:
 21590 07a6 69637563 		.ascii	"icuchannel_t\000"
 21590      68616E6E 
 21590      656C5F74 
 21590      00
 21591              	.LASF460:
 21592 07b3 63616E73 		.ascii	"canstate_t\000"
 21592      74617465 
 21592      5F7400
 21593              	.LASF115:
 21594 07be 7346696C 		.ascii	"sFilterRegister\000"
 21594      74657252 
 21594      65676973 
 21594      74657200 
 21595              	.LASF809:
 21596 07ce 5F5F7366 		.ascii	"__sf\000"
ARM GAS  C:\Users\CHRIST~1\AppData\Local\Temp\ccb3oWGE.s 			page 388


 21596      00
 21597              	.LASF685:
 21598 07d3 72657376 		.ascii	"resvd820\000"
 21598      64383230 
 21598      00
 21599              	.LASF1052:
 21600 07dc 6D637077 		.ascii	"mcpwm_foc_set_handbrake\000"
 21600      6D5F666F 
 21600      635F7365 
 21600      745F6861 
 21600      6E646272 
 21601              	.LASF490:
 21602 07f4 6F705F6D 		.ascii	"op_mode\000"
 21602      6F646500 
 21603              	.LASF826:
 21604 07fc 5F6D6274 		.ascii	"_mbtowc_state\000"
 21604      6F77635F 
 21604      73746174 
 21604      6500
 21605              	.LASF357:
 21606 080a 6D5F6E74 		.ascii	"m_ntc_motor_beta\000"
 21606      635F6D6F 
 21606      746F725F 
 21606      62657461 
 21606      00
 21607              	.LASF937:
 21608 081b 76616C5F 		.ascii	"val_samp\000"
 21608      73616D70 
 21608      00
 21609              	.LASF473:
 21610 0824 4932435F 		.ascii	"I2C_UNINIT\000"
 21610      554E494E 
 21610      495400
 21611              	.LASF1064:
 21612 082f 6D637077 		.ascii	"mcpwm_foc_set_configuration\000"
 21612      6D5F666F 
 21612      635F7365 
 21612      745F636F 
 21612      6E666967 
 21613              	.LASF911:
 21614 084b 72706D5F 		.ascii	"rpm_pos_cut_end\000"
 21614      706F735F 
 21614      6375745F 
 21614      656E6400 
 21615              	.LASF30:
 21616 085b 74707269 		.ascii	"tprio_t\000"
 21616      6F5F7400 
 21617              	.LASF1031:
 21618 0863 6D637077 		.ascii	"mcpwm_get_tachometer_value\000"
 21618      6D5F6765 
 21618      745F7461 
 21618      63686F6D 
 21618      65746572 
 21619              	.LASF938:
 21620 087e 63757272 		.ascii	"current_samp\000"
 21620      656E745F 
 21620      73616D70 
ARM GAS  C:\Users\CHRIST~1\AppData\Local\Temp\ccb3oWGE.s 			page 389


 21620      00
 21621              	.LASF689:
 21622 088b 72657376 		.ascii	"resvd830\000"
 21622      64383330 
 21622      00
 21623              	.LASF475:
 21624 0894 4932435F 		.ascii	"I2C_READY\000"
 21624      52454144 
 21624      5900
 21625              	.LASF691:
 21626 089e 72657376 		.ascii	"resvd838\000"
 21626      64383338 
 21626      00
 21627              	.LASF489:
 21628 08a7 69326364 		.ascii	"i2cdutycycle_t\000"
 21628      75747963 
 21628      79636C65 
 21628      5F7400
 21629              	.LASF1037:
 21630 08b6 6D637077 		.ascii	"mcpwm_get_tot_current_directional_filtered\000"
 21630      6D5F6765 
 21630      745F746F 
 21630      745F6375 
 21630      7272656E 
 21631              	.LASF692:
 21632 08e1 72657376 		.ascii	"resvd83C\000"
 21632      64383343 
 21632      00
 21633              	.LASF497:
 21634 08ea 74687265 		.ascii	"thread\000"
 21634      616400
 21635              	.LASF688:
 21636 08f1 44564255 		.ascii	"DVBUSPULSE\000"
 21636      5350554C 
 21636      534500
 21637              	.LASF587:
 21638 08fc 73657475 		.ascii	"setup\000"
 21638      7000
 21639              	.LASF534:
 21640 0902 5350495F 		.ascii	"SPI_UNINIT\000"
 21640      554E494E 
 21640      495400
 21641              	.LASF956:
 21642 090d 6D635F69 		.ascii	"mc_interface_get_tot_current_in_filtered\000"
 21642      6E746572 
 21642      66616365 
 21642      5F676574 
 21642      5F746F74 
 21643              	.LASF640:
 21644 0936 44545846 		.ascii	"DTXFSTS\000"
 21644      53545300 
 21645              	.LASF1071:
 21646 093e 6D637077 		.ascii	"mcpwm_foc_deinit\000"
 21646      6D5F666F 
 21646      635F6465 
 21646      696E6974 
 21646      00
ARM GAS  C:\Users\CHRIST~1\AppData\Local\Temp\ccb3oWGE.s 			page 390


 21647              	.LASF922:
 21648 094f 6D617863 		.ascii	"maxc\000"
 21648      00
 21649              	.LASF758:
 21650 0954 5F5F746D 		.ascii	"__tm_yday\000"
 21650      5F796461 
 21650      7900
 21651              	.LASF581:
 21652 095e 696E5F70 		.ascii	"in_params\000"
 21652      6172616D 
 21652      7300
 21653              	.LASF136:
 21654 0968 43434552 		.ascii	"CCER\000"
 21654      00
 21655              	.LASF130:
 21656 096d 49325350 		.ascii	"I2SPR\000"
 21656      5200
 21657              	.LASF228:
 21658 0973 464F435F 		.ascii	"FOC_SENSOR_MODE_ENCODER\000"
 21658      53454E53 
 21658      4F525F4D 
 21658      4F44455F 
 21658      454E434F 
 21659              	.LASF851:
 21660 098b 6D5F6661 		.ascii	"m_fault_now\000"
 21660      756C745F 
 21660      6E6F7700 
 21661              	.LASF934:
 21662 0997 73616D70 		.ascii	"sample_last\000"
 21662      6C655F6C 
 21662      61737400 
 21663              	.LASF649:
 21664 09a3 47414842 		.ascii	"GAHBCFG\000"
 21664      43464700 
 21665              	.LASF734:
 21666 09ab 5F4C4F43 		.ascii	"_LOCK_T\000"
 21666      4B5F5400 
 21667              	.LASF693:
 21668 09b3 72657376 		.ascii	"resvd840\000"
 21668      64383430 
 21668      00
 21669              	.LASF863:
 21670 09bc 6D5F6D6F 		.ascii	"m_motor_iq_iterations\000"
 21670      746F725F 
 21670      69715F69 
 21670      74657261 
 21670      74696F6E 
 21671              	.LASF126:
 21672 09d2 43524350 		.ascii	"CRCPR\000"
 21672      5200
 21673              	.LASF249:
 21674 09d8 44525638 		.ascii	"DRV8301_OC_REPORT_ONLY\000"
 21674      3330315F 
 21674      4F435F52 
 21674      45504F52 
 21674      545F4F4E 
 21675              	.LASF5:
ARM GAS  C:\Users\CHRIST~1\AppData\Local\Temp\ccb3oWGE.s 			page 391


 21676 09ef 5F5F696E 		.ascii	"__int16_t\000"
 21676      7431365F 
 21676      7400
 21677              	.LASF7:
 21678 09f9 5F5F7569 		.ascii	"__uint16_t\000"
 21678      6E743136 
 21678      5F7400
 21679              	.LASF379:
 21680 0a04 434F4D4D 		.ascii	"COMM_SAMPLE_PRINT\000"
 21680      5F53414D 
 21680      504C455F 
 21680      5052494E 
 21680      5400
 21681              	.LASF708:
 21682 0a16 74787175 		.ascii	"txqueued\000"
 21682      65756564 
 21682      00
 21683              	.LASF51:
 21684 0a1f 705F6D73 		.ascii	"p_msg\000"
 21684      6700
 21685              	.LASF818:
 21686 0a25 5F756E75 		.ascii	"_unused_rand\000"
 21686      7365645F 
 21686      72616E64 
 21686      00
 21687              	.LASF346:
 21688 0a32 6D5F6661 		.ascii	"m_fault_stop_time_ms\000"
 21688      756C745F 
 21688      73746F70 
 21688      5F74696D 
 21688      655F6D73 
 21689              	.LASF655:
 21690 0a47 47525853 		.ascii	"GRXSTSP\000"
 21690      54535000 
 21691              	.LASF654:
 21692 0a4f 47525853 		.ascii	"GRXSTSR\000"
 21692      54535200 
 21693              	.LASF119:
 21694 0a57 4D314152 		.ascii	"M1AR\000"
 21694      00
 21695              	.LASF594:
 21696 0a5c 77616974 		.ascii	"wait\000"
 21696      00
 21697              	.LASF120:
 21698 0a61 444D415F 		.ascii	"DMA_Stream_TypeDef\000"
 21698      53747265 
 21698      616D5F54 
 21698      79706544 
 21698      656600
 21699              	.LASF979:
 21700 0a74 6D635F69 		.ascii	"mc_interface_set_pid_speed\000"
 21700      6E746572 
 21700      66616365 
 21700      5F736574 
 21700      5F706964 
 21701              	.LASF855:
 21702 0a8f 6D5F6C6F 		.ascii	"m_lock_override_once\000"
ARM GAS  C:\Users\CHRIST~1\AppData\Local\Temp\ccb3oWGE.s 			page 392


 21702      636B5F6F 
 21702      76657272 
 21702      6964655F 
 21702      6F6E6365 
 21703              	.LASF601:
 21704 0aa4 5553425F 		.ascii	"USB_ACTIVE\000"
 21704      41435449 
 21704      564500
 21705              	.LASF927:
 21706 0aaf 63757272 		.ascii	"current_in\000"
 21706      656E745F 
 21706      696E00
 21707              	.LASF335:
 21708 0aba 735F7069 		.ascii	"s_pid_kd\000"
 21708      645F6B64 
 21708      00
 21709              	.LASF1061:
 21710 0ac3 6D637077 		.ascii	"mcpwm_get_state\000"
 21710      6D5F6765 
 21710      745F7374 
 21710      61746500 
 21711              	.LASF642:
 21712 0ad3 73746D33 		.ascii	"stm32_otg_in_ep_t\000"
 21712      325F6F74 
 21712      675F696E 
 21712      5F65705F 
 21712      7400
 21713              	.LASF715:
 21714 0ae5 7278636E 		.ascii	"rxcnt\000"
 21714      7400
 21715              	.LASF499:
 21716 0aeb 7278646D 		.ascii	"rxdmamode\000"
 21716      616D6F64 
 21716      6500
 21717              	.LASF800:
 21718 0af5 5F726573 		.ascii	"_result_k\000"
 21718      756C745F 
 21718      6B00
 21719              	.LASF525:
 21720 0aff 6D6F6465 		.ascii	"mode\000"
 21720      00
 21721              	.LASF792:
 21722 0b04 5F737464 		.ascii	"_stderr\000"
 21722      65727200 
 21723              	.LASF866:
 21724 0b0c 6D5F7761 		.ascii	"m_watt_seconds\000"
 21724      74745F73 
 21724      65636F6E 
 21724      647300
 21725              	.LASF799:
 21726 0b1b 5F726573 		.ascii	"_result\000"
 21726      756C7400 
 21727              	.LASF518:
 21728 0b23 4943555F 		.ascii	"ICU_INPUT_ACTIVE_HIGH\000"
 21728      494E5055 
 21728      545F4143 
 21728      54495645 
ARM GAS  C:\Users\CHRIST~1\AppData\Local\Temp\ccb3oWGE.s 			page 393


 21728      5F484947 
 21729              	.LASF1049:
 21730 0b39 6D637077 		.ascii	"mcpwm_get_duty_cycle_now\000"
 21730      6D5F6765 
 21730      745F6475 
 21730      74795F63 
 21730      79636C65 
 21731              	.LASF867:
 21732 0b52 6D5F7761 		.ascii	"m_watt_seconds_charged\000"
 21732      74745F73 
 21732      65636F6E 
 21732      64735F63 
 21732      68617267 
 21733              	.LASF180:
 21734 0b69 63665F6F 		.ascii	"cf_off_state\000"
 21734      66665F73 
 21734      74617465 
 21734      00
 21735              	.LASF544:
 21736 0b76 73737061 		.ascii	"sspad\000"
 21736      6400
 21737              	.LASF500:
 21738 0b7c 7478646D 		.ascii	"txdmamode\000"
 21738      616D6F64 
 21738      6500
 21739              	.LASF311:
 21740 0b86 666F635F 		.ascii	"foc_motor_l\000"
 21740      6D6F746F 
 21740      725F6C00 
 21741              	.LASF312:
 21742 0b92 666F635F 		.ascii	"foc_motor_r\000"
 21742      6D6F746F 
 21742      725F7200 
 21743              	.LASF757:
 21744 0b9e 5F5F746D 		.ascii	"__tm_wday\000"
 21744      5F776461 
 21744      7900
 21745              	.LASF238:
 21746 0ba8 4641554C 		.ascii	"FAULT_CODE_DRV\000"
 21746      545F434F 
 21746      44455F44 
 21746      525600
 21747              	.LASF759:
 21748 0bb7 5F5F746D 		.ascii	"__tm_isdst\000"
 21748      5F697364 
 21748      737400
 21749              	.LASF147:
 21750 0bc2 73746B61 		.ascii	"stkalign_t\000"
 21750      6C69676E 
 21750      5F7400
 21751              	.LASF701:
 21752 0bcd 72785F66 		.ascii	"rx_fifo_size\000"
 21752      69666F5F 
 21752      73697A65 
 21752      00
 21753              	.LASF470:
 21754 0bda 77616B65 		.ascii	"wakeup_event\000"
ARM GAS  C:\Users\CHRIST~1\AppData\Local\Temp\ccb3oWGE.s 			page 394


 21754      75705F65 
 21754      76656E74 
 21754      00
 21755              	.LASF74:
 21756 0be7 76745F70 		.ascii	"vt_prev\000"
 21756      72657600 
 21757              	.LASF542:
 21758 0bef 656E645F 		.ascii	"end_cb\000"
 21758      636200
 21759              	.LASF1074:
 21760 0bf6 63685468 		.ascii	"chThdCreateStatic\000"
 21760      64437265 
 21760      61746553 
 21760      74617469 
 21760      6300
 21761              	.LASF718:
 21762 0c08 73657475 		.ascii	"setup_cb\000"
 21762      705F6362 
 21762      00
 21763              	.LASF4:
 21764 0c11 756E7369 		.ascii	"unsigned char\000"
 21764      676E6564 
 21764      20636861 
 21764      7200
 21765              	.LASF791:
 21766 0c1f 5F737464 		.ascii	"_stdout\000"
 21766      6F757400 
 21767              	.LASF189:
 21768 0c27 6576656E 		.ascii	"event_listener\000"
 21768      745F6C69 
 21768      7374656E 
 21768      657200
 21769              	.LASF336:
 21770 0c36 735F7069 		.ascii	"s_pid_min_erpm\000"
 21770      645F6D69 
 21770      6E5F6572 
 21770      706D00
 21771              	.LASF464:
 21772 0c45 74787175 		.ascii	"txqueue\000"
 21772      65756500 
 21773              	.LASF161:
 21774 0c4d 735F636E 		.ascii	"s_cnt\000"
 21774      7400
 21775              	.LASF62:
 21776 0c53 72656164 		.ascii	"ready_list_t\000"
 21776      795F6C69 
 21776      73745F74 
 21776      00
 21777              	.LASF58:
 21778 0c60 63685F74 		.ascii	"ch_thread\000"
 21778      68726561 
 21778      6400
 21779              	.LASF484:
 21780 0c6a 4F504D4F 		.ascii	"OPMODE_SMBUS_HOST\000"
 21780      44455F53 
 21780      4D425553 
 21780      5F484F53 
ARM GAS  C:\Users\CHRIST~1\AppData\Local\Temp\ccb3oWGE.s 			page 395


 21780      5400
 21781              	.LASF583:
 21782 0c7c 65703073 		.ascii	"ep0state\000"
 21782      74617465 
 21782      00
 21783              	.LASF833:
 21784 0c85 5F6D6273 		.ascii	"_mbsrtowcs_state\000"
 21784      72746F77 
 21784      63735F73 
 21784      74617465 
 21784      00
 21785              	.LASF749:
 21786 0c96 5F776473 		.ascii	"_wds\000"
 21786      00
 21787              	.LASF0:
 21788 0c9b 666C6F61 		.ascii	"float\000"
 21788      7400
 21789              	.LASF287:
 21790 0ca1 6C5F7761 		.ascii	"l_watt_max\000"
 21790      74745F6D 
 21790      617800
 21791              	.LASF459:
 21792 0cac 43414E5F 		.ascii	"CAN_SLEEP\000"
 21792      534C4545 
 21792      5000
 21793              	.LASF306:
 21794 0cb6 666F635F 		.ascii	"foc_f_sw\000"
 21794      665F7377 
 21794      00
 21795              	.LASF272:
 21796 0cbf 6C5F6572 		.ascii	"l_erpm_start\000"
 21796      706D5F73 
 21796      74617274 
 21796      00
 21797              	.LASF1054:
 21798 0ccc 6D637077 		.ascii	"mcpwm_foc_set_pid_pos\000"
 21798      6D5F666F 
 21798      635F7365 
 21798      745F7069 
 21798      645F706F 
 21799              	.LASF1038:
 21800 0ce2 6D637077 		.ascii	"mcpwm_foc_get_tot_current_directional\000"
 21800      6D5F666F 
 21800      635F6765 
 21800      745F746F 
 21800      745F6375 
 21801              	.LASF957:
 21802 0d08 6D635F69 		.ascii	"mc_interface_get_tot_current_in\000"
 21802      6E746572 
 21802      66616365 
 21802      5F676574 
 21802      5F746F74 
 21803              	.LASF455:
 21804 0d28 43414E5F 		.ascii	"CAN_UNINIT\000"
 21804      554E494E 
 21804      495400
 21805              	.LASF81:
ARM GAS  C:\Users\CHRIST~1\AppData\Local\Temp\ccb3oWGE.s 			page 396


 21806 0d33 73797374 		.ascii	"system_debug_t\000"
 21806      656D5F64 
 21806      65627567 
 21806      5F7400
 21807              	.LASF280:
 21808 0d42 6C5F7465 		.ascii	"l_temp_fet_start\000"
 21808      6D705F66 
 21808      65745F73 
 21808      74617274 
 21808      00
 21809              	.LASF133:
 21810 0d53 44494552 		.ascii	"DIER\000"
 21810      00
 21811              	.LASF40:
 21812 0d58 705F6374 		.ascii	"p_ctx\000"
 21812      7800
 21813              	.LASF77:
 21814 0d5e 76745F70 		.ascii	"vt_par\000"
 21814      617200
 21815              	.LASF1093:
 21816 0d65 6D656D63 		.ascii	"memcpy\000"
 21816      707900
 21817              	.LASF556:
 21818 0d6c 55415254 		.ascii	"UART_RX_ACTIVE\000"
 21818      5F52585F 
 21818      41435449 
 21818      564500
 21819              	.LASF989:
 21820 0d7b 6D635F69 		.ascii	"mc_interface_set_pwm_callback\000"
 21820      6E746572 
 21820      66616365 
 21820      5F736574 
 21820      5F70776D 
 21821              	.LASF69:
 21822 0d99 725F6375 		.ascii	"r_current\000"
 21822      7272656E 
 21822      7400
 21823              	.LASF770:
 21824 0da3 5F73697A 		.ascii	"_size\000"
 21824      6500
 21825              	.LASF385:
 21826 0da9 434F4D4D 		.ascii	"COMM_DETECT_MOTOR_R_L\000"
 21826      5F444554 
 21826      4543545F 
 21826      4D4F544F 
 21826      525F525F 
 21827              	.LASF390:
 21828 0dbf 434F4D4D 		.ascii	"COMM_ALIVE\000"
 21828      5F414C49 
 21828      564500
 21829              	.LASF128:
 21830 0dca 54584352 		.ascii	"TXCRCR\000"
 21830      435200
 21831              	.LASF262:
 21832 0dd1 636F6D6D 		.ascii	"comm_mode\000"
 21832      5F6D6F64 
 21832      6500
ARM GAS  C:\Users\CHRIST~1\AppData\Local\Temp\ccb3oWGE.s 			page 397


 21833              	.LASF852:
 21834 0ddb 6D5F6967 		.ascii	"m_ignore_iterations\000"
 21834      6E6F7265 
 21834      5F697465 
 21834      72617469 
 21834      6F6E7300 
 21835              	.LASF1084:
 21836 0def 6D637077 		.ascii	"mcpwm_set_current\000"
 21836      6D5F7365 
 21836      745F6375 
 21836      7272656E 
 21836      7400
 21837              	.LASF552:
 21838 0e01 55415254 		.ascii	"UART_TX_ACTIVE\000"
 21838      5F54585F 
 21838      41435449 
 21838      564500
 21839              	.LASF239:
 21840 0e10 4641554C 		.ascii	"FAULT_CODE_ABS_OVER_CURRENT\000"
 21840      545F434F 
 21840      44455F41 
 21840      42535F4F 
 21840      5645525F 
 21841              	.LASF314:
 21842 0e2c 666F635F 		.ascii	"foc_observer_gain\000"
 21842      6F627365 
 21842      72766572 
 21842      5F676169 
 21842      6E00
 21843              	.LASF882:
 21844 0e3e 6D5F7361 		.ascii	"m_sample_int\000"
 21844      6D706C65 
 21844      5F696E74 
 21844      00
 21845              	.LASF488:
 21846 0e4b 46415354 		.ascii	"FAST_DUTY_CYCLE_16_9\000"
 21846      5F445554 
 21846      595F4359 
 21846      434C455F 
 21846      31365F39 
 21847              	.LASF529:
 21848 0e60 6F766572 		.ascii	"overflow_cb\000"
 21848      666C6F77 
 21848      5F636200 
 21849              	.LASF23:
 21850 0e6c 75696E74 		.ascii	"uint64_t\000"
 21850      36345F74 
 21850      00
 21851              	.LASF186:
 21852 0e75 63685F64 		.ascii	"ch_debug\000"
 21852      65627567 
 21852      00
 21853              	.LASF107:
 21854 0e7e 464D3152 		.ascii	"FM1R\000"
 21854      00
 21855              	.LASF752:
 21856 0e83 5F5F746D 		.ascii	"__tm_min\000"
ARM GAS  C:\Users\CHRIST~1\AppData\Local\Temp\ccb3oWGE.s 			page 398


 21856      5F6D696E 
 21856      00
 21857              	.LASF452:
 21858 0e8c 50414C43 		.ascii	"PALConfig\000"
 21858      6F6E6669 
 21858      6700
 21859              	.LASF623:
 21860 0e96 75736265 		.ascii	"usbeventcb_t\000"
 21860      76656E74 
 21860      63625F74 
 21860      00
 21861              	.LASF984:
 21862 0ea3 6D635F69 		.ascii	"mc_interface_fault_to_string\000"
 21862      6E746572 
 21862      66616365 
 21862      5F666175 
 21862      6C745F74 
 21863              	.LASF756:
 21864 0ec0 5F5F746D 		.ascii	"__tm_year\000"
 21864      5F796561 
 21864      7200
 21865              	.LASF188:
 21866 0eca 6576656E 		.ascii	"event_listener_t\000"
 21866      745F6C69 
 21866      7374656E 
 21866      65725F74 
 21866      00
 21867              	.LASF951:
 21868 0edb 6D635F69 		.ascii	"mc_interface_read_reset_avg_motor_current\000"
 21868      6E746572 
 21868      66616365 
 21868      5F726561 
 21868      645F7265 
 21869              	.LASF782:
 21870 0f05 5F626C6B 		.ascii	"_blksize\000"
 21870      73697A65 
 21870      00
 21871              	.LASF702:
 21872 0f0e 6F74675F 		.ascii	"otg_ram_size\000"
 21872      72616D5F 
 21872      73697A65 
 21872      00
 21873              	.LASF704:
 21874 0f1b 73746D33 		.ascii	"stm32_otg_params_t\000"
 21874      325F6F74 
 21874      675F7061 
 21874      72616D73 
 21874      5F7400
 21875              	.LASF696:
 21876 0f2e 72657376 		.ascii	"resvdD00\000"
 21876      64443030 
 21876      00
 21877              	.LASF127:
 21878 0f37 52584352 		.ascii	"RXCRCR\000"
 21878      435200
 21879              	.LASF565:
 21880 0f3e 72786275 		.ascii	"rxbuf\000"
ARM GAS  C:\Users\CHRIST~1\AppData\Local\Temp\ccb3oWGE.s 			page 399


 21880      6600
 21881              	.LASF652:
 21882 0f44 47494E54 		.ascii	"GINTSTS\000"
 21882      53545300 
 21883              	.LASF162:
 21884 0f4c 63685F6D 		.ascii	"ch_mutex\000"
 21884      75746578 
 21884      00
 21885              	.LASF777:
 21886 0f55 5F777269 		.ascii	"_write\000"
 21886      746500
 21887              	.LASF857:
 21888 0f5c 6D5F696E 		.ascii	"m_input_current_sum\000"
 21888      7075745F 
 21888      63757272 
 21888      656E745F 
 21888      73756D00 
 21889              	.LASF467:
 21890 0f70 7478656D 		.ascii	"txempty_event\000"
 21890      7074795F 
 21890      6576656E 
 21890      7400
 21891              	.LASF337:
 21892 0f7e 735F7069 		.ascii	"s_pid_allow_braking\000"
 21892      645F616C 
 21892      6C6F775F 
 21892      6272616B 
 21892      696E6700 
 21893              	.LASF449:
 21894 0f92 50474461 		.ascii	"PGData\000"
 21894      746100
 21895              	.LASF831:
 21896 0f99 5F6D6272 		.ascii	"_mbrlen_state\000"
 21896      6C656E5F 
 21896      73746174 
 21896      6500
 21897              	.LASF1005:
 21898 0fa7 76616C75 		.ascii	"value\000"
 21898      6500
 21899              	.LASF224:
 21900 0fad 53454E53 		.ascii	"SENSOR_MODE_SENSORED\000"
 21900      4F525F4D 
 21900      4F44455F 
 21900      53454E53 
 21900      4F524544 
 21901              	.LASF176:
 21902 0fc2 63665F6F 		.ascii	"cf_off_newer\000"
 21902      66665F6E 
 21902      65776572 
 21902      00
 21903              	.LASF751:
 21904 0fcf 5F5F746D 		.ascii	"__tm_sec\000"
 21904      5F736563 
 21904      00
 21905              	.LASF681:
 21906 0fd8 44494550 		.ascii	"DIEPMSK\000"
 21906      4D534B00 
ARM GAS  C:\Users\CHRIST~1\AppData\Local\Temp\ccb3oWGE.s 			page 400


 21907              	.LASF648:
 21908 0fe0 474F5447 		.ascii	"GOTGINT\000"
 21908      494E5400 
 21909              	.LASF547:
 21910 0fe8 55415254 		.ascii	"UART_UNINIT\000"
 21910      5F554E49 
 21910      4E495400 
 21911              	.LASF720:
 21912 0ff4 6F75745F 		.ascii	"out_cb\000"
 21912      636200
 21913              	.LASF672:
 21914 0ffb 4841494E 		.ascii	"HAINTMSK\000"
 21914      544D534B 
 21914      00
 21915              	.LASF582:
 21916 1004 6F75745F 		.ascii	"out_params\000"
 21916      70617261 
 21916      6D7300
 21917              	.LASF873:
 21918 100f 6D5F7068 		.ascii	"m_ph1_samples\000"
 21918      315F7361 
 21918      6D706C65 
 21918      7300
 21919              	.LASF790:
 21920 101d 5F737464 		.ascii	"_stdin\000"
 21920      696E00
 21921              	.LASF874:
 21922 1024 6D5F7068 		.ascii	"m_ph2_samples\000"
 21922      325F7361 
 21922      6D706C65 
 21922      7300
 21923              	.LASF838:
 21924 1032 5F6E6D61 		.ascii	"_nmalloc\000"
 21924      6C6C6F63 
 21924      00
 21925              	.LASF531:
 21926 103b 64696572 		.ascii	"dier\000"
 21926      00
 21927              	.LASF669:
 21928 1040 72657376 		.ascii	"resvd40C\000"
 21928      64343043 
 21928      00
 21929              	.LASF914:
 21930 1049 72706D5F 		.ascii	"rpm_neg_cut_end\000"
 21930      6E65675F 
 21930      6375745F 
 21930      656E6400 
 21931              	.LASF405:
 21932 1059 74696D5F 		.ascii	"tim_val_samp\000"
 21932      76616C5F 
 21932      73616D70 
 21932      00
 21933              	.LASF955:
 21934 1066 6D635F69 		.ascii	"mc_interface_get_tachometer_value\000"
 21934      6E746572 
 21934      66616365 
 21934      5F676574 
ARM GAS  C:\Users\CHRIST~1\AppData\Local\Temp\ccb3oWGE.s 			page 401


 21934      5F746163 
 21935              	.LASF71:
 21936 1088 76697274 		.ascii	"virtual_timer_t\000"
 21936      75616C5F 
 21936      74696D65 
 21936      725F7400 
 21937              	.LASF66:
 21938 1098 725F6374 		.ascii	"r_ctx\000"
 21938      7800
 21939              	.LASF73:
 21940 109e 76745F6E 		.ascii	"vt_next\000"
 21940      65787400 
 21941              	.LASF971:
 21942 10a6 6D635F69 		.ascii	"mc_interface_brake_now\000"
 21942      6E746572 
 21942      66616365 
 21942      5F627261 
 21942      6B655F6E 
 21943              	.LASF363:
 21944 10bd 434F4D4D 		.ascii	"COMM_WRITE_NEW_APP_DATA\000"
 21944      5F575249 
 21944      54455F4E 
 21944      45575F41 
 21944      50505F44 
 21945              	.LASF362:
 21946 10d5 434F4D4D 		.ascii	"COMM_ERASE_NEW_APP\000"
 21946      5F455241 
 21946      53455F4E 
 21946      45575F41 
 21946      505000
 21947              	.LASF25:
 21948 10e8 7274636E 		.ascii	"rtcnt_t\000"
 21948      745F7400 
 21949              	.LASF496:
 21950 10f0 6D757465 		.ascii	"mutex\000"
 21950      7800
 21951              	.LASF225:
 21952 10f6 53454E53 		.ascii	"SENSOR_MODE_HYBRID\000"
 21952      4F525F4D 
 21952      4F44455F 
 21952      48594252 
 21952      494400
 21953              	.LASF352:
 21954 1109 6D5F6472 		.ascii	"m_drv8301_oc_mode\000"
 21954      76383330 
 21954      315F6F63 
 21954      5F6D6F64 
 21954      6500
 21955              	.LASF289:
 21956 111b 6C6F5F63 		.ascii	"lo_current_max\000"
 21956      75727265 
 21956      6E745F6D 
 21956      617800
 21957              	.LASF309:
 21958 112a 666F635F 		.ascii	"foc_encoder_inverted\000"
 21958      656E636F 
 21958      6465725F 
ARM GAS  C:\Users\CHRIST~1\AppData\Local\Temp\ccb3oWGE.s 			page 402


 21958      696E7665 
 21958      72746564 
 21959              	.LASF343:
 21960 113f 63635F6D 		.ascii	"cc_min_current\000"
 21960      696E5F63 
 21960      75727265 
 21960      6E7400
 21961              	.LASF593:
 21962 114e 74787065 		.ascii	"txpending\000"
 21962      6E64696E 
 21962      6700
 21963              	.LASF244:
 21964 1158 53454E53 		.ascii	"SENSOR_PORT_MODE_ABI\000"
 21964      4F525F50 
 21964      4F52545F 
 21964      4D4F4445 
 21964      5F414249 
 21965              	.LASF1088:
 21966 116d 6D635F69 		.ascii	"mc_interface.c\000"
 21966      6E746572 
 21966      66616365 
 21966      2E6300
 21967              	.LASF426:
 21968 117c 636C6561 		.ascii	"clear\000"
 21968      7200
 21969              	.LASF516:
 21970 1182 43435852 		.ascii	"CCXR\000"
 21970      00
 21971              	.LASF939:
 21972 1187 66646174 		.ascii	"fdata\000"
 21972      6100
 21973              	.LASF116:
 21974 118d 43414E5F 		.ascii	"CAN_TypeDef\000"
 21974      54797065 
 21974      44656600 
 21975              	.LASF735:
 21976 1199 5F6F6666 		.ascii	"_off_t\000"
 21976      5F7400
 21977              	.LASF875:
 21978 11a0 6D5F7068 		.ascii	"m_ph3_samples\000"
 21978      335F7361 
 21978      6D706C65 
 21978      7300
 21979              	.LASF627:
 21980 11ae 72657376 		.ascii	"resvd8\000"
 21980      643800
 21981              	.LASF24:
 21982 11b5 73697A65 		.ascii	"size_t\000"
 21982      5F7400
 21983              	.LASF821:
 21984 11bc 5F6C6F63 		.ascii	"_localtime_buf\000"
 21984      616C7469 
 21984      6D655F62 
 21984      756600
 21985              	.LASF245:
 21986 11cb 53454E53 		.ascii	"SENSOR_PORT_MODE_AS5047_SPI\000"
 21986      4F525F50 
ARM GAS  C:\Users\CHRIST~1\AppData\Local\Temp\ccb3oWGE.s 			page 403


 21986      4F52545F 
 21986      4D4F4445 
 21986      5F415335 
 21987              	.LASF740:
 21988 11e7 5F5F636F 		.ascii	"__count\000"
 21988      756E7400 
 21989              	.LASF256:
 21990 11ef 44454255 		.ascii	"DEBUG_SAMPLING_TRIGGER_FAULT\000"
 21990      475F5341 
 21990      4D504C49 
 21990      4E475F54 
 21990      52494747 
 21991              	.LASF18:
 21992 120c 75696E74 		.ascii	"uint8_t\000"
 21992      385F7400 
 21993              	.LASF631:
 21994 1214 72657376 		.ascii	"resvd14\000"
 21994      64313400 
 21995              	.LASF961:
 21996 121c 6D635F69 		.ascii	"mc_interface_get_tot_current\000"
 21996      6E746572 
 21996      66616365 
 21996      5F676574 
 21996      5F746F74 
 21997              	.LASF632:
 21998 1239 72657376 		.ascii	"resvd18\000"
 21998      64313800 
 21999              	.LASF776:
 22000 1241 5F726561 		.ascii	"_read\000"
 22000      6400
 22001              	.LASF68:
 22002 1247 725F6F6C 		.ascii	"r_older\000"
 22002      64657200 
 22003              	.LASF486:
 22004 124f 5354445F 		.ascii	"STD_DUTY_CYCLE\000"
 22004      44555459 
 22004      5F435943 
 22004      4C4500
 22005              	.LASF38:
 22006 125e 705F7072 		.ascii	"p_prev\000"
 22006      657600
 22007              	.LASF178:
 22008 1265 63665F6F 		.ascii	"cf_off_name\000"
 22008      66665F6E 
 22008      616D6500 
 22009              	.LASF386:
 22010 1271 434F4D4D 		.ascii	"COMM_DETECT_MOTOR_FLUX_LINKAGE\000"
 22010      5F444554 
 22010      4543545F 
 22010      4D4F544F 
 22010      525F464C 
 22011              	.LASF1020:
 22012 1290 6D637077 		.ascii	"mcpwm_foc_init_done\000"
 22012      6D5F666F 
 22012      635F696E 
 22012      69745F64 
 22012      6F6E6500 
ARM GAS  C:\Users\CHRIST~1\AppData\Local\Temp\ccb3oWGE.s 			page 404


 22013              	.LASF690:
 22014 12a4 44494550 		.ascii	"DIEPEMPMSK\000"
 22014      454D504D 
 22014      534B00
 22015              	.LASF294:
 22016 12af 6C6F5F63 		.ascii	"lo_current_motor_min_now\000"
 22016      75727265 
 22016      6E745F6D 
 22016      6F746F72 
 22016      5F6D696E 
 22017              	.LASF635:
 22018 12c8 44494550 		.ascii	"DIEPCTL\000"
 22018      43544C00 
 22019              	.LASF883:
 22020 12d0 6D5F7361 		.ascii	"m_sample_mode\000"
 22020      6D706C65 
 22020      5F6D6F64 
 22020      6500
 22021              	.LASF276:
 22022 12de 6C5F6D61 		.ascii	"l_max_vin\000"
 22022      785F7669 
 22022      6E00
 22023              	.LASF194:
 22024 12e8 656C5F77 		.ascii	"el_wflags\000"
 22024      666C6167 
 22024      7300
 22025              	.LASF591:
 22026 12f2 6F746770 		.ascii	"otgparams\000"
 22026      6172616D 
 22026      7300
 22027              	.LASF153:
 22028 12fc 65786974 		.ascii	"exitcode\000"
 22028      636F6465 
 22028      00
 22029              	.LASF446:
 22030 1305 50444461 		.ascii	"PDData\000"
 22030      746100
 22031              	.LASF1032:
 22032 130c 6D637077 		.ascii	"mcpwm_foc_get_tot_current_in_filtered\000"
 22032      6D5F666F 
 22032      635F6765 
 22032      745F746F 
 22032      745F6375 
 22033              	.LASF804:
 22034 1332 5F637674 		.ascii	"_cvtbuf\000"
 22034      62756600 
 22035              	.LASF724:
 22036 133a 6F75745F 		.ascii	"out_state\000"
 22036      73746174 
 22036      6500
 22037              	.LASF198:
 22038 1344 696F5F71 		.ascii	"io_queue_t\000"
 22038      75657565 
 22038      5F7400
 22039              	.LASF794:
 22040 134f 5F656D65 		.ascii	"_emergency\000"
 22040      7267656E 
ARM GAS  C:\Users\CHRIST~1\AppData\Local\Temp\ccb3oWGE.s 			page 405


 22040      637900
 22041              	.LASF916:
 22042 135a 6C6F5F6D 		.ascii	"lo_min\000"
 22042      696E00
 22043              	.LASF906:
 22044 1361 74656D70 		.ascii	"temp_motor_accel_end\000"
 22044      5F6D6F74 
 22044      6F725F61 
 22044      6363656C 
 22044      5F656E64 
 22045              	.LASF950:
 22046 1376 6D635F69 		.ascii	"mc_interface_read_reset_avg_input_current\000"
 22046      6E746572 
 22046      66616365 
 22046      5F726561 
 22046      645F7265 
 22047              	.LASF474:
 22048 13a0 4932435F 		.ascii	"I2C_STOP\000"
 22048      53544F50 
 22048      00
 22049              	.LASF498:
 22050 13a9 61646472 		.ascii	"addr\000"
 22050      00
 22051              	.LASF482:
 22052 13ae 4F504D4F 		.ascii	"OPMODE_I2C\000"
 22052      44455F49 
 22052      324300
 22053              	.LASF101:
 22054 13b9 52463052 		.ascii	"RF0R\000"
 22054      00
 22055              	.LASF890:
 22056 13be 73616D70 		.ascii	"sample_send_thread_wa\000"
 22056      6C655F73 
 22056      656E645F 
 22056      74687265 
 22056      61645F77 
 22057              	.LASF468:
 22058 13d4 6572726F 		.ascii	"error_event\000"
 22058      725F6576 
 22058      656E7400 
 22059              	.LASF365:
 22060 13e0 434F4D4D 		.ascii	"COMM_SET_DUTY\000"
 22060      5F534554 
 22060      5F445554 
 22060      5900
 22061              	.LASF429:
 22062 13ee 4F535045 		.ascii	"OSPEEDR\000"
 22062      45445200 
 22063              	.LASF659:
 22064 13f6 72657376 		.ascii	"resvd30\000"
 22064      64333000 
 22065              	.LASF739:
 22066 13fe 5F5F7763 		.ascii	"__wchb\000"
 22066      686200
 22067              	.LASF660:
 22068 1405 72657376 		.ascii	"resvd34\000"
 22068      64333400 
ARM GAS  C:\Users\CHRIST~1\AppData\Local\Temp\ccb3oWGE.s 			page 406


 22069              	.LASF277:
 22070 140d 6C5F6261 		.ascii	"l_battery_cut_start\000"
 22070      74746572 
 22070      795F6375 
 22070      745F7374 
 22070      61727400 
 22071              	.LASF1056:
 22072 1421 6D637077 		.ascii	"mcpwm_foc_set_pid_speed\000"
 22072      6D5F666F 
 22072      635F7365 
 22072      745F7069 
 22072      645F7370 
 22073              	.LASF753:
 22074 1439 5F5F746D 		.ascii	"__tm_hour\000"
 22074      5F686F75 
 22074      7200
 22075              	.LASF278:
 22076 1443 6C5F6261 		.ascii	"l_battery_cut_end\000"
 22076      74746572 
 22076      795F6375 
 22076      745F656E 
 22076      6400
 22077              	.LASF418:
 22078 1455 6D637077 		.ascii	"mcpwm_vzero\000"
 22078      6D5F767A 
 22078      65726F00 
 22079              	.LASF275:
 22080 1461 6C5F6D69 		.ascii	"l_min_vin\000"
 22080      6E5F7669 
 22080      6E00
 22081              	.LASF609:
 22082 146b 5553425F 		.ascii	"USB_EP0_ERROR\000"
 22082      4550305F 
 22082      4552524F 
 22082      5200
 22083              	.LASF1045:
 22084 1479 6D637077 		.ascii	"mcpwm_get_rpm\000"
 22084      6D5F6765 
 22084      745F7270 
 22084      6D00
 22085              	.LASF374:
 22086 1487 434F4D4D 		.ascii	"COMM_GET_MCCONF\000"
 22086      5F474554 
 22086      5F4D4343 
 22086      4F4E4600 
 22087              	.LASF737:
 22088 1497 77696E74 		.ascii	"wint_t\000"
 22088      5F7400
 22089              	.LASF1040:
 22090 149e 6D637077 		.ascii	"mcpwm_foc_get_tot_current_filtered\000"
 22090      6D5F666F 
 22090      635F6765 
 22090      745F746F 
 22090      745F6375 
 22091              	.LASF326:
 22092 14c1 666F635F 		.ascii	"foc_hall_table\000"
 22092      68616C6C 
ARM GAS  C:\Users\CHRIST~1\AppData\Local\Temp\ccb3oWGE.s 			page 407


 22092      5F746162 
 22092      6C6500
 22093              	.LASF102:
 22094 14d0 52463152 		.ascii	"RF1R\000"
 22094      00
 22095              	.LASF372:
 22096 14d5 434F4D4D 		.ascii	"COMM_SET_SERVO_POS\000"
 22096      5F534554 
 22096      5F534552 
 22096      564F5F50 
 22096      4F5300
 22097              	.LASF698:
 22098 14e8 72657376 		.ascii	"resvdE04\000"
 22098      64453034 
 22098      00
 22099              	.LASF703:
 22100 14f1 6E756D5F 		.ascii	"num_endpoints\000"
 22100      656E6470 
 22100      6F696E74 
 22100      7300
 22101              	.LASF968:
 22102 14ff 6D635F69 		.ascii	"mc_interface_get_duty_cycle_now\000"
 22102      6E746572 
 22102      66616365 
 22102      5F676574 
 22102      5F647574 
 22103              	.LASF391:
 22104 151f 434F4D4D 		.ascii	"COMM_GET_DECODED_PPM\000"
 22104      5F474554 
 22104      5F444543 
 22104      4F444544 
 22104      5F50504D 
 22105              	.LASF711:
 22106 1534 746F7473 		.ascii	"totsize\000"
 22106      697A6500 
 22107              	.LASF233:
 22108 153c 4D4F544F 		.ascii	"MOTOR_TYPE_FOC\000"
 22108      525F5459 
 22108      50455F46 
 22108      4F4300
 22109              	.LASF812:
 22110 154b 5F6E696F 		.ascii	"_niobs\000"
 22110      627300
 22111              	.LASF295:
 22112 1552 736C5F6D 		.ascii	"sl_min_erpm\000"
 22112      696E5F65 
 22112      72706D00 
 22113              	.LASF1015:
 22114 155e 6C656470 		.ascii	"ledpwm_update_pwm\000"
 22114      776D5F75 
 22114      70646174 
 22114      655F7077 
 22114      6D00
 22115              	.LASF137:
 22116 1570 43435231 		.ascii	"CCR1\000"
 22116      00
 22117              	.LASF138:
ARM GAS  C:\Users\CHRIST~1\AppData\Local\Temp\ccb3oWGE.s 			page 408


 22118 1575 43435232 		.ascii	"CCR2\000"
 22118      00
 22119              	.LASF139:
 22120 157a 43435233 		.ascii	"CCR3\000"
 22120      00
 22121              	.LASF140:
 22122 157f 43435234 		.ascii	"CCR4\000"
 22122      00
 22123              	.LASF625:
 22124 1584 75736267 		.ascii	"usbgetdescriptor_t\000"
 22124      65746465 
 22124      73637269 
 22124      70746F72 
 22124      5F7400
 22125              	.LASF910:
 22126 1597 72706D5F 		.ascii	"rpm_pos_cut_start\000"
 22126      706F735F 
 22126      6375745F 
 22126      73746172 
 22126      7400
 22127              	.LASF1068:
 22128 15a9 6D637077 		.ascii	"mcpwm_deinit\000"
 22128      6D5F6465 
 22128      696E6974 
 22128      00
 22129              	.LASF789:
 22130 15b6 5F657272 		.ascii	"_errno\000"
 22130      6E6F00
 22131              	.LASF350:
 22132 15bd 6D5F7365 		.ascii	"m_sensor_port_mode\000"
 22132      6E736F72 
 22132      5F706F72 
 22132      745F6D6F 
 22132      646500
 22133              	.LASF1055:
 22134 15d0 6D637077 		.ascii	"mcpwm_set_pid_pos\000"
 22134      6D5F7365 
 22134      745F7069 
 22134      645F706F 
 22134      7300
 22135              	.LASF604:
 22136 15e2 5553425F 		.ascii	"USB_EP0_TX\000"
 22136      4550305F 
 22136      545800
 22137              	.LASF236:
 22138 15ed 4641554C 		.ascii	"FAULT_CODE_OVER_VOLTAGE\000"
 22138      545F434F 
 22138      44455F4F 
 22138      5645525F 
 22138      564F4C54 
 22139              	.LASF348:
 22140 1605 6D5F6375 		.ascii	"m_current_backoff_gain\000"
 22140      7272656E 
 22140      745F6261 
 22140      636B6F66 
 22140      665F6761 
 22141              	.LASF754:
ARM GAS  C:\Users\CHRIST~1\AppData\Local\Temp\ccb3oWGE.s 			page 409


 22142 161c 5F5F746D 		.ascii	"__tm_mday\000"
 22142      5F6D6461 
 22142      7900
 22143              	.LASF351:
 22144 1626 6D5F696E 		.ascii	"m_invert_direction\000"
 22144      76657274 
 22144      5F646972 
 22144      65637469 
 22144      6F6E00
 22145              	.LASF420:
 22146 1639 69666372 		.ascii	"ifcr\000"
 22146      00
 22147              	.LASF722:
 22148 163e 6F75745F 		.ascii	"out_maxsize\000"
 22148      6D617873 
 22148      697A6500 
 22149              	.LASF435:
 22150 164a 73746D33 		.ascii	"stm32_gpio_t\000"
 22150      325F6770 
 22150      696F5F74 
 22150      00
 22151              	.LASF394:
 22152 1657 434F4D4D 		.ascii	"COMM_FORWARD_CAN\000"
 22152      5F464F52 
 22152      57415244 
 22152      5F43414E 
 22152      00
 22153              	.LASF152:
 22154 1668 7264796D 		.ascii	"rdymsg\000"
 22154      736700
 22155              	.LASF761:
 22156 166f 5F666E61 		.ascii	"_fnargs\000"
 22156      72677300 
 22157              	.LASF92:
 22158 1677 54445452 		.ascii	"TDTR\000"
 22158      00
 22159              	.LASF881:
 22160 167c 6D5F7361 		.ascii	"m_sample_len\000"
 22160      6D706C65 
 22160      5F6C656E 
 22160      00
 22161              	.LASF286:
 22162 1689 6C5F6D61 		.ascii	"l_max_duty\000"
 22162      785F6475 
 22162      747900
 22163              	.LASF100:
 22164 1694 43414E5F 		.ascii	"CAN_FilterRegister_TypeDef\000"
 22164      46696C74 
 22164      65725265 
 22164      67697374 
 22164      65725F54 
 22165              	.LASF383:
 22166 16af 434F4D4D 		.ascii	"COMM_EXPERIMENT_SAMPLE\000"
 22166      5F455850 
 22166      4552494D 
 22166      454E545F 
 22166      53414D50 
ARM GAS  C:\Users\CHRIST~1\AppData\Local\Temp\ccb3oWGE.s 			page 410


 22167              	.LASF254:
 22168 16c6 44454255 		.ascii	"DEBUG_SAMPLING_START\000"
 22168      475F5341 
 22168      4D504C49 
 22168      4E475F53 
 22168      54415254 
 22169              	.LASF662:
 22170 16db 72657376 		.ascii	"resvd58\000"
 22170      64353800 
 22171              	.LASF712:
 22172 16e3 55534249 		.ascii	"USBInEndpointState\000"
 22172      6E456E64 
 22172      706F696E 
 22172      74537461 
 22172      746500
 22173              	.LASF39:
 22174 16f6 705F7072 		.ascii	"p_prio\000"
 22174      696F00
 22175              	.LASF199:
 22176 16fd 696F5F71 		.ascii	"io_queue\000"
 22176      75657565 
 22176      00
 22177              	.LASF1046:
 22178 1706 6D637077 		.ascii	"mcpwm_foc_get_sampling_frequency_now\000"
 22178      6D5F666F 
 22178      635F6765 
 22178      745F7361 
 22178      6D706C69 
 22179              	.LASF443:
 22180 172b 50414461 		.ascii	"PAData\000"
 22180      746100
 22181              	.LASF985:
 22182 1732 6D635F69 		.ascii	"mc_interface_get_fault\000"
 22182      6E746572 
 22182      66616365 
 22182      5F676574 
 22182      5F666175 
 22183              	.LASF14:
 22184 1749 5F5F7569 		.ascii	"__uint64_t\000"
 22184      6E743634 
 22184      5F7400
 22185              	.LASF1036:
 22186 1754 6D637077 		.ascii	"mcpwm_foc_get_tot_current_directional_filtered\000"
 22186      6D5F666F 
 22186      635F6765 
 22186      745F746F 
 22186      745F6375 
 22187              	.LASF1053:
 22188 1783 6D637077 		.ascii	"mcpwm_set_brake_current\000"
 22188      6D5F7365 
 22188      745F6272 
 22188      616B655F 
 22188      63757272 
 22189              	.LASF327:
 22190 179b 666F635F 		.ascii	"foc_sl_erpm\000"
 22190      736C5F65 
 22190      72706D00 
ARM GAS  C:\Users\CHRIST~1\AppData\Local\Temp\ccb3oWGE.s 			page 411


 22191              	.LASF988:
 22192 17a7 6D635F69 		.ascii	"mc_interface_lock\000"
 22192      6E746572 
 22192      66616365 
 22192      5F6C6F63 
 22192      6B00
 22193              	.LASF746:
 22194 17b9 5F6E6578 		.ascii	"_next\000"
 22194      7400
 22195              	.LASF1081:
 22196 17bf 7574696C 		.ascii	"utils_min_abs\000"
 22196      735F6D69 
 22196      6E5F6162 
 22196      7300
 22197              	.LASF694:
 22198 17cd 72657376 		.ascii	"resvd880\000"
 22198      64383830 
 22198      00
 22199              	.LASF1047:
 22200 17d6 6D637077 		.ascii	"mcpwm_get_switching_frequency_now\000"
 22200      6D5F6765 
 22200      745F7377 
 22200      69746368 
 22200      696E675F 
 22201              	.LASF608:
 22202 17f8 5553425F 		.ascii	"USB_EP0_SENDING_STS\000"
 22202      4550305F 
 22202      53454E44 
 22202      494E475F 
 22202      53545300 
 22203              	.LASF829:
 22204 180c 5F736967 		.ascii	"_signal_buf\000"
 22204      6E616C5F 
 22204      62756600 
 22205              	.LASF528:
 22206 1818 70657269 		.ascii	"period_cb\000"
 22206      6F645F63 
 22206      6200
 22207              	.LASF887:
 22208 1822 6D5F6C61 		.ascii	"m_last_adc_duration_sample\000"
 22208      73745F61 
 22208      64635F64 
 22208      75726174 
 22208      696F6E5F 
 22209              	.LASF479:
 22210 183d 69326373 		.ascii	"i2cstate_t\000"
 22210      74617465 
 22210      5F7400
 22211              	.LASF775:
 22212 1848 5F636F6F 		.ascii	"_cookie\000"
 22212      6B696500 
 22213              	.LASF282:
 22214 1850 6C5F7465 		.ascii	"l_temp_motor_start\000"
 22214      6D705F6D 
 22214      6F746F72 
 22214      5F737461 
 22214      727400
ARM GAS  C:\Users\CHRIST~1\AppData\Local\Temp\ccb3oWGE.s 			page 412


 22215              	.LASF1007:
 22216 1863 636F6D6D 		.ascii	"commands_send_packet\000"
 22216      616E6473 
 22216      5F73656E 
 22216      645F7061 
 22216      636B6574 
 22217              	.LASF299:
 22218 1878 736C5F70 		.ascii	"sl_phase_advance_at_br\000"
 22218      68617365 
 22218      5F616476 
 22218      616E6365 
 22218      5F61745F 
 22219              	.LASF610:
 22220 188f 75736265 		.ascii	"usbep0state_t\000"
 22220      70307374 
 22220      6174655F 
 22220      7400
 22221              	.LASF104:
 22222 189d 7354784D 		.ascii	"sTxMailBox\000"
 22222      61696C42 
 22222      6F7800
 22223              	.LASF537:
 22224 18a8 5350495F 		.ascii	"SPI_ACTIVE\000"
 22224      41435449 
 22224      564500
 22225              	.LASF202:
 22226 18b3 715F6275 		.ascii	"q_buffer\000"
 22226      66666572 
 22226      00
 22227              	.LASF37:
 22228 18bc 705F6E65 		.ascii	"p_next\000"
 22228      787400
 22229              	.LASF503:
 22230 18c3 49324344 		.ascii	"I2CD1\000"
 22230      3100
 22231              	.LASF636:
 22232 18c9 72657376 		.ascii	"resvd4\000"
 22232      643400
 22233              	.LASF1042:
 22234 18d0 6D637077 		.ascii	"mcpwm_foc_get_tot_current\000"
 22234      6D5F666F 
 22234      635F6765 
 22234      745F746F 
 22234      745F6375 
 22235              	.LASF578:
 22236 18ea 55534244 		.ascii	"USBDriver\000"
 22236      72697665 
 22236      7200
 22237              	.LASF695:
 22238 18f4 72657376 		.ascii	"resvd8C0\000"
 22238      64384330 
 22238      00
 22239              	.LASF732:
 22240 18fd 55534243 		.ascii	"USBConfig\000"
 22240      6F6E6669 
 22240      6700
 22241              	.LASF638:
ARM GAS  C:\Users\CHRIST~1\AppData\Local\Temp\ccb3oWGE.s 			page 413


 22242 1907 72657376 		.ascii	"resvdC\000"
 22242      644300
 22243              	.LASF530:
 22244 190e 6368616E 		.ascii	"channel\000"
 22244      6E656C00 
 22245              	.LASF870:
 22246 1916 6D5F7465 		.ascii	"m_temp_motor\000"
 22246      6D705F6D 
 22246      6F746F72 
 22246      00
 22247              	.LASF992:
 22248 1923 6D635F69 		.ascii	"mc_interface_set_configuration\000"
 22248      6E746572 
 22248      66616365 
 22248      5F736574 
 22248      5F636F6E 
 22249              	.LASF344:
 22250 1942 63635F67 		.ascii	"cc_gain\000"
 22250      61696E00 
 22251              	.LASF414:
 22252 194a 4144435F 		.ascii	"ADC_curr_norm_value\000"
 22252      63757272 
 22252      5F6E6F72 
 22252      6D5F7661 
 22252      6C756500 
 22253              	.LASF894:
 22254 195e 696E645F 		.ascii	"ind_samp\000"
 22254      73616D70 
 22254      00
 22255              	.LASF28:
 22256 1967 74726566 		.ascii	"trefs_t\000"
 22256      735F7400 
 22257              	.LASF55:
 22258 196f 705F6D70 		.ascii	"p_mpool\000"
 22258      6F6F6C00 
 22259              	.LASF1018:
 22260 1977 6D637077 		.ascii	"mcpwm_foc_get_abs_motor_current\000"
 22260      6D5F666F 
 22260      635F6765 
 22260      745F6162 
 22260      735F6D6F 
 22261              	.LASF261:
 22262 1997 70776D5F 		.ascii	"pwm_mode\000"
 22262      6D6F6465 
 22262      00
 22263              	.LASF981:
 22264 19a0 64757479 		.ascii	"dutyCycle\000"
 22264      4379636C 
 22264      6500
 22265              	.LASF1060:
 22266 19aa 6D637077 		.ascii	"mcpwm_foc_get_state\000"
 22266      6D5F666F 
 22266      635F6765 
 22266      745F7374 
 22266      61746500 
 22267              	.LASF263:
 22268 19be 6D6F746F 		.ascii	"motor_type\000"
ARM GAS  C:\Users\CHRIST~1\AppData\Local\Temp\ccb3oWGE.s 			page 414


 22268      725F7479 
 22268      706500
 22269              	.LASF290:
 22270 19c9 6C6F5F63 		.ascii	"lo_current_min\000"
 22270      75727265 
 22270      6E745F6D 
 22270      696E00
 22271              	.LASF725:
 22272 19d8 696E5F6D 		.ascii	"in_multiplier\000"
 22272      756C7469 
 22272      706C6965 
 22272      7200
 22273              	.LASF297:
 22274 19e6 736C5F6D 		.ascii	"sl_max_fullbreak_current_dir_change\000"
 22274      61785F66 
 22274      756C6C62 
 22274      7265616B 
 22274      5F637572 
 22275              	.LASF974:
 22276 1a0a 6D635F69 		.ascii	"mc_interface_set_current_rel\000"
 22276      6E746572 
 22276      66616365 
 22276      5F736574 
 22276      5F637572 
 22277              	.LASF760:
 22278 1a27 5F6F6E5F 		.ascii	"_on_exit_args\000"
 22278      65786974 
 22278      5F617267 
 22278      7300
 22279              	.LASF1070:
 22280 1a35 6D637077 		.ascii	"mcpwm_set_configuration\000"
 22280      6D5F7365 
 22280      745F636F 
 22280      6E666967 
 22280      75726174 
 22281              	.LASF1019:
 22282 1a4d 6D637077 		.ascii	"mcpwm_foc_get_abs_motor_current_filtered\000"
 22282      6D5F666F 
 22282      635F6765 
 22282      745F6162 
 22282      735F6D6F 
 22283              	.LASF26:
 22284 1a76 746D6F64 		.ascii	"tmode_t\000"
 22284      655F7400 
 22285              	.LASF798:
 22286 1a7e 5F5F636C 		.ascii	"__cleanup\000"
 22286      65616E75 
 22286      7000
 22287              	.LASF967:
 22288 1a88 6D635F69 		.ascii	"mc_interface_get_sampling_frequency_now\000"
 22288      6E746572 
 22288      66616365 
 22288      5F676574 
 22288      5F73616D 
 22289              	.LASF920:
 22290 1ab0 6C6F5F69 		.ascii	"lo_in_max\000"
 22290      6E5F6D61 
ARM GAS  C:\Users\CHRIST~1\AppData\Local\Temp\ccb3oWGE.s 			page 415


 22290      7800
 22291              	.LASF769:
 22292 1aba 5F626173 		.ascii	"_base\000"
 22292      6500
 22293              	.LASF679:
 22294 1ac0 44535453 		.ascii	"DSTS\000"
 22294      00
 22295              	.LASF323:
 22296 1ac5 666F635F 		.ascii	"foc_sl_d_current_duty\000"
 22296      736C5F64 
 22296      5F637572 
 22296      72656E74 
 22296      5F647574 
 22297              	.LASF560:
 22298 1adb 55415254 		.ascii	"UARTDriver\000"
 22298      44726976 
 22298      657200
 22299              	.LASF431:
 22300 1ae6 42535252 		.ascii	"BSRR\000"
 22300      00
 22301              	.LASF575:
 22302 1aeb 55415254 		.ascii	"UARTConfig\000"
 22302      436F6E66 
 22302      696700
 22303              	.LASF143:
 22304 1af6 54494D5F 		.ascii	"TIM_TypeDef\000"
 22304      54797065 
 22304      44656600 
 22305              	.LASF730:
 22306 1b02 72657175 		.ascii	"requests_hook_cb\000"
 22306      65737473 
 22306      5F686F6F 
 22306      6B5F6362 
 22306      00
 22307              	.LASF834:
 22308 1b13 5F776372 		.ascii	"_wcrtomb_state\000"
 22308      746F6D62 
 22308      5F737461 
 22308      746500
 22309              	.LASF302:
 22310 1b22 68616C6C 		.ascii	"hall_table\000"
 22310      5F746162 
 22310      6C6500
 22311              	.LASF709:
 22312 1b2d 74787369 		.ascii	"txsize\000"
 22312      7A6500
 22313              	.LASF946:
 22314 1b34 6D635F69 		.ascii	"mc_interface_get_pid_pos_now\000"
 22314      6E746572 
 22314      66616365 
 22314      5F676574 
 22314      5F706964 
 22315              	.LASF569:
 22316 1b51 7478656E 		.ascii	"txend1_cb\000"
 22316      64315F63 
 22316      6200
 22317              	.LASF576:
ARM GAS  C:\Users\CHRIST~1\AppData\Local\Temp\ccb3oWGE.s 			page 416


 22318 1b5b 55415254 		.ascii	"UARTD3\000"
 22318      443300
 22319              	.LASF859:
 22320 1b62 6D5F696E 		.ascii	"m_input_current_iterations\000"
 22320      7075745F 
 22320      63757272 
 22320      656E745F 
 22320      69746572 
 22321              	.LASF577:
 22322 1b7d 55415254 		.ascii	"UARTD6\000"
 22322      443600
 22323              	.LASF1091:
 22324 1b84 6D635F69 		.ascii	"mc_interface_get_last_sample_adc_isr_duration\000"
 22324      6E746572 
 22324      66616365 
 22324      5F676574 
 22324      5F6C6173 
 22325              	.LASF572:
 22326 1bb2 72786368 		.ascii	"rxchar_cb\000"
 22326      61725F63 
 22326      6200
 22327              	.LASF478:
 22328 1bbc 4932435F 		.ascii	"I2C_LOCKED\000"
 22328      4C4F434B 
 22328      454400
 22329              	.LASF259:
 22330 1bc7 44454255 		.ascii	"DEBUG_SAMPLING_SEND_LAST_SAMPLES\000"
 22330      475F5341 
 22330      4D504C49 
 22330      4E475F53 
 22330      454E445F 
 22331              	.LASF232:
 22332 1be8 4D4F544F 		.ascii	"MOTOR_TYPE_DC\000"
 22332      525F5459 
 22332      50455F44 
 22332      4300
 22333              	.LASF1079:
 22334 1bf6 6D637077 		.ascii	"mcpwm_foc_stop_pwm\000"
 22334      6D5F666F 
 22334      635F7374 
 22334      6F705F70 
 22334      776D00
 22335              	.LASF213:
 22336 1c09 4D435F53 		.ascii	"MC_STATE_RUNNING\000"
 22336      54415445 
 22336      5F52554E 
 22336      4E494E47 
 22336      00
 22337              	.LASF952:
 22338 1c1a 6D635F69 		.ascii	"mc_interface_get_last_inj_adc_isr_duration\000"
 22338      6E746572 
 22338      66616365 
 22338      5F676574 
 22338      5F6C6173 
 22339              	.LASF599:
 22340 1c45 5553425F 		.ascii	"USB_READY\000"
 22340      52454144 
ARM GAS  C:\Users\CHRIST~1\AppData\Local\Temp\ccb3oWGE.s 			page 417


 22340      5900
 22341              	.LASF313:
 22342 1c4f 666F635F 		.ascii	"foc_motor_flux_linkage\000"
 22342      6D6F746F 
 22342      725F666C 
 22342      75785F6C 
 22342      696E6B61 
 22343              	.LASF651:
 22344 1c66 47525354 		.ascii	"GRSTCTL\000"
 22344      43544C00 
 22345              	.LASF567:
 22346 1c6e 75617274 		.ascii	"uartccb_t\000"
 22346      6363625F 
 22346      7400
 22347              	.LASF1034:
 22348 1c78 6D637077 		.ascii	"mcpwm_foc_get_tot_current_in\000"
 22348      6D5F666F 
 22348      635F6765 
 22348      745F746F 
 22348      745F6375 
 22349              	.LASF298:
 22350 1c95 736C5F63 		.ascii	"sl_cycle_int_limit\000"
 22350      79636C65 
 22350      5F696E74 
 22350      5F6C696D 
 22350      697400
 22351              	.LASF17:
 22352 1ca8 696E7438 		.ascii	"int8_t\000"
 22352      5F7400
 22353              	.LASF549:
 22354 1caf 55415254 		.ascii	"UART_READY\000"
 22354      5F524541 
 22354      445900
 22355              	.LASF744:
 22356 1cba 5F5F554C 		.ascii	"__ULong\000"
 22356      6F6E6700 
 22357              	.LASF83:
 22358 1cc2 70616E69 		.ascii	"panic_msg\000"
 22358      635F6D73 
 22358      6700
 22359              	.LASF538:
 22360 1ccc 5350495F 		.ascii	"SPI_COMPLETE\000"
 22360      434F4D50 
 22360      4C455445 
 22360      00
 22361              	.LASF784:
 22362 1cd9 5F646174 		.ascii	"_data\000"
 22362      6100
 22363              	.LASF67:
 22364 1cdf 725F6E65 		.ascii	"r_newer\000"
 22364      77657200 
 22365              	.LASF366:
 22366 1ce7 434F4D4D 		.ascii	"COMM_SET_CURRENT\000"
 22366      5F534554 
 22366      5F435552 
 22366      52454E54 
 22366      00
ARM GAS  C:\Users\CHRIST~1\AppData\Local\Temp\ccb3oWGE.s 			page 418


 22367              	.LASF949:
 22368 1cf8 6D635F69 		.ascii	"mc_interface_read_reset_avg_id\000"
 22368      6E746572 
 22368      66616365 
 22368      5F726561 
 22368      645F7265 
 22369              	.LASF616:
 22370 1d17 5553425F 		.ascii	"USB_EVENT_STALLED\000"
 22370      4556454E 
 22370      545F5354 
 22370      414C4C45 
 22370      4400
 22371              	.LASF1016:
 22372 1d29 6D637077 		.ascii	"mcpwm_foc_get_id\000"
 22372      6D5F666F 
 22372      635F6765 
 22372      745F6964 
 22372      00
 22373              	.LASF185:
 22374 1d3a 63686465 		.ascii	"chdebug_t\000"
 22374      6275675F 
 22374      7400
 22375              	.LASF1001:
 22376 1d44 706F7274 		.ascii	"port_lock_from_isr\000"
 22376      5F6C6F63 
 22376      6B5F6672 
 22376      6F6D5F69 
 22376      737200
 22377              	.LASF1017:
 22378 1d57 6D637077 		.ascii	"mcpwm_foc_get_iq\000"
 22378      6D5F666F 
 22378      635F6765 
 22378      745F6971 
 22378      00
 22379              	.LASF714:
 22380 1d68 72787369 		.ascii	"rxsize\000"
 22380      7A6500
 22381              	.LASF507:
 22382 1d6f 4943555F 		.ascii	"ICU_WAITING\000"
 22382      57414954 
 22382      494E4700 
 22383              	.LASF630:
 22384 1d7b 48435453 		.ascii	"HCTSIZ\000"
 22384      495A00
 22385              	.LASF613:
 22386 1d82 5553425F 		.ascii	"USB_EVENT_CONFIGURED\000"
 22386      4556454E 
 22386      545F434F 
 22386      4E464947 
 22386      55524544 
 22387              	.LASF888:
 22388 1d97 70776E5F 		.ascii	"pwn_done_func\000"
 22388      646F6E65 
 22388      5F66756E 
 22388      6300
 22389              	.LASF29:
 22390 1da5 74736C69 		.ascii	"tslices_t\000"
ARM GAS  C:\Users\CHRIST~1\AppData\Local\Temp\ccb3oWGE.s 			page 419


 22390      6365735F 
 22390      7400
 22391              	.LASF819:
 22392 1daf 5F737472 		.ascii	"_strtok_last\000"
 22392      746F6B5F 
 22392      6C617374 
 22392      00
 22393              	.LASF864:
 22394 1dbc 6D5F616D 		.ascii	"m_amp_seconds\000"
 22394      705F7365 
 22394      636F6E64 
 22394      7300
 22395              	.LASF172:
 22396 1dca 63685F74 		.ascii	"ch_timesize\000"
 22396      696D6573 
 22396      697A6500 
 22397              	.LASF954:
 22398 1dd6 72657365 		.ascii	"reset\000"
 22398      7400
 22399              	.LASF404:
 22400 1ddc 6379636C 		.ascii	"cycles_running\000"
 22400      65735F72 
 22400      756E6E69 
 22400      6E6700
 22401              	.LASF595:
 22402 1deb 77615F70 		.ascii	"wa_pump\000"
 22402      756D7000 
 22403              	.LASF197:
 22404 1df3 6576656E 		.ascii	"event_source_t\000"
 22404      745F736F 
 22404      75726365 
 22404      5F7400
 22405              	.LASF665:
 22406 1e02 72657376 		.ascii	"resvd140\000"
 22406      64313430 
 22406      00
 22407              	.LASF75:
 22408 1e0b 76745F64 		.ascii	"vt_delta\000"
 22408      656C7461 
 22408      00
 22409              	.LASF815:
 22410 1e14 5F736565 		.ascii	"_seed\000"
 22410      6400
 22411              	.LASF958:
 22412 1e1a 6D635F69 		.ascii	"mc_interface_get_tot_current_directional_filtered\000"
 22412      6E746572 
 22412      66616365 
 22412      5F676574 
 22412      5F746F74 
 22413              	.LASF778:
 22414 1e4c 5F736565 		.ascii	"_seek\000"
 22414      6B00
 22415              	.LASF614:
 22416 1e52 5553425F 		.ascii	"USB_EVENT_SUSPEND\000"
 22416      4556454E 
 22416      545F5355 
 22416      5350454E 
ARM GAS  C:\Users\CHRIST~1\AppData\Local\Temp\ccb3oWGE.s 			page 420


 22416      4400
 22417              	.LASF898:
 22418 1e64 72706D5F 		.ascii	"rpm_now\000"
 22418      6E6F7700 
 22419              	.LASF19:
 22420 1e6c 696E7431 		.ascii	"int16_t\000"
 22420      365F7400 
 22421              	.LASF8:
 22422 1e74 73686F72 		.ascii	"short unsigned int\000"
 22422      7420756E 
 22422      7369676E 
 22422      65642069 
 22422      6E7400
 22423              	.LASF897:
 22424 1e87 765F696E 		.ascii	"v_in\000"
 22424      00
 22425              	.LASF1:
 22426 1e8c 7369676E 		.ascii	"signed char\000"
 22426      65642063 
 22426      68617200 
 22427              	.LASF847:
 22428 1e98 5F5F6664 		.ascii	"__fdlibm_xopen\000"
 22428      6C69626D 
 22428      5F786F70 
 22428      656E00
 22429              	.LASF1043:
 22430 1ea7 6D637077 		.ascii	"mcpwm_get_tot_current\000"
 22430      6D5F6765 
 22430      745F746F 
 22430      745F6375 
 22430      7272656E 
 22431              	.LASF941:
 22432 1ebd 6D635F69 		.ascii	"mc_interface_temp_motor_filtered\000"
 22432      6E746572 
 22432      66616365 
 22432      5F74656D 
 22432      705F6D6F 
 22433              	.LASF47:
 22434 1ede 705F7072 		.ascii	"p_preempt\000"
 22434      65656D70 
 22434      7400
 22435              	.LASF271:
 22436 1ee8 6C5F6D61 		.ascii	"l_max_erpm\000"
 22436      785F6572 
 22436      706D00
 22437              	.LASF48:
 22438 1ef3 705F7469 		.ascii	"p_time\000"
 22438      6D6500
 22439              	.LASF94:
 22440 1efa 54444852 		.ascii	"TDHR\000"
 22440      00
 22441              	.LASF607:
 22442 1eff 5553425F 		.ascii	"USB_EP0_RX\000"
 22442      4550305F 
 22442      525800
 22443              	.LASF1051:
 22444 1f0a 6D637077 		.ascii	"mcpwm_get_duty_cycle_set\000"
ARM GAS  C:\Users\CHRIST~1\AppData\Local\Temp\ccb3oWGE.s 			page 421


 22444      6D5F6765 
 22444      745F6475 
 22444      74795F63 
 22444      79636C65 
 22445              	.LASF399:
 22446 1f23 63757272 		.ascii	"current\000"
 22446      656E7400 
 22447              	.LASF845:
 22448 1f2b 5F5F6664 		.ascii	"__fdlibm_ieee\000"
 22448      6C69626D 
 22448      5F696565 
 22448      6500
 22449              	.LASF1085:
 22450 1f39 6D637077 		.ascii	"mcpwm_foc_set_current\000"
 22450      6D5F666F 
 22450      635F7365 
 22450      745F6375 
 22450      7272656E 
 22451              	.LASF850:
 22452 1f4f 6D5F636F 		.ascii	"m_conf\000"
 22452      6E6600
 22453              	.LASF588:
 22454 1f56 73746174 		.ascii	"status\000"
 22454      757300
 22455              	.LASF1026:
 22456 1f5d 6D637077 		.ascii	"mcpwm_foc_get_last_inj_adc_isr_duration\000"
 22456      6D5F666F 
 22456      635F6765 
 22456      745F6C61 
 22456      73745F69 
 22457              	.LASF620:
 22458 1f85 55534244 		.ascii	"USBDescriptor\000"
 22458      65736372 
 22458      6970746F 
 22458      7200
 22459              	.LASF853:
 22460 1f93 6D5F6379 		.ascii	"m_cycles_running\000"
 22460      636C6573 
 22460      5F72756E 
 22460      6E696E67 
 22460      00
 22461              	.LASF802:
 22462 1fa4 5F667265 		.ascii	"_freelist\000"
 22462      656C6973 
 22462      7400
 22463              	.LASF562:
 22464 1fae 72787374 		.ascii	"rxstate\000"
 22464      61746500 
 22465              	.LASF241:
 22466 1fb6 4641554C 		.ascii	"FAULT_CODE_OVER_TEMP_MOTOR\000"
 22466      545F434F 
 22466      44455F4F 
 22466      5645525F 
 22466      54454D50 
 22467              	.LASF995:
 22468 1fd1 75706461 		.ascii	"update_override_limits\000"
 22468      74655F6F 
ARM GAS  C:\Users\CHRIST~1\AppData\Local\Temp\ccb3oWGE.s 			page 422


 22468      76657272 
 22468      6964655F 
 22468      6C696D69 
 22469              	.LASF412:
 22470 1fe8 636F6E66 		.ascii	"conf_general_permanent_nrf_found\000"
 22470      5F67656E 
 22470      6572616C 
 22470      5F706572 
 22470      6D616E65 
 22471              	.LASF589:
 22472 2009 61646472 		.ascii	"address\000"
 22472      65737300 
 22473              	.LASF50:
 22474 2011 705F6D73 		.ascii	"p_msgqueue\000"
 22474      67717565 
 22474      756500
 22475              	.LASF182:
 22476 201c 63665F6F 		.ascii	"cf_off_refs\000"
 22476      66665F72 
 22476      65667300 
 22477              	.LASF319:
 22478 2028 666F635F 		.ascii	"foc_duty_dowmramp_ki\000"
 22478      64757479 
 22478      5F646F77 
 22478      6D72616D 
 22478      705F6B69 
 22479              	.LASF164:
 22480 203d 6D5F6F77 		.ascii	"m_owner\000"
 22480      6E657200 
 22481              	.LASF318:
 22482 2045 666F635F 		.ascii	"foc_duty_dowmramp_kp\000"
 22482      64757479 
 22482      5F646F77 
 22482      6D72616D 
 22482      705F6B70 
 22483              	.LASF783:
 22484 205a 5F6F6666 		.ascii	"_offset\000"
 22484      73657400 
 22485              	.LASF945:
 22486 2062 6D635F69 		.ascii	"mc_interface_try_input\000"
 22486      6E746572 
 22486      66616365 
 22486      5F747279 
 22486      5F696E70 
 22487              	.LASF91:
 22488 2079 53797374 		.ascii	"SystemCoreClock\000"
 22488      656D436F 
 22488      7265436C 
 22488      6F636B00 
 22489              	.LASF931:
 22490 2089 73616D70 		.ascii	"sample\000"
 22490      6C6500
 22491              	.LASF923:
 22492 2090 6D635F69 		.ascii	"mc_interface_adc_inj_int_handler\000"
 22492      6E746572 
 22492      66616365 
 22492      5F616463 
ARM GAS  C:\Users\CHRIST~1\AppData\Local\Temp\ccb3oWGE.s 			page 423


 22492      5F696E6A 
 22493              	.LASF462:
 22494 20b1 73746174 		.ascii	"state\000"
 22494      6500
 22495              	.LASF170:
 22496 20b7 63685F76 		.ascii	"ch_version\000"
 22496      65727369 
 22496      6F6E00
 22497              	.LASF768:
 22498 20c2 5F5F7362 		.ascii	"__sbuf\000"
 22498      756600
 22499              	.LASF606:
 22500 20c9 5553425F 		.ascii	"USB_EP0_WAITING_STS\000"
 22500      4550305F 
 22500      57414954 
 22500      494E475F 
 22500      53545300 
 22501              	.LASF125:
 22502 20dd 4932435F 		.ascii	"I2C_TypeDef\000"
 22502      54797065 
 22502      44656600 
 22503              	.LASF98:
 22504 20e9 52444852 		.ascii	"RDHR\000"
 22504      00
 22505              	.LASF1076:
 22506 20ee 7574696C 		.ascii	"utils_sys_unlock_cnt\000"
 22506      735F7379 
 22506      735F756E 
 22506      6C6F636B 
 22506      5F636E74 
 22507              	.LASF817:
 22508 2103 5F616464 		.ascii	"_add\000"
 22508      00
 22509              	.LASF142:
 22510 2108 444D4152 		.ascii	"DMAR\000"
 22510      00
 22511              	.LASF85:
 22512 210d 63685F73 		.ascii	"ch_system\000"
 22512      79737465 
 22512      6D00
 22513              	.LASF884:
 22514 2117 6D5F7361 		.ascii	"m_sample_mode_last\000"
 22514      6D706C65 
 22514      5F6D6F64 
 22514      655F6C61 
 22514      737400
 22515              	.LASF788:
 22516 212a 5F726565 		.ascii	"_reent\000"
 22516      6E7400
 22517              	.LASF265:
 22518 2131 6C5F6375 		.ascii	"l_current_max\000"
 22518      7272656E 
 22518      745F6D61 
 22518      7800
 22519              	.LASF828:
 22520 213f 5F6C3634 		.ascii	"_l64a_buf\000"
 22520      615F6275 
ARM GAS  C:\Users\CHRIST~1\AppData\Local\Temp\ccb3oWGE.s 			page 424


 22520      6600
 22521              	.LASF410:
 22522 2149 64727638 		.ascii	"drv8301_faults\000"
 22522      3330315F 
 22522      6661756C 
 22522      747300
 22523              	.LASF820:
 22524 2158 5F617363 		.ascii	"_asctime_buf\000"
 22524      74696D65 
 22524      5F627566 
 22524      00
 22525              	.LASF555:
 22526 2165 55415254 		.ascii	"UART_RX_IDLE\000"
 22526      5F52585F 
 22526      49444C45 
 22526      00
 22527              	.LASF738:
 22528 2172 5F5F7763 		.ascii	"__wch\000"
 22528      6800
 22529              	.LASF741:
 22530 2178 5F5F7661 		.ascii	"__value\000"
 22530      6C756500 
 22531              	.LASF159:
 22532 2180 63685F73 		.ascii	"ch_semaphore\000"
 22532      656D6170 
 22532      686F7265 
 22532      00
 22533              	.LASF835:
 22534 218d 5F776373 		.ascii	"_wcsrtombs_state\000"
 22534      72746F6D 
 22534      62735F73 
 22534      74617465 
 22534      00
 22535              	.LASF909:
 22536 219e 6C6F5F6D 		.ascii	"lo_max_rpm\000"
 22536      61785F72 
 22536      706D00
 22537              	.LASF639:
 22538 21a9 44494550 		.ascii	"DIEPTSIZ\000"
 22538      5453495A 
 22538      00
 22539              	.LASF1002:
 22540 21b2 706F7274 		.ascii	"port_unlock\000"
 22540      5F756E6C 
 22540      6F636B00 
 22541              	.LASF60:
 22542 21be 74687265 		.ascii	"threads_queue_t\000"
 22542      6164735F 
 22542      71756575 
 22542      655F7400 
 22543              	.LASF243:
 22544 21ce 53454E53 		.ascii	"SENSOR_PORT_MODE_HALL\000"
 22544      4F525F50 
 22544      4F52545F 
 22544      4D4F4445 
 22544      5F48414C 
 22545              	.LASF1090:
ARM GAS  C:\Users\CHRIST~1\AppData\Local\Temp\ccb3oWGE.s 			page 425


 22546 21e4 5F5F6664 		.ascii	"__fdlibm_version\000"
 22546      6C69626D 
 22546      5F766572 
 22546      73696F6E 
 22546      00
 22547              	.LASF413:
 22548 21f5 4144435F 		.ascii	"ADC_Value\000"
 22548      56616C75 
 22548      6500
 22549              	.LASF227:
 22550 21ff 464F435F 		.ascii	"FOC_SENSOR_MODE_SENSORLESS\000"
 22550      53454E53 
 22550      4F525F4D 
 22550      4F44455F 
 22550      53454E53 
 22551              	.LASF46:
 22552 221a 705F7265 		.ascii	"p_refs\000"
 22552      667300
 22553              	.LASF717:
 22554 2221 65705F6D 		.ascii	"ep_mode\000"
 22554      6F646500 
 22555              	.LASF1083:
 22556 2229 6D637077 		.ascii	"mcpwm_foc_set_duty\000"
 22556      6D5F666F 
 22556      635F7365 
 22556      745F6475 
 22556      747900
 22557              	.LASF646:
 22558 223c 73746D33 		.ascii	"stm32_otg_out_ep_t\000"
 22558      325F6F74 
 22558      675F6F75 
 22558      745F6570 
 22558      5F7400
 22559              	.LASF226:
 22560 224f 6D635F73 		.ascii	"mc_sensor_mode\000"
 22560      656E736F 
 22560      725F6D6F 
 22560      646500
 22561              	.LASF93:
 22562 225e 54444C52 		.ascii	"TDLR\000"
 22562      00
 22563              	.LASF10:
 22564 2263 6C6F6E67 		.ascii	"long int\000"
 22564      20696E74 
 22564      00
 22565              	.LASF860:
 22566 226c 6D5F6D6F 		.ascii	"m_motor_id_sum\000"
 22566      746F725F 
 22566      69645F73 
 22566      756D00
 22567              	.LASF88:
 22568 227b 6D61696E 		.ascii	"mainthread\000"
 22568      74687265 
 22568      616400
 22569              	.LASF585:
 22570 2286 6570306E 		.ascii	"ep0n\000"
 22570      00
ARM GAS  C:\Users\CHRIST~1\AppData\Local\Temp\ccb3oWGE.s 			page 426


 22571              	.LASF919:
 22572 228b 6C6F5F69 		.ascii	"lo_in_min_watt\000"
 22572      6E5F6D69 
 22572      6E5F7761 
 22572      747400
 22573              	.LASF163:
 22574 229a 6D5F7175 		.ascii	"m_queue\000"
 22574      65756500 
 22575              	.LASF371:
 22576 22a2 434F4D4D 		.ascii	"COMM_SET_DETECT\000"
 22576      5F534554 
 22576      5F444554 
 22576      45435400 
 22577              	.LASF450:
 22578 22b2 50484461 		.ascii	"PHData\000"
 22578      746100
 22579              	.LASF1075:
 22580 22b9 7574696C 		.ascii	"utils_sys_lock_cnt\000"
 22580      735F7379 
 22580      735F6C6F 
 22580      636B5F63 
 22580      6E7400
 22581              	.LASF453:
 22582 22cc 696F706F 		.ascii	"ioportid_t\000"
 22582      72746964 
 22582      5F7400
 22583              	.LASF361:
 22584 22d7 434F4D4D 		.ascii	"COMM_JUMP_TO_BOOTLOADER\000"
 22584      5F4A554D 
 22584      505F544F 
 22584      5F424F4F 
 22584      544C4F41 
 22585              	.LASF220:
 22586 22ef 434F4D4D 		.ascii	"COMM_MODE_INTEGRATE\000"
 22586      5F4D4F44 
 22586      455F494E 
 22586      54454752 
 22586      41544500 
 22587              	.LASF666:
 22588 2303 48434647 		.ascii	"HCFG\000"
 22588      00
 22589              	.LASF415:
 22590 2308 6D637077 		.ascii	"mcpwm_detect_currents\000"
 22590      6D5F6465 
 22590      74656374 
 22590      5F637572 
 22590      72656E74 
 22591              	.LASF564:
 22592 231e 646D616D 		.ascii	"dmamode\000"
 22592      6F646500 
 22593              	.LASF813:
 22594 2326 5F696F62 		.ascii	"_iobs\000"
 22594      7300
 22595              	.LASF546:
 22596 232c 53504944 		.ascii	"SPID1\000"
 22596      3100
 22597              	.LASF936:
ARM GAS  C:\Users\CHRIST~1\AppData\Local\Temp\ccb3oWGE.s 			page 427


 22598 2332 636F6E66 		.ascii	"conf\000"
 22598      00
 22599              	.LASF550:
 22600 2337 75617274 		.ascii	"uartstate_t\000"
 22600      73746174 
 22600      655F7400 
 22601              	.LASF155:
 22602 2343 77747472 		.ascii	"wttrp\000"
 22602      7000
 22603              	.LASF205:
 22604 2349 715F7264 		.ascii	"q_rdptr\000"
 22604      70747200 
 22605              	.LASF148:
 22606 2351 636F6E74 		.ascii	"context\000"
 22606      65787400 
 22607              	.LASF823:
 22608 2359 5F72616E 		.ascii	"_rand_next\000"
 22608      645F6E65 
 22608      787400
 22609              	.LASF943:
 22610 2364 6D635F69 		.ascii	"mc_interface_sample_print_data\000"
 22610      6E746572 
 22610      66616365 
 22610      5F73616D 
 22610      706C655F 
 22611              	.LASF1057:
 22612 2383 6D637077 		.ascii	"mcpwm_set_pid_speed\000"
 22612      6D5F7365 
 22612      745F7069 
 22612      645F7370 
 22612      65656400 
 22613              	.LASF719:
 22614 2397 696E5F63 		.ascii	"in_cb\000"
 22614      6200
 22615              	.LASF416:
 22616 239d 6D637077 		.ascii	"mcpwm_detect_voltages\000"
 22616      6D5F6465 
 22616      74656374 
 22616      5F766F6C 
 22616      74616765 
 22617              	.LASF644:
 22618 23b3 444F4550 		.ascii	"DOEPINT\000"
 22618      494E5400 
 22619              	.LASF960:
 22620 23bb 6D635F69 		.ascii	"mc_interface_get_tot_current_filtered\000"
 22620      6E746572 
 22620      66616365 
 22620      5F676574 
 22620      5F746F74 
 22621              	.LASF432:
 22622 23e1 4C434B52 		.ascii	"LCKR\000"
 22622      00
 22623              	.LASF310:
 22624 23e6 666F635F 		.ascii	"foc_encoder_ratio\000"
 22624      656E636F 
 22624      6465725F 
 22624      72617469 
ARM GAS  C:\Users\CHRIST~1\AppData\Local\Temp\ccb3oWGE.s 			page 428


 22624      6F00
 22625              	.LASF22:
 22626 23f8 75696E74 		.ascii	"uint32_t\000"
 22626      33325F74 
 22626      00
 22627              	.LASF214:
 22628 2401 4D435F53 		.ascii	"MC_STATE_FULL_BRAKE\000"
 22628      54415445 
 22628      5F46554C 
 22628      4C5F4252 
 22628      414B4500 
 22629              	.LASF393:
 22630 2415 434F4D4D 		.ascii	"COMM_GET_DECODED_CHUK\000"
 22630      5F474554 
 22630      5F444543 
 22630      4F444544 
 22630      5F434855 
 22631              	.LASF747:
 22632 242b 5F6D6178 		.ascii	"_maxwds\000"
 22632      77647300 
 22633              	.LASF624:
 22634 2433 75736272 		.ascii	"usbreqhandler_t\000"
 22634      65716861 
 22634      6E646C65 
 22634      725F7400 
 22635              	.LASF97:
 22636 2443 52444C52 		.ascii	"RDLR\000"
 22636      00
 22637              	.LASF370:
 22638 2448 434F4D4D 		.ascii	"COMM_SET_HANDBRAKE\000"
 22638      5F534554 
 22638      5F48414E 
 22638      44425241 
 22638      4B4500
 22639              	.LASF748:
 22640 245b 5F736967 		.ascii	"_sign\000"
 22640      6E00
 22641              	.LASF966:
 22642 2461 6D635F69 		.ascii	"mc_interface_get_rpm\000"
 22642      6E746572 
 22642      66616365 
 22642      5F676574 
 22642      5F72706D 
 22643              	.LASF1003:
 22644 2476 706F7274 		.ascii	"port_lock\000"
 22644      5F6C6F63 
 22644      6B00
 22645              	.LASF369:
 22646 2480 434F4D4D 		.ascii	"COMM_SET_POS\000"
 22646      5F534554 
 22646      5F504F53 
 22646      00
 22647              	.LASF146:
 22648 248d 72656761 		.ascii	"regarm_t\000"
 22648      726D5F74 
 22648      00
 22649              	.LASF32:
ARM GAS  C:\Users\CHRIST~1\AppData\Local\Temp\ccb3oWGE.s 			page 429


 22650 2496 6576656E 		.ascii	"eventmask_t\000"
 22650      746D6173 
 22650      6B5F7400 
 22651              	.LASF611:
 22652 24a2 5553425F 		.ascii	"USB_EVENT_RESET\000"
 22652      4556454E 
 22652      545F5245 
 22652      53455400 
 22653              	.LASF111:
 22654 24b2 46464131 		.ascii	"FFA1R\000"
 22654      5200
 22655              	.LASF600:
 22656 24b8 5553425F 		.ascii	"USB_SELECTED\000"
 22656      53454C45 
 22656      43544544 
 22656      00
 22657              	.LASF1039:
 22658 24c5 6D637077 		.ascii	"mcpwm_get_tot_current_directional\000"
 22658      6D5F6765 
 22658      745F746F 
 22658      745F6375 
 22658      7272656E 
 22659              	.LASF12:
 22660 24e7 6C6F6E67 		.ascii	"long unsigned int\000"
 22660      20756E73 
 22660      69676E65 
 22660      6420696E 
 22660      7400
 22661              	.LASF345:
 22662 24f9 63635F72 		.ascii	"cc_ramp_step_max\000"
 22662      616D705F 
 22662      73746570 
 22662      5F6D6178 
 22662      00
 22663              	.LASF963:
 22664 250a 6D635F69 		.ascii	"mc_interface_get_watt_hours\000"
 22664      6E746572 
 22664      66616365 
 22664      5F676574 
 22664      5F776174 
 22665              	.LASF340:
 22666 2526 705F7069 		.ascii	"p_pid_kd\000"
 22666      645F6B64 
 22666      00
 22667              	.LASF339:
 22668 252f 705F7069 		.ascii	"p_pid_ki\000"
 22668      645F6B69 
 22668      00
 22669              	.LASF204:
 22670 2538 715F7772 		.ascii	"q_wrptr\000"
 22670      70747200 
 22671              	.LASF338:
 22672 2540 705F7069 		.ascii	"p_pid_kp\000"
 22672      645F6B70 
 22672      00
 22673              	.LASF510:
 22674 2549 49435544 		.ascii	"ICUDriver\000"
ARM GAS  C:\Users\CHRIST~1\AppData\Local\Temp\ccb3oWGE.s 			page 430


 22674      72697665 
 22674      7200
 22675              	.LASF408:
 22676 2553 636F6D6D 		.ascii	"comm_step\000"
 22676      5F737465 
 22676      7000
 22677              	.LASF532:
 22678 255d 49435543 		.ascii	"ICUConfig\000"
 22678      6F6E6669 
 22678      6700
 22679              	.LASF217:
 22680 2567 50574D5F 		.ascii	"PWM_MODE_SYNCHRONOUS\000"
 22680      4D4F4445 
 22680      5F53594E 
 22680      4348524F 
 22680      4E4F5553 
 22681              	.LASF355:
 22682 257c 6D5F626C 		.ascii	"m_bldc_f_sw_max\000"
 22682      64635F66 
 22682      5F73775F 
 22682      6D617800 
 22683              	.LASF869:
 22684 258c 6D5F7465 		.ascii	"m_temp_fet\000"
 22684      6D705F66 
 22684      657400
 22685              	.LASF251:
 22686 2597 64727638 		.ascii	"drv8301_oc_mode\000"
 22686      3330315F 
 22686      6F635F6D 
 22686      6F646500 
 22687              	.LASF566:
 22688 25a7 75617274 		.ascii	"uartcb_t\000"
 22688      63625F74 
 22688      00
 22689              	.LASF331:
 22690 25b0 666F635F 		.ascii	"foc_temp_comp\000"
 22690      74656D70 
 22690      5F636F6D 
 22690      7000
 22691              	.LASF903:
 22692 25be 74656D70 		.ascii	"temp_fet_accel_start\000"
 22692      5F666574 
 22692      5F616363 
 22692      656C5F73 
 22692      74617274 
 22693              	.LASF1062:
 22694 25d3 6D637077 		.ascii	"mcpwm_foc_is_dccal_done\000"
 22694      6D5F666F 
 22694      635F6973 
 22694      5F646363 
 22694      616C5F64 
 22695              	.LASF466:
 22696 25eb 72786675 		.ascii	"rxfull_event\000"
 22696      6C6C5F65 
 22696      76656E74 
 22696      00
 22697              	.LASF973:
ARM GAS  C:\Users\CHRIST~1\AppData\Local\Temp\ccb3oWGE.s 			page 431


 22698 25f8 6D635F69 		.ascii	"mc_interface_set_brake_current_rel\000"
 22698      6E746572 
 22698      66616365 
 22698      5F736574 
 22698      5F627261 
 22699              	.LASF617:
 22700 261b 75736265 		.ascii	"usbevent_t\000"
 22700      76656E74 
 22700      5F7400
 22701              	.LASF779:
 22702 2626 5F636C6F 		.ascii	"_close\000"
 22702      736500
 22703              	.LASF166:
 22704 262d 63686172 		.ascii	"char\000"
 22704      00
 22705              	.LASF461:
 22706 2632 43414E43 		.ascii	"CANConfig\000"
 22706      6F6E6669 
 22706      6700
 22707              	.LASF447:
 22708 263c 50454461 		.ascii	"PEData\000"
 22708      746100
 22709              	.LASF64:
 22710 2643 725F7175 		.ascii	"r_queue\000"
 22710      65756500 
 22711              	.LASF811:
 22712 264b 5F676C75 		.ascii	"_glue\000"
 22712      6500
 22713              	.LASF301:
 22714 2651 736C5F62 		.ascii	"sl_bemf_coupling_k\000"
 22714      656D665F 
 22714      636F7570 
 22714      6C696E67 
 22714      5F6B00
 22715              	.LASF998:
 22716 2664 63685379 		.ascii	"chSysUnlockFromISR\000"
 22716      73556E6C 
 22716      6F636B46 
 22716      726F6D49 
 22716      535200
 22717              	.LASF942:
 22718 2677 6D635F69 		.ascii	"mc_interface_temp_fet_filtered\000"
 22718      6E746572 
 22718      66616365 
 22718      5F74656D 
 22718      705F6665 
 22719              	.LASF861:
 22720 2696 6D5F6D6F 		.ascii	"m_motor_iq_sum\000"
 22720      746F725F 
 22720      69715F73 
 22720      756D00
 22721              	.LASF284:
 22722 26a5 6C5F7465 		.ascii	"l_temp_accel_dec\000"
 22722      6D705F61 
 22722      6363656C 
 22722      5F646563 
 22722      00
ARM GAS  C:\Users\CHRIST~1\AppData\Local\Temp\ccb3oWGE.s 			page 432


 22723              	.LASF360:
 22724 26b6 434F4D4D 		.ascii	"COMM_FW_VERSION\000"
 22724      5F46575F 
 22724      56455253 
 22724      494F4E00 
 22725              	.LASF932:
 22726 26c6 63757272 		.ascii	"curr_diff_sum\000"
 22726      5F646966 
 22726      665F7375 
 22726      6D00
 22727              	.LASF563:
 22728 26d4 75736172 		.ascii	"usart\000"
 22728      7400
 22729              	.LASF1013:
 22730 26da 6D637077 		.ascii	"mcpwm_read_hall_phase\000"
 22730      6D5F7265 
 22730      61645F68 
 22730      616C6C5F 
 22730      70686173 
 22731              	.LASF1078:
 22732 26f0 7465726D 		.ascii	"terminal_add_fault_data\000"
 22732      696E616C 
 22732      5F616464 
 22732      5F666175 
 22732      6C745F64 
 22733              	.LASF807:
 22734 2708 5F736967 		.ascii	"_sig_func\000"
 22734      5F66756E 
 22734      6300
 22735              	.LASF207:
 22736 2712 715F6C69 		.ascii	"q_link\000"
 22736      6E6B00
 22737              	.LASF522:
 22738 2719 4943555F 		.ascii	"ICU_CHANNEL_1\000"
 22738      4348414E 
 22738      4E454C5F 
 22738      3100
 22739              	.LASF856:
 22740 2727 6D5F6D6F 		.ascii	"m_motor_current_sum\000"
 22740      746F725F 
 22740      63757272 
 22740      656E745F 
 22740      73756D00 
 22741              	.LASF1023:
 22742 273b 63684576 		.ascii	"chEvtSignal\000"
 22742      74536967 
 22742      6E616C00 
 22743              	.LASF745:
 22744 2747 5F426967 		.ascii	"_Bigint\000"
 22744      696E7400 
 22745              	.LASF215:
 22746 274f 6D635F73 		.ascii	"mc_state\000"
 22746      74617465 
 22746      00
 22747              	.LASF1092:
 22748 2758 63685468 		.ascii	"chThdGetSelfX\000"
 22748      64476574 
ARM GAS  C:\Users\CHRIST~1\AppData\Local\Temp\ccb3oWGE.s 			page 433


 22748      53656C66 
 22748      5800
 22749              	.LASF880:
 22750 2766 6D5F7068 		.ascii	"m_phase_samples\000"
 22750      6173655F 
 22750      73616D70 
 22750      6C657300 
 22751              	.LASF653:
 22752 2776 47494E54 		.ascii	"GINTMSK\000"
 22752      4D534B00 
 22753              	.LASF514:
 22754 277e 69637563 		.ascii	"icucallback_t\000"
 22754      616C6C62 
 22754      61636B5F 
 22754      7400
 22755              	.LASF658:
 22756 278c 484E5054 		.ascii	"HNPTXSTS\000"
 22756      58535453 
 22756      00
 22757              	.LASF948:
 22758 2795 6D635F69 		.ascii	"mc_interface_read_reset_avg_iq\000"
 22758      6E746572 
 22758      66616365 
 22758      5F726561 
 22758      645F7265 
 22759              	.LASF398:
 22760 27b4 6661756C 		.ascii	"fault\000"
 22760      7400
 22761              	.LASF590:
 22762 27ba 636F6E66 		.ascii	"configuration\000"
 22762      69677572 
 22762      6174696F 
 22762      6E00
 22763              	.LASF935:
 22764 27c8 7A65726F 		.ascii	"zero\000"
 22764      00
 22765              	.LASF858:
 22766 27cd 6D5F6D6F 		.ascii	"m_motor_current_iterations\000"
 22766      746F725F 
 22766      63757272 
 22766      656E745F 
 22766      69746572 
 22767              	.LASF806:
 22768 27e8 5F617465 		.ascii	"_atexit0\000"
 22768      78697430 
 22768      00
 22769              	.LASF964:
 22770 27f1 6D635F69 		.ascii	"mc_interface_get_amp_hours_charged\000"
 22770      6E746572 
 22770      66616365 
 22770      5F676574 
 22770      5F616D70 
 22771              	.LASF912:
 22772 2814 6C6F5F6D 		.ascii	"lo_min_rpm\000"
 22772      696E5F72 
 22772      706D00
 22773              	.LASF1030:
ARM GAS  C:\Users\CHRIST~1\AppData\Local\Temp\ccb3oWGE.s 			page 434


 22774 281f 6D637077 		.ascii	"mcpwm_foc_get_tachometer_value\000"
 22774      6D5F666F 
 22774      635F6765 
 22774      745F7461 
 22774      63686F6D 
 22775              	.LASF442:
 22776 283e 73746D33 		.ascii	"stm32_gpio_setup_t\000"
 22776      325F6770 
 22776      696F5F73 
 22776      65747570 
 22776      5F7400
 22777              	.LASF519:
 22778 2851 4943555F 		.ascii	"ICU_INPUT_ACTIVE_LOW\000"
 22778      494E5055 
 22778      545F4143 
 22778      54495645 
 22778      5F4C4F57 
 22779              	.LASF252:
 22780 2866 44454255 		.ascii	"DEBUG_SAMPLING_OFF\000"
 22780      475F5341 
 22780      4D504C49 
 22780      4E475F4F 
 22780      464600
 22781              	.LASF915:
 22782 2879 6C6F5F6D 		.ascii	"lo_max\000"
 22782      617800
 22783              	.LASF266:
 22784 2880 6C5F6375 		.ascii	"l_current_min\000"
 22784      7272656E 
 22784      745F6D69 
 22784      6E00
 22785              	.LASF969:
 22786 288e 6D635F69 		.ascii	"mc_interface_get_duty_cycle_set\000"
 22786      6E746572 
 22786      66616365 
 22786      5F676574 
 22786      5F647574 
 22787              	.LASF425:
 22788 28ae 5F73746D 		.ascii	"_stm32_dma_streams\000"
 22788      33325F64 
 22788      6D615F73 
 22788      74726561 
 22788      6D7300
 22789              	.LASF892:
 22790 28c1 62756666 		.ascii	"buffer\000"
 22790      657200
 22791              	.LASF830:
 22792 28c8 5F676574 		.ascii	"_getdate_err\000"
 22792      64617465 
 22792      5F657272 
 22792      00
 22793              	.LASF403:
 22794 28d5 74616368 		.ascii	"tacho\000"
 22794      6F00
 22795              	.LASF521:
 22796 28db 69637566 		.ascii	"icufreq_t\000"
 22796      7265715F 
ARM GAS  C:\Users\CHRIST~1\AppData\Local\Temp\ccb3oWGE.s 			page 435


 22796      7400
 22797              	.LASF1014:
 22798 28e5 6D637077 		.ascii	"mcpwm_foc_get_phase\000"
 22798      6D5F666F 
 22798      635F6765 
 22798      745F7068 
 22798      61736500 
 22799              	.LASF750:
 22800 28f9 5F5F746D 		.ascii	"__tm\000"
 22800      00
 22801              	.LASF237:
 22802 28fe 4641554C 		.ascii	"FAULT_CODE_UNDER_VOLTAGE\000"
 22802      545F434F 
 22802      44455F55 
 22802      4E444552 
 22802      5F564F4C 
 22803              	.LASF387:
 22804 2917 434F4D4D 		.ascii	"COMM_DETECT_ENCODER\000"
 22804      5F444554 
 22804      4543545F 
 22804      454E434F 
 22804      44455200 
 22805              	.LASF1066:
 22806 292b 656E636F 		.ascii	"encoder_init_as5047p_spi\000"
 22806      6465725F 
 22806      696E6974 
 22806      5F617335 
 22806      30343770 
 22807              	.LASF434:
 22808 2944 41465248 		.ascii	"AFRH\000"
 22808      00
 22809              	.LASF375:
 22810 2949 434F4D4D 		.ascii	"COMM_GET_MCCONF_DEFAULT\000"
 22810      5F474554 
 22810      5F4D4343 
 22810      4F4E465F 
 22810      44454641 
 22811              	.LASF1025:
 22812 2961 656E636F 		.ascii	"encoder_read_deg\000"
 22812      6465725F 
 22812      72656164 
 22812      5F646567 
 22812      00
 22813              	.LASF364:
 22814 2972 434F4D4D 		.ascii	"COMM_GET_VALUES\000"
 22814      5F474554 
 22814      5F56414C 
 22814      55455300 
 22815              	.LASF303:
 22816 2982 68616C6C 		.ascii	"hall_sl_erpm\000"
 22816      5F736C5F 
 22816      6572706D 
 22816      00
 22817              	.LASF34:
 22818 298f 636E745F 		.ascii	"cnt_t\000"
 22818      7400
 22819              	.LASF902:
ARM GAS  C:\Users\CHRIST~1\AppData\Local\Temp\ccb3oWGE.s 			page 436


 22820 2995 6C6F5F6D 		.ascii	"lo_min_mot\000"
 22820      696E5F6D 
 22820      6F7400
 22821              	.LASF921:
 22822 29a0 6C6F5F69 		.ascii	"lo_in_min\000"
 22822      6E5F6D69 
 22822      6E00
 22823              	.LASF605:
 22824 29aa 5553425F 		.ascii	"USB_EP0_WAITING_TX0\000"
 22824      4550305F 
 22824      57414954 
 22824      494E475F 
 22824      54583000 
 22825              	.LASF402:
 22826 29be 64757479 		.ascii	"duty\000"
 22826      00
 22827              	.LASF235:
 22828 29c3 4641554C 		.ascii	"FAULT_CODE_NONE\000"
 22828      545F434F 
 22828      44455F4E 
 22828      4F4E4500 
 22829              	.LASF334:
 22830 29d3 735F7069 		.ascii	"s_pid_ki\000"
 22830      645F6B69 
 22830      00
 22831              	.LASF634:
 22832 29dc 73746D33 		.ascii	"stm32_otg_host_chn_t\000"
 22832      325F6F74 
 22832      675F686F 
 22832      73745F63 
 22832      686E5F74 
 22833              	.LASF258:
 22834 29f1 44454255 		.ascii	"DEBUG_SAMPLING_TRIGGER_FAULT_NOSEND\000"
 22834      475F5341 
 22834      4D504C49 
 22834      4E475F54 
 22834      52494747 
 22835              	.LASF333:
 22836 2a15 735F7069 		.ascii	"s_pid_kp\000"
 22836      645F6B70 
 22836      00
 22837              	.LASF381:
 22838 2a1e 434F4D4D 		.ascii	"COMM_PRINT\000"
 22838      5F505249 
 22838      4E5400
 22839              	.LASF433:
 22840 2a29 4146524C 		.ascii	"AFRL\000"
 22840      00
 22841              	.LASF293:
 22842 2a2e 6C6F5F63 		.ascii	"lo_current_motor_max_now\000"
 22842      75727265 
 22842      6E745F6D 
 22842      6F746F72 
 22842      5F6D6178 
 22843              	.LASF904:
 22844 2a47 74656D70 		.ascii	"temp_fet_accel_end\000"
 22844      5F666574 
ARM GAS  C:\Users\CHRIST~1\AppData\Local\Temp\ccb3oWGE.s 			page 437


 22844      5F616363 
 22844      656C5F65 
 22844      6E6400
 22845              	.LASF842:
 22846 2a5a 5F696D70 		.ascii	"_impure_ptr\000"
 22846      7572655F 
 22846      70747200 
 22847              	.LASF183:
 22848 2a66 63665F6F 		.ascii	"cf_off_preempt\000"
 22848      66665F70 
 22848      7265656D 
 22848      707400
 22849              	.LASF839:
 22850 2a75 5F756E75 		.ascii	"_unused\000"
 22850      73656400 
 22851              	.LASF643:
 22852 2a7d 444F4550 		.ascii	"DOEPCTL\000"
 22852      43544C00 
 22853              	.LASF953:
 22854 2a85 6D635F69 		.ascii	"mc_interface_get_tachometer_abs_value\000"
 22854      6E746572 
 22854      66616365 
 22854      5F676574 
 22854      5F746163 
 22855              	.LASF629:
 22856 2aab 4843494E 		.ascii	"HCINTMSK\000"
 22856      544D534B 
 22856      00
 22857              	.LASF780:
 22858 2ab4 5F756275 		.ascii	"_ubuf\000"
 22858      6600
 22859              	.LASF320:
 22860 2aba 666F635F 		.ascii	"foc_openloop_rpm\000"
 22860      6F70656E 
 22860      6C6F6F70 
 22860      5F72706D 
 22860      00
 22861              	.LASF324:
 22862 2acb 666F635F 		.ascii	"foc_sl_d_current_factor\000"
 22862      736C5F64 
 22862      5F637572 
 22862      72656E74 
 22862      5F666163 
 22863              	.LASF825:
 22864 2ae3 5F6D626C 		.ascii	"_mblen_state\000"
 22864      656E5F73 
 22864      74617465 
 22864      00
 22865              	.LASF808:
 22866 2af0 5F5F7367 		.ascii	"__sglue\000"
 22866      6C756500 
 22867              	.LASF841:
 22868 2af8 5F5F6C6F 		.ascii	"__locale_t\000"
 22868      63616C65 
 22868      5F7400
 22869              	.LASF317:
 22870 2b03 666F635F 		.ascii	"foc_pll_ki\000"
ARM GAS  C:\Users\CHRIST~1\AppData\Local\Temp\ccb3oWGE.s 			page 438


 22870      706C6C5F 
 22870      6B6900
 22871              	.LASF1044:
 22872 2b0e 6D637077 		.ascii	"mcpwm_foc_get_rpm\000"
 22872      6D5F666F 
 22872      635F6765 
 22872      745F7270 
 22872      6D00
 22873              	.LASF559:
 22874 2b20 75617274 		.ascii	"uartflags_t\000"
 22874      666C6167 
 22874      735F7400 
 22875              	.LASF316:
 22876 2b2c 666F635F 		.ascii	"foc_pll_kp\000"
 22876      706C6C5F 
 22876      6B7000
 22877              	.LASF677:
 22878 2b37 44434647 		.ascii	"DCFG\000"
 22878      00
 22879              	.LASF548:
 22880 2b3c 55415254 		.ascii	"UART_STOP\000"
 22880      5F53544F 
 22880      5000
 22881              	.LASF255:
 22882 2b46 44454255 		.ascii	"DEBUG_SAMPLING_TRIGGER_START\000"
 22882      475F5341 
 22882      4D504C49 
 22882      4E475F54 
 22882      52494747 
 22883              	.LASF508:
 22884 2b63 4943555F 		.ascii	"ICU_ACTIVE\000"
 22884      41435449 
 22884      564500
 22885              	.LASF571:
 22886 2b6e 7278656E 		.ascii	"rxend_cb\000"
 22886      645F6362 
 22886      00
 22887              	.LASF928:
 22888 2b77 6162735F 		.ascii	"abs_current\000"
 22888      63757272 
 22888      656E7400 
 22889              	.LASF970:
 22890 2b83 6D635F69 		.ascii	"mc_interface_release_motor\000"
 22890      6E746572 
 22890      66616365 
 22890      5F72656C 
 22890      65617365 
 22891              	.LASF70:
 22892 2b9e 76746675 		.ascii	"vtfunc_t\000"
 22892      6E635F74 
 22892      00
 22893              	.LASF99:
 22894 2ba7 43414E5F 		.ascii	"CAN_FIFOMailBox_TypeDef\000"
 22894      4649464F 
 22894      4D61696C 
 22894      426F785F 
 22894      54797065 
ARM GAS  C:\Users\CHRIST~1\AppData\Local\Temp\ccb3oWGE.s 			page 439


 22895              	.LASF154:
 22896 2bbf 77746F62 		.ascii	"wtobjp\000"
 22896      6A7000
 22897              	.LASF736:
 22898 2bc6 5F66706F 		.ascii	"_fpos_t\000"
 22898      735F7400 
 22899              	.LASF773:
 22900 2bce 5F66696C 		.ascii	"_file\000"
 22900      6500
 22901              	.LASF248:
 22902 2bd4 44525638 		.ascii	"DRV8301_OC_LATCH_SHUTDOWN\000"
 22902      3330315F 
 22902      4F435F4C 
 22902      41544348 
 22902      5F534855 
 22903              	.LASF54:
 22904 2bee 705F7265 		.ascii	"p_realprio\000"
 22904      616C7072 
 22904      696F00
 22905              	.LASF395:
 22906 2bf9 434F4D4D 		.ascii	"COMM_SET_CHUCK_DATA\000"
 22906      5F534554 
 22906      5F434855 
 22906      434B5F44 
 22906      41544100 
 22907              	.LASF206:
 22908 2c0d 715F6E6F 		.ascii	"q_notify\000"
 22908      74696679 
 22908      00
 22909              	.LASF157:
 22910 2c16 77746D74 		.ascii	"wtmtxp\000"
 22910      787000
 22911              	.LASF234:
 22912 2c1d 6D635F6D 		.ascii	"mc_motor_type\000"
 22912      6F746F72 
 22912      5F747970 
 22912      6500
 22913              	.LASF771:
 22914 2c2b 5F5F7346 		.ascii	"__sFILE\000"
 22914      494C4500 
 22915              	.LASF253:
 22916 2c33 44454255 		.ascii	"DEBUG_SAMPLING_NOW\000"
 22916      475F5341 
 22916      4D504C49 
 22916      4E475F4E 
 22916      4F5700
 22917              	.LASF844:
 22918 2c46 646F7562 		.ascii	"double\000"
 22918      6C6500
 22919              	.LASF767:
 22920 2c4d 5F666E73 		.ascii	"_fns\000"
 22920      00
 22921              	.LASF886:
 22922 2c52 6D5F7361 		.ascii	"m_sample_trigger\000"
 22922      6D706C65 
 22922      5F747269 
 22922      67676572 
ARM GAS  C:\Users\CHRIST~1\AppData\Local\Temp\ccb3oWGE.s 			page 440


 22922      00
 22923              	.LASF1067:
 22924 2c63 656E636F 		.ascii	"encoder_set_counts\000"
 22924      6465725F 
 22924      7365745F 
 22924      636F756E 
 22924      747300
 22925              	.LASF843:
 22926 2c76 5F676C6F 		.ascii	"_global_impure_ptr\000"
 22926      62616C5F 
 22926      696D7075 
 22926      72655F70 
 22926      747200
 22927              	.LASF377:
 22928 2c89 434F4D4D 		.ascii	"COMM_GET_APPCONF\000"
 22928      5F474554 
 22928      5F415050 
 22928      434F4E46 
 22928      00
 22929              	.LASF917:
 22930 2c9a 6C6F5F69 		.ascii	"lo_in_max_batt\000"
 22930      6E5F6D61 
 22930      785F6261 
 22930      747400
 22931              	.LASF978:
 22932 2ca9 6D635F69 		.ascii	"mc_interface_set_pid_pos\000"
 22932      6E746572 
 22932      66616365 
 22932      5F736574 
 22932      5F706964 
 22933              	.LASF716:
 22934 2cc2 5553424F 		.ascii	"USBOutEndpointState\000"
 22934      7574456E 
 22934      64706F69 
 22934      6E745374 
 22934      61746500 
 22935              	.LASF1094:
 22936 2cd6 5F5F6275 		.ascii	"__builtin_memcpy\000"
 22936      696C7469 
 22936      6E5F6D65 
 22936      6D637079 
 22936      00
 22937              	.LASF673:
 22938 2ce7 72657376 		.ascii	"resvd41C\000"
 22938      64343143 
 22938      00
 22939              	.LASF283:
 22940 2cf0 6C5F7465 		.ascii	"l_temp_motor_end\000"
 22940      6D705F6D 
 22940      6F746F72 
 22940      5F656E64 
 22940      00
 22941              	.LASF742:
 22942 2d01 5F6D6273 		.ascii	"_mbstate_t\000"
 22942      74617465 
 22942      5F7400
 22943              	.LASF836:
ARM GAS  C:\Users\CHRIST~1\AppData\Local\Temp\ccb3oWGE.s 			page 441


 22944 2d0c 5F685F65 		.ascii	"_h_errno\000"
 22944      72726E6F 
 22944      00
 22945              	.LASF901:
 22946 2d15 6C6F5F6D 		.ascii	"lo_max_mot\000"
 22946      61785F6D 
 22946      6F7400
 22947              	.LASF332:
 22948 2d20 666F635F 		.ascii	"foc_temp_comp_base_temp\000"
 22948      74656D70 
 22948      5F636F6D 
 22948      705F6261 
 22948      73655F74 
 22949              	.LASF96:
 22950 2d38 52445452 		.ascii	"RDTR\000"
 22950      00
 22951              	.LASF885:
 22952 2d3d 6D5F7361 		.ascii	"m_sample_now\000"
 22952      6D706C65 
 22952      5F6E6F77 
 22952      00
 22953              	.LASF987:
 22954 2d4a 6D635F69 		.ascii	"mc_interface_unlock\000"
 22954      6E746572 
 22954      66616365 
 22954      5F756E6C 
 22954      6F636B00 
 22955              	.LASF264:
 22956 2d5e 73656E73 		.ascii	"sensor_mode\000"
 22956      6F725F6D 
 22956      6F646500 
 22957              	.LASF223:
 22958 2d6a 53454E53 		.ascii	"SENSOR_MODE_SENSORLESS\000"
 22958      4F525F4D 
 22958      4F44455F 
 22958      53454E53 
 22958      4F524C45 
 22959              	.LASF574:
 22960 2d81 73706565 		.ascii	"speed\000"
 22960      6400
 22961              	.LASF63:
 22962 2d87 63685F72 		.ascii	"ch_ready_list\000"
 22962      65616479 
 22962      5F6C6973 
 22962      7400
 22963              	.LASF570:
 22964 2d95 7478656E 		.ascii	"txend2_cb\000"
 22964      64325F63 
 22964      6200
 22965              	.LASF1048:
 22966 2d9f 6D637077 		.ascii	"mcpwm_foc_get_duty_cycle_now\000"
 22966      6D5F666F 
 22966      635F6765 
 22966      745F6475 
 22966      74795F63 
 22967              	.LASF430:
 22968 2dbc 50555044 		.ascii	"PUPDR\000"
ARM GAS  C:\Users\CHRIST~1\AppData\Local\Temp\ccb3oWGE.s 			page 442


 22968      5200
 22969              	.LASF9:
 22970 2dc2 5F5F696E 		.ascii	"__int32_t\000"
 22970      7433325F 
 22970      7400
 22971              	.LASF11:
 22972 2dcc 5F5F7569 		.ascii	"__uint32_t\000"
 22972      6E743332 
 22972      5F7400
 22973              	.LASF512:
 22974 2dd7 77636372 		.ascii	"wccrp\000"
 22974      7000
 22975              	.LASF82:
 22976 2ddd 63685F73 		.ascii	"ch_system_debug\000"
 22976      79737465 
 22976      6D5F6465 
 22976      62756700 
 22977              	.LASF407:
 22978 2ded 74696D5F 		.ascii	"tim_top\000"
 22978      746F7000 
 22979              	.LASF684:
 22980 2df5 4441494E 		.ascii	"DAINTMSK\000"
 22980      544D534B 
 22980      00
 22981              	.LASF1077:
 22982 2dfe 6C6F6766 		.ascii	"logf\000"
 22982      00
 22983              	.LASF201:
 22984 2e03 715F636F 		.ascii	"q_counter\000"
 22984      756E7465 
 22984      7200
 22985              	.LASF603:
 22986 2e0d 5553425F 		.ascii	"USB_EP0_WAITING_SETUP\000"
 22986      4550305F 
 22986      57414954 
 22986      494E475F 
 22986      53455455 
 22987              	.LASF764:
 22988 2e23 5F69735F 		.ascii	"_is_cxa\000"
 22988      63786100 
 22989              	.LASF441:
 22990 2e2b 61667268 		.ascii	"afrh\000"
 22990      00
 22991              	.LASF1010:
 22992 2e30 6D637077 		.ascii	"mcpwm_adc_inj_int_handler\000"
 22992      6D5F6164 
 22992      635F696E 
 22992      6A5F696E 
 22992      745F6861 
 22993              	.LASF505:
 22994 2e4a 4943555F 		.ascii	"ICU_STOP\000"
 22994      53544F50 
 22994      00
 22995              	.LASF440:
 22996 2e53 6166726C 		.ascii	"afrl\000"
 22996      00
 22997              	.LASF707:
ARM GAS  C:\Users\CHRIST~1\AppData\Local\Temp\ccb3oWGE.s 			page 443


 22998 2e58 71756575 		.ascii	"queue\000"
 22998      6500
 22999              	.LASF257:
 23000 2e5e 44454255 		.ascii	"DEBUG_SAMPLING_TRIGGER_START_NOSEND\000"
 23000      475F5341 
 23000      4D504C49 
 23000      4E475F54 
 23000      52494747 
 23001              	.LASF354:
 23002 2e82 6D5F626C 		.ascii	"m_bldc_f_sw_min\000"
 23002      64635F66 
 23002      5F73775F 
 23002      6D696E00 
 23003              	.LASF586:
 23004 2e92 65703065 		.ascii	"ep0endcb\000"
 23004      6E646362 
 23004      00
 23005              	.LASF1089:
 23006 2e9b 433A5C55 		.ascii	"C:\\Users\\christian\\eclipse-workspace\\VESC_custo"
 23006      73657273 
 23006      5C636872 
 23006      69737469 
 23006      616E5C65 
 23007 2eca 6D00     		.ascii	"m\000"
 23008              	.LASF656:
 23009 2ecc 47525846 		.ascii	"GRXFSIZ\000"
 23009      53495A00 
 23010              	.LASF187:
 23011 2ed4 6D757465 		.ascii	"mutex_t\000"
 23011      785F7400 
 23012              	.LASF801:
 23013 2edc 5F703573 		.ascii	"_p5s\000"
 23013      00
 23014              	.LASF947:
 23015 2ee1 6D635F69 		.ascii	"mc_interface_get_pid_pos_set\000"
 23015      6E746572 
 23015      66616365 
 23015      5F676574 
 23015      5F706964 
 23016              	.LASF52:
 23017 2efe 705F6570 		.ascii	"p_epending\000"
 23017      656E6469 
 23017      6E6700
 23018              	.LASF895:
 23019 2f09 73616D70 		.ascii	"sample_send_thread\000"
 23019      6C655F73 
 23019      656E645F 
 23019      74687265 
 23019      616400
 23020              	.LASF427:
 23021 2f1c 4D4F4445 		.ascii	"MODER\000"
 23021      5200
 23022              	.LASF1029:
 23023 2f22 6D637077 		.ascii	"mcpwm_get_tachometer_abs_value\000"
 23023      6D5F6765 
 23023      745F7461 
 23023      63686F6D 
ARM GAS  C:\Users\CHRIST~1\AppData\Local\Temp\ccb3oWGE.s 			page 444


 23023      65746572 
 23024              	.LASF511:
 23025 2f41 636C6F63 		.ascii	"clock\000"
 23025      6B00
 23026              	.LASF321:
 23027 2f47 666F635F 		.ascii	"foc_sl_openloop_hyst\000"
 23027      736C5F6F 
 23027      70656E6C 
 23027      6F6F705F 
 23027      68797374 
 23028              	.LASF103:
 23029 2f5c 52455345 		.ascii	"RESERVED0\000"
 23029      52564544 
 23029      3000
 23030              	.LASF106:
 23031 2f66 52455345 		.ascii	"RESERVED1\000"
 23031      52564544 
 23031      3100
 23032              	.LASF108:
 23033 2f70 52455345 		.ascii	"RESERVED2\000"
 23033      52564544 
 23033      3200
 23034              	.LASF110:
 23035 2f7a 52455345 		.ascii	"RESERVED3\000"
 23035      52564544 
 23035      3300
 23036              	.LASF112:
 23037 2f84 52455345 		.ascii	"RESERVED4\000"
 23037      52564544 
 23037      3400
 23038              	.LASF114:
 23039 2f8e 52455345 		.ascii	"RESERVED5\000"
 23039      52564544 
 23039      3500
 23040              	.LASF727:
 23041 2f98 55534245 		.ascii	"USBEndpointConfig\000"
 23041      6E64706F 
 23041      696E7443 
 23041      6F6E6669 
 23041      6700
 23042              	.LASF465:
 23043 2faa 72787175 		.ascii	"rxqueue\000"
 23043      65756500 
 23044              	.LASF675:
 23045 2fb2 72657376 		.ascii	"resvd444\000"
 23045      64343434 
 23045      00
 23046              	.LASF454:
 23047 2fbb 70616C5F 		.ascii	"pal_default_config\000"
 23047      64656661 
 23047      756C745F 
 23047      636F6E66 
 23047      696700
 23048              	.LASF392:
 23049 2fce 434F4D4D 		.ascii	"COMM_GET_DECODED_ADC\000"
 23049      5F474554 
 23049      5F444543 
ARM GAS  C:\Users\CHRIST~1\AppData\Local\Temp\ccb3oWGE.s 			page 445


 23049      4F444544 
 23049      5F414443 
 23050              	.LASF557:
 23051 2fe3 55415254 		.ascii	"UART_RX_COMPLETE\000"
 23051      5F52585F 
 23051      434F4D50 
 23051      4C455445 
 23051      00
 23052              	.LASF376:
 23053 2ff4 434F4D4D 		.ascii	"COMM_SET_APPCONF\000"
 23053      5F534554 
 23053      5F415050 
 23053      434F4E46 
 23053      00
 23054              	.LASF191:
 23055 3005 656C5F6C 		.ascii	"el_listener\000"
 23055      69737465 
 23055      6E657200 
 23056              	.LASF706:
 23057 3011 6C696E65 		.ascii	"linear\000"
 23057      617200
 23058              	.LASF401:
 23059 3018 766F6C74 		.ascii	"voltage\000"
 23059      61676500 
 23060              	.LASF291:
 23061 3020 6C6F5F69 		.ascii	"lo_in_current_max\000"
 23061      6E5F6375 
 23061      7272656E 
 23061      745F6D61 
 23061      7800
 23062              	.LASF1009:
 23063 3032 63685468 		.ascii	"chThdSleep\000"
 23063      64536C65 
 23063      657000
 23064              	.LASF384:
 23065 303d 434F4D4D 		.ascii	"COMM_DETECT_MOTOR_PARAM\000"
 23065      5F444554 
 23065      4543545F 
 23065      4D4F544F 
 23065      525F5041 
 23066              	.LASF517:
 23067 3055 73746D33 		.ascii	"stm32_tim_t\000"
 23067      325F7469 
 23067      6D5F7400 
 23068              	.LASF918:
 23069 3061 6C6F5F69 		.ascii	"lo_in_max_watt\000"
 23069      6E5F6D61 
 23069      785F7761 
 23069      747400
 23070              	.LASF65:
 23071 3070 725F7072 		.ascii	"r_prio\000"
 23071      696F00
 23072              	.LASF592:
 23073 3077 706D6E65 		.ascii	"pmnext\000"
 23073      787400
 23074              	.LASF325:
 23075 307e 666F635F 		.ascii	"foc_sensor_mode\000"
ARM GAS  C:\Users\CHRIST~1\AppData\Local\Temp\ccb3oWGE.s 			page 446


 23075      73656E73 
 23075      6F725F6D 
 23075      6F646500 
 23076              	.LASF533:
 23077 308e 49435544 		.ascii	"ICUD3\000"
 23077      3300
 23078              	.LASF90:
 23079 3094 49544D5F 		.ascii	"ITM_RxBuffer\000"
 23079      52784275 
 23079      66666572 
 23079      00
 23080              	.LASF523:
 23081 30a1 4943555F 		.ascii	"ICU_CHANNEL_2\000"
 23081      4348414E 
 23081      4E454C5F 
 23081      3200
 23082              	.LASF229:
 23083 30af 464F435F 		.ascii	"FOC_SENSOR_MODE_HALL\000"
 23083      53454E53 
 23083      4F525F4D 
 23083      4F44455F 
 23083      48414C4C 
 23084              	.LASF15:
 23085 30c4 6C6F6E67 		.ascii	"long long unsigned int\000"
 23085      206C6F6E 
 23085      6720756E 
 23085      7369676E 
 23085      65642069 
 23086              	.LASF150:
 23087 30db 6F666673 		.ascii	"offset\000"
 23087      657400
 23088              	.LASF924:
 23089 30e2 6D635F69 		.ascii	"mc_interface_mc_timer_isr\000"
 23089      6E746572 
 23089      66616365 
 23089      5F6D635F 
 23089      74696D65 
 23090              	.LASF871:
 23091 30fc 6D5F6375 		.ascii	"m_curr0_samples\000"
 23091      7272305F 
 23091      73616D70 
 23091      6C657300 
 23092              	.LASF527:
 23093 310c 77696474 		.ascii	"width_cb\000"
 23093      685F6362 
 23093      00
 23094              	.LASF307:
 23095 3115 666F635F 		.ascii	"foc_dt_us\000"
 23095      64745F75 
 23095      7300
 23096              	.LASF872:
 23097 311f 6D5F6375 		.ascii	"m_curr1_samples\000"
 23097      7272315F 
 23097      73616D70 
 23097      6C657300 
 23098              	.LASF573:
 23099 312f 72786572 		.ascii	"rxerr_cb\000"
ARM GAS  C:\Users\CHRIST~1\AppData\Local\Temp\ccb3oWGE.s 			page 447


 23099      725F6362 
 23099      00
 23100              	.LASF330:
 23101 3138 666F635F 		.ascii	"foc_sat_comp\000"
 23101      7361745F 
 23101      636F6D70 
 23101      00
 23102              	.LASF117:
 23103 3145 4E445452 		.ascii	"NDTR\000"
 23103      00
 23104              	.LASF196:
 23105 314a 65735F6E 		.ascii	"es_next\000"
 23105      65787400 
 23106              	.LASF822:
 23107 3152 5F67616D 		.ascii	"_gamma_signgam\000"
 23107      6D615F73 
 23107      69676E67 
 23107      616D00
 23108              	.LASF641:
 23109 3161 72657376 		.ascii	"resvd1C\000"
 23109      64314300 
 23110              	.LASF89:
 23111 3169 69646C65 		.ascii	"idle_thread_wa\000"
 23111      5F746872 
 23111      6561645F 
 23111      776100
 23112              	.LASF637:
 23113 3178 44494550 		.ascii	"DIEPINT\000"
 23113      494E5400 
 23114              	.LASF509:
 23115 3180 69637573 		.ascii	"icustate_t\000"
 23115      74617465 
 23115      5F7400
 23116              	.LASF131:
 23117 318b 5350495F 		.ascii	"SPI_TypeDef\000"
 23117      54797065 
 23117      44656600 
 23118              	.LASF76:
 23119 3197 76745F66 		.ascii	"vt_func\000"
 23119      756E6300 
 23120              	.LASF132:
 23121 319f 534D4352 		.ascii	"SMCR\000"
 23121      00
 23122              	.LASF976:
 23123 31a4 6D635F69 		.ascii	"mc_interface_set_brake_current\000"
 23123      6E746572 
 23123      66616365 
 23123      5F736574 
 23123      5F627261 
 23124              	.LASF409:
 23125 31c3 74656D70 		.ascii	"temperature\000"
 23125      65726174 
 23125      75726500 
 23126              	.LASF682:
 23127 31cf 444F4550 		.ascii	"DOEPMSK\000"
 23127      4D534B00 
 23128              	.LASF367:
ARM GAS  C:\Users\CHRIST~1\AppData\Local\Temp\ccb3oWGE.s 			page 448


 23129 31d7 434F4D4D 		.ascii	"COMM_SET_CURRENT_BRAKE\000"
 23129      5F534554 
 23129      5F435552 
 23129      52454E54 
 23129      5F425241 
 23130              	.LASF983:
 23131 31ee 6D635F69 		.ascii	"mc_interface_get_state\000"
 23131      6E746572 
 23131      66616365 
 23131      5F676574 
 23131      5F737461 
 23132              	.LASF72:
 23133 3205 63685F76 		.ascii	"ch_virtual_timer\000"
 23133      69727475 
 23133      616C5F74 
 23133      696D6572 
 23133      00
 23134              	.LASF45:
 23135 3216 705F666C 		.ascii	"p_flags\000"
 23135      61677300 
 23136              	.LASF373:
 23137 321e 434F4D4D 		.ascii	"COMM_SET_MCCONF\000"
 23137      5F534554 
 23137      5F4D4343 
 23137      4F4E4600 
 23138              	.LASF158:
 23139 322e 65776D61 		.ascii	"ewmask\000"
 23139      736B00
 23140              	.LASF993:
 23141 3235 6D635F69 		.ascii	"mc_interface_get_configuration\000"
 23141      6E746572 
 23141      66616365 
 23141      5F676574 
 23141      5F636F6E 
 23142              	.LASF368:
 23143 3254 434F4D4D 		.ascii	"COMM_SET_RPM\000"
 23143      5F534554 
 23143      5F52504D 
 23143      00
 23144              	.LASF193:
 23145 3261 656C5F66 		.ascii	"el_flags\000"
 23145      6C616773 
 23145      00
 23146              	.LASF195:
 23147 326a 6576656E 		.ascii	"event_source\000"
 23147      745F736F 
 23147      75726365 
 23147      00
 23148              	.LASF972:
 23149 3277 6D635F69 		.ascii	"mc_interface_set_handbrake\000"
 23149      6E746572 
 23149      66616365 
 23149      5F736574 
 23149      5F68616E 
 23150              	.LASF397:
 23151 3292 434F4D4D 		.ascii	"COMM_NRF_START_PAIRING\000"
 23151      5F4E5246 
ARM GAS  C:\Users\CHRIST~1\AppData\Local\Temp\ccb3oWGE.s 			page 449


 23151      5F535441 
 23151      52545F50 
 23151      41495249 
 23152              	.LASF53:
 23153 32a9 705F6D74 		.ascii	"p_mtxlist\000"
 23153      786C6973 
 23153      7400
 23154              	.LASF300:
 23155 32b3 736C5F63 		.ascii	"sl_cycle_int_rpm_br\000"
 23155      79636C65 
 23155      5F696E74 
 23155      5F72706D 
 23155      5F627200 
 23156              	.LASF472:
 23157 32c7 43414E44 		.ascii	"CAND1\000"
 23157      3100
 23158              	.LASF109:
 23159 32cd 46533152 		.ascii	"FS1R\000"
 23159      00
 23160              	.LASF27:
 23161 32d2 74737461 		.ascii	"tstate_t\000"
 23161      74655F74 
 23161      00
 23162              	.LASF540:
 23163 32db 53504944 		.ascii	"SPIDriver\000"
 23163      72697665 
 23163      7200
 23164              	.LASF683:
 23165 32e5 4441494E 		.ascii	"DAINT\000"
 23165      5400
 23166              	.LASF545:
 23167 32eb 53504943 		.ascii	"SPIConfig\000"
 23167      6F6E6669 
 23167      6700
 23168              	.LASF795:
 23169 32f5 5F756E73 		.ascii	"_unspecified_locale_info\000"
 23169      70656369 
 23169      66696564 
 23169      5F6C6F63 
 23169      616C655F 
 23170              	.LASF439:
 23171 330e 70757064 		.ascii	"pupdr\000"
 23171      7200
 23172              	.LASF356:
 23173 3314 6D5F6463 		.ascii	"m_dc_f_sw\000"
 23173      5F665F73 
 23173      7700
 23174              	.LASF329:
 23175 331e 666F635F 		.ascii	"foc_sample_high_current\000"
 23175      73616D70 
 23175      6C655F68 
 23175      6967685F 
 23175      63757272 
 23176              	.LASF633:
 23177 3336 72657376 		.ascii	"resvd1c\000"
 23177      64316300 
 23178              	.LASF579:
ARM GAS  C:\Users\CHRIST~1\AppData\Local\Temp\ccb3oWGE.s 			page 450


 23179 333e 7472616E 		.ascii	"transmitting\000"
 23179      736D6974 
 23179      74696E67 
 23179      00
 23180              	.LASF1073:
 23181 334b 656E636F 		.ascii	"encoder_init_abi\000"
 23181      6465725F 
 23181      696E6974 
 23181      5F616269 
 23181      00
 23182              	.LASF222:
 23183 335c 6D635F63 		.ascii	"mc_comm_mode\000"
 23183      6F6D6D5F 
 23183      6D6F6465 
 23183      00
 23184              	.LASF406:
 23185 3369 74696D5F 		.ascii	"tim_current_samp\000"
 23185      63757272 
 23185      656E745F 
 23185      73616D70 
 23185      00
 23186              	.LASF43:
 23187 337a 705F6E61 		.ascii	"p_name\000"
 23187      6D6500
 23188              	.LASF797:
 23189 3381 5F5F7364 		.ascii	"__sdidinit\000"
 23189      6964696E 
 23189      697400
 23190              	.LASF848:
 23191 338c 5F5F6664 		.ascii	"__fdlibm_posix\000"
 23191      6C69626D 
 23191      5F706F73 
 23191      697800
 23192              	.LASF602:
 23193 339b 75736273 		.ascii	"usbstate_t\000"
 23193      74617465 
 23193      5F7400
 23194              	.LASF645:
 23195 33a6 444F4550 		.ascii	"DOEPTSIZ\000"
 23195      5453495A 
 23195      00
 23196              	.LASF400:
 23197 33af 63757272 		.ascii	"current_filtered\000"
 23197      656E745F 
 23197      66696C74 
 23197      65726564 
 23197      00
 23198              	.LASF980:
 23199 33c0 6D635F69 		.ascii	"mc_interface_set_duty_noramp\000"
 23199      6E746572 
 23199      66616365 
 23199      5F736574 
 23199      5F647574 
 23200              	.LASF996:
 23201 33dd 63685265 		.ascii	"chRegSetThreadName\000"
 23201      67536574 
 23201      54687265 
ARM GAS  C:\Users\CHRIST~1\AppData\Local\Temp\ccb3oWGE.s 			page 451


 23201      61644E61 
 23201      6D6500
 23202              	.LASF997:
 23203 33f0 6E616D65 		.ascii	"name\000"
 23203      00
 23204              	.LASF558:
 23205 33f5 75617274 		.ascii	"uartrxstate_t\000"
 23205      72787374 
 23205      6174655F 
 23205      7400
 23206              	.LASF743:
 23207 3403 5F666C6F 		.ascii	"_flock_t\000"
 23207      636B5F74 
 23207      00
 23208              	.LASF78:
 23209 340c 76697274 		.ascii	"virtual_timers_list_t\000"
 23209      75616C5F 
 23209      74696D65 
 23209      72735F6C 
 23209      6973745F 
 23210              	.LASF1087:
 23211 3422 474E5520 		.ascii	"GNU C99 7.2.1 20170904 (release) [ARM/embedded-7-br"
 23211      43393920 
 23211      372E322E 
 23211      31203230 
 23211      31373039 
 23212 3455 616E6368 		.ascii	"anch revision 255204] -mcpu=cortex-m4 -mfloat-abi=h"
 23212      20726576 
 23212      6973696F 
 23212      6E203235 
 23212      35323034 
 23213 3488 61726420 		.ascii	"ard -mfpu=fpv4-sp-d16 -mno-thumb-interwork -mthumb "
 23213      2D6D6670 
 23213      753D6670 
 23213      76342D73 
 23213      702D6431 
 23214 34bb 2D676764 		.ascii	"-ggdb -O2 -std=gnu99 -fomit-frame-pointer -falign-f"
 23214      62202D4F 
 23214      32202D73 
 23214      74643D67 
 23214      6E753939 
 23215 34ee 756E6374 		.ascii	"unctions=16 -ffunction-sections -fdata-sections -fn"
 23215      696F6E73 
 23215      3D313620 
 23215      2D666675 
 23215      6E637469 
 23216 3521 6F2D636F 		.ascii	"o-common -fsingle-precision-constant\000"
 23216      6D6D6F6E 
 23216      202D6673 
 23216      696E676C 
 23216      652D7072 
 23217              	.LASF216:
 23218 3546 50574D5F 		.ascii	"PWM_MODE_NONSYNCHRONOUS_HISW\000"
 23218      4D4F4445 
 23218      5F4E4F4E 
 23218      53594E43 
 23218      48524F4E 
ARM GAS  C:\Users\CHRIST~1\AppData\Local\Temp\ccb3oWGE.s 			page 452


 23219              	.LASF554:
 23220 3563 75617274 		.ascii	"uarttxstate_t\000"
 23220      74787374 
 23220      6174655F 
 23220      7400
 23221              	.LASF250:
 23222 3571 44525638 		.ascii	"DRV8301_OC_DISABLED\000"
 23222      3330315F 
 23222      4F435F44 
 23222      49534142 
 23222      4C454400 
 23223              	.LASF965:
 23224 3585 6D635F69 		.ascii	"mc_interface_get_amp_hours\000"
 23224      6E746572 
 23224      66616365 
 23224      5F676574 
 23224      5F616D70 
 23225              	.LASF436:
 23226 35a0 6D6F6465 		.ascii	"moder\000"
 23226      7200
 23227              	.LASF396:
 23228 35a6 434F4D4D 		.ascii	"COMM_CUSTOM_APP_DATA\000"
 23228      5F435553 
 23228      544F4D5F 
 23228      4150505F 
 23228      44415441 
 23229              	.LASF382:
 23230 35bb 434F4D4D 		.ascii	"COMM_ROTOR_POSITION\000"
 23230      5F524F54 
 23230      4F525F50 
 23230      4F534954 
 23230      494F4E00 
 23231              	.LASF160:
 23232 35cf 735F7175 		.ascii	"s_queue\000"
 23232      65756500 
 23233              	.LASF940:
 23234 35d7 72657476 		.ascii	"retval\000"
 23234      616C00
 23235              	.LASF977:
 23236 35de 6D635F69 		.ascii	"mc_interface_set_current\000"
 23236      6E746572 
 23236      66616365 
 23236      5F736574 
 23236      5F637572 
 23237              	.LASF129:
 23238 35f7 49325343 		.ascii	"I2SCFGR\000"
 23238      46475200 
 23239              	.LASF242:
 23240 35ff 6D635F66 		.ascii	"mc_fault_code\000"
 23240      61756C74 
 23240      5F636F64 
 23240      6500
 23241              	.LASF260:
 23242 360d 64656275 		.ascii	"debug_sampling_mode\000"
 23242      675F7361 
 23242      6D706C69 
 23242      6E675F6D 
ARM GAS  C:\Users\CHRIST~1\AppData\Local\Temp\ccb3oWGE.s 			page 453


 23242      6F646500 
 23243              	.LASF944:
 23244 3621 64656369 		.ascii	"decimation\000"
 23244      6D617469 
 23244      6F6E00
 23245              	.LASF347:
 23246 362c 6D5F6475 		.ascii	"m_duty_ramp_step\000"
 23246      74795F72 
 23246      616D705F 
 23246      73746570 
 23246      00
 23247              	.LASF359:
 23248 363d 6D635F63 		.ascii	"mc_configuration\000"
 23248      6F6E6669 
 23248      67757261 
 23248      74696F6E 
 23248      00
 23249              	.LASF463:
 23250 364e 636F6E66 		.ascii	"config\000"
 23250      696700
 23251              	.LASF167:
 23252 3655 63685F69 		.ascii	"ch_identifier\000"
 23252      64656E74 
 23252      69666965 
 23252      7200
 23253              	.LASF13:
 23254 3663 6C6F6E67 		.ascii	"long long int\000"
 23254      206C6F6E 
 23254      6720696E 
 23254      7400
 23255              	.LASF933:
 23256 3671 63757272 		.ascii	"curr_diff_samples\000"
 23256      5F646966 
 23256      665F7361 
 23256      6D706C65 
 23256      7300
 23257              	.LASF663:
 23258 3683 48505458 		.ascii	"HPTXFSIZ\000"
 23258      4653495A 
 23258      00
 23259              	.LASF174:
 23260 368c 63665F6F 		.ascii	"cf_off_prio\000"
 23260      66665F70 
 23260      72696F00 
 23261              	.LASF787:
 23262 3698 5F666C61 		.ascii	"_flags2\000"
 23262      67733200 
 23263              	.LASF999:
 23264 36a0 63685379 		.ascii	"chSysLockFromISR\000"
 23264      734C6F63 
 23264      6B46726F 
 23264      6D495352 
 23264      00
 23265              	.LASF913:
 23266 36b1 72706D5F 		.ascii	"rpm_neg_cut_start\000"
 23266      6E65675F 
 23266      6375745F 
ARM GAS  C:\Users\CHRIST~1\AppData\Local\Temp\ccb3oWGE.s 			page 454


 23266      73746172 
 23266      7400
 23267              	.LASF837:
 23268 36c3 5F6E6578 		.ascii	"_nextf\000"
 23268      746600
 23269              	.LASF380:
 23270 36ca 434F4D4D 		.ascii	"COMM_TERMINAL_CMD\000"
 23270      5F544552 
 23270      4D494E41 
 23270      4C5F434D 
 23270      4400
 23271              	.LASF288:
 23272 36dc 6C5F7761 		.ascii	"l_watt_min\000"
 23272      74745F6D 
 23272      696E00
 23273              	.LASF520:
 23274 36e7 6963756D 		.ascii	"icumode_t\000"
 23274      6F64655F 
 23274      7400
 23275              	.LASF710:
 23276 36f1 7478636E 		.ascii	"txcnt\000"
 23276      7400
 23277              	.LASF612:
 23278 36f7 5553425F 		.ascii	"USB_EVENT_ADDRESS\000"
 23278      4556454E 
 23278      545F4144 
 23278      44524553 
 23278      5300
 23279              	.LASF729:
 23280 3709 6765745F 		.ascii	"get_descriptor_cb\000"
 23280      64657363 
 23280      72697074 
 23280      6F725F63 
 23280      6200
 23281              	.LASF274:
 23282 371b 6C5F6D61 		.ascii	"l_max_erpm_fbrake_cc\000"
 23282      785F6572 
 23282      706D5F66 
 23282      6272616B 
 23282      655F6363 
 23283              	.LASF796:
 23284 3730 5F6C6F63 		.ascii	"_locale\000"
 23284      616C6500 
 23285              	.LASF33:
 23286 3738 6576656E 		.ascii	"eventflags_t\000"
 23286      74666C61 
 23286      67735F74 
 23286      00
 23287              	.LASF536:
 23288 3745 5350495F 		.ascii	"SPI_READY\000"
 23288      52454144 
 23288      5900
 23289              	.LASF378:
 23290 374f 434F4D4D 		.ascii	"COMM_GET_APPCONF_DEFAULT\000"
 23290      5F474554 
 23290      5F415050 
 23290      434F4E46 
ARM GAS  C:\Users\CHRIST~1\AppData\Local\Temp\ccb3oWGE.s 			page 455


 23290      5F444546 
 23291              	.LASF699:
 23292 3768 4649464F 		.ascii	"FIFO\000"
 23292      00
 23293              	.LASF1063:
 23294 376d 6D637077 		.ascii	"mcpwm_is_dccal_done\000"
 23294      6D5F6973 
 23294      5F646363 
 23294      616C5F64 
 23294      6F6E6500 
 23295              	.LASF105:
 23296 3781 73464946 		.ascii	"sFIFOMailBox\000"
 23296      4F4D6169 
 23296      6C426F78 
 23296      00
 23297              	.LASF1080:
 23298 378e 7574696C 		.ascii	"utils_map\000"
 23298      735F6D61 
 23298      7000
 23299              	.LASF982:
 23300 3798 6D635F69 		.ascii	"mc_interface_set_duty\000"
 23300      6E746572 
 23300      66616365 
 23300      5F736574 
 23300      5F647574 
 23301              	.LASF211:
 23302 37ae 4D435F53 		.ascii	"MC_STATE_OFF\000"
 23302      54415445 
 23302      5F4F4646 
 23302      00
 23303              	.LASF678:
 23304 37bb 4443544C 		.ascii	"DCTL\000"
 23304      00
 23305              	.LASF705:
 23306 37c0 74786275 		.ascii	"txbuf\000"
 23306      6600
 23307              	.LASF697:
 23308 37c6 50434743 		.ascii	"PCGCCTL\000"
 23308      43544C00 
 23309              	.LASF615:
 23310 37ce 5553425F 		.ascii	"USB_EVENT_WAKEUP\000"
 23310      4556454E 
 23310      545F5741 
 23310      4B455550 
 23310      00
 23311              	.LASF1004:
 23312 37df 5F5F7365 		.ascii	"__set_BASEPRI\000"
 23312      745F4241 
 23312      53455052 
 23312      4900
 23313              	.LASF1086:
 23314 37ed 6D637077 		.ascii	"mcpwm_foc_set_brake_current\000"
 23314      6D5F666F 
 23314      635F7365 
 23314      745F6272 
 23314      616B655F 
 23315              	.LASF267:
ARM GAS  C:\Users\CHRIST~1\AppData\Local\Temp\ccb3oWGE.s 			page 456


 23316 3809 6C5F696E 		.ascii	"l_in_current_max\000"
 23316      5F637572 
 23316      72656E74 
 23316      5F6D6178 
 23316      00
 23317              	.LASF879:
 23318 381a 6D5F665F 		.ascii	"m_f_sw_samples\000"
 23318      73775F73 
 23318      616D706C 
 23318      657300
 23319              	.LASF42:
 23320 3829 705F6F6C 		.ascii	"p_older\000"
 23320      64657200 
 23321              	.LASF451:
 23322 3831 50494461 		.ascii	"PIData\000"
 23322      746100
 23323              	.LASF726:
 23324 3838 73657475 		.ascii	"setup_buf\000"
 23324      705F6275 
 23324      6600
 23325              	.LASF1033:
 23326 3842 6D637077 		.ascii	"mcpwm_get_tot_current_in_filtered\000"
 23326      6D5F6765 
 23326      745F746F 
 23326      745F6375 
 23326      7272656E 
 23327              	.LASF543:
 23328 3864 7373706F 		.ascii	"ssport\000"
 23328      727400
 23329              	.LASF504:
 23330 386b 4943555F 		.ascii	"ICU_UNINIT\000"
 23330      554E494E 
 23330      495400
 23331              	.LASF56:
 23332 3876 74687265 		.ascii	"thread_reference_t\000"
 23332      61645F72 
 23332      65666572 
 23332      656E6365 
 23332      5F7400
 23333              	.LASF341:
 23334 3889 705F7069 		.ascii	"p_pid_ang_div\000"
 23334      645F616E 
 23334      675F6469 
 23334      7600
 23335              	.LASF580:
 23336 3897 72656365 		.ascii	"receiving\000"
 23336      6976696E 
 23336      6700
 23337              	.LASF810:
 23338 38a1 5F5F4649 		.ascii	"__FILE\000"
 23338      4C4500
 23339              	.LASF526:
 23340 38a8 66726571 		.ascii	"frequency\000"
 23340      75656E63 
 23340      7900
 23341              	.LASF1058:
 23342 38b2 6D637077 		.ascii	"mcpwm_foc_set_duty_noramp\000"
ARM GAS  C:\Users\CHRIST~1\AppData\Local\Temp\ccb3oWGE.s 			page 457


 23342      6D5F666F 
 23342      635F7365 
 23342      745F6475 
 23342      74795F6E 
 23343              	.LASF322:
 23344 38cc 666F635F 		.ascii	"foc_sl_openloop_time\000"
 23344      736C5F6F 
 23344      70656E6C 
 23344      6F6F705F 
 23344      74696D65 
 23345              	.LASF151:
 23346 38e1 746D5F63 		.ascii	"tm_calibration_t\000"
 23346      616C6962 
 23346      72617469 
 23346      6F6E5F74 
 23346      00
 23347              	.LASF975:
 23348 38f2 6D635F69 		.ascii	"mc_interface_fault_stop\000"
 23348      6E746572 
 23348      66616365 
 23348      5F666175 
 23348      6C745F73 
 23349              	.LASF2:
 23350 390a 5F5F696E 		.ascii	"__int8_t\000"
 23350      74385F74 
 23350      00
 23351              	.LASF292:
 23352 3913 6C6F5F69 		.ascii	"lo_in_current_min\000"
 23352      6E5F6375 
 23352      7272656E 
 23352      745F6D69 
 23352      6E00
 23353              	.LASF723:
 23354 3925 696E5F73 		.ascii	"in_state\000"
 23354      74617465 
 23354      00
 23355              	.LASF144:
 23356 392e 47545052 		.ascii	"GTPR\000"
 23356      00
 23357              	.LASF962:
 23358 3933 6D635F69 		.ascii	"mc_interface_get_watt_hours_charged\000"
 23358      6E746572 
 23358      66616365 
 23358      5F676574 
 23358      5F776174 
 23359              	.LASF925:
 23360 3957 696E7075 		.ascii	"input_voltage\000"
 23360      745F766F 
 23360      6C746167 
 23360      6500
 23361              	.LASF168:
 23362 3965 63685F7A 		.ascii	"ch_zero\000"
 23362      65726F00 
 23363              	.LASF285:
 23364 396d 6C5F6D69 		.ascii	"l_min_duty\000"
 23364      6E5F6475 
 23364      747900
ARM GAS  C:\Users\CHRIST~1\AppData\Local\Temp\ccb3oWGE.s 			page 458


 23365              	.LASF487:
 23366 3978 46415354 		.ascii	"FAST_DUTY_CYCLE_2\000"
 23366      5F445554 
 23366      595F4359 
 23366      434C455F 
 23366      3200
 23367              	.LASF173:
 23368 398a 63685F74 		.ascii	"ch_threadsize\000"
 23368      68726561 
 23368      6473697A 
 23368      6500
 23369              	.LASF124:
 23370 3998 464C5452 		.ascii	"FLTR\000"
 23370      00
 23371              	.LASF907:
 23372 399d 6C6F5F66 		.ascii	"lo_fet_temp_accel\000"
 23372      65745F74 
 23372      656D705F 
 23372      61636365 
 23372      6C00
 23373              	.LASF246:
 23374 39af 73656E73 		.ascii	"sensor_port_mode\000"
 23374      6F725F70 
 23374      6F72745F 
 23374      6D6F6465 
 23374      00
 23375              	.LASF849:
 23376 39c0 5F5F6664 		.ascii	"__fdlib_version\000"
 23376      6C69625F 
 23376      76657273 
 23376      696F6E00 
 23377              	.LASF134:
 23378 39d0 43434D52 		.ascii	"CCMR1\000"
 23378      3100
 23379              	.LASF135:
 23380 39d6 43434D52 		.ascii	"CCMR2\000"
 23380      3200
 23381              	.LASF515:
 23382 39dc 43434D52 		.ascii	"CCMR3\000"
 23382      3300
 23383              	.LASF230:
 23384 39e2 6D635F66 		.ascii	"mc_foc_sensor_mode\000"
 23384      6F635F73 
 23384      656E736F 
 23384      725F6D6F 
 23384      646500
 23385              	.LASF16:
 23386 39f5 756E7369 		.ascii	"unsigned int\000"
 23386      676E6564 
 23386      20696E74 
 23386      00
 23387              	.LASF862:
 23388 3a02 6D5F6D6F 		.ascii	"m_motor_id_iterations\000"
 23388      746F725F 
 23388      69645F69 
 23388      74657261 
 23388      74696F6E 
ARM GAS  C:\Users\CHRIST~1\AppData\Local\Temp\ccb3oWGE.s 			page 459


 23389              	.LASF824:
 23390 3a18 5F723438 		.ascii	"_r48\000"
 23390      00
 23391              	.LASF1008:
 23392 3a1d 63684576 		.ascii	"chEvtWaitAny\000"
 23392      74576169 
 23392      74416E79 
 23392      00
 23393              	.LASF667:
 23394 3a2a 48464952 		.ascii	"HFIR\000"
 23394      00
 23395              	.LASF597:
 23396 3a2f 5553425F 		.ascii	"USB_UNINIT\000"
 23396      554E494E 
 23396      495400
 23397              	.LASF990:
 23398 3a3a 705F6675 		.ascii	"p_func\000"
 23398      6E6300
 23399              	.LASF419:
 23400 3a41 73747265 		.ascii	"stream\000"
 23400      616D00
 23401              	.LASF485:
 23402 3a48 6932636F 		.ascii	"i2copmode_t\000"
 23402      706D6F64 
 23402      655F7400 
 23403              	.LASF865:
 23404 3a54 6D5F616D 		.ascii	"m_amp_seconds_charged\000"
 23404      705F7365 
 23404      636F6E64 
 23404      735F6368 
 23404      61726765 
 23405              	.LASF816:
 23406 3a6a 5F6D756C 		.ascii	"_mult\000"
 23406      7400
 23407              	.LASF6:
 23408 3a70 73686F72 		.ascii	"short int\000"
 23408      7420696E 
 23408      7400
 23409              	.LASF328:
 23410 3a7a 666F635F 		.ascii	"foc_sample_v0_v7\000"
 23410      73616D70 
 23410      6C655F76 
 23410      305F7637 
 23410      00
 23411              	.LASF621:
 23412 3a8b 75736263 		.ascii	"usbcallback_t\000"
 23412      616C6C62 
 23412      61636B5F 
 23412      7400
 23413              	.LASF417:
 23414 3a99 6D637077 		.ascii	"mcpwm_detect_currents_diff\000"
 23414      6D5F6465 
 23414      74656374 
 23414      5F637572 
 23414      72656E74 
 23415              	.LASF650:
 23416 3ab4 47555342 		.ascii	"GUSBCFG\000"
ARM GAS  C:\Users\CHRIST~1\AppData\Local\Temp\ccb3oWGE.s 			page 460


 23416      43464700 
 23417              	.LASF145:
 23418 3abc 55534152 		.ascii	"USART_TypeDef\000"
 23418      545F5479 
 23418      70654465 
 23418      6600
 23419              	.LASF1082:
 23420 3aca 6D637077 		.ascii	"mcpwm_set_duty\000"
 23420      6D5F7365 
 23420      745F6475 
 23420      747900
 23421              	.LASF854:
 23422 3ad9 6D5F6C6F 		.ascii	"m_lock_enabled\000"
 23422      636B5F65 
 23422      6E61626C 
 23422      656400
 23423              	.LASF561:
 23424 3ae8 74787374 		.ascii	"txstate\000"
 23424      61746500 
 23425              	.LASF210:
 23426 3af0 6F757470 		.ascii	"output_queue_t\000"
 23426      75745F71 
 23426      75657565 
 23426      5F7400
 23427              	.LASF411:
 23428 3aff 6661756C 		.ascii	"fault_data\000"
 23428      745F6461 
 23428      746100
 23429              	.LASF878:
 23430 3b0a 6D5F6375 		.ascii	"m_curr_fir_samples\000"
 23430      72725F66 
 23430      69725F73 
 23430      616D706C 
 23430      657300
 23431              	.LASF231:
 23432 3b1d 4D4F544F 		.ascii	"MOTOR_TYPE_BLDC\000"
 23432      525F5459 
 23432      50455F42 
 23432      4C444300 
 23433              	.LASF814:
 23434 3b2d 5F72616E 		.ascii	"_rand48\000"
 23434      64343800 
 23435              	.LASF700:
 23436 3b35 73746D33 		.ascii	"stm32_otg_t\000"
 23436      325F6F74 
 23436      675F7400 
 23437              	.LASF492:
 23438 3b41 64757479 		.ascii	"duty_cycle\000"
 23438      5F637963 
 23438      6C6500
 23439              	.LASF389:
 23440 3b4c 434F4D4D 		.ascii	"COMM_REBOOT\000"
 23440      5F524542 
 23440      4F4F5400 
 23441              	.LASF618:
 23442 3b58 75645F73 		.ascii	"ud_size\000"
 23442      697A6500 
ARM GAS  C:\Users\CHRIST~1\AppData\Local\Temp\ccb3oWGE.s 			page 461


 23443              	.LASF994:
 23444 3b60 6D635F69 		.ascii	"mc_interface_init\000"
 23444      6E746572 
 23444      66616365 
 23444      5F696E69 
 23444      7400
 23445              	.LASF986:
 23446 3b72 6D635F69 		.ascii	"mc_interface_lock_override_once\000"
 23446      6E746572 
 23446      66616365 
 23446      5F6C6F63 
 23446      6B5F6F76 
 23447              	.LASF876:
 23448 3b92 6D5F767A 		.ascii	"m_vzero_samples\000"
 23448      65726F5F 
 23448      73616D70 
 23448      6C657300 
 23449              	.LASF1027:
 23450 3ba2 6D637077 		.ascii	"mcpwm_get_last_inj_adc_isr_duration\000"
 23450      6D5F6765 
 23450      745F6C61 
 23450      73745F69 
 23450      6E6A5F61 
 23451              	.LASF721:
 23452 3bc6 696E5F6D 		.ascii	"in_maxsize\000"
 23452      61787369 
 23452      7A6500
 23453              	.LASF448:
 23454 3bd1 50464461 		.ascii	"PFData\000"
 23454      746100
 23455              	.LASF553:
 23456 3bd8 55415254 		.ascii	"UART_TX_COMPLETE\000"
 23456      5F54585F 
 23456      434F4D50 
 23456      4C455445 
 23456      00
 23457              	.LASF44:
 23458 3be9 705F7374 		.ascii	"p_state\000"
 23458      61746500 
 23459              	.LASF891:
 23460 3bf1 73616D70 		.ascii	"sample_send_tp\000"
 23460      6C655F73 
 23460      656E645F 
 23460      747000
 23461              	.LASF59:
 23462 3c00 63685F74 		.ascii	"ch_threads_list\000"
 23462      68726561 
 23462      64735F6C 
 23462      69737400 
 23463              	.LASF221:
 23464 3c10 434F4D4D 		.ascii	"COMM_MODE_DELAY\000"
 23464      5F4D4F44 
 23464      455F4445 
 23464      4C415900 
 23465              	.LASF121:
 23466 3c20 4F415231 		.ascii	"OAR1\000"
 23466      00
ARM GAS  C:\Users\CHRIST~1\AppData\Local\Temp\ccb3oWGE.s 			page 462


 23467              	.LASF122:
 23468 3c25 4F415232 		.ascii	"OAR2\000"
 23468      00
 23469              	.LASF349:
 23470 3c2a 6D5F656E 		.ascii	"m_encoder_counts\000"
 23470      636F6465 
 23470      725F636F 
 23470      756E7473 
 23470      00
 23471              		.ident	"GCC: (GNU Tools for Arm Embedded Processors 7-2017-q4-major) 7.2.1 20170904 (release) [ARM
ARM GAS  C:\Users\CHRIST~1\AppData\Local\Temp\ccb3oWGE.s 			page 463


DEFINED SYMBOLS
                            *ABS*:00000000 mc_interface.c
C:\Users\CHRIST~1\AppData\Local\Temp\ccb3oWGE.s:18     .text.sample_send_thread:00000000 $t
C:\Users\CHRIST~1\AppData\Local\Temp\ccb3oWGE.s:25     .text.sample_send_thread:00000000 sample_send_thread
C:\Users\CHRIST~1\AppData\Local\Temp\ccb3oWGE.s:113    .text.sample_send_thread:00000048 $d
C:\Users\CHRIST~1\AppData\Local\Temp\ccb3oWGE.s:119    .text.sample_send_thread:0000004e $t
C:\Users\CHRIST~1\AppData\Local\Temp\ccb3oWGE.s:340    .text.sample_send_thread:000001f4 $d
C:\Users\CHRIST~1\AppData\Local\Temp\ccb3oWGE.s:364    .text.mc_interface_init:00000000 $t
C:\Users\CHRIST~1\AppData\Local\Temp\ccb3oWGE.s:372    .text.mc_interface_init:00000000 mc_interface_init
C:\Users\CHRIST~1\AppData\Local\Temp\ccb3oWGE.s:612    .text.mc_interface_init:000000f8 $d
C:\Users\CHRIST~1\AppData\Local\Temp\ccb3oWGE.s:2859   .text.timer_thread:00000000 timer_thread
C:\Users\CHRIST~1\AppData\Local\Temp\ccb3oWGE.s:648    .text.mc_interface_get_configuration:00000000 $t
C:\Users\CHRIST~1\AppData\Local\Temp\ccb3oWGE.s:656    .text.mc_interface_get_configuration:00000000 mc_interface_get_configuration
C:\Users\CHRIST~1\AppData\Local\Temp\ccb3oWGE.s:669    .text.mc_interface_get_configuration:00000004 $d
C:\Users\CHRIST~1\AppData\Local\Temp\ccb3oWGE.s:674    .text.mc_interface_dccal_done:00000000 $t
C:\Users\CHRIST~1\AppData\Local\Temp\ccb3oWGE.s:682    .text.mc_interface_dccal_done:00000000 mc_interface_dccal_done
C:\Users\CHRIST~1\AppData\Local\Temp\ccb3oWGE.s:712    .text.mc_interface_dccal_done:0000001c $d
C:\Users\CHRIST~1\AppData\Local\Temp\ccb3oWGE.s:717    .text.mc_interface_set_pwm_callback:00000000 $t
C:\Users\CHRIST~1\AppData\Local\Temp\ccb3oWGE.s:725    .text.mc_interface_set_pwm_callback:00000000 mc_interface_set_pwm_callback
C:\Users\CHRIST~1\AppData\Local\Temp\ccb3oWGE.s:741    .text.mc_interface_set_pwm_callback:00000008 $d
C:\Users\CHRIST~1\AppData\Local\Temp\ccb3oWGE.s:746    .text.mc_interface_lock:00000000 $t
C:\Users\CHRIST~1\AppData\Local\Temp\ccb3oWGE.s:754    .text.mc_interface_lock:00000000 mc_interface_lock
C:\Users\CHRIST~1\AppData\Local\Temp\ccb3oWGE.s:770    .text.mc_interface_lock:00000008 $d
C:\Users\CHRIST~1\AppData\Local\Temp\ccb3oWGE.s:775    .text.mc_interface_unlock:00000000 $t
C:\Users\CHRIST~1\AppData\Local\Temp\ccb3oWGE.s:783    .text.mc_interface_unlock:00000000 mc_interface_unlock
C:\Users\CHRIST~1\AppData\Local\Temp\ccb3oWGE.s:799    .text.mc_interface_unlock:00000008 $d
C:\Users\CHRIST~1\AppData\Local\Temp\ccb3oWGE.s:804    .text.mc_interface_lock_override_once:00000000 $t
C:\Users\CHRIST~1\AppData\Local\Temp\ccb3oWGE.s:812    .text.mc_interface_lock_override_once:00000000 mc_interface_lock_override_once
C:\Users\CHRIST~1\AppData\Local\Temp\ccb3oWGE.s:828    .text.mc_interface_lock_override_once:00000008 $d
C:\Users\CHRIST~1\AppData\Local\Temp\ccb3oWGE.s:833    .text.mc_interface_get_fault:00000000 $t
C:\Users\CHRIST~1\AppData\Local\Temp\ccb3oWGE.s:841    .text.mc_interface_get_fault:00000000 mc_interface_get_fault
C:\Users\CHRIST~1\AppData\Local\Temp\ccb3oWGE.s:856    .text.mc_interface_get_fault:00000008 $d
C:\Users\CHRIST~1\AppData\Local\Temp\ccb3oWGE.s:861    .text.mc_interface_fault_to_string:00000000 $t
C:\Users\CHRIST~1\AppData\Local\Temp\ccb3oWGE.s:869    .text.mc_interface_fault_to_string:00000000 mc_interface_fault_to_string
C:\Users\CHRIST~1\AppData\Local\Temp\ccb3oWGE.s:889    .text.mc_interface_fault_to_string:00000010 $d
C:\Users\CHRIST~1\AppData\Local\Temp\ccb3oWGE.s:895    .text.mc_interface_get_state:00000000 $t
C:\Users\CHRIST~1\AppData\Local\Temp\ccb3oWGE.s:903    .text.mc_interface_get_state:00000000 mc_interface_get_state
C:\Users\CHRIST~1\AppData\Local\Temp\ccb3oWGE.s:933    .text.mc_interface_get_state:0000001c $d
C:\Users\CHRIST~1\AppData\Local\Temp\ccb3oWGE.s:938    .text.mc_interface_get_duty_cycle_set:00000000 $t
C:\Users\CHRIST~1\AppData\Local\Temp\ccb3oWGE.s:946    .text.mc_interface_get_duty_cycle_set:00000000 mc_interface_get_duty_cycle_set
C:\Users\CHRIST~1\AppData\Local\Temp\ccb3oWGE.s:995    .text.mc_interface_get_duty_cycle_set:00000030 $d
C:\Users\CHRIST~1\AppData\Local\Temp\ccb3oWGE.s:1001   .text.mc_interface_get_duty_cycle_now:00000000 $t
C:\Users\CHRIST~1\AppData\Local\Temp\ccb3oWGE.s:1009   .text.mc_interface_get_duty_cycle_now:00000000 mc_interface_get_duty_cycle_now
C:\Users\CHRIST~1\AppData\Local\Temp\ccb3oWGE.s:1058   .text.mc_interface_get_duty_cycle_now:00000030 $d
C:\Users\CHRIST~1\AppData\Local\Temp\ccb3oWGE.s:1064   .text.mc_interface_get_sampling_frequency_now:00000000 $t
C:\Users\CHRIST~1\AppData\Local\Temp\ccb3oWGE.s:1072   .text.mc_interface_get_sampling_frequency_now:00000000 mc_interface_get_sampling_frequency_now
C:\Users\CHRIST~1\AppData\Local\Temp\ccb3oWGE.s:1102   .text.mc_interface_get_sampling_frequency_now:0000001c $d
C:\Users\CHRIST~1\AppData\Local\Temp\ccb3oWGE.s:1108   .text.mc_interface_get_rpm:00000000 $t
C:\Users\CHRIST~1\AppData\Local\Temp\ccb3oWGE.s:1116   .text.mc_interface_get_rpm:00000000 mc_interface_get_rpm
C:\Users\CHRIST~1\AppData\Local\Temp\ccb3oWGE.s:1165   .text.mc_interface_get_rpm:00000030 $d
C:\Users\CHRIST~1\AppData\Local\Temp\ccb3oWGE.s:1171   .text.mc_interface_get_amp_hours:00000000 $t
C:\Users\CHRIST~1\AppData\Local\Temp\ccb3oWGE.s:1179   .text.mc_interface_get_amp_hours:00000000 mc_interface_get_amp_hours
C:\Users\CHRIST~1\AppData\Local\Temp\ccb3oWGE.s:1204   .text.mc_interface_get_amp_hours:00000018 $d
C:\Users\CHRIST~1\AppData\Local\Temp\ccb3oWGE.s:1210   .text.mc_interface_get_amp_hours_charged:00000000 $t
C:\Users\CHRIST~1\AppData\Local\Temp\ccb3oWGE.s:1218   .text.mc_interface_get_amp_hours_charged:00000000 mc_interface_get_amp_hours_charged
C:\Users\CHRIST~1\AppData\Local\Temp\ccb3oWGE.s:1243   .text.mc_interface_get_amp_hours_charged:00000018 $d
C:\Users\CHRIST~1\AppData\Local\Temp\ccb3oWGE.s:1249   .text.mc_interface_get_watt_hours:00000000 $t
ARM GAS  C:\Users\CHRIST~1\AppData\Local\Temp\ccb3oWGE.s 			page 464


C:\Users\CHRIST~1\AppData\Local\Temp\ccb3oWGE.s:1257   .text.mc_interface_get_watt_hours:00000000 mc_interface_get_watt_hours
C:\Users\CHRIST~1\AppData\Local\Temp\ccb3oWGE.s:1282   .text.mc_interface_get_watt_hours:00000018 $d
C:\Users\CHRIST~1\AppData\Local\Temp\ccb3oWGE.s:1288   .text.mc_interface_get_watt_hours_charged:00000000 $t
C:\Users\CHRIST~1\AppData\Local\Temp\ccb3oWGE.s:1296   .text.mc_interface_get_watt_hours_charged:00000000 mc_interface_get_watt_hours_charged
C:\Users\CHRIST~1\AppData\Local\Temp\ccb3oWGE.s:1321   .text.mc_interface_get_watt_hours_charged:00000018 $d
C:\Users\CHRIST~1\AppData\Local\Temp\ccb3oWGE.s:1327   .text.mc_interface_get_tot_current:00000000 $t
C:\Users\CHRIST~1\AppData\Local\Temp\ccb3oWGE.s:1335   .text.mc_interface_get_tot_current:00000000 mc_interface_get_tot_current
C:\Users\CHRIST~1\AppData\Local\Temp\ccb3oWGE.s:1365   .text.mc_interface_get_tot_current:0000001c $d
C:\Users\CHRIST~1\AppData\Local\Temp\ccb3oWGE.s:1371   .text.mc_interface_get_tot_current_filtered:00000000 $t
C:\Users\CHRIST~1\AppData\Local\Temp\ccb3oWGE.s:1379   .text.mc_interface_get_tot_current_filtered:00000000 mc_interface_get_tot_current_filtered
C:\Users\CHRIST~1\AppData\Local\Temp\ccb3oWGE.s:1409   .text.mc_interface_get_tot_current_filtered:0000001c $d
C:\Users\CHRIST~1\AppData\Local\Temp\ccb3oWGE.s:1415   .text.mc_interface_get_tot_current_directional:00000000 $t
C:\Users\CHRIST~1\AppData\Local\Temp\ccb3oWGE.s:1423   .text.mc_interface_get_tot_current_directional:00000000 mc_interface_get_tot_current_directional
C:\Users\CHRIST~1\AppData\Local\Temp\ccb3oWGE.s:1472   .text.mc_interface_get_tot_current_directional:00000030 $d
C:\Users\CHRIST~1\AppData\Local\Temp\ccb3oWGE.s:1478   .text.mc_interface_get_tot_current_directional_filtered:00000000 $t
C:\Users\CHRIST~1\AppData\Local\Temp\ccb3oWGE.s:1486   .text.mc_interface_get_tot_current_directional_filtered:00000000 mc_interface_get_tot_current_directional_filtered
C:\Users\CHRIST~1\AppData\Local\Temp\ccb3oWGE.s:1535   .text.mc_interface_get_tot_current_directional_filtered:00000030 $d
C:\Users\CHRIST~1\AppData\Local\Temp\ccb3oWGE.s:1541   .text.mc_interface_get_tot_current_in:00000000 $t
C:\Users\CHRIST~1\AppData\Local\Temp\ccb3oWGE.s:1549   .text.mc_interface_get_tot_current_in:00000000 mc_interface_get_tot_current_in
C:\Users\CHRIST~1\AppData\Local\Temp\ccb3oWGE.s:1579   .text.mc_interface_get_tot_current_in:0000001c $d
C:\Users\CHRIST~1\AppData\Local\Temp\ccb3oWGE.s:1585   .text.mc_interface_get_tot_current_in_filtered:00000000 $t
C:\Users\CHRIST~1\AppData\Local\Temp\ccb3oWGE.s:1593   .text.mc_interface_get_tot_current_in_filtered:00000000 mc_interface_get_tot_current_in_filtered
C:\Users\CHRIST~1\AppData\Local\Temp\ccb3oWGE.s:1623   .text.mc_interface_get_tot_current_in_filtered:0000001c $d
C:\Users\CHRIST~1\AppData\Local\Temp\ccb3oWGE.s:1629   .text.mc_interface_get_tachometer_value:00000000 $t
C:\Users\CHRIST~1\AppData\Local\Temp\ccb3oWGE.s:1637   .text.mc_interface_get_tachometer_value:00000000 mc_interface_get_tachometer_value
C:\Users\CHRIST~1\AppData\Local\Temp\ccb3oWGE.s:1689   .text.mc_interface_get_tachometer_value:00000044 $d
C:\Users\CHRIST~1\AppData\Local\Temp\ccb3oWGE.s:1695   .text.mc_interface_fault_stop.part.3:00000000 $t
C:\Users\CHRIST~1\AppData\Local\Temp\ccb3oWGE.s:1702   .text.mc_interface_fault_stop.part.3:00000000 mc_interface_fault_stop.part.3
C:\Users\CHRIST~1\AppData\Local\Temp\ccb3oWGE.s:1880   .text.mc_interface_fault_stop.part.3:00000108 $d
C:\Users\CHRIST~1\AppData\Local\Temp\ccb3oWGE.s:1899   .text.update_override_limits.constprop.4:00000000 $t
C:\Users\CHRIST~1\AppData\Local\Temp\ccb3oWGE.s:1906   .text.update_override_limits.constprop.4:00000000 update_override_limits.constprop.4
C:\Users\CHRIST~1\AppData\Local\Temp\ccb3oWGE.s:2376   .text.update_override_limits.constprop.4:00000374 $d
C:\Users\CHRIST~1\AppData\Local\Temp\ccb3oWGE.s:2396   .text.update_override_limits.constprop.4:000003b4 $t
C:\Users\CHRIST~1\AppData\Local\Temp\ccb3oWGE.s:2661   .text.mc_interface_set_configuration:00000000 $t
C:\Users\CHRIST~1\AppData\Local\Temp\ccb3oWGE.s:2669   .text.mc_interface_set_configuration:00000000 mc_interface_set_configuration
C:\Users\CHRIST~1\AppData\Local\Temp\ccb3oWGE.s:2847   .text.mc_interface_set_configuration:000000d8 $d
C:\Users\CHRIST~1\AppData\Local\Temp\ccb3oWGE.s:2852   .text.timer_thread:00000000 $t
C:\Users\CHRIST~1\AppData\Local\Temp\ccb3oWGE.s:2923   .text.timer_thread:00000034 $d
C:\Users\CHRIST~1\AppData\Local\Temp\ccb3oWGE.s:2932   .text.mc_interface_get_tachometer_abs_value:00000000 $t
C:\Users\CHRIST~1\AppData\Local\Temp\ccb3oWGE.s:2940   .text.mc_interface_get_tachometer_abs_value:00000000 mc_interface_get_tachometer_abs_value
C:\Users\CHRIST~1\AppData\Local\Temp\ccb3oWGE.s:2972   .text.mc_interface_get_tachometer_abs_value:0000001c $d
C:\Users\CHRIST~1\AppData\Local\Temp\ccb3oWGE.s:2977   .text.mc_interface_get_last_inj_adc_isr_duration:00000000 $t
C:\Users\CHRIST~1\AppData\Local\Temp\ccb3oWGE.s:2985   .text.mc_interface_get_last_inj_adc_isr_duration:00000000 mc_interface_get_last_inj_adc_isr_duration
C:\Users\CHRIST~1\AppData\Local\Temp\ccb3oWGE.s:3015   .text.mc_interface_get_last_inj_adc_isr_duration:0000001c $d
C:\Users\CHRIST~1\AppData\Local\Temp\ccb3oWGE.s:3021   .text.mc_interface_read_reset_avg_motor_current:00000000 $t
C:\Users\CHRIST~1\AppData\Local\Temp\ccb3oWGE.s:3029   .text.mc_interface_read_reset_avg_motor_current:00000000 mc_interface_read_reset_avg_motor_current
C:\Users\CHRIST~1\AppData\Local\Temp\ccb3oWGE.s:3055   .text.mc_interface_read_reset_avg_motor_current:00000018 $d
C:\Users\CHRIST~1\AppData\Local\Temp\ccb3oWGE.s:3061   .text.mc_interface_read_reset_avg_input_current:00000000 $t
C:\Users\CHRIST~1\AppData\Local\Temp\ccb3oWGE.s:3069   .text.mc_interface_read_reset_avg_input_current:00000000 mc_interface_read_reset_avg_input_current
C:\Users\CHRIST~1\AppData\Local\Temp\ccb3oWGE.s:3095   .text.mc_interface_read_reset_avg_input_current:00000018 $d
C:\Users\CHRIST~1\AppData\Local\Temp\ccb3oWGE.s:3101   .text.mc_interface_read_reset_avg_id:00000000 $t
C:\Users\CHRIST~1\AppData\Local\Temp\ccb3oWGE.s:3109   .text.mc_interface_read_reset_avg_id:00000000 mc_interface_read_reset_avg_id
C:\Users\CHRIST~1\AppData\Local\Temp\ccb3oWGE.s:3144   .text.mc_interface_read_reset_avg_id:00000024 $d
C:\Users\CHRIST~1\AppData\Local\Temp\ccb3oWGE.s:3151   .text.mc_interface_read_reset_avg_iq:00000000 $t
C:\Users\CHRIST~1\AppData\Local\Temp\ccb3oWGE.s:3159   .text.mc_interface_read_reset_avg_iq:00000000 mc_interface_read_reset_avg_iq
C:\Users\CHRIST~1\AppData\Local\Temp\ccb3oWGE.s:3194   .text.mc_interface_read_reset_avg_iq:00000024 $d
C:\Users\CHRIST~1\AppData\Local\Temp\ccb3oWGE.s:3201   .text.mc_interface_get_pid_pos_set:00000000 $t
ARM GAS  C:\Users\CHRIST~1\AppData\Local\Temp\ccb3oWGE.s 			page 465


C:\Users\CHRIST~1\AppData\Local\Temp\ccb3oWGE.s:3209   .text.mc_interface_get_pid_pos_set:00000000 mc_interface_get_pid_pos_set
C:\Users\CHRIST~1\AppData\Local\Temp\ccb3oWGE.s:3224   .text.mc_interface_get_pid_pos_set:00000008 $d
C:\Users\CHRIST~1\AppData\Local\Temp\ccb3oWGE.s:3229   .text.mc_interface_get_pid_pos_now:00000000 $t
C:\Users\CHRIST~1\AppData\Local\Temp\ccb3oWGE.s:3237   .text.mc_interface_get_pid_pos_now:00000000 mc_interface_get_pid_pos_now
C:\Users\CHRIST~1\AppData\Local\Temp\ccb3oWGE.s:3286   .text.mc_interface_get_pid_pos_now:00000030 $d
C:\Users\CHRIST~1\AppData\Local\Temp\ccb3oWGE.s:3292   .text.mc_interface_get_last_sample_adc_isr_duration:00000000 $t
C:\Users\CHRIST~1\AppData\Local\Temp\ccb3oWGE.s:3300   .text.mc_interface_get_last_sample_adc_isr_duration:00000000 mc_interface_get_last_sample_adc_isr_duration
C:\Users\CHRIST~1\AppData\Local\Temp\ccb3oWGE.s:3315   .text.mc_interface_get_last_sample_adc_isr_duration:00000008 $d
C:\Users\CHRIST~1\AppData\Local\Temp\ccb3oWGE.s:3320   .text.mc_interface_sample_print_data:00000000 $t
C:\Users\CHRIST~1\AppData\Local\Temp\ccb3oWGE.s:3328   .text.mc_interface_sample_print_data:00000000 mc_interface_sample_print_data
C:\Users\CHRIST~1\AppData\Local\Temp\ccb3oWGE.s:3392   .text.mc_interface_sample_print_data:00000038 $d
C:\Users\CHRIST~1\AppData\Local\Temp\ccb3oWGE.s:3402   .text.mc_interface_temp_fet_filtered:00000000 $t
C:\Users\CHRIST~1\AppData\Local\Temp\ccb3oWGE.s:3410   .text.mc_interface_temp_fet_filtered:00000000 mc_interface_temp_fet_filtered
C:\Users\CHRIST~1\AppData\Local\Temp\ccb3oWGE.s:3425   .text.mc_interface_temp_fet_filtered:00000008 $d
C:\Users\CHRIST~1\AppData\Local\Temp\ccb3oWGE.s:3430   .text.mc_interface_temp_motor_filtered:00000000 $t
C:\Users\CHRIST~1\AppData\Local\Temp\ccb3oWGE.s:3438   .text.mc_interface_temp_motor_filtered:00000000 mc_interface_temp_motor_filtered
C:\Users\CHRIST~1\AppData\Local\Temp\ccb3oWGE.s:3453   .text.mc_interface_temp_motor_filtered:00000008 $d
C:\Users\CHRIST~1\AppData\Local\Temp\ccb3oWGE.s:3458   .text.mc_interface_try_input:00000000 $t
C:\Users\CHRIST~1\AppData\Local\Temp\ccb3oWGE.s:3466   .text.mc_interface_try_input:00000000 mc_interface_try_input
C:\Users\CHRIST~1\AppData\Local\Temp\ccb3oWGE.s:3559   .text.mc_interface_try_input:00000064 $d
C:\Users\CHRIST~1\AppData\Local\Temp\ccb3oWGE.s:3567   .text.mc_interface_set_duty:00000000 $t
C:\Users\CHRIST~1\AppData\Local\Temp\ccb3oWGE.s:3575   .text.mc_interface_set_duty:00000000 mc_interface_set_duty
C:\Users\CHRIST~1\AppData\Local\Temp\ccb3oWGE.s:3666   .text.mc_interface_set_duty:00000058 $d
C:\Users\CHRIST~1\AppData\Local\Temp\ccb3oWGE.s:3673   .text.mc_interface_brake_now:00000000 $t
C:\Users\CHRIST~1\AppData\Local\Temp\ccb3oWGE.s:3681   .text.mc_interface_brake_now:00000000 mc_interface_brake_now
C:\Users\CHRIST~1\AppData\Local\Temp\ccb3oWGE.s:3695   .text.mc_interface_brake_now:00000008 $d
C:\Users\CHRIST~1\AppData\Local\Temp\ccb3oWGE.s:3700   .text.mc_interface_set_duty_noramp:00000000 $t
C:\Users\CHRIST~1\AppData\Local\Temp\ccb3oWGE.s:3708   .text.mc_interface_set_duty_noramp:00000000 mc_interface_set_duty_noramp
C:\Users\CHRIST~1\AppData\Local\Temp\ccb3oWGE.s:3794   .text.mc_interface_set_duty_noramp:00000058 $d
C:\Users\CHRIST~1\AppData\Local\Temp\ccb3oWGE.s:3799   .text.mc_interface_set_pid_speed:00000000 $t
C:\Users\CHRIST~1\AppData\Local\Temp\ccb3oWGE.s:3807   .text.mc_interface_set_pid_speed:00000000 mc_interface_set_pid_speed
C:\Users\CHRIST~1\AppData\Local\Temp\ccb3oWGE.s:3893   .text.mc_interface_set_pid_speed:00000058 $d
C:\Users\CHRIST~1\AppData\Local\Temp\ccb3oWGE.s:3898   .text.mc_interface_set_pid_pos:00000000 $t
C:\Users\CHRIST~1\AppData\Local\Temp\ccb3oWGE.s:3906   .text.mc_interface_set_pid_pos:00000000 mc_interface_set_pid_pos
C:\Users\CHRIST~1\AppData\Local\Temp\ccb3oWGE.s:4002   .text.mc_interface_set_pid_pos:0000007c $d
C:\Users\CHRIST~1\AppData\Local\Temp\ccb3oWGE.s:4008   .text.mc_interface_set_current:00000000 $t
C:\Users\CHRIST~1\AppData\Local\Temp\ccb3oWGE.s:4016   .text.mc_interface_set_current:00000000 mc_interface_set_current
C:\Users\CHRIST~1\AppData\Local\Temp\ccb3oWGE.s:4107   .text.mc_interface_set_current:00000058 $d
C:\Users\CHRIST~1\AppData\Local\Temp\ccb3oWGE.s:4114   .text.mc_interface_set_current_rel:00000000 $t
C:\Users\CHRIST~1\AppData\Local\Temp\ccb3oWGE.s:4122   .text.mc_interface_set_current_rel:00000000 mc_interface_set_current_rel
C:\Users\CHRIST~1\AppData\Local\Temp\ccb3oWGE.s:4154   .text.mc_interface_set_current_rel:00000028 $d
C:\Users\CHRIST~1\AppData\Local\Temp\ccb3oWGE.s:4159   .text.mc_interface_release_motor:00000000 $t
C:\Users\CHRIST~1\AppData\Local\Temp\ccb3oWGE.s:4167   .text.mc_interface_release_motor:00000000 mc_interface_release_motor
C:\Users\CHRIST~1\AppData\Local\Temp\ccb3oWGE.s:4181   .text.mc_interface_release_motor:00000008 $d
C:\Users\CHRIST~1\AppData\Local\Temp\ccb3oWGE.s:4186   .text.mc_interface_set_brake_current:00000000 $t
C:\Users\CHRIST~1\AppData\Local\Temp\ccb3oWGE.s:4194   .text.mc_interface_set_brake_current:00000000 mc_interface_set_brake_current
C:\Users\CHRIST~1\AppData\Local\Temp\ccb3oWGE.s:4285   .text.mc_interface_set_brake_current:00000058 $d
C:\Users\CHRIST~1\AppData\Local\Temp\ccb3oWGE.s:4292   .text.mc_interface_set_brake_current_rel:00000000 $t
C:\Users\CHRIST~1\AppData\Local\Temp\ccb3oWGE.s:4300   .text.mc_interface_set_brake_current_rel:00000000 mc_interface_set_brake_current_rel
C:\Users\CHRIST~1\AppData\Local\Temp\ccb3oWGE.s:4318   .text.mc_interface_set_brake_current_rel:00000010 $d
C:\Users\CHRIST~1\AppData\Local\Temp\ccb3oWGE.s:4323   .text.mc_interface_set_handbrake:00000000 $t
C:\Users\CHRIST~1\AppData\Local\Temp\ccb3oWGE.s:4331   .text.mc_interface_set_handbrake:00000000 mc_interface_set_handbrake
C:\Users\CHRIST~1\AppData\Local\Temp\ccb3oWGE.s:4407   .text.mc_interface_set_handbrake:00000044 $d
C:\Users\CHRIST~1\AppData\Local\Temp\ccb3oWGE.s:4412   .text.mc_interface_fault_stop:00000000 $t
C:\Users\CHRIST~1\AppData\Local\Temp\ccb3oWGE.s:4420   .text.mc_interface_fault_stop:00000000 mc_interface_fault_stop
C:\Users\CHRIST~1\AppData\Local\Temp\ccb3oWGE.s:4446   .text.mc_interface_fault_stop:00000018 $d
C:\Users\CHRIST~1\AppData\Local\Temp\ccb3oWGE.s:4453   .text.mc_interface_mc_timer_isr:00000000 $t
ARM GAS  C:\Users\CHRIST~1\AppData\Local\Temp\ccb3oWGE.s 			page 466


C:\Users\CHRIST~1\AppData\Local\Temp\ccb3oWGE.s:4461   .text.mc_interface_mc_timer_isr:00000000 mc_interface_mc_timer_isr
C:\Users\CHRIST~1\AppData\Local\Temp\ccb3oWGE.s:4739   .text.mc_interface_mc_timer_isr:000001d4 $d
C:\Users\CHRIST~1\AppData\Local\Temp\ccb3oWGE.s:4746   .text.mc_interface_mc_timer_isr:000001e0 $t
C:\Users\CHRIST~1\AppData\Local\Temp\ccb3oWGE.s:4777   .text.mc_interface_mc_timer_isr:00000204 $d
C:\Users\CHRIST~1\AppData\Local\Temp\ccb3oWGE.s:4807   .text.mc_interface_mc_timer_isr:00000264 $t
C:\Users\CHRIST~1\AppData\Local\Temp\ccb3oWGE.s:5429   .text.mc_interface_mc_timer_isr:0000055c $d
C:\Users\CHRIST~1\AppData\Local\Temp\ccb3oWGE.s:5460   .text.mc_interface_mc_timer_isr:000005c0 $t
C:\Users\CHRIST~1\AppData\Local\Temp\ccb3oWGE.s:5657   .text.mc_interface_mc_timer_isr:000006dc $d
C:\Users\CHRIST~1\AppData\Local\Temp\ccb3oWGE.s:5680   .text.mc_interface_adc_inj_int_handler:00000000 $t
C:\Users\CHRIST~1\AppData\Local\Temp\ccb3oWGE.s:5688   .text.mc_interface_adc_inj_int_handler:00000000 mc_interface_adc_inj_int_handler
C:\Users\CHRIST~1\AppData\Local\Temp\ccb3oWGE.s:5709   .text.mc_interface_adc_inj_int_handler:00000010 $d
C:\Users\CHRIST~1\AppData\Local\Temp\ccb3oWGE.s:5727   .bss.ADC_curr_norm_value:00000000 ADC_curr_norm_value
C:\Users\CHRIST~1\AppData\Local\Temp\ccb3oWGE.s:5720   .bss.ADC_Value:00000000 ADC_Value
C:\Users\CHRIST~1\AppData\Local\Temp\ccb3oWGE.s:5716   .bss.ADC_Value:00000000 $d
C:\Users\CHRIST~1\AppData\Local\Temp\ccb3oWGE.s:5723   .bss.ADC_curr_norm_value:00000000 $d
C:\Users\CHRIST~1\AppData\Local\Temp\ccb3oWGE.s:5730   .bss.a.12082:00000000 $d
C:\Users\CHRIST~1\AppData\Local\Temp\ccb3oWGE.s:5734   .bss.a.12082:00000000 a.12082
C:\Users\CHRIST~1\AppData\Local\Temp\ccb3oWGE.s:5737   .bss.curr_diff_samples.12070:00000000 $d
C:\Users\CHRIST~1\AppData\Local\Temp\ccb3oWGE.s:5741   .bss.curr_diff_samples.12070:00000000 curr_diff_samples.12070
C:\Users\CHRIST~1\AppData\Local\Temp\ccb3oWGE.s:5744   .bss.curr_diff_sum.12069:00000000 $d
C:\Users\CHRIST~1\AppData\Local\Temp\ccb3oWGE.s:5748   .bss.curr_diff_sum.12069:00000000 curr_diff_sum.12069
C:\Users\CHRIST~1\AppData\Local\Temp\ccb3oWGE.s:5751   .bss.m_amp_seconds:00000000 $d
C:\Users\CHRIST~1\AppData\Local\Temp\ccb3oWGE.s:5755   .bss.m_amp_seconds:00000000 m_amp_seconds
C:\Users\CHRIST~1\AppData\Local\Temp\ccb3oWGE.s:5758   .bss.m_amp_seconds_charged:00000000 $d
C:\Users\CHRIST~1\AppData\Local\Temp\ccb3oWGE.s:5762   .bss.m_amp_seconds_charged:00000000 m_amp_seconds_charged
C:\Users\CHRIST~1\AppData\Local\Temp\ccb3oWGE.s:5765   .bss.m_conf:00000000 $d
C:\Users\CHRIST~1\AppData\Local\Temp\ccb3oWGE.s:5769   .bss.m_conf:00000000 m_conf
C:\Users\CHRIST~1\AppData\Local\Temp\ccb3oWGE.s:5772   .bss.m_cycles_running:00000000 $d
C:\Users\CHRIST~1\AppData\Local\Temp\ccb3oWGE.s:5776   .bss.m_cycles_running:00000000 m_cycles_running
C:\Users\CHRIST~1\AppData\Local\Temp\ccb3oWGE.s:5782   .bss.m_fault_now:00000000 m_fault_now
C:\Users\CHRIST~1\AppData\Local\Temp\ccb3oWGE.s:5783   .bss.m_fault_now:00000000 $d
C:\Users\CHRIST~1\AppData\Local\Temp\ccb3oWGE.s:5785   .bss.m_ignore_iterations:00000000 $d
C:\Users\CHRIST~1\AppData\Local\Temp\ccb3oWGE.s:5789   .bss.m_ignore_iterations:00000000 m_ignore_iterations
C:\Users\CHRIST~1\AppData\Local\Temp\ccb3oWGE.s:5792   .bss.m_input_current_iterations:00000000 $d
C:\Users\CHRIST~1\AppData\Local\Temp\ccb3oWGE.s:5796   .bss.m_input_current_iterations:00000000 m_input_current_iterations
C:\Users\CHRIST~1\AppData\Local\Temp\ccb3oWGE.s:5799   .bss.m_input_current_sum:00000000 $d
C:\Users\CHRIST~1\AppData\Local\Temp\ccb3oWGE.s:5803   .bss.m_input_current_sum:00000000 m_input_current_sum
C:\Users\CHRIST~1\AppData\Local\Temp\ccb3oWGE.s:5806   .bss.m_last_adc_duration_sample:00000000 $d
C:\Users\CHRIST~1\AppData\Local\Temp\ccb3oWGE.s:5810   .bss.m_last_adc_duration_sample:00000000 m_last_adc_duration_sample
C:\Users\CHRIST~1\AppData\Local\Temp\ccb3oWGE.s:5816   .bss.m_lock_enabled:00000000 m_lock_enabled
C:\Users\CHRIST~1\AppData\Local\Temp\ccb3oWGE.s:5817   .bss.m_lock_enabled:00000000 $d
C:\Users\CHRIST~1\AppData\Local\Temp\ccb3oWGE.s:5822   .bss.m_lock_override_once:00000000 m_lock_override_once
C:\Users\CHRIST~1\AppData\Local\Temp\ccb3oWGE.s:5823   .bss.m_lock_override_once:00000000 $d
C:\Users\CHRIST~1\AppData\Local\Temp\ccb3oWGE.s:5825   .bss.m_motor_current_iterations:00000000 $d
C:\Users\CHRIST~1\AppData\Local\Temp\ccb3oWGE.s:5829   .bss.m_motor_current_iterations:00000000 m_motor_current_iterations
C:\Users\CHRIST~1\AppData\Local\Temp\ccb3oWGE.s:5832   .bss.m_motor_current_sum:00000000 $d
C:\Users\CHRIST~1\AppData\Local\Temp\ccb3oWGE.s:5836   .bss.m_motor_current_sum:00000000 m_motor_current_sum
C:\Users\CHRIST~1\AppData\Local\Temp\ccb3oWGE.s:5839   .bss.m_motor_id_iterations:00000000 $d
C:\Users\CHRIST~1\AppData\Local\Temp\ccb3oWGE.s:5843   .bss.m_motor_id_iterations:00000000 m_motor_id_iterations
C:\Users\CHRIST~1\AppData\Local\Temp\ccb3oWGE.s:5846   .bss.m_motor_id_sum:00000000 $d
C:\Users\CHRIST~1\AppData\Local\Temp\ccb3oWGE.s:5850   .bss.m_motor_id_sum:00000000 m_motor_id_sum
C:\Users\CHRIST~1\AppData\Local\Temp\ccb3oWGE.s:5853   .bss.m_motor_iq_iterations:00000000 $d
C:\Users\CHRIST~1\AppData\Local\Temp\ccb3oWGE.s:5857   .bss.m_motor_iq_iterations:00000000 m_motor_iq_iterations
C:\Users\CHRIST~1\AppData\Local\Temp\ccb3oWGE.s:5860   .bss.m_motor_iq_sum:00000000 $d
C:\Users\CHRIST~1\AppData\Local\Temp\ccb3oWGE.s:5864   .bss.m_motor_iq_sum:00000000 m_motor_iq_sum
C:\Users\CHRIST~1\AppData\Local\Temp\ccb3oWGE.s:5867   .bss.m_position_set:00000000 $d
C:\Users\CHRIST~1\AppData\Local\Temp\ccb3oWGE.s:5871   .bss.m_position_set:00000000 m_position_set
ARM GAS  C:\Users\CHRIST~1\AppData\Local\Temp\ccb3oWGE.s 			page 467


C:\Users\CHRIST~1\AppData\Local\Temp\ccb3oWGE.s:5874   .bss.m_sample_int:00000000 $d
C:\Users\CHRIST~1\AppData\Local\Temp\ccb3oWGE.s:5878   .bss.m_sample_int:00000000 m_sample_int
C:\Users\CHRIST~1\AppData\Local\Temp\ccb3oWGE.s:5881   .bss.m_sample_len:00000000 $d
C:\Users\CHRIST~1\AppData\Local\Temp\ccb3oWGE.s:5885   .bss.m_sample_len:00000000 m_sample_len
C:\Users\CHRIST~1\AppData\Local\Temp\ccb3oWGE.s:5891   .bss.m_sample_mode:00000000 m_sample_mode
C:\Users\CHRIST~1\AppData\Local\Temp\ccb3oWGE.s:5892   .bss.m_sample_mode:00000000 $d
C:\Users\CHRIST~1\AppData\Local\Temp\ccb3oWGE.s:5897   .bss.m_sample_mode_last:00000000 m_sample_mode_last
C:\Users\CHRIST~1\AppData\Local\Temp\ccb3oWGE.s:5898   .bss.m_sample_mode_last:00000000 $d
C:\Users\CHRIST~1\AppData\Local\Temp\ccb3oWGE.s:5900   .bss.m_sample_now:00000000 $d
C:\Users\CHRIST~1\AppData\Local\Temp\ccb3oWGE.s:5904   .bss.m_sample_now:00000000 m_sample_now
C:\Users\CHRIST~1\AppData\Local\Temp\ccb3oWGE.s:5907   .bss.m_sample_trigger:00000000 $d
C:\Users\CHRIST~1\AppData\Local\Temp\ccb3oWGE.s:5911   .bss.m_sample_trigger:00000000 m_sample_trigger
C:\Users\CHRIST~1\AppData\Local\Temp\ccb3oWGE.s:5914   .bss.m_temp_fet:00000000 $d
C:\Users\CHRIST~1\AppData\Local\Temp\ccb3oWGE.s:5918   .bss.m_temp_fet:00000000 m_temp_fet
C:\Users\CHRIST~1\AppData\Local\Temp\ccb3oWGE.s:5921   .bss.m_temp_motor:00000000 $d
C:\Users\CHRIST~1\AppData\Local\Temp\ccb3oWGE.s:5925   .bss.m_temp_motor:00000000 m_temp_motor
C:\Users\CHRIST~1\AppData\Local\Temp\ccb3oWGE.s:5928   .bss.m_watt_seconds:00000000 $d
C:\Users\CHRIST~1\AppData\Local\Temp\ccb3oWGE.s:5932   .bss.m_watt_seconds:00000000 m_watt_seconds
C:\Users\CHRIST~1\AppData\Local\Temp\ccb3oWGE.s:5935   .bss.m_watt_seconds_charged:00000000 $d
C:\Users\CHRIST~1\AppData\Local\Temp\ccb3oWGE.s:5939   .bss.m_watt_seconds_charged:00000000 m_watt_seconds_charged
C:\Users\CHRIST~1\AppData\Local\Temp\ccb3oWGE.s:5942   .bss.pwn_done_func:00000000 $d
C:\Users\CHRIST~1\AppData\Local\Temp\ccb3oWGE.s:5946   .bss.pwn_done_func:00000000 pwn_done_func
C:\Users\CHRIST~1\AppData\Local\Temp\ccb3oWGE.s:5949   .bss.sample_send_thread_wa:00000000 $d
C:\Users\CHRIST~1\AppData\Local\Temp\ccb3oWGE.s:5953   .bss.sample_send_thread_wa:00000000 sample_send_thread_wa
C:\Users\CHRIST~1\AppData\Local\Temp\ccb3oWGE.s:5956   .bss.sample_send_tp:00000000 $d
C:\Users\CHRIST~1\AppData\Local\Temp\ccb3oWGE.s:5960   .bss.sample_send_tp:00000000 sample_send_tp
C:\Users\CHRIST~1\AppData\Local\Temp\ccb3oWGE.s:5963   .bss.timer_thread_wa:00000000 $d
C:\Users\CHRIST~1\AppData\Local\Temp\ccb3oWGE.s:5967   .bss.timer_thread_wa:00000000 timer_thread_wa
C:\Users\CHRIST~1\AppData\Local\Temp\ccb3oWGE.s:5970   .bss.wrong_voltage_iterations.12063:00000000 $d
C:\Users\CHRIST~1\AppData\Local\Temp\ccb3oWGE.s:5974   .bss.wrong_voltage_iterations.12063:00000000 wrong_voltage_iterations.12063
C:\Users\CHRIST~1\AppData\Local\Temp\ccb3oWGE.s:5977   .ram4:00000000 $d
C:\Users\CHRIST~1\AppData\Local\Temp\ccb3oWGE.s:5988   .ram4:00000000 m_curr0_samples
C:\Users\CHRIST~1\AppData\Local\Temp\ccb3oWGE.s:5992   .ram4:00000fa0 m_curr1_samples
C:\Users\CHRIST~1\AppData\Local\Temp\ccb3oWGE.s:5996   .ram4:00001f40 m_ph1_samples
C:\Users\CHRIST~1\AppData\Local\Temp\ccb3oWGE.s:6000   .ram4:00002ee0 m_ph2_samples
C:\Users\CHRIST~1\AppData\Local\Temp\ccb3oWGE.s:6004   .ram4:00003e80 m_ph3_samples
C:\Users\CHRIST~1\AppData\Local\Temp\ccb3oWGE.s:6008   .ram4:00004e20 m_vzero_samples
C:\Users\CHRIST~1\AppData\Local\Temp\ccb3oWGE.s:6012   .ram4:00005dc0 m_curr_fir_samples
C:\Users\CHRIST~1\AppData\Local\Temp\ccb3oWGE.s:6016   .ram4:00006d60 m_f_sw_samples
C:\Users\CHRIST~1\AppData\Local\Temp\ccb3oWGE.s:6020   .ram4:00007d00 m_status_samples
C:\Users\CHRIST~1\AppData\Local\Temp\ccb3oWGE.s:6024   .ram4:000084d0 m_phase_samples
C:\Users\CHRIST~1\AppData\Local\Temp\ccb3oWGE.s:6027   .rodata.CSWTCH.177:00000000 $d
C:\Users\CHRIST~1\AppData\Local\Temp\ccb3oWGE.s:6031   .rodata.CSWTCH.177:00000000 CSWTCH.177
C:\Users\CHRIST~1\AppData\Local\Temp\ccb3oWGE.s:6040   .rodata.mc_interface_fault_to_string.str1.4:00000000 $d
C:\Users\CHRIST~1\AppData\Local\Temp\ccb3oWGE.s:6044   .rodata.sample_send_thread.str1.4:00000000 $d
C:\Users\CHRIST~1\AppData\Local\Temp\ccb3oWGE.s:6048   .rodata.str1.4:00000000 $d
C:\Users\CHRIST~1\AppData\Local\Temp\ccb3oWGE.s:6067   .rodata.timer_thread.str1.4:00000000 $d

UNDEFINED SYMBOLS
chEvtWaitAny
buffer_append_float32_auto
commands_send_packet
ch
memcpy
chThdCreateStatic
mcpwm_foc_init
encoder_init_as5047p_spi
ARM GAS  C:\Users\CHRIST~1\AppData\Local\Temp\ccb3oWGE.s 			page 468


mcpwm_init
encoder_init_abi
mcpwm_foc_is_dccal_done
mcpwm_is_dccal_done
mcpwm_foc_get_state
mcpwm_get_state
mcpwm_foc_get_duty_cycle_set
mcpwm_get_duty_cycle_set
mcpwm_foc_get_duty_cycle_now
mcpwm_get_duty_cycle_now
mcpwm_foc_get_sampling_frequency_now
mcpwm_get_switching_frequency_now
mcpwm_foc_get_rpm
mcpwm_get_rpm
mcpwm_foc_get_tot_current
mcpwm_get_tot_current
mcpwm_foc_get_tot_current_filtered
mcpwm_get_tot_current_filtered
mcpwm_foc_get_tot_current_directional
mcpwm_get_tot_current_directional
mcpwm_foc_get_tot_current_directional_filtered
mcpwm_get_tot_current_directional_filtered
mcpwm_foc_get_tot_current_in
mcpwm_get_tot_current_in
mcpwm_foc_get_tot_current_in_filtered
mcpwm_get_tot_current_in_filtered
mcpwm_foc_get_tachometer_value
mcpwm_get_tachometer_value
mcpwm_foc_stop_pwm
mcpwm_stop_pwm
utils_sys_lock_cnt
utils_sys_unlock_cnt
mcpwm_get_comm_step
logf
terminal_add_fault_data
utils_map
utils_min_abs
mcpwm_foc_set_configuration
encoder_deinit
encoder_set_counts
mcpwm_deinit
mcpwm_set_configuration
mcpwm_foc_deinit
chThdSleep
mcpwm_foc_get_tachometer_abs_value
mcpwm_get_tachometer_abs_value
mcpwm_foc_get_last_inj_adc_isr_duration
mcpwm_get_last_inj_adc_isr_duration
mcpwm_foc_get_pid_pos_now
encoder_read_deg
chEvtSignal
mcpwm_foc_init_done
mcpwm_init_done
mcpwm_foc_set_duty
mcpwm_set_duty
mcpwm_foc_set_duty_noramp
mcpwm_set_duty_noramp
ARM GAS  C:\Users\CHRIST~1\AppData\Local\Temp\ccb3oWGE.s 			page 469


mcpwm_foc_set_pid_speed
mcpwm_set_pid_speed
mcpwm_foc_set_pid_pos
mcpwm_set_pid_pos
mcpwm_foc_set_current
mcpwm_set_current
mcpwm_foc_set_brake_current
mcpwm_set_brake_current
mcpwm_foc_set_handbrake
ledpwm_update_pwm
mcpwm_foc_get_id
mcpwm_foc_get_iq
mcpwm_read_hall_phase
chEvtSignalI
mcpwm_foc_get_abs_motor_current
mcpwm_foc_get_abs_motor_current_filtered
mcpwm_vzero
mcpwm_foc_get_phase
mcpwm_detect_currents
mcpwm_detect_currents_diff
mcpwm_detect_voltages
mcpwm_adc_inj_int_handler
