ARM GAS  C:\Users\CHRIST~1\AppData\Local\Temp\ccb3oWGE.s 			page 1


   1              		.cpu cortex-m4
   2              		.eabi_attribute 27, 1
   3              		.eabi_attribute 28, 1
   4              		.eabi_attribute 20, 1
   5              		.eabi_attribute 21, 1
   6              		.eabi_attribute 23, 3
   7              		.eabi_attribute 24, 1
   8              		.eabi_attribute 25, 1
   9              		.eabi_attribute 26, 1
  10              		.eabi_attribute 30, 2
  11              		.eabi_attribute 34, 1
  12              		.eabi_attribute 18, 4
  13              		.file	"mc_interface.c"
  14              		.text
  15              	.Ltext0:
  16              		.cfi_sections	.debug_frame
  17              		.section	.text.sample_send_thread,"ax",%progbits
  18              		.align	1
  19              		.p2align 4,,15
  20              		.syntax unified
  21              		.thumb
  22              		.thumb_func
  23              		.fpu fpv4-sp-d16
  24              		.type	sample_send_thread, %function
  25              	sample_send_thread:
  26              	.LFB311:
  27              		.file 1 "mc_interface.c"
  28              		.loc 1 1496 0
  29              		.cfi_startproc
  30              		@ args = 0, pretend = 0, frame = 48
  31              		@ frame_needed = 0, uses_anonymous_args = 0
  32              	.LVL0:
  33 0000 2DE9F04F 		push	{r4, r5, r6, r7, r8, r9, r10, fp, lr}
  34              		.cfi_def_cfa_offset 36
  35              		.cfi_offset 4, -36
  36              		.cfi_offset 5, -32
  37              		.cfi_offset 6, -28
  38              		.cfi_offset 7, -24
  39              		.cfi_offset 8, -20
  40              		.cfi_offset 9, -16
  41              		.cfi_offset 10, -12
  42              		.cfi_offset 11, -8
  43              		.cfi_offset 14, -4
  44              	.LBB109:
  45              	.LBB110:
  46              		.file 2 "ChibiOS_3.0.2/os/rt/include/chregistry.h"
  47              		.loc 2 135 0
  48 0004 7B4B     		ldr	r3, .L21
  49              	.LBE110:
  50              	.LBE109:
  51              		.loc 1 1501 0
  52 0006 7C4A     		ldr	r2, .L21+4
  53              	.LBB113:
  54              	.LBB111:
  55              		.loc 2 135 0
  56 0008 9B69     		ldr	r3, [r3, #24]
  57 000a 7C49     		ldr	r1, .L21+8
ARM GAS  C:\Users\CHRIST~1\AppData\Local\Temp\ccb3oWGE.s 			page 2


  58 000c 7C4E     		ldr	r6, .L21+12
  59 000e DFF828B2 		ldr	fp, .L21+68
  60 0012 DFF828A2 		ldr	r10, .L21+72
  61              	.LBE111:
  62              	.LBE113:
  63              		.loc 1 1496 0
  64 0016 2DED068B 		vpush.64	{d8, d9, d10}
  65              		.cfi_def_cfa_offset 60
  66              		.cfi_offset 80, -60
  67              		.cfi_offset 81, -56
  68              		.cfi_offset 82, -52
  69              		.cfi_offset 83, -48
  70              		.cfi_offset 84, -44
  71              		.cfi_offset 85, -40
  72              	.LBB114:
  73              	.LBB115:
  74              	.LBB116:
  75              		.loc 1 1541 0
  76 001a DFED7A9A 		vldr.32	s19, .L21+16
  77              		.loc 1 1543 0
  78 001e 9FED7A9A 		vldr.32	s18, .L21+20
  79 0022 DFED7A8A 		vldr.32	s17, .L21+24
  80 0026 9FED7A8A 		vldr.32	s16, .L21+28
  81              		.loc 1 1547 0
  82 002a 9FED7AAA 		vldr.32	s20, .L21+32
  83              	.LBE116:
  84              	.LBE115:
  85              	.LBE114:
  86              	.LBB124:
  87              	.LBB112:
  88              		.loc 2 135 0
  89 002e 9961     		str	r1, [r3, #24]
  90              	.LVL1:
  91              	.LBE112:
  92              	.LBE124:
  93              		.loc 1 1496 0
  94 0030 8DB0     		sub	sp, sp, #52
  95              		.cfi_def_cfa_offset 112
  96              		.loc 1 1501 0
  97 0032 1360     		str	r3, [r2]
  98              	.LVL2:
  99              	.L13:
 100              	.LBB125:
 101              		.loc 1 1504 0
 102 0034 0120     		movs	r0, #1
 103 0036 FFF7FEFF 		bl	chEvtWaitAny
 104              	.LVL3:
 105              		.loc 1 1509 0
 106 003a 774B     		ldr	r3, .L21+36
 107 003c 1B78     		ldrb	r3, [r3]	@ zero_extendqisi2
 108 003e 013B     		subs	r3, r3, #1
 109 0040 052B     		cmp	r3, #5
 110 0042 F7D8     		bhi	.L13
 111 0044 DFE803F0 		tbb	[pc, r3]
 112              	.L4:
 113 0048 03       		.byte	(.L3-.L4)/2
 114 0049 03       		.byte	(.L3-.L4)/2
ARM GAS  C:\Users\CHRIST~1\AppData\Local\Temp\ccb3oWGE.s 			page 3


 115 004a CC       		.byte	(.L5-.L4)/2
 116 004b CC       		.byte	(.L5-.L4)/2
 117 004c CC       		.byte	(.L5-.L4)/2
 118 004d CC       		.byte	(.L5-.L4)/2
 119              		.p2align 1
 120              	.L3:
 121              		.loc 1 1512 0
 122 004e 734B     		ldr	r3, .L21+40
 123 0050 D3F80080 		ldr	r8, [r3]
 124              	.LVL4:
 125              	.LBB121:
 126              		.loc 1 1527 0
 127 0054 B8F1000F 		cmp	r8, #0
 128              	.LBE121:
 129              		.loc 1 1507 0
 130 0058 C8BF     		it	gt
 131 005a 4FF00009 		movgt	r9, #0
 132              	.LBB122:
 133              		.loc 1 1527 0
 134 005e E9DD     		ble	.L13
 135              	.LVL5:
 136              	.L6:
 137              	.LBB117:
 138              		.loc 1 1532 0
 139 0060 B9F5FA6F 		cmp	r9, #2000
 140              	.LBE117:
 141              	.LBE122:
 142              		.loc 1 1519 0
 143 0064 4FF00007 		mov	r7, #0
 144              	.LVL6:
 145              	.LBB123:
 146              	.LBB118:
 147              		.loc 1 1530 0
 148 0068 4C46     		mov	r4, r9
 149              	.LVL7:
 150              		.loc 1 1532 0
 151 006a C0F2B180 		blt	.L7
 152              	.L8:
 153              		.loc 1 1533 0
 154 006e A4F5FA64 		sub	r4, r4, #2000
 155              	.LVL8:
 156              		.loc 1 1532 0
 157 0072 B4F5FA6F 		cmp	r4, #2000
 158 0076 FADA     		bge	.L8
 159              	.L9:
 160              		.loc 1 1541 0 discriminator 2
 161 0078 36F81430 		ldrh	r3, [r6, r4, lsl #1]
 162 007c 1BB2     		sxth	r3, r3
 163 007e 07EE903A 		vmov	s15, r3	@ int
 164 0082 B8EEE70A 		vcvt.f32.s32	s0, s15
 165              		.loc 1 1540 0 discriminator 2
 166 0086 0122     		movs	r2, #1
 167              		.loc 1 1542 0 discriminator 2
 168 0088 04FA02F5 		lsl	r5, r4, r2
 169              		.loc 1 1540 0 discriminator 2
 170 008c 1323     		movs	r3, #19
 171              		.loc 1 1541 0 discriminator 2
ARM GAS  C:\Users\CHRIST~1\AppData\Local\Temp\ccb3oWGE.s 			page 4


 172 008e 20EE290A 		vmul.f32	s0, s0, s19
 173 0092 01A9     		add	r1, sp, #4
 174 0094 02A8     		add	r0, sp, #8
 175              		.loc 1 1540 0 discriminator 2
 176 0096 0192     		str	r2, [sp, #4]
 177 0098 8DF80830 		strb	r3, [sp, #8]
 178              		.loc 1 1541 0 discriminator 2
 179 009c FFF7FEFF 		bl	buffer_append_float32_auto
 180              	.LVL9:
 181              		.loc 1 1542 0 discriminator 2
 182 00a0 7319     		adds	r3, r6, r5
 183 00a2 01A9     		add	r1, sp, #4
 184 00a4 B3F8A03F 		ldrh	r3, [r3, #4000]
 185 00a8 1BB2     		sxth	r3, r3
 186 00aa 07EE903A 		vmov	s15, r3	@ int
 187 00ae B8EEE70A 		vcvt.f32.s32	s0, s15
 188 00b2 02A8     		add	r0, sp, #8
 189 00b4 20EE290A 		vmul.f32	s0, s0, s19
 190 00b8 FFF7FEFF 		bl	buffer_append_float32_auto
 191              	.LVL10:
 192              		.loc 1 1543 0 discriminator 2
 193 00bc 0BEB0503 		add	r3, fp, r5
 194 00c0 01A9     		add	r1, sp, #4
 195 00c2 B3F8483E 		ldrh	r3, [r3, #3656]
 196 00c6 1BB2     		sxth	r3, r3
 197 00c8 00EE103A 		vmov	s0, r3	@ int
 198 00cc B8EEC00A 		vcvt.f32.s32	s0, s0
 199 00d0 02A8     		add	r0, sp, #8
 200 00d2 20EE090A 		vmul.f32	s0, s0, s18
 201              	.LBE118:
 202              		.loc 1 1527 0 discriminator 2
 203 00d6 0137     		adds	r7, r7, #1
 204              	.LVL11:
 205              	.LBB119:
 206              		.loc 1 1543 0 discriminator 2
 207 00d8 20EE280A 		vmul.f32	s0, s0, s17
 208 00dc 09F10109 		add	r9, r9, #1
 209 00e0 20EE080A 		vmul.f32	s0, s0, s16
 210 00e4 FFF7FEFF 		bl	buffer_append_float32_auto
 211              	.LVL12:
 212              		.loc 1 1544 0 discriminator 2
 213 00e8 0AEB0503 		add	r3, r10, r5
 214 00ec 01A9     		add	r1, sp, #4
 215 00ee B3F8F03C 		ldrh	r3, [r3, #3312]
 216 00f2 1BB2     		sxth	r3, r3
 217 00f4 00EE103A 		vmov	s0, r3	@ int
 218 00f8 B8EEC00A 		vcvt.f32.s32	s0, s0
 219 00fc 02A8     		add	r0, sp, #8
 220 00fe 20EE090A 		vmul.f32	s0, s0, s18
 221 0102 20EE280A 		vmul.f32	s0, s0, s17
 222 0106 20EE080A 		vmul.f32	s0, s0, s16
 223 010a FFF7FEFF 		bl	buffer_append_float32_auto
 224              	.LVL13:
 225              		.loc 1 1545 0 discriminator 2
 226 010e 444B     		ldr	r3, .L21+44
 227 0110 2B44     		add	r3, r3, r5
 228 0112 01A9     		add	r1, sp, #4
ARM GAS  C:\Users\CHRIST~1\AppData\Local\Temp\ccb3oWGE.s 			page 5


 229 0114 B3F8983B 		ldrh	r3, [r3, #2968]
 230 0118 1BB2     		sxth	r3, r3
 231 011a 00EE103A 		vmov	s0, r3	@ int
 232 011e B8EEC00A 		vcvt.f32.s32	s0, s0
 233 0122 02A8     		add	r0, sp, #8
 234 0124 20EE090A 		vmul.f32	s0, s0, s18
 235 0128 20EE280A 		vmul.f32	s0, s0, s17
 236 012c 20EE080A 		vmul.f32	s0, s0, s16
 237 0130 FFF7FEFF 		bl	buffer_append_float32_auto
 238              	.LVL14:
 239              		.loc 1 1546 0 discriminator 2
 240 0134 3B4B     		ldr	r3, .L21+48
 241 0136 2B44     		add	r3, r3, r5
 242 0138 01A9     		add	r1, sp, #4
 243 013a B3F8403A 		ldrh	r3, [r3, #2624]
 244 013e 1BB2     		sxth	r3, r3
 245 0140 00EE103A 		vmov	s0, r3	@ int
 246 0144 B8EEC00A 		vcvt.f32.s32	s0, s0
 247 0148 02A8     		add	r0, sp, #8
 248 014a 20EE090A 		vmul.f32	s0, s0, s18
 249 014e 20EE280A 		vmul.f32	s0, s0, s17
 250 0152 20EE080A 		vmul.f32	s0, s0, s16
 251 0156 FFF7FEFF 		bl	buffer_append_float32_auto
 252              	.LVL15:
 253              		.loc 1 1547 0 discriminator 2
 254 015a 334B     		ldr	r3, .L21+52
 255 015c 2B44     		add	r3, r3, r5
 256 015e 01A9     		add	r1, sp, #4
 257 0160 B3F8E838 		ldrh	r3, [r3, #2280]
 258 0164 1BB2     		sxth	r3, r3
 259 0166 07EE903A 		vmov	s15, r3	@ int
 260 016a B8EEE70A 		vcvt.f32.s32	s0, s15
 261 016e 02A8     		add	r0, sp, #8
 262 0170 80EE0A0A 		vdiv.f32	s0, s0, s20
 263 0174 FFF7FEFF 		bl	buffer_append_float32_auto
 264              	.LVL16:
 265              		.loc 1 1548 0 discriminator 2
 266 0178 2C4B     		ldr	r3, .L21+56
 267 017a 1D44     		add	r5, r5, r3
 268 017c 01A9     		add	r1, sp, #4
 269 017e B5F89037 		ldrh	r3, [r5, #1936]
 270 0182 1BB2     		sxth	r3, r3
 271 0184 02A8     		add	r0, sp, #8
 272 0186 07EE903A 		vmov	s15, r3	@ int
 273 018a F8EEE77A 		vcvt.f32.s32	s15, s15
 274 018e B2EE040A 		vmov.f32	s0, #1.0e+1
 275 0192 27EE800A 		vmul.f32	s0, s15, s0
 276 0196 FFF7FEFF 		bl	buffer_append_float32_auto
 277              	.LVL17:
 278              		.loc 1 1549 0 discriminator 2
 279 019a 254A     		ldr	r2, .L21+60
 280 019c 019B     		ldr	r3, [sp, #4]
 281 019e 1444     		add	r4, r4, r2
 282              	.LVL18:
 283 01a0 0CAA     		add	r2, sp, #48
 284 01a2 1A44     		add	r2, r2, r3
 285 01a4 94F83816 		ldrb	r1, [r4, #1592]	@ zero_extendqisi2
ARM GAS  C:\Users\CHRIST~1\AppData\Local\Temp\ccb3oWGE.s 			page 6


 286 01a8 02F8281C 		strb	r1, [r2, #-40]
 287              		.loc 1 1550 0 discriminator 2
 288 01ac 0233     		adds	r3, r3, #2
 289 01ae 94F8084E 		ldrb	r4, [r4, #3592]	@ zero_extendqisi2
 290              	.LVL19:
 291 01b2 02F8274C 		strb	r4, [r2, #-39]
 292              		.loc 1 1552 0 discriminator 2
 293 01b6 1946     		mov	r1, r3
 294 01b8 02A8     		add	r0, sp, #8
 295              		.loc 1 1550 0 discriminator 2
 296 01ba 0193     		str	r3, [sp, #4]
 297              		.loc 1 1552 0 discriminator 2
 298 01bc FFF7FEFF 		bl	commands_send_packet
 299              	.LVL20:
 300              	.LBE119:
 301              		.loc 1 1527 0 discriminator 2
 302 01c0 4745     		cmp	r7, r8
 303 01c2 BFF637AF 		bge	.L13
 304              	.LBB120:
 305              		.loc 1 1532 0
 306 01c6 B9F5FA6F 		cmp	r9, #2000
 307              		.loc 1 1530 0
 308 01ca 4C46     		mov	r4, r9
 309              	.LVL21:
 310              		.loc 1 1532 0
 311 01cc BFF64FAF 		bge	.L8
 312              	.L7:
 313              		.loc 1 1536 0
 314 01d0 B9F1000F 		cmp	r9, #0
 315 01d4 BFF650AF 		bge	.L9
 316              	.L10:
 317              	.LVL22:
 318 01d8 14F5FA64 		adds	r4, r4, #2000
 319              	.LVL23:
 320 01dc FCD4     		bmi	.L10
 321 01de 4BE7     		b	.L9
 322              	.LVL24:
 323              	.L5:
 324              	.LBE120:
 325              	.LBE123:
 326              		.loc 1 1520 0
 327 01e0 144B     		ldr	r3, .L21+64
 328 01e2 0E4A     		ldr	r2, .L21+40
 329 01e4 1B68     		ldr	r3, [r3]
 330 01e6 1268     		ldr	r2, [r2]
 331              		.loc 1 1519 0
 332 01e8 4FF4FA68 		mov	r8, #2000
 333              		.loc 1 1520 0
 334 01ec A3EB0209 		sub	r9, r3, r2
 335              	.LVL25:
 336 01f0 36E7     		b	.L6
 337              	.L22:
 338 01f2 00BF     		.align	2
 339              	.L21:
 340 01f4 00000000 		.word	ch
 341 01f8 00000000 		.word	.LANCHOR0
 342 01fc 00000000 		.word	.LC0
ARM GAS  C:\Users\CHRIST~1\AppData\Local\Temp\ccb3oWGE.s 			page 7


 343 0200 00000000 		.word	.LANCHOR4
 344 0204 500AA53D 		.word	1034226256
 345 0208 00008039 		.word	964689920
 346 020c 33335340 		.word	1079194419
 347 0210 74D19541 		.word	1100337524
 348 0214 A48BC642 		.word	1120308132
 349 0218 00000000 		.word	.LANCHOR1
 350 021c 00000000 		.word	.LANCHOR2
 351 0220 E8320000 		.word	.LANCHOR7
 352 0224 E0430000 		.word	.LANCHOR8
 353 0228 D8540000 		.word	.LANCHOR9
 354 022c D0650000 		.word	.LANCHOR10
 355 0230 C8760000 		.word	.LANCHOR11
 356 0234 00000000 		.word	.LANCHOR3
 357 0238 F8100000 		.word	.LANCHOR5
 358 023c F0210000 		.word	.LANCHOR6
 359              	.LBE125:
 360              		.cfi_endproc
 361              	.LFE311:
 362              		.size	sample_send_thread, .-sample_send_thread
 363              		.section	.text.mc_interface_init,"ax",%progbits
 364              		.align	1
 365              		.p2align 4,,15
 366              		.global	mc_interface_init
 367              		.syntax unified
 368              		.thumb
 369              		.thumb_func
 370              		.fpu fpv4-sp-d16
 371              		.type	mc_interface_init, %function
 372              	mc_interface_init:
 373              	.LFB256:
 374              		.loc 1 99 0
 375              		.cfi_startproc
 376              		@ args = 0, pretend = 0, frame = 0
 377              		@ frame_needed = 0, uses_anonymous_args = 0
 378              	.LVL26:
 379 0000 F0B5     		push	{r4, r5, r6, r7, lr}
 380              		.cfi_def_cfa_offset 20
 381              		.cfi_offset 4, -20
 382              		.cfi_offset 5, -16
 383              		.cfi_offset 6, -12
 384              		.cfi_offset 7, -8
 385              		.cfi_offset 14, -4
 386              		.loc 1 100 0
 387 0002 3D4D     		ldr	r5, .L34
 388              		.loc 1 106 0
 389 0004 3D4E     		ldr	r6, .L34+4
 390              		.loc 1 123 0
 391 0006 3E4F     		ldr	r7, .L34+8
 392              		.loc 1 99 0
 393 0008 83B0     		sub	sp, sp, #12
 394              		.cfi_def_cfa_offset 32
 395              		.loc 1 100 0
 396 000a 0146     		mov	r1, r0
 397 000c 4FF4BA72 		mov	r2, #372
 398 0010 2846     		mov	r0, r5
 399              	.LVL27:
ARM GAS  C:\Users\CHRIST~1\AppData\Local\Temp\ccb3oWGE.s 			page 8


 400 0012 FFF7FEFF 		bl	memcpy
 401              	.LVL28:
 402              		.loc 1 103 0
 403 0016 3B48     		ldr	r0, .L34+12
 404              		.loc 1 104 0
 405 0018 3B49     		ldr	r1, .L34+16
 406              		.loc 1 105 0
 407 001a 3C4A     		ldr	r2, .L34+20
 408              		.loc 1 101 0
 409 001c 0024     		movs	r4, #0
 410              		.loc 1 131 0
 411 001e 0094     		str	r4, [sp]
 412              		.loc 1 103 0
 413 0020 0460     		str	r4, [r0]
 414              		.loc 1 107 0
 415 0022 3B48     		ldr	r0, .L34+24
 416              		.loc 1 104 0
 417 0024 0C70     		strb	r4, [r1]
 418              		.loc 1 106 0
 419 0026 0023     		movs	r3, #0
 420              		.loc 1 105 0
 421 0028 1470     		strb	r4, [r2]
 422              		.loc 1 108 0
 423 002a 3A49     		ldr	r1, .L34+28
 424              		.loc 1 109 0
 425 002c 3A4A     		ldr	r2, .L34+32
 426              		.loc 1 106 0
 427 002e 3360     		str	r3, [r6]	@ float
 428              		.loc 1 107 0
 429 0030 0360     		str	r3, [r0]	@ float
 430              		.loc 1 110 0
 431 0032 3A4E     		ldr	r6, .L34+36
 432              		.loc 1 111 0
 433 0034 3A48     		ldr	r0, .L34+40
 434              		.loc 1 108 0
 435 0036 0B60     		str	r3, [r1]	@ float
 436              		.loc 1 109 0
 437 0038 1360     		str	r3, [r2]	@ float
 438              		.loc 1 112 0
 439 003a 3A49     		ldr	r1, .L34+44
 440              		.loc 1 113 0
 441 003c 3A4A     		ldr	r2, .L34+48
 442              		.loc 1 110 0
 443 003e 3360     		str	r3, [r6]	@ float
 444              		.loc 1 111 0
 445 0040 0360     		str	r3, [r0]	@ float
 446              		.loc 1 114 0
 447 0042 3A4E     		ldr	r6, .L34+52
 448              		.loc 1 115 0
 449 0044 3A48     		ldr	r0, .L34+56
 450              		.loc 1 112 0
 451 0046 0B60     		str	r3, [r1]	@ float
 452              		.loc 1 113 0
 453 0048 1360     		str	r3, [r2]	@ float
 454              		.loc 1 116 0
 455 004a 3A49     		ldr	r1, .L34+60
 456              		.loc 1 117 0
ARM GAS  C:\Users\CHRIST~1\AppData\Local\Temp\ccb3oWGE.s 			page 9


 457 004c 3A4A     		ldr	r2, .L34+64
 458              		.loc 1 114 0
 459 004e 3360     		str	r3, [r6]	@ float
 460              		.loc 1 115 0
 461 0050 0360     		str	r3, [r0]	@ float
 462              		.loc 1 118 0
 463 0052 3A4E     		ldr	r6, .L34+68
 464              		.loc 1 119 0
 465 0054 3A48     		ldr	r0, .L34+72
 466              		.loc 1 116 0
 467 0056 0B60     		str	r3, [r1]	@ float
 468              		.loc 1 117 0
 469 0058 1360     		str	r3, [r2]	@ float
 470              		.loc 1 120 0
 471 005a 3A49     		ldr	r1, .L34+76
 472              		.loc 1 121 0
 473 005c 3A4A     		ldr	r2, .L34+80
 474              		.loc 1 118 0
 475 005e 3360     		str	r3, [r6]	@ float
 476              		.loc 1 123 0
 477 0060 4FF47A7C 		mov	ip, #1000
 478              		.loc 1 119 0
 479 0064 0360     		str	r3, [r0]	@ float
 480              		.loc 1 125 0
 481 0066 394E     		ldr	r6, .L34+84
 482              		.loc 1 124 0
 483 0068 3948     		ldr	r0, .L34+88
 484              		.loc 1 120 0
 485 006a 0B60     		str	r3, [r1]	@ float
 486              		.loc 1 121 0
 487 006c 1360     		str	r3, [r2]	@ float
 488              		.loc 1 123 0
 489 006e C7F800C0 		str	ip, [r7]
 490              		.loc 1 124 0
 491 0072 0127     		movs	r7, #1
 492 0074 0760     		str	r7, [r0]
 493              		.loc 1 126 0
 494 0076 374B     		ldr	r3, .L34+92
 495              		.loc 1 125 0
 496 0078 3460     		str	r4, [r6]
 497              		.loc 1 127 0
 498 007a 374A     		ldr	r2, .L34+96
 499              		.loc 1 101 0
 500 007c 3749     		ldr	r1, .L34+100
 501              		.loc 1 102 0
 502 007e 3848     		ldr	r0, .L34+104
 503              		.loc 1 128 0
 504 0080 384E     		ldr	r6, .L34+108
 505              		.loc 1 126 0
 506 0082 1C60     		str	r4, [r3]
 507              		.loc 1 101 0
 508 0084 0C70     		strb	r4, [r1]
 509              		.loc 1 127 0
 510 0086 1470     		strb	r4, [r2]
 511              		.loc 1 131 0
 512 0088 374B     		ldr	r3, .L34+112
 513              		.loc 1 102 0
ARM GAS  C:\Users\CHRIST~1\AppData\Local\Temp\ccb3oWGE.s 			page 10


 514 008a 0460     		str	r4, [r0]
 515              		.loc 1 131 0
 516 008c 4022     		movs	r2, #64
 517 008e 4FF4B361 		mov	r1, #1432
 518 0092 3648     		ldr	r0, .L34+116
 519              		.loc 1 128 0
 520 0094 3470     		strb	r4, [r6]
 521              		.loc 1 131 0
 522 0096 FFF7FEFF 		bl	chThdCreateStatic
 523              	.LVL29:
 524              		.loc 1 132 0
 525 009a 354B     		ldr	r3, .L34+120
 526 009c 0094     		str	r4, [sp]
 527 009e 3548     		ldr	r0, .L34+124
 528 00a0 3F22     		movs	r2, #63
 529 00a2 4FF4B361 		mov	r1, #1432
 530 00a6 FFF7FEFF 		bl	chThdCreateStatic
 531              	.LVL30:
 532              		.loc 1 141 0
 533 00aa 95F85C31 		ldrb	r3, [r5, #348]	@ zero_extendqisi2
 534 00ae DBB2     		uxtb	r3, r3
 535 00b0 BB42     		cmp	r3, r7
 536 00b2 1BD0     		beq	.L25
 537 00b4 022B     		cmp	r3, #2
 538 00b6 0BD0     		beq	.L26
 539              	.L24:
 540              		.loc 1 156 0
 541 00b8 AB78     		ldrb	r3, [r5, #2]	@ zero_extendqisi2
 542 00ba DBB2     		uxtb	r3, r3
 543 00bc 012B     		cmp	r3, #1
 544 00be 0DD9     		bls	.L28
 545              	.L33:
 546 00c0 022B     		cmp	r3, #2
 547 00c2 11D1     		bne	.L32
 548              		.loc 1 163 0
 549 00c4 0C48     		ldr	r0, .L34
 550              		.loc 1 169 0
 551 00c6 03B0     		add	sp, sp, #12
 552              		.cfi_remember_state
 553              		.cfi_def_cfa_offset 20
 554              		@ sp needed
 555 00c8 BDE8F040 		pop	{r4, r5, r6, r7, lr}
 556              		.cfi_restore 14
 557              		.cfi_restore 7
 558              		.cfi_restore 6
 559              		.cfi_restore 5
 560              		.cfi_restore 4
 561              		.cfi_def_cfa_offset 0
 562              		.loc 1 163 0
 563 00cc FFF7FEBF 		b	mcpwm_foc_init
 564              	.LVL31:
 565              	.L26:
 566              		.cfi_restore_state
 567              		.loc 1 147 0
 568 00d0 FFF7FEFF 		bl	encoder_init_as5047p_spi
 569              	.LVL32:
 570              		.loc 1 156 0
ARM GAS  C:\Users\CHRIST~1\AppData\Local\Temp\ccb3oWGE.s 			page 11


 571 00d4 AB78     		ldrb	r3, [r5, #2]	@ zero_extendqisi2
 572 00d6 DBB2     		uxtb	r3, r3
 573 00d8 012B     		cmp	r3, #1
 574 00da F1D8     		bhi	.L33
 575              	.L28:
 576              		.loc 1 159 0
 577 00dc 0648     		ldr	r0, .L34
 578              		.loc 1 169 0
 579 00de 03B0     		add	sp, sp, #12
 580              		.cfi_remember_state
 581              		.cfi_def_cfa_offset 20
 582              		@ sp needed
 583 00e0 BDE8F040 		pop	{r4, r5, r6, r7, lr}
 584              		.cfi_restore 14
 585              		.cfi_restore 7
 586              		.cfi_restore 6
 587              		.cfi_restore 5
 588              		.cfi_restore 4
 589              		.cfi_def_cfa_offset 0
 590              		.loc 1 159 0
 591 00e4 FFF7FEBF 		b	mcpwm_init
 592              	.LVL33:
 593              	.L32:
 594              		.cfi_restore_state
 595              		.loc 1 169 0
 596 00e8 03B0     		add	sp, sp, #12
 597              		.cfi_remember_state
 598              		.cfi_def_cfa_offset 20
 599              		@ sp needed
 600 00ea F0BD     		pop	{r4, r5, r6, r7, pc}
 601              	.L25:
 602              		.cfi_restore_state
 603              		.loc 1 143 0
 604 00ec D5F85801 		ldr	r0, [r5, #344]
 605 00f0 FFF7FEFF 		bl	encoder_init_abi
 606              	.LVL34:
 607              		.loc 1 144 0
 608 00f4 E0E7     		b	.L24
 609              	.L35:
 610 00f6 00BF     		.align	2
 611              	.L34:
 612 00f8 00000000 		.word	.LANCHOR12
 613 00fc 00000000 		.word	.LANCHOR18
 614 0100 00000000 		.word	.LANCHOR2
 615 0104 00000000 		.word	.LANCHOR15
 616 0108 00000000 		.word	.LANCHOR16
 617 010c 00000000 		.word	.LANCHOR17
 618 0110 00000000 		.word	.LANCHOR19
 619 0114 00000000 		.word	.LANCHOR20
 620 0118 00000000 		.word	.LANCHOR21
 621 011c 00000000 		.word	.LANCHOR22
 622 0120 00000000 		.word	.LANCHOR23
 623 0124 00000000 		.word	.LANCHOR24
 624 0128 00000000 		.word	.LANCHOR25
 625 012c 00000000 		.word	.LANCHOR26
 626 0130 00000000 		.word	.LANCHOR27
 627 0134 00000000 		.word	.LANCHOR28
ARM GAS  C:\Users\CHRIST~1\AppData\Local\Temp\ccb3oWGE.s 			page 12


 628 0138 00000000 		.word	.LANCHOR29
 629 013c 00000000 		.word	.LANCHOR30
 630 0140 00000000 		.word	.LANCHOR31
 631 0144 00000000 		.word	.LANCHOR32
 632 0148 00000000 		.word	.LANCHOR33
 633 014c 00000000 		.word	.LANCHOR35
 634 0150 00000000 		.word	.LANCHOR34
 635 0154 00000000 		.word	.LANCHOR3
 636 0158 00000000 		.word	.LANCHOR36
 637 015c 00000000 		.word	.LANCHOR13
 638 0160 00000000 		.word	.LANCHOR14
 639 0164 00000000 		.word	.LANCHOR1
 640 0168 00000000 		.word	timer_thread
 641 016c 00000000 		.word	.LANCHOR37
 642 0170 00000000 		.word	sample_send_thread
 643 0174 00000000 		.word	.LANCHOR38
 644              		.cfi_endproc
 645              	.LFE256:
 646              		.size	mc_interface_init, .-mc_interface_init
 647              		.section	.text.mc_interface_get_configuration,"ax",%progbits
 648              		.align	1
 649              		.p2align 4,,15
 650              		.global	mc_interface_get_configuration
 651              		.syntax unified
 652              		.thumb
 653              		.thumb_func
 654              		.fpu fpv4-sp-d16
 655              		.type	mc_interface_get_configuration, %function
 656              	mc_interface_get_configuration:
 657              	.LFB257:
 658              		.loc 1 171 0
 659              		.cfi_startproc
 660              		@ args = 0, pretend = 0, frame = 0
 661              		@ frame_needed = 0, uses_anonymous_args = 0
 662              		@ link register save eliminated.
 663              		.loc 1 173 0
 664 0000 0048     		ldr	r0, .L37
 665 0002 7047     		bx	lr
 666              	.L38:
 667              		.align	2
 668              	.L37:
 669 0004 00000000 		.word	.LANCHOR12
 670              		.cfi_endproc
 671              	.LFE257:
 672              		.size	mc_interface_get_configuration, .-mc_interface_get_configuration
 673              		.section	.text.mc_interface_dccal_done,"ax",%progbits
 674              		.align	1
 675              		.p2align 4,,15
 676              		.global	mc_interface_dccal_done
 677              		.syntax unified
 678              		.thumb
 679              		.thumb_func
 680              		.fpu fpv4-sp-d16
 681              		.type	mc_interface_dccal_done, %function
 682              	mc_interface_dccal_done:
 683              	.LFB259:
 684              		.loc 1 234 0
ARM GAS  C:\Users\CHRIST~1\AppData\Local\Temp\ccb3oWGE.s 			page 13


 685              		.cfi_startproc
 686              		@ args = 0, pretend = 0, frame = 0
 687              		@ frame_needed = 0, uses_anonymous_args = 0
 688              		@ link register save eliminated.
 689              	.LVL35:
 690              		.loc 1 236 0
 691 0000 064B     		ldr	r3, .L45
 692 0002 9B78     		ldrb	r3, [r3, #2]	@ zero_extendqisi2
 693 0004 DBB2     		uxtb	r3, r3
 694 0006 012B     		cmp	r3, #1
 695 0008 05D9     		bls	.L41
 696 000a 022B     		cmp	r3, #2
 697 000c 01D1     		bne	.L44
 698              		.loc 1 243 0
 699 000e FFF7FEBF 		b	mcpwm_foc_is_dccal_done
 700              	.LVL36:
 701              	.L44:
 702              		.loc 1 251 0
 703 0012 0020     		movs	r0, #0
 704 0014 7047     		bx	lr
 705              	.L41:
 706              		.loc 1 239 0
 707 0016 FFF7FEBF 		b	mcpwm_is_dccal_done
 708              	.LVL37:
 709              	.L46:
 710 001a 00BF     		.align	2
 711              	.L45:
 712 001c 00000000 		.word	.LANCHOR12
 713              		.cfi_endproc
 714              	.LFE259:
 715              		.size	mc_interface_dccal_done, .-mc_interface_dccal_done
 716              		.section	.text.mc_interface_set_pwm_callback,"ax",%progbits
 717              		.align	1
 718              		.p2align 4,,15
 719              		.global	mc_interface_set_pwm_callback
 720              		.syntax unified
 721              		.thumb
 722              		.thumb_func
 723              		.fpu fpv4-sp-d16
 724              		.type	mc_interface_set_pwm_callback, %function
 725              	mc_interface_set_pwm_callback:
 726              	.LFB260:
 727              		.loc 1 259 0
 728              		.cfi_startproc
 729              		@ args = 0, pretend = 0, frame = 0
 730              		@ frame_needed = 0, uses_anonymous_args = 0
 731              		@ link register save eliminated.
 732              	.LVL38:
 733              		.loc 1 260 0
 734 0000 014B     		ldr	r3, .L48
 735 0002 1860     		str	r0, [r3]
 736              		.loc 1 261 0
 737 0004 7047     		bx	lr
 738              	.L49:
 739 0006 00BF     		.align	2
 740              	.L48:
 741 0008 00000000 		.word	.LANCHOR39
ARM GAS  C:\Users\CHRIST~1\AppData\Local\Temp\ccb3oWGE.s 			page 14


 742              		.cfi_endproc
 743              	.LFE260:
 744              		.size	mc_interface_set_pwm_callback, .-mc_interface_set_pwm_callback
 745              		.section	.text.mc_interface_lock,"ax",%progbits
 746              		.align	1
 747              		.p2align 4,,15
 748              		.global	mc_interface_lock
 749              		.syntax unified
 750              		.thumb
 751              		.thumb_func
 752              		.fpu fpv4-sp-d16
 753              		.type	mc_interface_lock, %function
 754              	mc_interface_lock:
 755              	.LFB261:
 756              		.loc 1 266 0
 757              		.cfi_startproc
 758              		@ args = 0, pretend = 0, frame = 0
 759              		@ frame_needed = 0, uses_anonymous_args = 0
 760              		@ link register save eliminated.
 761              		.loc 1 267 0
 762 0000 014B     		ldr	r3, .L51
 763 0002 0122     		movs	r2, #1
 764 0004 1A70     		strb	r2, [r3]
 765              		.loc 1 268 0
 766 0006 7047     		bx	lr
 767              	.L52:
 768              		.align	2
 769              	.L51:
 770 0008 00000000 		.word	.LANCHOR16
 771              		.cfi_endproc
 772              	.LFE261:
 773              		.size	mc_interface_lock, .-mc_interface_lock
 774              		.section	.text.mc_interface_unlock,"ax",%progbits
 775              		.align	1
 776              		.p2align 4,,15
 777              		.global	mc_interface_unlock
 778              		.syntax unified
 779              		.thumb
 780              		.thumb_func
 781              		.fpu fpv4-sp-d16
 782              		.type	mc_interface_unlock, %function
 783              	mc_interface_unlock:
 784              	.LFB262:
 785              		.loc 1 273 0
 786              		.cfi_startproc
 787              		@ args = 0, pretend = 0, frame = 0
 788              		@ frame_needed = 0, uses_anonymous_args = 0
 789              		@ link register save eliminated.
 790              		.loc 1 274 0
 791 0000 014B     		ldr	r3, .L54
 792 0002 0022     		movs	r2, #0
 793 0004 1A70     		strb	r2, [r3]
 794              		.loc 1 275 0
 795 0006 7047     		bx	lr
 796              	.L55:
 797              		.align	2
 798              	.L54:
ARM GAS  C:\Users\CHRIST~1\AppData\Local\Temp\ccb3oWGE.s 			page 15


 799 0008 00000000 		.word	.LANCHOR16
 800              		.cfi_endproc
 801              	.LFE262:
 802              		.size	mc_interface_unlock, .-mc_interface_unlock
 803              		.section	.text.mc_interface_lock_override_once,"ax",%progbits
 804              		.align	1
 805              		.p2align 4,,15
 806              		.global	mc_interface_lock_override_once
 807              		.syntax unified
 808              		.thumb
 809              		.thumb_func
 810              		.fpu fpv4-sp-d16
 811              		.type	mc_interface_lock_override_once, %function
 812              	mc_interface_lock_override_once:
 813              	.LFB263:
 814              		.loc 1 280 0
 815              		.cfi_startproc
 816              		@ args = 0, pretend = 0, frame = 0
 817              		@ frame_needed = 0, uses_anonymous_args = 0
 818              		@ link register save eliminated.
 819              		.loc 1 281 0
 820 0000 014B     		ldr	r3, .L57
 821 0002 0122     		movs	r2, #1
 822 0004 1A70     		strb	r2, [r3]
 823              		.loc 1 282 0
 824 0006 7047     		bx	lr
 825              	.L58:
 826              		.align	2
 827              	.L57:
 828 0008 00000000 		.word	.LANCHOR17
 829              		.cfi_endproc
 830              	.LFE263:
 831              		.size	mc_interface_lock_override_once, .-mc_interface_lock_override_once
 832              		.section	.text.mc_interface_get_fault,"ax",%progbits
 833              		.align	1
 834              		.p2align 4,,15
 835              		.global	mc_interface_get_fault
 836              		.syntax unified
 837              		.thumb
 838              		.thumb_func
 839              		.fpu fpv4-sp-d16
 840              		.type	mc_interface_get_fault, %function
 841              	mc_interface_get_fault:
 842              	.LFB264:
 843              		.loc 1 284 0
 844              		.cfi_startproc
 845              		@ args = 0, pretend = 0, frame = 0
 846              		@ frame_needed = 0, uses_anonymous_args = 0
 847              		@ link register save eliminated.
 848              		.loc 1 285 0
 849 0000 014B     		ldr	r3, .L60
 850              		.loc 1 286 0
 851 0002 1878     		ldrb	r0, [r3]	@ zero_extendqisi2
 852 0004 7047     		bx	lr
 853              	.L61:
 854 0006 00BF     		.align	2
 855              	.L60:
ARM GAS  C:\Users\CHRIST~1\AppData\Local\Temp\ccb3oWGE.s 			page 16


 856 0008 00000000 		.word	.LANCHOR13
 857              		.cfi_endproc
 858              	.LFE264:
 859              		.size	mc_interface_get_fault, .-mc_interface_get_fault
 860              		.section	.text.mc_interface_fault_to_string,"ax",%progbits
 861              		.align	1
 862              		.p2align 4,,15
 863              		.global	mc_interface_fault_to_string
 864              		.syntax unified
 865              		.thumb
 866              		.thumb_func
 867              		.fpu fpv4-sp-d16
 868              		.type	mc_interface_fault_to_string, %function
 869              	mc_interface_fault_to_string:
 870              	.LFB265:
 871              		.loc 1 288 0
 872              		.cfi_startproc
 873              		@ args = 0, pretend = 0, frame = 0
 874              		@ frame_needed = 0, uses_anonymous_args = 0
 875              		@ link register save eliminated.
 876              	.LVL39:
 877 0000 0628     		cmp	r0, #6
 878 0002 9ABF     		itte	ls
 879 0004 024B     		ldrls	r3, .L65
 880 0006 53F82000 		ldrls	r0, [r3, r0, lsl #2]
 881              	.LVL40:
 882              		.loc 1 288 0
 883 000a 0248     		ldrhi	r0, .L65+4
 884              		.loc 1 299 0
 885 000c 7047     		bx	lr
 886              	.L66:
 887 000e 00BF     		.align	2
 888              	.L65:
 889 0010 00000000 		.word	.LANCHOR40
 890 0014 00000000 		.word	.LC1
 891              		.cfi_endproc
 892              	.LFE265:
 893              		.size	mc_interface_fault_to_string, .-mc_interface_fault_to_string
 894              		.section	.text.mc_interface_get_state,"ax",%progbits
 895              		.align	1
 896              		.p2align 4,,15
 897              		.global	mc_interface_get_state
 898              		.syntax unified
 899              		.thumb
 900              		.thumb_func
 901              		.fpu fpv4-sp-d16
 902              		.type	mc_interface_get_state, %function
 903              	mc_interface_get_state:
 904              	.LFB266:
 905              		.loc 1 301 0
 906              		.cfi_startproc
 907              		@ args = 0, pretend = 0, frame = 0
 908              		@ frame_needed = 0, uses_anonymous_args = 0
 909              		@ link register save eliminated.
 910              	.LVL41:
 911              		.loc 1 303 0
 912 0000 064B     		ldr	r3, .L73
ARM GAS  C:\Users\CHRIST~1\AppData\Local\Temp\ccb3oWGE.s 			page 17


 913 0002 9B78     		ldrb	r3, [r3, #2]	@ zero_extendqisi2
 914 0004 DBB2     		uxtb	r3, r3
 915 0006 012B     		cmp	r3, #1
 916 0008 05D9     		bls	.L69
 917 000a 022B     		cmp	r3, #2
 918 000c 01D1     		bne	.L72
 919              		.loc 1 310 0
 920 000e FFF7FEBF 		b	mcpwm_foc_get_state
 921              	.LVL42:
 922              	.L72:
 923              		.loc 1 318 0
 924 0012 0020     		movs	r0, #0
 925 0014 7047     		bx	lr
 926              	.L69:
 927              		.loc 1 306 0
 928 0016 FFF7FEBF 		b	mcpwm_get_state
 929              	.LVL43:
 930              	.L74:
 931 001a 00BF     		.align	2
 932              	.L73:
 933 001c 00000000 		.word	.LANCHOR12
 934              		.cfi_endproc
 935              	.LFE266:
 936              		.size	mc_interface_get_state, .-mc_interface_get_state
 937              		.section	.text.mc_interface_get_duty_cycle_set,"ax",%progbits
 938              		.align	1
 939              		.p2align 4,,15
 940              		.global	mc_interface_get_duty_cycle_set
 941              		.syntax unified
 942              		.thumb
 943              		.thumb_func
 944              		.fpu fpv4-sp-d16
 945              		.type	mc_interface_get_duty_cycle_set, %function
 946              	mc_interface_get_duty_cycle_set:
 947              	.LFB278:
 948              		.loc 1 501 0
 949              		.cfi_startproc
 950              		@ args = 0, pretend = 0, frame = 0
 951              		@ frame_needed = 0, uses_anonymous_args = 0
 952              	.LVL44:
 953 0000 10B5     		push	{r4, lr}
 954              		.cfi_def_cfa_offset 8
 955              		.cfi_offset 4, -8
 956              		.cfi_offset 14, -4
 957              		.loc 1 504 0
 958 0002 0B4C     		ldr	r4, .L87
 959 0004 A378     		ldrb	r3, [r4, #2]	@ zero_extendqisi2
 960 0006 DBB2     		uxtb	r3, r3
 961 0008 012B     		cmp	r3, #1
 962 000a 0DD9     		bls	.L77
 963 000c 022B     		cmp	r3, #2
 964 000e 08D0     		beq	.L78
 965              		.loc 1 502 0
 966 0010 9FED080A 		vldr.32	s0, .L87+4
 967              	.LVL45:
 968              	.L76:
 969              		.loc 1 518 0
ARM GAS  C:\Users\CHRIST~1\AppData\Local\Temp\ccb3oWGE.s 			page 18


 970 0014 94F85D31 		ldrb	r3, [r4, #349]	@ zero_extendqisi2
 971 0018 03B9     		cbnz	r3, .L86
 972              		.loc 1 519 0
 973 001a 10BD     		pop	{r4, pc}
 974              	.L86:
 975 001c B1EE400A 		vneg.f32	s0, s0
 976              	.LVL46:
 977 0020 10BD     		pop	{r4, pc}
 978              	.LVL47:
 979              	.L78:
 980              		.loc 1 511 0
 981 0022 FFF7FEFF 		bl	mcpwm_foc_get_duty_cycle_set
 982              	.LVL48:
 983              		.loc 1 512 0
 984 0026 F5E7     		b	.L76
 985              	.LVL49:
 986              	.L77:
 987              		.loc 1 507 0
 988 0028 FFF7FEFF 		bl	mcpwm_get_duty_cycle_set
 989              	.LVL50:
 990              		.loc 1 508 0
 991 002c F2E7     		b	.L76
 992              	.L88:
 993 002e 00BF     		.align	2
 994              	.L87:
 995 0030 00000000 		.word	.LANCHOR12
 996 0034 00000000 		.word	0
 997              		.cfi_endproc
 998              	.LFE278:
 999              		.size	mc_interface_get_duty_cycle_set, .-mc_interface_get_duty_cycle_set
 1000              		.section	.text.mc_interface_get_duty_cycle_now,"ax",%progbits
 1001              		.align	1
 1002              		.p2align 4,,15
 1003              		.global	mc_interface_get_duty_cycle_now
 1004              		.syntax unified
 1005              		.thumb
 1006              		.thumb_func
 1007              		.fpu fpv4-sp-d16
 1008              		.type	mc_interface_get_duty_cycle_now, %function
 1009              	mc_interface_get_duty_cycle_now:
 1010              	.LFB279:
 1011              		.loc 1 521 0
 1012              		.cfi_startproc
 1013              		@ args = 0, pretend = 0, frame = 0
 1014              		@ frame_needed = 0, uses_anonymous_args = 0
 1015              	.LVL51:
 1016 0000 10B5     		push	{r4, lr}
 1017              		.cfi_def_cfa_offset 8
 1018              		.cfi_offset 4, -8
 1019              		.cfi_offset 14, -4
 1020              		.loc 1 524 0
 1021 0002 0B4C     		ldr	r4, .L101
 1022 0004 A378     		ldrb	r3, [r4, #2]	@ zero_extendqisi2
 1023 0006 DBB2     		uxtb	r3, r3
 1024 0008 012B     		cmp	r3, #1
 1025 000a 0DD9     		bls	.L91
 1026 000c 022B     		cmp	r3, #2
ARM GAS  C:\Users\CHRIST~1\AppData\Local\Temp\ccb3oWGE.s 			page 19


 1027 000e 08D0     		beq	.L92
 1028              		.loc 1 522 0
 1029 0010 9FED080A 		vldr.32	s0, .L101+4
 1030              	.LVL52:
 1031              	.L90:
 1032              		.loc 1 538 0
 1033 0014 94F85D31 		ldrb	r3, [r4, #349]	@ zero_extendqisi2
 1034 0018 03B9     		cbnz	r3, .L100
 1035              		.loc 1 539 0
 1036 001a 10BD     		pop	{r4, pc}
 1037              	.L100:
 1038 001c B1EE400A 		vneg.f32	s0, s0
 1039              	.LVL53:
 1040 0020 10BD     		pop	{r4, pc}
 1041              	.LVL54:
 1042              	.L92:
 1043              		.loc 1 531 0
 1044 0022 FFF7FEFF 		bl	mcpwm_foc_get_duty_cycle_now
 1045              	.LVL55:
 1046              		.loc 1 532 0
 1047 0026 F5E7     		b	.L90
 1048              	.LVL56:
 1049              	.L91:
 1050              		.loc 1 527 0
 1051 0028 FFF7FEFF 		bl	mcpwm_get_duty_cycle_now
 1052              	.LVL57:
 1053              		.loc 1 528 0
 1054 002c F2E7     		b	.L90
 1055              	.L102:
 1056 002e 00BF     		.align	2
 1057              	.L101:
 1058 0030 00000000 		.word	.LANCHOR12
 1059 0034 00000000 		.word	0
 1060              		.cfi_endproc
 1061              	.LFE279:
 1062              		.size	mc_interface_get_duty_cycle_now, .-mc_interface_get_duty_cycle_now
 1063              		.section	.text.mc_interface_get_sampling_frequency_now,"ax",%progbits
 1064              		.align	1
 1065              		.p2align 4,,15
 1066              		.global	mc_interface_get_sampling_frequency_now
 1067              		.syntax unified
 1068              		.thumb
 1069              		.thumb_func
 1070              		.fpu fpv4-sp-d16
 1071              		.type	mc_interface_get_sampling_frequency_now, %function
 1072              	mc_interface_get_sampling_frequency_now:
 1073              	.LFB280:
 1074              		.loc 1 541 0
 1075              		.cfi_startproc
 1076              		@ args = 0, pretend = 0, frame = 0
 1077              		@ frame_needed = 0, uses_anonymous_args = 0
 1078              		@ link register save eliminated.
 1079              	.LVL58:
 1080              		.loc 1 544 0
 1081 0000 064B     		ldr	r3, .L109
 1082 0002 9B78     		ldrb	r3, [r3, #2]	@ zero_extendqisi2
 1083 0004 DBB2     		uxtb	r3, r3
ARM GAS  C:\Users\CHRIST~1\AppData\Local\Temp\ccb3oWGE.s 			page 20


 1084 0006 012B     		cmp	r3, #1
 1085 0008 06D9     		bls	.L105
 1086 000a 022B     		cmp	r3, #2
 1087 000c 01D1     		bne	.L108
 1088              		.loc 1 551 0
 1089 000e FFF7FEBF 		b	mcpwm_foc_get_sampling_frequency_now
 1090              	.LVL59:
 1091              	.L108:
 1092              		.loc 1 559 0
 1093 0012 9FED030A 		vldr.32	s0, .L109+4
 1094 0016 7047     		bx	lr
 1095              	.L105:
 1096              		.loc 1 547 0
 1097 0018 FFF7FEBF 		b	mcpwm_get_switching_frequency_now
 1098              	.LVL60:
 1099              	.L110:
 1100              		.align	2
 1101              	.L109:
 1102 001c 00000000 		.word	.LANCHOR12
 1103 0020 00000000 		.word	0
 1104              		.cfi_endproc
 1105              	.LFE280:
 1106              		.size	mc_interface_get_sampling_frequency_now, .-mc_interface_get_sampling_frequency_now
 1107              		.section	.text.mc_interface_get_rpm,"ax",%progbits
 1108              		.align	1
 1109              		.p2align 4,,15
 1110              		.global	mc_interface_get_rpm
 1111              		.syntax unified
 1112              		.thumb
 1113              		.thumb_func
 1114              		.fpu fpv4-sp-d16
 1115              		.type	mc_interface_get_rpm, %function
 1116              	mc_interface_get_rpm:
 1117              	.LFB281:
 1118              		.loc 1 561 0
 1119              		.cfi_startproc
 1120              		@ args = 0, pretend = 0, frame = 0
 1121              		@ frame_needed = 0, uses_anonymous_args = 0
 1122              	.LVL61:
 1123 0000 10B5     		push	{r4, lr}
 1124              		.cfi_def_cfa_offset 8
 1125              		.cfi_offset 4, -8
 1126              		.cfi_offset 14, -4
 1127              		.loc 1 564 0
 1128 0002 0B4C     		ldr	r4, .L123
 1129 0004 A378     		ldrb	r3, [r4, #2]	@ zero_extendqisi2
 1130 0006 DBB2     		uxtb	r3, r3
 1131 0008 012B     		cmp	r3, #1
 1132 000a 0DD9     		bls	.L113
 1133 000c 022B     		cmp	r3, #2
 1134 000e 08D0     		beq	.L114
 1135              		.loc 1 562 0
 1136 0010 9FED080A 		vldr.32	s0, .L123+4
 1137              	.LVL62:
 1138              	.L112:
 1139              		.loc 1 578 0
 1140 0014 94F85D31 		ldrb	r3, [r4, #349]	@ zero_extendqisi2
ARM GAS  C:\Users\CHRIST~1\AppData\Local\Temp\ccb3oWGE.s 			page 21


 1141 0018 03B9     		cbnz	r3, .L122
 1142              		.loc 1 579 0
 1143 001a 10BD     		pop	{r4, pc}
 1144              	.L122:
 1145 001c B1EE400A 		vneg.f32	s0, s0
 1146              	.LVL63:
 1147 0020 10BD     		pop	{r4, pc}
 1148              	.LVL64:
 1149              	.L114:
 1150              		.loc 1 571 0
 1151 0022 FFF7FEFF 		bl	mcpwm_foc_get_rpm
 1152              	.LVL65:
 1153              		.loc 1 572 0
 1154 0026 F5E7     		b	.L112
 1155              	.LVL66:
 1156              	.L113:
 1157              		.loc 1 567 0
 1158 0028 FFF7FEFF 		bl	mcpwm_get_rpm
 1159              	.LVL67:
 1160              		.loc 1 568 0
 1161 002c F2E7     		b	.L112
 1162              	.L124:
 1163 002e 00BF     		.align	2
 1164              	.L123:
 1165 0030 00000000 		.word	.LANCHOR12
 1166 0034 00000000 		.word	0
 1167              		.cfi_endproc
 1168              	.LFE281:
 1169              		.size	mc_interface_get_rpm, .-mc_interface_get_rpm
 1170              		.section	.text.mc_interface_get_amp_hours,"ax",%progbits
 1171              		.align	1
 1172              		.p2align 4,,15
 1173              		.global	mc_interface_get_amp_hours
 1174              		.syntax unified
 1175              		.thumb
 1176              		.thumb_func
 1177              		.fpu fpv4-sp-d16
 1178              		.type	mc_interface_get_amp_hours, %function
 1179              	mc_interface_get_amp_hours:
 1180              	.LFB282:
 1181              		.loc 1 590 0
 1182              		.cfi_startproc
 1183              		@ args = 0, pretend = 0, frame = 0
 1184              		@ frame_needed = 0, uses_anonymous_args = 0
 1185              		@ link register save eliminated.
 1186              	.LVL68:
 1187              		.loc 1 591 0
 1188 0000 054B     		ldr	r3, .L130
 1189 0002 DFED067A 		vldr.32	s15, .L130+4
 1190 0006 93ED007A 		vldr.32	s14, [r3]
 1191 000a 87EE270A 		vdiv.f32	s0, s14, s15
 1192              	.LVL69:
 1193              		.loc 1 593 0
 1194 000e 08B1     		cbz	r0, .L125
 1195              		.loc 1 594 0
 1196 0010 0022     		movs	r2, #0
 1197 0012 1A60     		str	r2, [r3]	@ float
ARM GAS  C:\Users\CHRIST~1\AppData\Local\Temp\ccb3oWGE.s 			page 22


 1198              	.L125:
 1199              		.loc 1 598 0
 1200 0014 7047     		bx	lr
 1201              	.L131:
 1202 0016 00BF     		.align	2
 1203              	.L130:
 1204 0018 00000000 		.word	.LANCHOR26
 1205 001c 00006145 		.word	1163984896
 1206              		.cfi_endproc
 1207              	.LFE282:
 1208              		.size	mc_interface_get_amp_hours, .-mc_interface_get_amp_hours
 1209              		.section	.text.mc_interface_get_amp_hours_charged,"ax",%progbits
 1210              		.align	1
 1211              		.p2align 4,,15
 1212              		.global	mc_interface_get_amp_hours_charged
 1213              		.syntax unified
 1214              		.thumb
 1215              		.thumb_func
 1216              		.fpu fpv4-sp-d16
 1217              		.type	mc_interface_get_amp_hours_charged, %function
 1218              	mc_interface_get_amp_hours_charged:
 1219              	.LFB283:
 1220              		.loc 1 609 0
 1221              		.cfi_startproc
 1222              		@ args = 0, pretend = 0, frame = 0
 1223              		@ frame_needed = 0, uses_anonymous_args = 0
 1224              		@ link register save eliminated.
 1225              	.LVL70:
 1226              		.loc 1 610 0
 1227 0000 054B     		ldr	r3, .L137
 1228 0002 DFED067A 		vldr.32	s15, .L137+4
 1229 0006 93ED007A 		vldr.32	s14, [r3]
 1230 000a 87EE270A 		vdiv.f32	s0, s14, s15
 1231              	.LVL71:
 1232              		.loc 1 612 0
 1233 000e 08B1     		cbz	r0, .L132
 1234              		.loc 1 613 0
 1235 0010 0022     		movs	r2, #0
 1236 0012 1A60     		str	r2, [r3]	@ float
 1237              	.L132:
 1238              		.loc 1 617 0
 1239 0014 7047     		bx	lr
 1240              	.L138:
 1241 0016 00BF     		.align	2
 1242              	.L137:
 1243 0018 00000000 		.word	.LANCHOR27
 1244 001c 00006145 		.word	1163984896
 1245              		.cfi_endproc
 1246              	.LFE283:
 1247              		.size	mc_interface_get_amp_hours_charged, .-mc_interface_get_amp_hours_charged
 1248              		.section	.text.mc_interface_get_watt_hours,"ax",%progbits
 1249              		.align	1
 1250              		.p2align 4,,15
 1251              		.global	mc_interface_get_watt_hours
 1252              		.syntax unified
 1253              		.thumb
 1254              		.thumb_func
ARM GAS  C:\Users\CHRIST~1\AppData\Local\Temp\ccb3oWGE.s 			page 23


 1255              		.fpu fpv4-sp-d16
 1256              		.type	mc_interface_get_watt_hours, %function
 1257              	mc_interface_get_watt_hours:
 1258              	.LFB284:
 1259              		.loc 1 628 0
 1260              		.cfi_startproc
 1261              		@ args = 0, pretend = 0, frame = 0
 1262              		@ frame_needed = 0, uses_anonymous_args = 0
 1263              		@ link register save eliminated.
 1264              	.LVL72:
 1265              		.loc 1 629 0
 1266 0000 054B     		ldr	r3, .L144
 1267 0002 DFED067A 		vldr.32	s15, .L144+4
 1268 0006 93ED007A 		vldr.32	s14, [r3]
 1269 000a 87EE270A 		vdiv.f32	s0, s14, s15
 1270              	.LVL73:
 1271              		.loc 1 631 0
 1272 000e 08B1     		cbz	r0, .L139
 1273              		.loc 1 632 0
 1274 0010 0022     		movs	r2, #0
 1275 0012 1A60     		str	r2, [r3]	@ float
 1276              	.L139:
 1277              		.loc 1 636 0
 1278 0014 7047     		bx	lr
 1279              	.L145:
 1280 0016 00BF     		.align	2
 1281              	.L144:
 1282 0018 00000000 		.word	.LANCHOR28
 1283 001c 00006145 		.word	1163984896
 1284              		.cfi_endproc
 1285              	.LFE284:
 1286              		.size	mc_interface_get_watt_hours, .-mc_interface_get_watt_hours
 1287              		.section	.text.mc_interface_get_watt_hours_charged,"ax",%progbits
 1288              		.align	1
 1289              		.p2align 4,,15
 1290              		.global	mc_interface_get_watt_hours_charged
 1291              		.syntax unified
 1292              		.thumb
 1293              		.thumb_func
 1294              		.fpu fpv4-sp-d16
 1295              		.type	mc_interface_get_watt_hours_charged, %function
 1296              	mc_interface_get_watt_hours_charged:
 1297              	.LFB285:
 1298              		.loc 1 647 0
 1299              		.cfi_startproc
 1300              		@ args = 0, pretend = 0, frame = 0
 1301              		@ frame_needed = 0, uses_anonymous_args = 0
 1302              		@ link register save eliminated.
 1303              	.LVL74:
 1304              		.loc 1 648 0
 1305 0000 054B     		ldr	r3, .L151
 1306 0002 DFED067A 		vldr.32	s15, .L151+4
 1307 0006 93ED007A 		vldr.32	s14, [r3]
 1308 000a 87EE270A 		vdiv.f32	s0, s14, s15
 1309              	.LVL75:
 1310              		.loc 1 650 0
 1311 000e 08B1     		cbz	r0, .L146
ARM GAS  C:\Users\CHRIST~1\AppData\Local\Temp\ccb3oWGE.s 			page 24


 1312              		.loc 1 651 0
 1313 0010 0022     		movs	r2, #0
 1314 0012 1A60     		str	r2, [r3]	@ float
 1315              	.L146:
 1316              		.loc 1 655 0
 1317 0014 7047     		bx	lr
 1318              	.L152:
 1319 0016 00BF     		.align	2
 1320              	.L151:
 1321 0018 00000000 		.word	.LANCHOR29
 1322 001c 00006145 		.word	1163984896
 1323              		.cfi_endproc
 1324              	.LFE285:
 1325              		.size	mc_interface_get_watt_hours_charged, .-mc_interface_get_watt_hours_charged
 1326              		.section	.text.mc_interface_get_tot_current,"ax",%progbits
 1327              		.align	1
 1328              		.p2align 4,,15
 1329              		.global	mc_interface_get_tot_current
 1330              		.syntax unified
 1331              		.thumb
 1332              		.thumb_func
 1333              		.fpu fpv4-sp-d16
 1334              		.type	mc_interface_get_tot_current, %function
 1335              	mc_interface_get_tot_current:
 1336              	.LFB286:
 1337              		.loc 1 657 0
 1338              		.cfi_startproc
 1339              		@ args = 0, pretend = 0, frame = 0
 1340              		@ frame_needed = 0, uses_anonymous_args = 0
 1341              		@ link register save eliminated.
 1342              	.LVL76:
 1343              		.loc 1 660 0
 1344 0000 064B     		ldr	r3, .L159
 1345 0002 9B78     		ldrb	r3, [r3, #2]	@ zero_extendqisi2
 1346 0004 DBB2     		uxtb	r3, r3
 1347 0006 012B     		cmp	r3, #1
 1348 0008 06D9     		bls	.L155
 1349 000a 022B     		cmp	r3, #2
 1350 000c 01D1     		bne	.L158
 1351              		.loc 1 667 0
 1352 000e FFF7FEBF 		b	mcpwm_foc_get_tot_current
 1353              	.LVL77:
 1354              	.L158:
 1355              		.loc 1 675 0
 1356 0012 9FED030A 		vldr.32	s0, .L159+4
 1357 0016 7047     		bx	lr
 1358              	.L155:
 1359              		.loc 1 663 0
 1360 0018 FFF7FEBF 		b	mcpwm_get_tot_current
 1361              	.LVL78:
 1362              	.L160:
 1363              		.align	2
 1364              	.L159:
 1365 001c 00000000 		.word	.LANCHOR12
 1366 0020 00000000 		.word	0
 1367              		.cfi_endproc
 1368              	.LFE286:
ARM GAS  C:\Users\CHRIST~1\AppData\Local\Temp\ccb3oWGE.s 			page 25


 1369              		.size	mc_interface_get_tot_current, .-mc_interface_get_tot_current
 1370              		.section	.text.mc_interface_get_tot_current_filtered,"ax",%progbits
 1371              		.align	1
 1372              		.p2align 4,,15
 1373              		.global	mc_interface_get_tot_current_filtered
 1374              		.syntax unified
 1375              		.thumb
 1376              		.thumb_func
 1377              		.fpu fpv4-sp-d16
 1378              		.type	mc_interface_get_tot_current_filtered, %function
 1379              	mc_interface_get_tot_current_filtered:
 1380              	.LFB287:
 1381              		.loc 1 677 0
 1382              		.cfi_startproc
 1383              		@ args = 0, pretend = 0, frame = 0
 1384              		@ frame_needed = 0, uses_anonymous_args = 0
 1385              		@ link register save eliminated.
 1386              	.LVL79:
 1387              		.loc 1 680 0
 1388 0000 064B     		ldr	r3, .L167
 1389 0002 9B78     		ldrb	r3, [r3, #2]	@ zero_extendqisi2
 1390 0004 DBB2     		uxtb	r3, r3
 1391 0006 012B     		cmp	r3, #1
 1392 0008 06D9     		bls	.L163
 1393 000a 022B     		cmp	r3, #2
 1394 000c 01D1     		bne	.L166
 1395              		.loc 1 687 0
 1396 000e FFF7FEBF 		b	mcpwm_foc_get_tot_current_filtered
 1397              	.LVL80:
 1398              	.L166:
 1399              		.loc 1 695 0
 1400 0012 9FED030A 		vldr.32	s0, .L167+4
 1401 0016 7047     		bx	lr
 1402              	.L163:
 1403              		.loc 1 683 0
 1404 0018 FFF7FEBF 		b	mcpwm_get_tot_current_filtered
 1405              	.LVL81:
 1406              	.L168:
 1407              		.align	2
 1408              	.L167:
 1409 001c 00000000 		.word	.LANCHOR12
 1410 0020 00000000 		.word	0
 1411              		.cfi_endproc
 1412              	.LFE287:
 1413              		.size	mc_interface_get_tot_current_filtered, .-mc_interface_get_tot_current_filtered
 1414              		.section	.text.mc_interface_get_tot_current_directional,"ax",%progbits
 1415              		.align	1
 1416              		.p2align 4,,15
 1417              		.global	mc_interface_get_tot_current_directional
 1418              		.syntax unified
 1419              		.thumb
 1420              		.thumb_func
 1421              		.fpu fpv4-sp-d16
 1422              		.type	mc_interface_get_tot_current_directional, %function
 1423              	mc_interface_get_tot_current_directional:
 1424              	.LFB288:
 1425              		.loc 1 697 0
ARM GAS  C:\Users\CHRIST~1\AppData\Local\Temp\ccb3oWGE.s 			page 26


 1426              		.cfi_startproc
 1427              		@ args = 0, pretend = 0, frame = 0
 1428              		@ frame_needed = 0, uses_anonymous_args = 0
 1429              	.LVL82:
 1430 0000 10B5     		push	{r4, lr}
 1431              		.cfi_def_cfa_offset 8
 1432              		.cfi_offset 4, -8
 1433              		.cfi_offset 14, -4
 1434              		.loc 1 700 0
 1435 0002 0B4C     		ldr	r4, .L181
 1436 0004 A378     		ldrb	r3, [r4, #2]	@ zero_extendqisi2
 1437 0006 DBB2     		uxtb	r3, r3
 1438 0008 012B     		cmp	r3, #1
 1439 000a 0DD9     		bls	.L171
 1440 000c 022B     		cmp	r3, #2
 1441 000e 08D0     		beq	.L172
 1442              		.loc 1 698 0
 1443 0010 9FED080A 		vldr.32	s0, .L181+4
 1444              	.LVL83:
 1445              	.L170:
 1446              		.loc 1 714 0
 1447 0014 94F85D31 		ldrb	r3, [r4, #349]	@ zero_extendqisi2
 1448 0018 03B9     		cbnz	r3, .L180
 1449              		.loc 1 715 0
 1450 001a 10BD     		pop	{r4, pc}
 1451              	.L180:
 1452 001c B1EE400A 		vneg.f32	s0, s0
 1453              	.LVL84:
 1454 0020 10BD     		pop	{r4, pc}
 1455              	.LVL85:
 1456              	.L172:
 1457              		.loc 1 707 0
 1458 0022 FFF7FEFF 		bl	mcpwm_foc_get_tot_current_directional
 1459              	.LVL86:
 1460              		.loc 1 708 0
 1461 0026 F5E7     		b	.L170
 1462              	.LVL87:
 1463              	.L171:
 1464              		.loc 1 703 0
 1465 0028 FFF7FEFF 		bl	mcpwm_get_tot_current_directional
 1466              	.LVL88:
 1467              		.loc 1 704 0
 1468 002c F2E7     		b	.L170
 1469              	.L182:
 1470 002e 00BF     		.align	2
 1471              	.L181:
 1472 0030 00000000 		.word	.LANCHOR12
 1473 0034 00000000 		.word	0
 1474              		.cfi_endproc
 1475              	.LFE288:
 1476              		.size	mc_interface_get_tot_current_directional, .-mc_interface_get_tot_current_directional
 1477              		.section	.text.mc_interface_get_tot_current_directional_filtered,"ax",%progbits
 1478              		.align	1
 1479              		.p2align 4,,15
 1480              		.global	mc_interface_get_tot_current_directional_filtered
 1481              		.syntax unified
 1482              		.thumb
ARM GAS  C:\Users\CHRIST~1\AppData\Local\Temp\ccb3oWGE.s 			page 27


 1483              		.thumb_func
 1484              		.fpu fpv4-sp-d16
 1485              		.type	mc_interface_get_tot_current_directional_filtered, %function
 1486              	mc_interface_get_tot_current_directional_filtered:
 1487              	.LFB289:
 1488              		.loc 1 717 0
 1489              		.cfi_startproc
 1490              		@ args = 0, pretend = 0, frame = 0
 1491              		@ frame_needed = 0, uses_anonymous_args = 0
 1492              	.LVL89:
 1493 0000 10B5     		push	{r4, lr}
 1494              		.cfi_def_cfa_offset 8
 1495              		.cfi_offset 4, -8
 1496              		.cfi_offset 14, -4
 1497              		.loc 1 720 0
 1498 0002 0B4C     		ldr	r4, .L195
 1499 0004 A378     		ldrb	r3, [r4, #2]	@ zero_extendqisi2
 1500 0006 DBB2     		uxtb	r3, r3
 1501 0008 012B     		cmp	r3, #1
 1502 000a 0DD9     		bls	.L185
 1503 000c 022B     		cmp	r3, #2
 1504 000e 08D0     		beq	.L186
 1505              		.loc 1 718 0
 1506 0010 9FED080A 		vldr.32	s0, .L195+4
 1507              	.LVL90:
 1508              	.L184:
 1509              		.loc 1 734 0
 1510 0014 94F85D31 		ldrb	r3, [r4, #349]	@ zero_extendqisi2
 1511 0018 03B9     		cbnz	r3, .L194
 1512              		.loc 1 735 0
 1513 001a 10BD     		pop	{r4, pc}
 1514              	.L194:
 1515 001c B1EE400A 		vneg.f32	s0, s0
 1516              	.LVL91:
 1517 0020 10BD     		pop	{r4, pc}
 1518              	.LVL92:
 1519              	.L186:
 1520              		.loc 1 727 0
 1521 0022 FFF7FEFF 		bl	mcpwm_foc_get_tot_current_directional_filtered
 1522              	.LVL93:
 1523              		.loc 1 728 0
 1524 0026 F5E7     		b	.L184
 1525              	.LVL94:
 1526              	.L185:
 1527              		.loc 1 723 0
 1528 0028 FFF7FEFF 		bl	mcpwm_get_tot_current_directional_filtered
 1529              	.LVL95:
 1530              		.loc 1 724 0
 1531 002c F2E7     		b	.L184
 1532              	.L196:
 1533 002e 00BF     		.align	2
 1534              	.L195:
 1535 0030 00000000 		.word	.LANCHOR12
 1536 0034 00000000 		.word	0
 1537              		.cfi_endproc
 1538              	.LFE289:
 1539              		.size	mc_interface_get_tot_current_directional_filtered, .-mc_interface_get_tot_current_directiona
ARM GAS  C:\Users\CHRIST~1\AppData\Local\Temp\ccb3oWGE.s 			page 28


 1540              		.section	.text.mc_interface_get_tot_current_in,"ax",%progbits
 1541              		.align	1
 1542              		.p2align 4,,15
 1543              		.global	mc_interface_get_tot_current_in
 1544              		.syntax unified
 1545              		.thumb
 1546              		.thumb_func
 1547              		.fpu fpv4-sp-d16
 1548              		.type	mc_interface_get_tot_current_in, %function
 1549              	mc_interface_get_tot_current_in:
 1550              	.LFB290:
 1551              		.loc 1 737 0
 1552              		.cfi_startproc
 1553              		@ args = 0, pretend = 0, frame = 0
 1554              		@ frame_needed = 0, uses_anonymous_args = 0
 1555              		@ link register save eliminated.
 1556              	.LVL96:
 1557              		.loc 1 740 0
 1558 0000 064B     		ldr	r3, .L203
 1559 0002 9B78     		ldrb	r3, [r3, #2]	@ zero_extendqisi2
 1560 0004 DBB2     		uxtb	r3, r3
 1561 0006 012B     		cmp	r3, #1
 1562 0008 06D9     		bls	.L199
 1563 000a 022B     		cmp	r3, #2
 1564 000c 01D1     		bne	.L202
 1565              		.loc 1 747 0
 1566 000e FFF7FEBF 		b	mcpwm_foc_get_tot_current_in
 1567              	.LVL97:
 1568              	.L202:
 1569              		.loc 1 755 0
 1570 0012 9FED030A 		vldr.32	s0, .L203+4
 1571 0016 7047     		bx	lr
 1572              	.L199:
 1573              		.loc 1 743 0
 1574 0018 FFF7FEBF 		b	mcpwm_get_tot_current_in
 1575              	.LVL98:
 1576              	.L204:
 1577              		.align	2
 1578              	.L203:
 1579 001c 00000000 		.word	.LANCHOR12
 1580 0020 00000000 		.word	0
 1581              		.cfi_endproc
 1582              	.LFE290:
 1583              		.size	mc_interface_get_tot_current_in, .-mc_interface_get_tot_current_in
 1584              		.section	.text.mc_interface_get_tot_current_in_filtered,"ax",%progbits
 1585              		.align	1
 1586              		.p2align 4,,15
 1587              		.global	mc_interface_get_tot_current_in_filtered
 1588              		.syntax unified
 1589              		.thumb
 1590              		.thumb_func
 1591              		.fpu fpv4-sp-d16
 1592              		.type	mc_interface_get_tot_current_in_filtered, %function
 1593              	mc_interface_get_tot_current_in_filtered:
 1594              	.LFB291:
 1595              		.loc 1 757 0
 1596              		.cfi_startproc
ARM GAS  C:\Users\CHRIST~1\AppData\Local\Temp\ccb3oWGE.s 			page 29


 1597              		@ args = 0, pretend = 0, frame = 0
 1598              		@ frame_needed = 0, uses_anonymous_args = 0
 1599              		@ link register save eliminated.
 1600              	.LVL99:
 1601              		.loc 1 760 0
 1602 0000 064B     		ldr	r3, .L211
 1603 0002 9B78     		ldrb	r3, [r3, #2]	@ zero_extendqisi2
 1604 0004 DBB2     		uxtb	r3, r3
 1605 0006 012B     		cmp	r3, #1
 1606 0008 06D9     		bls	.L207
 1607 000a 022B     		cmp	r3, #2
 1608 000c 01D1     		bne	.L210
 1609              		.loc 1 767 0
 1610 000e FFF7FEBF 		b	mcpwm_foc_get_tot_current_in_filtered
 1611              	.LVL100:
 1612              	.L210:
 1613              		.loc 1 775 0
 1614 0012 9FED030A 		vldr.32	s0, .L211+4
 1615 0016 7047     		bx	lr
 1616              	.L207:
 1617              		.loc 1 763 0
 1618 0018 FFF7FEBF 		b	mcpwm_get_tot_current_in_filtered
 1619              	.LVL101:
 1620              	.L212:
 1621              		.align	2
 1622              	.L211:
 1623 001c 00000000 		.word	.LANCHOR12
 1624 0020 00000000 		.word	0
 1625              		.cfi_endproc
 1626              	.LFE291:
 1627              		.size	mc_interface_get_tot_current_in_filtered, .-mc_interface_get_tot_current_in_filtered
 1628              		.section	.text.mc_interface_get_tachometer_value,"ax",%progbits
 1629              		.align	1
 1630              		.p2align 4,,15
 1631              		.global	mc_interface_get_tachometer_value
 1632              		.syntax unified
 1633              		.thumb
 1634              		.thumb_func
 1635              		.fpu fpv4-sp-d16
 1636              		.type	mc_interface_get_tachometer_value, %function
 1637              	mc_interface_get_tachometer_value:
 1638              	.LFB292:
 1639              		.loc 1 777 0
 1640              		.cfi_startproc
 1641              		@ args = 0, pretend = 0, frame = 0
 1642              		@ frame_needed = 0, uses_anonymous_args = 0
 1643              	.LVL102:
 1644 0000 10B5     		push	{r4, lr}
 1645              		.cfi_def_cfa_offset 8
 1646              		.cfi_offset 4, -8
 1647              		.cfi_offset 14, -4
 1648              		.loc 1 780 0
 1649 0002 104C     		ldr	r4, .L224
 1650 0004 A378     		ldrb	r3, [r4, #2]	@ zero_extendqisi2
 1651 0006 DBB2     		uxtb	r3, r3
 1652 0008 012B     		cmp	r3, #1
 1653 000a 14D9     		bls	.L215
ARM GAS  C:\Users\CHRIST~1\AppData\Local\Temp\ccb3oWGE.s 			page 30


 1654 000c 022B     		cmp	r3, #2
 1655 000e 0BD0     		beq	.L216
 1656 0010 DFED0D7A 		vldr.32	s15, .L224+4
 1657              	.LVL103:
 1658              	.L214:
 1659              		.loc 1 794 0
 1660 0014 94F85D31 		ldrb	r3, [r4, #349]	@ zero_extendqisi2
 1661 0018 0BB1     		cbz	r3, .L217
 1662 001a F1EE677A 		vneg.f32	s15, s15
 1663              	.L217:
 1664              		.loc 1 795 0 discriminator 4
 1665 001e FDEEE77A 		vcvt.s32.f32	s15, s15
 1666 0022 17EE900A 		vmov	r0, s15	@ int
 1667 0026 10BD     		pop	{r4, pc}
 1668              	.LVL104:
 1669              	.L216:
 1670              		.loc 1 787 0
 1671 0028 FFF7FEFF 		bl	mcpwm_foc_get_tachometer_value
 1672              	.LVL105:
 1673 002c 07EE900A 		vmov	s15, r0	@ int
 1674 0030 F8EEE77A 		vcvt.f32.s32	s15, s15
 1675              		.loc 1 788 0
 1676 0034 EEE7     		b	.L214
 1677              	.LVL106:
 1678              	.L215:
 1679              		.loc 1 783 0
 1680 0036 FFF7FEFF 		bl	mcpwm_get_tachometer_value
 1681              	.LVL107:
 1682 003a 07EE900A 		vmov	s15, r0	@ int
 1683 003e F8EEE77A 		vcvt.f32.s32	s15, s15
 1684              		.loc 1 784 0
 1685 0042 E7E7     		b	.L214
 1686              	.L225:
 1687              		.align	2
 1688              	.L224:
 1689 0044 00000000 		.word	.LANCHOR12
 1690 0048 00000000 		.word	0
 1691              		.cfi_endproc
 1692              	.LFE292:
 1693              		.size	mc_interface_get_tachometer_value, .-mc_interface_get_tachometer_value
 1694              		.section	.text.mc_interface_fault_stop.part.3,"ax",%progbits
 1695              		.align	1
 1696              		.p2align 4,,15
 1697              		.syntax unified
 1698              		.thumb
 1699              		.thumb_func
 1700              		.fpu fpv4-sp-d16
 1701              		.type	mc_interface_fault_stop.part.3, %function
 1702              	mc_interface_fault_stop.part.3:
 1703              	.LFB315:
 1704              		.loc 1 991 0
 1705              		.cfi_startproc
 1706              		@ args = 0, pretend = 0, frame = 72
 1707              		@ frame_needed = 0, uses_anonymous_args = 0
 1708              	.LVL108:
 1709 0000 F0B5     		push	{r4, r5, r6, r7, lr}
 1710              		.cfi_def_cfa_offset 20
ARM GAS  C:\Users\CHRIST~1\AppData\Local\Temp\ccb3oWGE.s 			page 31


 1711              		.cfi_offset 4, -20
 1712              		.cfi_offset 5, -16
 1713              		.cfi_offset 6, -12
 1714              		.cfi_offset 7, -8
 1715              		.cfi_offset 14, -4
 1716 0002 93B0     		sub	sp, sp, #76
 1717              		.cfi_def_cfa_offset 96
 1718              		.loc 1 991 0
 1719 0004 0546     		mov	r5, r0
 1720              		.loc 1 997 0
 1721 0006 FFF7FEFF 		bl	mc_interface_dccal_done
 1722              	.LVL109:
 1723 000a 3F4C     		ldr	r4, .L236
 1724 000c 08B1     		cbz	r0, .L227
 1725 000e 2678     		ldrb	r6, [r4]	@ zero_extendqisi2
 1726 0010 A6B1     		cbz	r6, .L235
 1727              	.L227:
 1728              		.loc 1 1028 0
 1729 0012 3E4B     		ldr	r3, .L236+4
 1730 0014 3E4A     		ldr	r2, .L236+8
 1731 0016 D3F84C11 		ldr	r1, [r3, #332]
 1732              		.loc 1 1030 0
 1733 001a 9B78     		ldrb	r3, [r3, #2]	@ zero_extendqisi2
 1734              		.loc 1 1028 0
 1735 001c 1160     		str	r1, [r2]
 1736              		.loc 1 1030 0
 1737 001e DBB2     		uxtb	r3, r3
 1738 0020 012B     		cmp	r3, #1
 1739 0022 06D9     		bls	.L229
 1740 0024 022B     		cmp	r3, #2
 1741 0026 01D1     		bne	.L228
 1742              		.loc 1 1037 0
 1743 0028 FFF7FEFF 		bl	mcpwm_foc_stop_pwm
 1744              	.LVL110:
 1745              	.L228:
 1746              		.loc 1 1044 0
 1747 002c 2570     		strb	r5, [r4]
 1748              		.loc 1 1045 0
 1749 002e 13B0     		add	sp, sp, #76
 1750              		.cfi_remember_state
 1751              		.cfi_def_cfa_offset 20
 1752              		@ sp needed
 1753 0030 F0BD     		pop	{r4, r5, r6, r7, pc}
 1754              	.L229:
 1755              		.cfi_restore_state
 1756              		.loc 1 1033 0
 1757 0032 FFF7FEFF 		bl	mcpwm_stop_pwm
 1758              	.LVL111:
 1759              		.loc 1 1044 0
 1760 0036 2570     		strb	r5, [r4]
 1761              		.loc 1 1045 0
 1762 0038 13B0     		add	sp, sp, #76
 1763              		.cfi_remember_state
 1764              		.cfi_def_cfa_offset 20
 1765              		@ sp needed
 1766 003a F0BD     		pop	{r4, r5, r6, r7, pc}
 1767              	.L235:
ARM GAS  C:\Users\CHRIST~1\AppData\Local\Temp\ccb3oWGE.s 			page 32


 1768              		.cfi_restore_state
 1769              	.LBB126:
 1770              		.loc 1 1000 0
 1771 003c FFF7FEFF 		bl	utils_sys_lock_cnt
 1772              	.LVL112:
 1773              		.loc 1 1001 0
 1774 0040 344A     		ldr	r2, .L236+12
 1775              		.loc 1 1002 0
 1776 0042 354B     		ldr	r3, .L236+16
 1777              		.loc 1 1001 0
 1778 0044 526B     		ldr	r2, [r2, #52]
 1779 0046 0192     		str	r2, [sp, #4]
 1780              		.loc 1 1002 0
 1781 0048 1A6C     		ldr	r2, [r3, #64]
 1782 004a 0292     		str	r2, [sp, #8]
 1783              		.loc 1 1003 0
 1784 004c DB6A     		ldr	r3, [r3, #44]
 1785 004e 0393     		str	r3, [sp, #12]
 1786              		.loc 1 1004 0
 1787 0050 FFF7FEFF 		bl	utils_sys_unlock_cnt
 1788              	.LVL113:
 1789              		.loc 1 1007 0
 1790 0054 8DF81050 		strb	r5, [sp, #16]
 1791              		.loc 1 1008 0
 1792 0058 FFF7FEFF 		bl	mc_interface_get_tot_current
 1793              	.LVL114:
 1794              		.loc 1 1010 0
 1795 005c 2F4F     		ldr	r7, .L236+20
 1796              		.loc 1 1008 0
 1797 005e 8DED050A 		vstr.32	s0, [sp, #20]
 1798              		.loc 1 1009 0
 1799 0062 FFF7FEFF 		bl	mc_interface_get_tot_current_filtered
 1800              	.LVL115:
 1801              		.loc 1 1010 0
 1802 0066 3B8A     		ldrh	r3, [r7, #16]
 1803 0068 DFED2D6A 		vldr.32	s13, .L236+24
 1804 006c 9FED2D7A 		vldr.32	s14, .L236+28
 1805              		.loc 1 1009 0
 1806 0070 8DED060A 		vstr.32	s0, [sp, #24]
 1807              		.loc 1 1010 0
 1808 0074 07EE903A 		vmov	s15, r3	@ int
 1809 0078 F8EE677A 		vcvt.f32.u32	s15, s15
 1810 007c 67EEA67A 		vmul.f32	s15, s15, s13
 1811 0080 67EE877A 		vmul.f32	s15, s15, s14
 1812 0084 CDED077A 		vstr.32	s15, [sp, #28]
 1813              		.loc 1 1011 0
 1814 0088 FFF7FEFF 		bl	mc_interface_get_duty_cycle_now
 1815              	.LVL116:
 1816 008c 8DED080A 		vstr.32	s0, [sp, #32]
 1817              		.loc 1 1012 0
 1818 0090 FFF7FEFF 		bl	mc_interface_get_rpm
 1819              	.LVL117:
 1820              		.loc 1 1013 0
 1821 0094 3046     		mov	r0, r6
 1822              		.loc 1 1012 0
 1823 0096 8DED090A 		vstr.32	s0, [sp, #36]
 1824              		.loc 1 1013 0
ARM GAS  C:\Users\CHRIST~1\AppData\Local\Temp\ccb3oWGE.s 			page 33


 1825 009a FFF7FEFF 		bl	mc_interface_get_tachometer_value
 1826              	.LVL118:
 1827              		.loc 1 1014 0
 1828 009e 224B     		ldr	r3, .L236+32
 1829              		.loc 1 1013 0
 1830 00a0 0A90     		str	r0, [sp, #40]
 1831              		.loc 1 1014 0
 1832 00a2 1B68     		ldr	r3, [r3]
 1833              		.loc 1 1015 0
 1834 00a4 0199     		ldr	r1, [sp, #4]
 1835              		.loc 1 1016 0
 1836 00a6 029A     		ldr	r2, [sp, #8]
 1837              		.loc 1 1014 0
 1838 00a8 0B93     		str	r3, [sp, #44]
 1839              		.loc 1 1017 0
 1840 00aa 039B     		ldr	r3, [sp, #12]
 1841 00ac 0E93     		str	r3, [sp, #56]
 1842              		.loc 1 1016 0
 1843 00ae CDE90C12 		strd	r1, r2, [sp, #48]
 1844              		.loc 1 1018 0
 1845 00b2 FFF7FEFF 		bl	mcpwm_get_comm_step
 1846              	.LVL119:
 1847              		.loc 1 1019 0
 1848 00b6 7B89     		ldrh	r3, [r7, #10]
 1849 00b8 DFED1C6A 		vldr.32	s13, .L236+36
 1850 00bc 9FED1C0A 		vldr.32	s0, .L236+40
 1851              		.loc 1 1018 0
 1852 00c0 0F90     		str	r0, [sp, #60]
 1853              		.loc 1 1019 0
 1854 00c2 07EE103A 		vmov	s14, r3	@ int
 1855 00c6 B8EEC77A 		vcvt.f32.s32	s14, s14
 1856 00ca C6EE877A 		vdiv.f32	s15, s13, s14
 1857 00ce 77EEC07A 		vsub.f32	s15, s15, s0
 1858 00d2 87EE800A 		vdiv.f32	s0, s15, s0
 1859 00d6 FFF7FEFF 		bl	logf
 1860              	.LVL120:
 1861              		.loc 1 1025 0
 1862 00da 04A8     		add	r0, sp, #16
 1863              		.loc 1 1019 0
 1864 00dc DFED156A 		vldr.32	s13, .L236+44
 1865 00e0 DFED157A 		vldr.32	s15, .L236+48
 1866 00e4 9FED157A 		vldr.32	s14, .L236+52
 1867 00e8 80EE260A 		vdiv.f32	s0, s0, s13
 1868 00ec F7EE006A 		vmov.f32	s13, #1.0e+0
 1869 00f0 30EE270A 		vadd.f32	s0, s0, s15
 1870 00f4 C6EE807A 		vdiv.f32	s15, s13, s0
 1871 00f8 77EEC77A 		vsub.f32	s15, s15, s14
 1872 00fc CDED107A 		vstr.32	s15, [sp, #64]
 1873              		.loc 1 1025 0
 1874 0100 FFF7FEFF 		bl	terminal_add_fault_data
 1875              	.LVL121:
 1876 0104 85E7     		b	.L227
 1877              	.L237:
 1878 0106 00BF     		.align	2
 1879              	.L236:
 1880 0108 00000000 		.word	.LANCHOR13
 1881 010c 00000000 		.word	.LANCHOR12
ARM GAS  C:\Users\CHRIST~1\AppData\Local\Temp\ccb3oWGE.s 			page 34


 1882 0110 00000000 		.word	.LANCHOR14
 1883 0114 00040140 		.word	1073808384
 1884 0118 00000140 		.word	1073807360
 1885 011c 00000000 		.word	.LANCHOR41
 1886 0120 6740533A 		.word	978534503
 1887 0124 74D19541 		.word	1100337524
 1888 0128 00000000 		.word	.LANCHOR15
 1889 012c 3C361C4C 		.word	1276917308
 1890 0130 00401C46 		.word	1176256512
 1891 0134 00A05645 		.word	1163304960
 1892 0138 0FCF5B3B 		.word	995872527
 1893 013c 33938843 		.word	1133024051
 1894              	.LBE126:
 1895              		.cfi_endproc
 1896              	.LFE315:
 1897              		.size	mc_interface_fault_stop.part.3, .-mc_interface_fault_stop.part.3
 1898              		.section	.text.update_override_limits.constprop.4,"ax",%progbits
 1899              		.align	1
 1900              		.p2align 4,,15
 1901              		.syntax unified
 1902              		.thumb
 1903              		.thumb_func
 1904              		.fpu fpv4-sp-d16
 1905              		.type	update_override_limits.constprop.4, %function
 1906              	update_override_limits.constprop.4:
 1907              	.LFB316:
 1908              		.loc 1 1301 0
 1909              		.cfi_startproc
 1910              		@ args = 0, pretend = 0, frame = 0
 1911              		@ frame_needed = 0, uses_anonymous_args = 0
 1912              	.LVL122:
 1913 0000 F8B5     		push	{r3, r4, r5, r6, r7, lr}
 1914              		.cfi_def_cfa_offset 24
 1915              		.cfi_offset 3, -24
 1916              		.cfi_offset 4, -20
 1917              		.cfi_offset 5, -16
 1918              		.cfi_offset 6, -12
 1919              		.cfi_offset 7, -8
 1920              		.cfi_offset 14, -4
 1921              		.loc 1 1302 0
 1922 0002 DC4F     		ldr	r7, .L344
 1923 0004 9FEDDC7A 		vldr.32	s14, .L344+4
 1924 0008 3B8A     		ldrh	r3, [r7, #16]
 1925              		.loc 1 1305 0
 1926 000a DC4E     		ldr	r6, .L344+8
 1927              		.loc 1 1302 0
 1928 000c DFEDDC7A 		vldr.32	s15, .L344+12
 1929              		.loc 1 1306 0
 1930 0010 DC4D     		ldr	r5, .L344+16
 1931 0012 DD4C     		ldr	r4, .L344+20
 1932              		.loc 1 1301 0
 1933 0014 2DED0A8B 		vpush.64	{d8, d9, d10, d11, d12}
 1934              		.cfi_def_cfa_offset 64
 1935              		.cfi_offset 80, -64
 1936              		.cfi_offset 81, -60
 1937              		.cfi_offset 82, -56
 1938              		.cfi_offset 83, -52
ARM GAS  C:\Users\CHRIST~1\AppData\Local\Temp\ccb3oWGE.s 			page 35


 1939              		.cfi_offset 84, -48
 1940              		.cfi_offset 85, -44
 1941              		.cfi_offset 86, -40
 1942              		.cfi_offset 87, -36
 1943              		.cfi_offset 88, -32
 1944              		.cfi_offset 89, -28
 1945              		.loc 1 1302 0
 1946 0018 08EE103A 		vmov	s16, r3	@ int
 1947 001c B8EE488A 		vcvt.f32.u32	s16, s16
 1948              		.loc 1 1305 0
 1949 0020 DFEDDA8A 		vldr.32	s17, .L344+24
 1950 0024 DFEDDABA 		vldr.32	s23, .L344+28
 1951 0028 9FEDDABA 		vldr.32	s22, .L344+32
 1952 002c DFEDDAAA 		vldr.32	s21, .L344+36
 1953              		.loc 1 1302 0
 1954 0030 28EE078A 		vmul.f32	s16, s16, s14
 1955              		.loc 1 1305 0
 1956 0034 B7EE00AA 		vmov.f32	s20, #1.0e+0
 1957              		.loc 1 1302 0
 1958 0038 28EE278A 		vmul.f32	s16, s16, s15
 1959              	.LVL123:
 1960              		.loc 1 1303 0
 1961 003c FFF7FEFF 		bl	mc_interface_get_rpm
 1962              	.LVL124:
 1963              		.loc 1 1305 0
 1964 0040 D6ED009A 		vldr.32	s19, [r6]
 1965 0044 7B89     		ldrh	r3, [r7, #10]
 1966 0046 9FEDD57A 		vldr.32	s14, .L344+40
 1967 004a 07EE903A 		vmov	s15, r3	@ int
 1968 004e F8EEE77A 		vcvt.f32.s32	s15, s15
 1969              		.loc 1 1303 0
 1970 0052 B0EE409A 		vmov.f32	s18, s0
 1971              	.LVL125:
 1972              		.loc 1 1305 0
 1973 0056 87EE270A 		vdiv.f32	s0, s14, s15
 1974              	.LVL126:
 1975 005a 30EE680A 		vsub.f32	s0, s0, s17
 1976 005e 80EE280A 		vdiv.f32	s0, s0, s17
 1977 0062 FFF7FEFF 		bl	logf
 1978              	.LVL127:
 1979 0066 9FEDCE7A 		vldr.32	s14, .L344+44
 1980 006a D6ED007A 		vldr.32	s15, [r6]
 1981              		.loc 1 1306 0
 1982 006e DFEDCD6A 		vldr.32	s13, .L344+48
 1983              		.loc 1 1305 0
 1984 0072 80EE070A 		vdiv.f32	s0, s0, s14
 1985 0076 30EE2B0A 		vadd.f32	s0, s0, s23
 1986 007a 8AEE007A 		vdiv.f32	s14, s20, s0
 1987 007e 37EE4B7A 		vsub.f32	s14, s14, s22
 1988 0082 79EEC79A 		vsub.f32	s19, s19, s14
 1989 0086 E9EEEA7A 		vfms.f32	s15, s19, s21
 1990 008a C6ED007A 		vstr.32	s15, [r6]
 1991              		.loc 1 1306 0
 1992 008e D5ED009A 		vldr.32	s19, [r5]
 1993 0092 FB8A     		ldrh	r3, [r7, #22]
 1994 0094 07EE103A 		vmov	s14, r3	@ int
 1995 0098 B8EE477A 		vcvt.f32.u32	s14, s14
ARM GAS  C:\Users\CHRIST~1\AppData\Local\Temp\ccb3oWGE.s 			page 36


 1996 009c C6EE877A 		vdiv.f32	s15, s13, s14
 1997 00a0 77EECA7A 		vsub.f32	s15, s15, s20
 1998 00a4 88EEA70A 		vdiv.f32	s0, s17, s15
 1999 00a8 80EE280A 		vdiv.f32	s0, s0, s17
 2000 00ac FFF7FEFF 		bl	logf
 2001              	.LVL128:
 2002 00b0 94ED5C7A 		vldr.32	s14, [r4, #368]
 2003 00b4 D5ED007A 		vldr.32	s15, [r5]
 2004 00b8 80EE070A 		vdiv.f32	s0, s0, s14
 2005 00bc 30EE2B0A 		vadd.f32	s0, s0, s23
 2006 00c0 8AEE007A 		vdiv.f32	s14, s20, s0
 2007 00c4 37EE4B7A 		vsub.f32	s14, s14, s22
 2008 00c8 79EEC79A 		vsub.f32	s19, s19, s14
 2009 00cc E9EEEA7A 		vfms.f32	s15, s19, s21
 2010 00d0 C5ED007A 		vstr.32	s15, [r5]
 2011              	.LVL129:
 2012              		.loc 1 1311 0
 2013 00d4 94ED107A 		vldr.32	s14, [r4, #64]
 2014 00d8 D6ED007A 		vldr.32	s15, [r6]
 2015 00dc B4EEE77A 		vcmpe.f32	s14, s15
 2016 00e0 F1EE10FA 		vmrs	APSR_nzcv, FPSCR
 2017 00e4 40F3F080 		ble	.L320
 2018              		.loc 1 1312 0
 2019 00e8 D4ED028A 		vldr.32	s17, [r4, #8]
 2020              	.LVL130:
 2021              		.loc 1 1313 0
 2022 00ec 94ED01BA 		vldr.32	s22, [r4, #4]
 2023              	.LVL131:
 2024              	.L241:
 2025              		.loc 1 1338 0
 2026 00f0 94ED127A 		vldr.32	s14, [r4, #72]
 2027 00f4 D5ED007A 		vldr.32	s15, [r5]
 2028 00f8 B4EEE77A 		vcmpe.f32	s14, s15
 2029 00fc F1EE10FA 		vmrs	APSR_nzcv, FPSCR
 2030 0100 40F32181 		ble	.L325
 2031              		.loc 1 1339 0
 2032 0104 D4ED029A 		vldr.32	s19, [r4, #8]
 2033              	.LVL132:
 2034              		.loc 1 1340 0
 2035 0108 94ED01CA 		vldr.32	s24, [r4, #4]
 2036              	.LVL133:
 2037              	.L256:
 2038              		.loc 1 1364 0
 2039 010c 94ED140A 		vldr.32	s0, [r4, #80]
 2040 0110 DFEDA70A 		vldr.32	s1, .L344+60
 2041 0114 D4ED101A 		vldr.32	s3, [r4, #64]
 2042 0118 B3EE092A 		vmov.f32	s4, #2.5e+1
 2043 011c B7EE001A 		vmov.f32	s2, #1.0e+0
 2044 0120 FFF7FEFF 		bl	utils_map
 2045              	.LVL134:
 2046              		.loc 1 1365 0
 2047 0124 DFEDA20A 		vldr.32	s1, .L344+60
 2048              		.loc 1 1364 0
 2049 0128 F0EE40AA 		vmov.f32	s21, s0
 2050              	.LVL135:
 2051              		.loc 1 1365 0
 2052 012c B3EE092A 		vmov.f32	s4, #2.5e+1
ARM GAS  C:\Users\CHRIST~1\AppData\Local\Temp\ccb3oWGE.s 			page 37


 2053 0130 94ED140A 		vldr.32	s0, [r4, #80]
 2054              	.LVL136:
 2055 0134 D4ED111A 		vldr.32	s3, [r4, #68]
 2056 0138 B7EE001A 		vmov.f32	s2, #1.0e+0
 2057 013c FFF7FEFF 		bl	utils_map
 2058              	.LVL137:
 2059              		.loc 1 1366 0
 2060 0140 DFED9B0A 		vldr.32	s1, .L344+60
 2061 0144 B3EE092A 		vmov.f32	s4, #2.5e+1
 2062 0148 B7EE001A 		vmov.f32	s2, #1.0e+0
 2063              		.loc 1 1365 0
 2064 014c F0EE40CA 		vmov.f32	s25, s0
 2065              	.LVL138:
 2066              		.loc 1 1366 0
 2067 0150 94ED140A 		vldr.32	s0, [r4, #80]
 2068              	.LVL139:
 2069 0154 D4ED121A 		vldr.32	s3, [r4, #72]
 2070 0158 FFF7FEFF 		bl	utils_map
 2071              	.LVL140:
 2072              		.loc 1 1367 0
 2073 015c DFED940A 		vldr.32	s1, .L344+60
 2074              		.loc 1 1366 0
 2075 0160 B0EE40AA 		vmov.f32	s20, s0
 2076              	.LVL141:
 2077              		.loc 1 1367 0
 2078 0164 B3EE092A 		vmov.f32	s4, #2.5e+1
 2079 0168 94ED140A 		vldr.32	s0, [r4, #80]
 2080              	.LVL142:
 2081 016c D4ED131A 		vldr.32	s3, [r4, #76]
 2082 0170 B7EE001A 		vmov.f32	s2, #1.0e+0
 2083 0174 FFF7FEFF 		bl	utils_map
 2084              	.LVL143:
 2085              		.loc 1 1370 0
 2086 0178 D6ED007A 		vldr.32	s15, [r6]
 2087 017c F4EEE7AA 		vcmpe.f32	s21, s15
 2088 0180 F1EE10FA 		vmrs	APSR_nzcv, FPSCR
 2089              		.loc 1 1367 0
 2090 0184 F0EE40BA 		vmov.f32	s23, s0
 2091              	.LVL144:
 2092              		.loc 1 1370 0
 2093 0188 40F3D280 		ble	.L330
 2094              		.loc 1 1371 0
 2095 018c D4ED01AA 		vldr.32	s21, [r4, #4]
 2096              	.LVL145:
 2097              	.L271:
 2098              		.loc 1 1380 0
 2099 0190 D5ED007A 		vldr.32	s15, [r5]
 2100 0194 B4EEE7AA 		vcmpe.f32	s20, s15
 2101 0198 F1EE10FA 		vmrs	APSR_nzcv, FPSCR
 2102 019c 40F3BD80 		ble	.L331
 2103              		.loc 1 1381 0
 2104 01a0 94ED01AA 		vldr.32	s20, [r4, #4]
 2105              	.LVL146:
 2106              	.L274:
 2107              		.loc 1 1391 0
 2108 01a4 D4ED070A 		vldr.32	s1, [r4, #28]
 2109 01a8 D4ED087A 		vldr.32	s15, [r4, #32]
ARM GAS  C:\Users\CHRIST~1\AppData\Local\Temp\ccb3oWGE.s 			page 38


 2110              		.loc 1 1392 0
 2111 01ac 94ED071A 		vldr.32	s2, [r4, #28]
 2112              		.loc 1 1391 0
 2113 01b0 60EEA70A 		vmul.f32	s1, s1, s15
 2114              	.LVL147:
 2115              		.loc 1 1393 0
 2116 01b4 B4EEE09A 		vcmpe.f32	s18, s1
 2117 01b8 F1EE10FA 		vmrs	APSR_nzcv, FPSCR
 2118 01bc 40F1A480 		bpl	.L332
 2119              		.loc 1 1394 0
 2120 01c0 D4ED01BA 		vldr.32	s23, [r4, #4]
 2121              	.LVL148:
 2122              	.L277:
 2123              		.loc 1 1403 0
 2124 01c4 D4ED060A 		vldr.32	s1, [r4, #24]
 2125 01c8 D4ED087A 		vldr.32	s15, [r4, #32]
 2126              		.loc 1 1404 0
 2127 01cc 94ED061A 		vldr.32	s2, [r4, #24]
 2128              		.loc 1 1403 0
 2129 01d0 60EEA70A 		vmul.f32	s1, s1, s15
 2130              	.LVL149:
 2131              		.loc 1 1405 0
 2132 01d4 B4EEE09A 		vcmpe.f32	s18, s1
 2133 01d8 F1EE10FA 		vmrs	APSR_nzcv, FPSCR
 2134 01dc 40F38B80 		ble	.L333
 2135              		.loc 1 1406 0
 2136 01e0 94ED019A 		vldr.32	s18, [r4, #4]
 2137              	.LVL150:
 2138              	.L280:
 2139              		.loc 1 1413 0
 2140 01e4 F0EE4C0A 		vmov.f32	s1, s24
 2141 01e8 B0EE4B0A 		vmov.f32	s0, s22
 2142 01ec FFF7FEFF 		bl	utils_min_abs
 2143              	.LVL151:
 2144              		.loc 1 1414 0
 2145 01f0 F0EE690A 		vmov.f32	s1, s19
 2146              		.loc 1 1413 0
 2147 01f4 B0EE40BA 		vmov.f32	s22, s0
 2148              	.LVL152:
 2149              		.loc 1 1414 0
 2150 01f8 B0EE680A 		vmov.f32	s0, s17
 2151              	.LVL153:
 2152 01fc FFF7FEFF 		bl	utils_min_abs
 2153              	.LVL154:
 2154              		.loc 1 1416 0
 2155 0200 F0EE6B0A 		vmov.f32	s1, s23
 2156              		.loc 1 1414 0
 2157 0204 F0EE408A 		vmov.f32	s17, s0
 2158              	.LVL155:
 2159              		.loc 1 1416 0
 2160 0208 B0EE4B0A 		vmov.f32	s0, s22
 2161              	.LVL156:
 2162 020c FFF7FEFF 		bl	utils_min_abs
 2163              	.LVL157:
 2164              		.loc 1 1417 0
 2165 0210 F0EE490A 		vmov.f32	s1, s18
 2166 0214 FFF7FEFF 		bl	utils_min_abs
ARM GAS  C:\Users\CHRIST~1\AppData\Local\Temp\ccb3oWGE.s 			page 39


 2167              	.LVL158:
 2168              		.loc 1 1418 0
 2169 0218 F0EE6A0A 		vmov.f32	s1, s21
 2170 021c FFF7FEFF 		bl	utils_min_abs
 2171              	.LVL159:
 2172              		.loc 1 1419 0
 2173 0220 F0EE4A0A 		vmov.f32	s1, s20
 2174 0224 FFF7FEFF 		bl	utils_min_abs
 2175              	.LVL160:
 2176              		.loc 1 1421 0
 2177 0228 D4ED507A 		vldr.32	s15, [r4, #320]
 2178 022c B4EEE70A 		vcmpe.f32	s0, s15
 2179 0230 F1EE10FA 		vmrs	APSR_nzcv, FPSCR
 2180              		.loc 1 1422 0
 2181 0234 48BF     		it	mi
 2182 0236 94ED500A 		vldrmi.32	s0, [r4, #320]
 2183              	.LVL161:
 2184              		.loc 1 1425 0
 2185 023a D4ED507A 		vldr.32	s15, [r4, #320]
 2186 023e F1EE677A 		vneg.f32	s15, s15
 2187 0242 F4EEE78A 		vcmpe.f32	s17, s15
 2188 0246 F1EE10FA 		vmrs	APSR_nzcv, FPSCR
 2189              		.loc 1 1426 0
 2190 024a C8BF     		it	gt
 2191 024c D4ED508A 		vldrgt.32	s17, [r4, #320]
 2192              	.LVL162:
 2193              		.loc 1 1429 0
 2194 0250 84ED190A 		vstr.32	s0, [r4, #100]
 2195              		.loc 1 1426 0
 2196 0254 C8BF     		it	gt
 2197 0256 F1EE688A 		vneggt.f32	s17, s17
 2198              	.LVL163:
 2199              		.loc 1 1430 0
 2200 025a C4ED1A8A 		vstr.32	s17, [r4, #104]
 2201              	.LVL164:
 2202              		.loc 1 1434 0
 2203 025e D4ED0D7A 		vldr.32	s15, [r4, #52]
 2204 0262 B4EEE78A 		vcmpe.f32	s16, s15
 2205 0266 F1EE10FA 		vmrs	APSR_nzcv, FPSCR
 2206 026a 00F31F81 		bgt	.L336
 2207              		.loc 1 1436 0
 2208 026e D4ED0E7A 		vldr.32	s15, [r4, #56]
 2209 0272 B4EEE78A 		vcmpe.f32	s16, s15
 2210 0276 F1EE10FA 		vmrs	APSR_nzcv, FPSCR
 2211 027a 40F11A81 		bpl	.L337
 2212              		.loc 1 1437 0
 2213 027e DFED4C0A 		vldr.32	s1, .L344+60
 2214              	.LVL165:
 2215              	.L287:
 2216              		.loc 1 1444 0
 2217 0282 94ED170A 		vldr.32	s0, [r4, #92]
 2218              	.LVL166:
 2219              		.loc 1 1445 0
 2220 0286 94ED187A 		vldr.32	s14, [r4, #96]
 2221 028a C7EE088A 		vdiv.f32	s17, s14, s16
 2222              	.LVL167:
 2223              		.loc 1 1447 0
ARM GAS  C:\Users\CHRIST~1\AppData\Local\Temp\ccb3oWGE.s 			page 40


 2224 028e 80EE080A 		vdiv.f32	s0, s0, s16
 2225              	.LVL168:
 2226 0292 FFF7FEFF 		bl	utils_min_abs
 2227              	.LVL169:
 2228              		.loc 1 1450 0
 2229 0296 D4ED037A 		vldr.32	s15, [r4, #12]
 2230 029a F0EE400A 		vmov.f32	s1, s0
 2231 029e B0EE670A 		vmov.f32	s0, s15
 2232              	.LVL170:
 2233 02a2 FFF7FEFF 		bl	utils_min_abs
 2234              	.LVL171:
 2235 02a6 84ED1B0A 		vstr.32	s0, [r4, #108]
 2236              		.loc 1 1451 0
 2237 02aa F0EE680A 		vmov.f32	s1, s17
 2238 02ae 94ED040A 		vldr.32	s0, [r4, #16]
 2239 02b2 FFF7FEFF 		bl	utils_min_abs
 2240              	.LVL172:
 2241              		.loc 1 1473 0
 2242 02b6 BDEC0A8B 		vldm	sp!, {d8-d12}
 2243              		.cfi_remember_state
 2244              		.cfi_restore 88
 2245              		.cfi_restore 89
 2246              		.cfi_restore 86
 2247              		.cfi_restore 87
 2248              		.cfi_restore 84
 2249              		.cfi_restore 85
 2250              		.cfi_restore 82
 2251              		.cfi_restore 83
 2252              		.cfi_restore 80
 2253              		.cfi_restore 81
 2254              		.cfi_def_cfa_offset 24
 2255              	.LVL173:
 2256              		.loc 1 1451 0
 2257 02ba 84ED1C0A 		vstr.32	s0, [r4, #112]
 2258              		.loc 1 1471 0
 2259 02be 636E     		ldr	r3, [r4, #100]	@ float
 2260 02c0 6367     		str	r3, [r4, #116]	@ float
 2261              		.loc 1 1472 0
 2262 02c2 A36E     		ldr	r3, [r4, #104]	@ float
 2263 02c4 A367     		str	r3, [r4, #120]	@ float
 2264              		.loc 1 1473 0
 2265 02c6 F8BD     		pop	{r3, r4, r5, r6, r7, pc}
 2266              	.LVL174:
 2267              	.L320:
 2268              		.cfi_restore_state
 2269              		.loc 1 1314 0
 2270 02c8 94ED117A 		vldr.32	s14, [r4, #68]
 2271 02cc D6ED007A 		vldr.32	s15, [r6]
 2272 02d0 B4EEE77A 		vcmpe.f32	s14, s15
 2273 02d4 F1EE10FA 		vmrs	APSR_nzcv, FPSCR
 2274 02d8 6CD5     		bpl	.L321
 2275              	.LVL175:
 2276              	.LBB127:
 2277              	.LBB128:
 2278              		.loc 1 992 0
 2279 02da 334B     		ldr	r3, .L344+52
 2280 02dc 1B78     		ldrb	r3, [r3]	@ zero_extendqisi2
ARM GAS  C:\Users\CHRIST~1\AppData\Local\Temp\ccb3oWGE.s 			page 41


 2281 02de 052B     		cmp	r3, #5
 2282 02e0 40F04A81 		bne	.L244
 2283              		.loc 1 993 0
 2284 02e4 314B     		ldr	r3, .L344+56
 2285              	.LBE128:
 2286              	.LBE127:
 2287              		.loc 1 1315 0
 2288 02e6 DFED328A 		vldr.32	s17, .L344+60
 2289              	.LBB132:
 2290              	.LBB129:
 2291              		.loc 1 993 0
 2292 02ea D4F84C21 		ldr	r2, [r4, #332]
 2293 02ee 1A60     		str	r2, [r3]
 2294              	.LBE129:
 2295              	.LBE132:
 2296              		.loc 1 1316 0
 2297 02f0 B0EE68BA 		vmov.f32	s22, s17
 2298 02f4 FCE6     		b	.L241
 2299              	.LVL176:
 2300              	.L333:
 2301              		.loc 1 1407 0
 2302 02f6 B4EEC19A 		vcmpe.f32	s18, s2
 2303 02fa F1EE10FA 		vmrs	APSR_nzcv, FPSCR
 2304 02fe 40F11081 		bpl	.L338
 2305              		.loc 1 1408 0
 2306 0302 9FED2B9A 		vldr.32	s18, .L344+60
 2307              	.LVL177:
 2308 0306 6DE7     		b	.L280
 2309              	.LVL178:
 2310              	.L332:
 2311              		.loc 1 1395 0
 2312 0308 B4EEC19A 		vcmpe.f32	s18, s2
 2313 030c F1EE10FA 		vmrs	APSR_nzcv, FPSCR
 2314 0310 40F3DE80 		ble	.L339
 2315              		.loc 1 1396 0
 2316 0314 DFED26BA 		vldr.32	s23, .L344+60
 2317              	.LVL179:
 2318 0318 54E7     		b	.L277
 2319              	.LVL180:
 2320              	.L331:
 2321              		.loc 1 1382 0
 2322 031a D5ED007A 		vldr.32	s15, [r5]
 2323 031e F4EEE7BA 		vcmpe.f32	s23, s15
 2324 0322 F1EE10FA 		vmrs	APSR_nzcv, FPSCR
 2325 0326 40F1DE80 		bpl	.L340
 2326              		.loc 1 1383 0
 2327 032a 9FED21AA 		vldr.32	s20, .L344+60
 2328              	.LVL181:
 2329 032e 39E7     		b	.L274
 2330              	.LVL182:
 2331              	.L330:
 2332              		.loc 1 1372 0
 2333 0330 D6ED007A 		vldr.32	s15, [r6]
 2334 0334 F4EEE7CA 		vcmpe.f32	s25, s15
 2335 0338 F1EE10FA 		vmrs	APSR_nzcv, FPSCR
 2336 033c 40F1E280 		bpl	.L341
 2337              		.loc 1 1373 0
ARM GAS  C:\Users\CHRIST~1\AppData\Local\Temp\ccb3oWGE.s 			page 42


 2338 0340 DFED1BAA 		vldr.32	s21, .L344+60
 2339              	.LVL183:
 2340 0344 24E7     		b	.L271
 2341              	.LVL184:
 2342              	.L325:
 2343              		.loc 1 1341 0
 2344 0346 94ED137A 		vldr.32	s14, [r4, #76]
 2345 034a D5ED007A 		vldr.32	s15, [r5]
 2346 034e B4EEE77A 		vcmpe.f32	s14, s15
 2347 0352 F1EE10FA 		vmrs	APSR_nzcv, FPSCR
 2348 0356 6CD5     		bpl	.L326
 2349              	.LVL185:
 2350              	.LBB133:
 2351              	.LBB134:
 2352              		.loc 1 992 0
 2353 0358 134B     		ldr	r3, .L344+52
 2354 035a 1B78     		ldrb	r3, [r3]	@ zero_extendqisi2
 2355 035c 062B     		cmp	r3, #6
 2356 035e 40F00381 		bne	.L259
 2357              		.loc 1 993 0
 2358 0362 124B     		ldr	r3, .L344+56
 2359              	.LBE134:
 2360              	.LBE133:
 2361              		.loc 1 1342 0
 2362 0364 DFED129A 		vldr.32	s19, .L344+60
 2363              	.LBB138:
 2364              	.LBB135:
 2365              		.loc 1 993 0
 2366 0368 D4F84C21 		ldr	r2, [r4, #332]
 2367 036c 1A60     		str	r2, [r3]
 2368              	.LBE135:
 2369              	.LBE138:
 2370              		.loc 1 1343 0
 2371 036e B0EE69CA 		vmov.f32	s24, s19
 2372 0372 CBE6     		b	.L256
 2373              	.L345:
 2374              		.align	2
 2375              	.L344:
 2376 0374 00000000 		.word	.LANCHOR41
 2377 0378 6740533A 		.word	978534503
 2378 037c 00000000 		.word	.LANCHOR32
 2379 0380 74D19541 		.word	1100337524
 2380 0384 00000000 		.word	.LANCHOR33
 2381 0388 00000000 		.word	.LANCHOR12
 2382 038c 00401C46 		.word	1176256512
 2383 0390 0FCF5B3B 		.word	995872527
 2384 0394 33938843 		.word	1133024051
 2385 0398 CDCCCC3D 		.word	1036831949
 2386 039c 3C361C4C 		.word	1276917308
 2387 03a0 00A05645 		.word	1163304960
 2388 03a4 00F07F45 		.word	1166012416
 2389 03a8 00000000 		.word	.LANCHOR13
 2390 03ac 00000000 		.word	.LANCHOR14
 2391 03b0 00000000 		.word	0
 2392              	.LVL186:
 2393              	.L321:
 2394              	.LBB139:
ARM GAS  C:\Users\CHRIST~1\AppData\Local\Temp\ccb3oWGE.s 			page 43


 2395              		.loc 1 1319 0
 2396 03b4 D4ED011A 		vldr.32	s3, [r4, #4]
 2397              		.loc 1 1320 0
 2398 03b8 D4ED027A 		vldr.32	s15, [r4, #8]
 2399              		.loc 1 1324 0
 2400 03bc 1FED042A 		vldr.32	s4, .L344+60
 2401              		.loc 1 1319 0
 2402 03c0 F0EEE11A 		vabs.f32	s3, s3
 2403              	.LVL187:
 2404              		.loc 1 1320 0
 2405 03c4 F0EEE77A 		vabs.f32	s15, s15
 2406 03c8 F4EEE71A 		vcmpe.f32	s3, s15
 2407 03cc F1EE10FA 		vmrs	APSR_nzcv, FPSCR
 2408              		.loc 1 1321 0
 2409 03d0 48BF     		it	mi
 2410 03d2 D4ED021A 		vldrmi.32	s3, [r4, #8]
 2411              	.LVL188:
 2412              		.loc 1 1324 0
 2413 03d6 96ED000A 		vldr.32	s0, [r6]
 2414 03da D4ED100A 		vldr.32	s1, [r4, #64]
 2415 03de 94ED111A 		vldr.32	s2, [r4, #68]
 2416              		.loc 1 1321 0
 2417 03e2 48BF     		it	mi
 2418 03e4 F0EEE11A 		vabsmi.f32	s3, s3
 2419              	.LVL189:
 2420              		.loc 1 1324 0
 2421 03e8 FFF7FEFF 		bl	utils_map
 2422              	.LVL190:
 2423              		.loc 1 1326 0
 2424 03ec D4ED017A 		vldr.32	s15, [r4, #4]
 2425 03f0 F0EEE77A 		vabs.f32	s15, s15
 2426 03f4 B4EEE70A 		vcmpe.f32	s0, s15
 2427 03f8 F1EE10FA 		vmrs	APSR_nzcv, FPSCR
 2428              		.loc 1 1324 0
 2429 03fc F0EE408A 		vmov.f32	s17, s0
 2430              	.LVL191:
 2431              		.loc 1 1326 0
 2432 0400 00F1A680 		bmi	.L342
 2433              	.LBE139:
 2434              		.loc 1 1309 0
 2435 0404 1FED16BA 		vldr.32	s22, .L344+60
 2436              	.LVL192:
 2437              	.L247:
 2438              	.LBB140:
 2439              		.loc 1 1330 0
 2440 0408 D4ED027A 		vldr.32	s15, [r4, #8]
 2441 040c F0EEE77A 		vabs.f32	s15, s15
 2442 0410 F4EEE78A 		vcmpe.f32	s17, s15
 2443 0414 F1EE10FA 		vmrs	APSR_nzcv, FPSCR
 2444 0418 40F1B980 		bpl	.L324
 2445              		.loc 1 1331 0
 2446 041c D4ED027A 		vldr.32	s15, [r4, #8]
 2447 0420 F5EEC07A 		vcmpe.f32	s15, #0
 2448 0424 F1EE10FA 		vmrs	APSR_nzcv, FPSCR
 2449 0428 7FF562AE 		bpl	.L241
 2450 042c F1EE688A 		vneg.f32	s17, s17
 2451              	.LVL193:
ARM GAS  C:\Users\CHRIST~1\AppData\Local\Temp\ccb3oWGE.s 			page 44


 2452 0430 5EE6     		b	.L241
 2453              	.LVL194:
 2454              	.L326:
 2455              	.LBE140:
 2456              	.LBB141:
 2457              		.loc 1 1346 0
 2458 0432 D4ED011A 		vldr.32	s3, [r4, #4]
 2459              		.loc 1 1347 0
 2460 0436 D4ED027A 		vldr.32	s15, [r4, #8]
 2461              		.loc 1 1351 0
 2462 043a 1FED232A 		vldr.32	s4, .L344+60
 2463              		.loc 1 1346 0
 2464 043e F0EEE11A 		vabs.f32	s3, s3
 2465              	.LVL195:
 2466              		.loc 1 1347 0
 2467 0442 F0EEE77A 		vabs.f32	s15, s15
 2468 0446 F4EEE71A 		vcmpe.f32	s3, s15
 2469 044a F1EE10FA 		vmrs	APSR_nzcv, FPSCR
 2470              		.loc 1 1348 0
 2471 044e 48BF     		it	mi
 2472 0450 D4ED021A 		vldrmi.32	s3, [r4, #8]
 2473              	.LVL196:
 2474              		.loc 1 1351 0
 2475 0454 95ED000A 		vldr.32	s0, [r5]
 2476 0458 D4ED120A 		vldr.32	s1, [r4, #72]
 2477 045c 94ED131A 		vldr.32	s2, [r4, #76]
 2478              		.loc 1 1348 0
 2479 0460 48BF     		it	mi
 2480 0462 F0EEE11A 		vabsmi.f32	s3, s3
 2481              	.LVL197:
 2482              		.loc 1 1351 0
 2483 0466 FFF7FEFF 		bl	utils_map
 2484              	.LVL198:
 2485              		.loc 1 1353 0
 2486 046a D4ED017A 		vldr.32	s15, [r4, #4]
 2487 046e F0EEE77A 		vabs.f32	s15, s15
 2488 0472 B4EEE70A 		vcmpe.f32	s0, s15
 2489 0476 F1EE10FA 		vmrs	APSR_nzcv, FPSCR
 2490              		.loc 1 1351 0
 2491 047a F0EE409A 		vmov.f32	s19, s0
 2492              	.LVL199:
 2493              		.loc 1 1353 0
 2494 047e 5BD4     		bmi	.L343
 2495              	.LBE141:
 2496              		.loc 1 1336 0
 2497 0480 1FED35CA 		vldr.32	s24, .L344+60
 2498              	.LVL200:
 2499              	.L262:
 2500              	.LBB142:
 2501              		.loc 1 1357 0
 2502 0484 D4ED027A 		vldr.32	s15, [r4, #8]
 2503 0488 F0EEE77A 		vabs.f32	s15, s15
 2504 048c F4EEE79A 		vcmpe.f32	s19, s15
 2505 0490 F1EE10FA 		vmrs	APSR_nzcv, FPSCR
 2506 0494 78D5     		bpl	.L329
 2507              		.loc 1 1358 0
 2508 0496 D4ED027A 		vldr.32	s15, [r4, #8]
ARM GAS  C:\Users\CHRIST~1\AppData\Local\Temp\ccb3oWGE.s 			page 45


 2509 049a F5EEC07A 		vcmpe.f32	s15, #0
 2510 049e F1EE10FA 		vmrs	APSR_nzcv, FPSCR
 2511 04a2 7FF533AE 		bpl	.L256
 2512 04a6 F1EE699A 		vneg.f32	s19, s19
 2513              	.LVL201:
 2514 04aa 2FE6     		b	.L256
 2515              	.LVL202:
 2516              	.L336:
 2517              	.LBE142:
 2518              		.loc 1 1435 0
 2519 04ac D4ED030A 		vldr.32	s1, [r4, #12]
 2520              	.LVL203:
 2521 04b0 E7E6     		b	.L287
 2522              	.LVL204:
 2523              	.L337:
 2524              		.loc 1 1439 0
 2525 04b2 D4ED0D0A 		vldr.32	s1, [r4, #52]
 2526 04b6 1FED422A 		vldr.32	s4, .L344+60
 2527 04ba 94ED0E1A 		vldr.32	s2, [r4, #56]
 2528 04be D4ED031A 		vldr.32	s3, [r4, #12]
 2529 04c2 B0EE480A 		vmov.f32	s0, s16
 2530              	.LVL205:
 2531 04c6 FFF7FEFF 		bl	utils_map
 2532              	.LVL206:
 2533 04ca F0EE400A 		vmov.f32	s1, s0
 2534              	.LVL207:
 2535 04ce D8E6     		b	.L287
 2536              	.LVL208:
 2537              	.L339:
 2538              		.loc 1 1398 0
 2539 04d0 D4ED011A 		vldr.32	s3, [r4, #4]
 2540 04d4 1FED4A2A 		vldr.32	s4, .L344+60
 2541 04d8 B0EE490A 		vmov.f32	s0, s18
 2542 04dc FFF7FEFF 		bl	utils_map
 2543              	.LVL209:
 2544 04e0 F0EE40BA 		vmov.f32	s23, s0
 2545              	.LVL210:
 2546 04e4 6EE6     		b	.L277
 2547              	.LVL211:
 2548              	.L340:
 2549              		.loc 1 1385 0
 2550 04e6 95ED000A 		vldr.32	s0, [r5]
 2551 04ea 1FED4F2A 		vldr.32	s4, .L344+60
 2552 04ee D4ED011A 		vldr.32	s3, [r4, #4]
 2553 04f2 F0EE4A0A 		vmov.f32	s1, s20
 2554 04f6 B0EE6B1A 		vmov.f32	s2, s23
 2555 04fa FFF7FEFF 		bl	utils_map
 2556              	.LVL212:
 2557 04fe B0EE40AA 		vmov.f32	s20, s0
 2558              	.LVL213:
 2559 0502 4FE6     		b	.L274
 2560              	.LVL214:
 2561              	.L341:
 2562              		.loc 1 1375 0
 2563 0504 96ED000A 		vldr.32	s0, [r6]
 2564              	.LVL215:
 2565 0508 1FED572A 		vldr.32	s4, .L344+60
ARM GAS  C:\Users\CHRIST~1\AppData\Local\Temp\ccb3oWGE.s 			page 46


 2566 050c D4ED011A 		vldr.32	s3, [r4, #4]
 2567 0510 F0EE6A0A 		vmov.f32	s1, s21
 2568 0514 B0EE6C1A 		vmov.f32	s2, s25
 2569 0518 FFF7FEFF 		bl	utils_map
 2570              	.LVL216:
 2571 051c F0EE40AA 		vmov.f32	s21, s0
 2572              	.LVL217:
 2573 0520 36E6     		b	.L271
 2574              	.LVL218:
 2575              	.L338:
 2576              		.loc 1 1410 0
 2577 0522 B0EE490A 		vmov.f32	s0, s18
 2578 0526 D4ED011A 		vldr.32	s3, [r4, #4]
 2579 052a 1FED5F2A 		vldr.32	s4, .L344+60
 2580 052e FFF7FEFF 		bl	utils_map
 2581              	.LVL219:
 2582 0532 B0EE409A 		vmov.f32	s18, s0
 2583              	.LVL220:
 2584 0536 55E6     		b	.L280
 2585              	.LVL221:
 2586              	.L343:
 2587              	.LBB143:
 2588              		.loc 1 1354 0
 2589 0538 D4ED017A 		vldr.32	s15, [r4, #4]
 2590 053c F5EEC07A 		vcmpe.f32	s15, #0
 2591 0540 F1EE10FA 		vmrs	APSR_nzcv, FPSCR
 2592 0544 4CBF     		ite	mi
 2593 0546 B1EE40CA 		vnegmi.f32	s24, s0
 2594 054a B0EE40CA 		vmovpl.f32	s24, s0
 2595              	.LVL222:
 2596 054e 99E7     		b	.L262
 2597              	.LVL223:
 2598              	.L342:
 2599              	.LBE143:
 2600              	.LBB144:
 2601              		.loc 1 1327 0
 2602 0550 D4ED017A 		vldr.32	s15, [r4, #4]
 2603 0554 F5EEC07A 		vcmpe.f32	s15, #0
 2604 0558 F1EE10FA 		vmrs	APSR_nzcv, FPSCR
 2605 055c 4CBF     		ite	mi
 2606 055e B1EE40BA 		vnegmi.f32	s22, s0
 2607 0562 B0EE40BA 		vmovpl.f32	s22, s0
 2608              	.LVL224:
 2609 0566 4FE7     		b	.L247
 2610              	.LVL225:
 2611              	.L259:
 2612              	.LBE144:
 2613              		.loc 1 1342 0
 2614 0568 5FED6F9A 		vldr.32	s19, .L344+60
 2615              	.LBB145:
 2616              	.LBB136:
 2617 056c 0620     		movs	r0, #6
 2618              	.LBE136:
 2619              	.LBE145:
 2620              		.loc 1 1343 0
 2621 056e B0EE69CA 		vmov.f32	s24, s19
 2622              	.LBB146:
ARM GAS  C:\Users\CHRIST~1\AppData\Local\Temp\ccb3oWGE.s 			page 47


 2623              	.LBB137:
 2624 0572 FFF7FEFF 		bl	mc_interface_fault_stop.part.3
 2625              	.LVL226:
 2626 0576 C9E5     		b	.L256
 2627              	.LVL227:
 2628              	.L244:
 2629              	.LBE137:
 2630              	.LBE146:
 2631              		.loc 1 1315 0
 2632 0578 5FED738A 		vldr.32	s17, .L344+60
 2633              	.LBB147:
 2634              	.LBB130:
 2635 057c 0520     		movs	r0, #5
 2636              	.LBE130:
 2637              	.LBE147:
 2638              		.loc 1 1316 0
 2639 057e B0EE68BA 		vmov.f32	s22, s17
 2640              	.LBB148:
 2641              	.LBB131:
 2642 0582 FFF7FEFF 		bl	mc_interface_fault_stop.part.3
 2643              	.LVL228:
 2644 0586 B3E5     		b	.L241
 2645              	.LVL229:
 2646              	.L329:
 2647              	.LBE131:
 2648              	.LBE148:
 2649              		.loc 1 1337 0
 2650 0588 5FED779A 		vldr.32	s19, .L344+60
 2651 058c BEE5     		b	.L256
 2652              	.LVL230:
 2653              	.L324:
 2654              		.loc 1 1310 0
 2655 058e 5FED788A 		vldr.32	s17, .L344+60
 2656 0592 ADE5     		b	.L241
 2657              		.cfi_endproc
 2658              	.LFE316:
 2659              		.size	update_override_limits.constprop.4, .-update_override_limits.constprop.4
 2660              		.section	.text.mc_interface_set_configuration,"ax",%progbits
 2661              		.align	1
 2662              		.p2align 4,,15
 2663              		.global	mc_interface_set_configuration
 2664              		.syntax unified
 2665              		.thumb
 2666              		.thumb_func
 2667              		.fpu fpv4-sp-d16
 2668              		.type	mc_interface_set_configuration, %function
 2669              	mc_interface_set_configuration:
 2670              	.LFB258:
 2671              		.loc 1 175 0
 2672              		.cfi_startproc
 2673              		@ args = 0, pretend = 0, frame = 0
 2674              		@ frame_needed = 0, uses_anonymous_args = 0
 2675              	.LVL231:
 2676 0000 38B5     		push	{r3, r4, r5, lr}
 2677              		.cfi_def_cfa_offset 16
 2678              		.cfi_offset 3, -16
 2679              		.cfi_offset 4, -12
ARM GAS  C:\Users\CHRIST~1\AppData\Local\Temp\ccb3oWGE.s 			page 48


 2680              		.cfi_offset 5, -8
 2681              		.cfi_offset 14, -4
 2682              		.loc 1 177 0
 2683 0002 354D     		ldr	r5, .L370
 2684 0004 90F85C31 		ldrb	r3, [r0, #348]	@ zero_extendqisi2
 2685 0008 95F85C21 		ldrb	r2, [r5, #348]	@ zero_extendqisi2
 2686 000c 9A42     		cmp	r2, r3
 2687              		.loc 1 175 0
 2688 000e 0446     		mov	r4, r0
 2689              		.loc 1 177 0
 2690 0010 1ED1     		bne	.L364
 2691              	.LVL232:
 2692              	.L347:
 2693              		.loc 1 193 0
 2694 0012 012B     		cmp	r3, #1
 2695 0014 2AD0     		beq	.L365
 2696              	.L348:
 2697              		.loc 1 203 0
 2698 0016 AB78     		ldrb	r3, [r5, #2]	@ zero_extendqisi2
 2699 0018 022B     		cmp	r3, #2
 2700 001a 2ED0     		beq	.L366
 2701              	.L351:
 2702              		.loc 1 208 0
 2703 001c AB78     		ldrb	r3, [r5, #2]	@ zero_extendqisi2
 2704 001e 022B     		cmp	r3, #2
 2705 0020 02D0     		beq	.L354
 2706              		.loc 1 209 0
 2707 0022 A378     		ldrb	r3, [r4, #2]	@ zero_extendqisi2
 2708 0024 022B     		cmp	r3, #2
 2709 0026 2ED0     		beq	.L358
 2710              	.L354:
 2711              		.loc 1 214 0
 2712 0028 2146     		mov	r1, r4
 2713 002a 4FF4BA72 		mov	r2, #372
 2714 002e 2A48     		ldr	r0, .L370
 2715 0030 FFF7FEFF 		bl	memcpy
 2716              	.LVL233:
 2717              	.L353:
 2718              		.loc 1 217 0
 2719 0034 FFF7FEFF 		bl	update_override_limits.constprop.4
 2720              	.LVL234:
 2721              		.loc 1 219 0
 2722 0038 AB78     		ldrb	r3, [r5, #2]	@ zero_extendqisi2
 2723 003a DBB2     		uxtb	r3, r3
 2724 003c 012B     		cmp	r3, #1
 2725 003e 33D9     		bls	.L356
 2726              	.L369:
 2727 0040 022B     		cmp	r3, #2
 2728 0042 04D1     		bne	.L367
 2729              		.loc 1 226 0
 2730 0044 2448     		ldr	r0, .L370
 2731              		.loc 1 232 0
 2732 0046 BDE83840 		pop	{r3, r4, r5, lr}
 2733              		.cfi_remember_state
 2734              		.cfi_restore 14
 2735              		.cfi_restore 5
 2736              		.cfi_restore 4
ARM GAS  C:\Users\CHRIST~1\AppData\Local\Temp\ccb3oWGE.s 			page 49


 2737              		.cfi_restore 3
 2738              		.cfi_def_cfa_offset 0
 2739              	.LVL235:
 2740              		.loc 1 226 0
 2741 004a FFF7FEBF 		b	mcpwm_foc_set_configuration
 2742              	.LVL236:
 2743              	.L367:
 2744              		.cfi_restore_state
 2745              		.loc 1 232 0
 2746 004e 38BD     		pop	{r3, r4, r5, pc}
 2747              	.LVL237:
 2748              	.L364:
 2749              		.loc 1 178 0
 2750 0050 FFF7FEFF 		bl	encoder_deinit
 2751              	.LVL238:
 2752              		.loc 1 179 0
 2753 0054 94F85C31 		ldrb	r3, [r4, #348]	@ zero_extendqisi2
 2754 0058 012B     		cmp	r3, #1
 2755 005a 36D0     		beq	.L349
 2756 005c 022B     		cmp	r3, #2
 2757 005e DAD1     		bne	.L348
 2758              		.loc 1 185 0
 2759 0060 FFF7FEFF 		bl	encoder_init_as5047p_spi
 2760              	.LVL239:
 2761 0064 94F85C31 		ldrb	r3, [r4, #348]	@ zero_extendqisi2
 2762              		.loc 1 193 0
 2763 0068 012B     		cmp	r3, #1
 2764 006a D4D1     		bne	.L348
 2765              	.L365:
 2766              		.loc 1 194 0
 2767 006c D4F85801 		ldr	r0, [r4, #344]
 2768 0070 FFF7FEFF 		bl	encoder_set_counts
 2769              	.LVL240:
 2770              		.loc 1 203 0
 2771 0074 AB78     		ldrb	r3, [r5, #2]	@ zero_extendqisi2
 2772 0076 022B     		cmp	r3, #2
 2773 0078 D0D1     		bne	.L351
 2774              	.L366:
 2775              		.loc 1 204 0
 2776 007a A378     		ldrb	r3, [r4, #2]	@ zero_extendqisi2
 2777 007c 022B     		cmp	r3, #2
 2778 007e 18D1     		bne	.L368
 2779              		.loc 1 208 0
 2780 0080 AB78     		ldrb	r3, [r5, #2]	@ zero_extendqisi2
 2781 0082 022B     		cmp	r3, #2
 2782 0084 D0D0     		beq	.L354
 2783              	.L358:
 2784              		.loc 1 210 0
 2785 0086 FFF7FEFF 		bl	mcpwm_deinit
 2786              	.LVL241:
 2787              		.loc 1 211 0
 2788 008a 2146     		mov	r1, r4
 2789 008c 4FF4BA72 		mov	r2, #372
 2790 0090 1148     		ldr	r0, .L370
 2791 0092 FFF7FEFF 		bl	memcpy
 2792              	.LVL242:
 2793              		.loc 1 212 0
ARM GAS  C:\Users\CHRIST~1\AppData\Local\Temp\ccb3oWGE.s 			page 50


 2794 0096 1048     		ldr	r0, .L370
 2795 0098 FFF7FEFF 		bl	mcpwm_foc_init
 2796              	.LVL243:
 2797              		.loc 1 217 0
 2798 009c FFF7FEFF 		bl	update_override_limits.constprop.4
 2799              	.LVL244:
 2800              		.loc 1 219 0
 2801 00a0 AB78     		ldrb	r3, [r5, #2]	@ zero_extendqisi2
 2802 00a2 DBB2     		uxtb	r3, r3
 2803 00a4 012B     		cmp	r3, #1
 2804 00a6 CBD8     		bhi	.L369
 2805              	.L356:
 2806              		.loc 1 222 0
 2807 00a8 0B48     		ldr	r0, .L370
 2808              		.loc 1 232 0
 2809 00aa BDE83840 		pop	{r3, r4, r5, lr}
 2810              		.cfi_remember_state
 2811              		.cfi_restore 14
 2812              		.cfi_restore 5
 2813              		.cfi_restore 4
 2814              		.cfi_restore 3
 2815              		.cfi_def_cfa_offset 0
 2816              	.LVL245:
 2817              		.loc 1 222 0
 2818 00ae FFF7FEBF 		b	mcpwm_set_configuration
 2819              	.LVL246:
 2820              	.L368:
 2821              		.cfi_restore_state
 2822              		.loc 1 205 0
 2823 00b2 FFF7FEFF 		bl	mcpwm_foc_deinit
 2824              	.LVL247:
 2825              		.loc 1 206 0
 2826 00b6 2146     		mov	r1, r4
 2827 00b8 4FF4BA72 		mov	r2, #372
 2828 00bc 0648     		ldr	r0, .L370
 2829 00be FFF7FEFF 		bl	memcpy
 2830              	.LVL248:
 2831              		.loc 1 207 0
 2832 00c2 0548     		ldr	r0, .L370
 2833 00c4 FFF7FEFF 		bl	mcpwm_init
 2834              	.LVL249:
 2835 00c8 B4E7     		b	.L353
 2836              	.L349:
 2837              		.loc 1 181 0
 2838 00ca D4F85801 		ldr	r0, [r4, #344]
 2839 00ce FFF7FEFF 		bl	encoder_init_abi
 2840              	.LVL250:
 2841 00d2 94F85C31 		ldrb	r3, [r4, #348]	@ zero_extendqisi2
 2842              		.loc 1 182 0
 2843 00d6 9CE7     		b	.L347
 2844              	.L371:
 2845              		.align	2
 2846              	.L370:
 2847 00d8 00000000 		.word	.LANCHOR12
 2848              		.cfi_endproc
 2849              	.LFE258:
 2850              		.size	mc_interface_set_configuration, .-mc_interface_set_configuration
ARM GAS  C:\Users\CHRIST~1\AppData\Local\Temp\ccb3oWGE.s 			page 51


 2851              		.section	.text.timer_thread,"ax",%progbits
 2852              		.align	1
 2853              		.p2align 4,,15
 2854              		.syntax unified
 2855              		.thumb
 2856              		.thumb_func
 2857              		.fpu fpv4-sp-d16
 2858              		.type	timer_thread, %function
 2859              	timer_thread:
 2860              	.LFB310:
 2861              		.loc 1 1475 0
 2862              		.cfi_startproc
 2863              		@ Volatile: function does not return.
 2864              		@ args = 0, pretend = 0, frame = 0
 2865              		@ frame_needed = 0, uses_anonymous_args = 0
 2866              	.LVL251:
 2867              	.LBB149:
 2868              	.LBB150:
 2869              		.loc 2 135 0
 2870 0000 0C4B     		ldr	r3, .L381
 2871 0002 0D4A     		ldr	r2, .L381+4
 2872 0004 9B69     		ldr	r3, [r3, #24]
 2873 0006 0D4C     		ldr	r4, .L381+8
 2874              	.LBE150:
 2875              	.LBE149:
 2876              		.loc 1 1485 0
 2877 0008 0D4D     		ldr	r5, .L381+12
 2878              		.loc 1 1475 0
 2879 000a 80B5     		push	{r7, lr}
 2880              		.cfi_def_cfa_offset 8
 2881              		.cfi_offset 7, -8
 2882              		.cfi_offset 14, -4
 2883              		.loc 1 1486 0
 2884 000c 0026     		movs	r6, #0
 2885 000e 0D4F     		ldr	r7, .L381+16
 2886              	.LBB152:
 2887              	.LBB151:
 2888              		.loc 2 135 0
 2889 0010 9A61     		str	r2, [r3, #24]
 2890 0012 05E0     		b	.L375
 2891              	.LVL252:
 2892              	.L380:
 2893              	.LBE151:
 2894              	.LBE152:
 2895              		.loc 1 1483 0
 2896 0014 2360     		str	r3, [r4]
 2897              	.L374:
 2898              		.loc 1 1490 0
 2899 0016 FFF7FEFF 		bl	update_override_limits.constprop.4
 2900              	.LVL253:
 2901              		.loc 1 1492 0
 2902 001a 0A20     		movs	r0, #10
 2903 001c FFF7FEFF 		bl	chThdSleep
 2904              	.LVL254:
 2905              	.L375:
 2906              		.loc 1 1482 0
 2907 0020 2368     		ldr	r3, [r4]
ARM GAS  C:\Users\CHRIST~1\AppData\Local\Temp\ccb3oWGE.s 			page 52


 2908 0022 002B     		cmp	r3, #0
 2909              		.loc 1 1483 0
 2910 0024 03F1FF33 		add	r3, r3, #-1
 2911              		.loc 1 1482 0
 2912 0028 F4DC     		bgt	.L380
 2913              		.loc 1 1485 0
 2914 002a 2B69     		ldr	r3, [r5, #16]
 2915 002c DB04     		lsls	r3, r3, #19
 2916              		.loc 1 1486 0
 2917 002e 48BF     		it	mi
 2918 0030 3E70     		strbmi	r6, [r7]
 2919 0032 F0E7     		b	.L374
 2920              	.L382:
 2921              		.align	2
 2922              	.L381:
 2923 0034 00000000 		.word	ch
 2924 0038 00000000 		.word	.LC2
 2925 003c 00000000 		.word	.LANCHOR14
 2926 0040 00080240 		.word	1073874944
 2927 0044 00000000 		.word	.LANCHOR13
 2928              		.cfi_endproc
 2929              	.LFE310:
 2930              		.size	timer_thread, .-timer_thread
 2931              		.section	.text.mc_interface_get_tachometer_abs_value,"ax",%progbits
 2932              		.align	1
 2933              		.p2align 4,,15
 2934              		.global	mc_interface_get_tachometer_abs_value
 2935              		.syntax unified
 2936              		.thumb
 2937              		.thumb_func
 2938              		.fpu fpv4-sp-d16
 2939              		.type	mc_interface_get_tachometer_abs_value, %function
 2940              	mc_interface_get_tachometer_abs_value:
 2941              	.LFB293:
 2942              		.loc 1 797 0
 2943              		.cfi_startproc
 2944              		@ args = 0, pretend = 0, frame = 0
 2945              		@ frame_needed = 0, uses_anonymous_args = 0
 2946              		@ link register save eliminated.
 2947              	.LVL255:
 2948              		.loc 1 800 0
 2949 0000 064B     		ldr	r3, .L389
 2950 0002 9B78     		ldrb	r3, [r3, #2]	@ zero_extendqisi2
 2951 0004 DBB2     		uxtb	r3, r3
 2952 0006 012B     		cmp	r3, #1
 2953 0008 05D9     		bls	.L385
 2954 000a 022B     		cmp	r3, #2
 2955 000c 01D1     		bne	.L388
 2956              		.loc 1 807 0
 2957 000e FFF7FEBF 		b	mcpwm_foc_get_tachometer_abs_value
 2958              	.LVL256:
 2959              	.L388:
 2960              		.loc 1 815 0
 2961 0012 0020     		movs	r0, #0
 2962              	.LVL257:
 2963 0014 7047     		bx	lr
 2964              	.LVL258:
ARM GAS  C:\Users\CHRIST~1\AppData\Local\Temp\ccb3oWGE.s 			page 53


 2965              	.L385:
 2966              		.loc 1 803 0
 2967 0016 FFF7FEBF 		b	mcpwm_get_tachometer_abs_value
 2968              	.LVL259:
 2969              	.L390:
 2970 001a 00BF     		.align	2
 2971              	.L389:
 2972 001c 00000000 		.word	.LANCHOR12
 2973              		.cfi_endproc
 2974              	.LFE293:
 2975              		.size	mc_interface_get_tachometer_abs_value, .-mc_interface_get_tachometer_abs_value
 2976              		.section	.text.mc_interface_get_last_inj_adc_isr_duration,"ax",%progbits
 2977              		.align	1
 2978              		.p2align 4,,15
 2979              		.global	mc_interface_get_last_inj_adc_isr_duration
 2980              		.syntax unified
 2981              		.thumb
 2982              		.thumb_func
 2983              		.fpu fpv4-sp-d16
 2984              		.type	mc_interface_get_last_inj_adc_isr_duration, %function
 2985              	mc_interface_get_last_inj_adc_isr_duration:
 2986              	.LFB294:
 2987              		.loc 1 817 0
 2988              		.cfi_startproc
 2989              		@ args = 0, pretend = 0, frame = 0
 2990              		@ frame_needed = 0, uses_anonymous_args = 0
 2991              		@ link register save eliminated.
 2992              	.LVL260:
 2993              		.loc 1 820 0
 2994 0000 064B     		ldr	r3, .L397
 2995 0002 9B78     		ldrb	r3, [r3, #2]	@ zero_extendqisi2
 2996 0004 DBB2     		uxtb	r3, r3
 2997 0006 012B     		cmp	r3, #1
 2998 0008 06D9     		bls	.L393
 2999 000a 022B     		cmp	r3, #2
 3000 000c 01D1     		bne	.L396
 3001              		.loc 1 827 0
 3002 000e FFF7FEBF 		b	mcpwm_foc_get_last_inj_adc_isr_duration
 3003              	.LVL261:
 3004              	.L396:
 3005              		.loc 1 835 0
 3006 0012 9FED030A 		vldr.32	s0, .L397+4
 3007 0016 7047     		bx	lr
 3008              	.L393:
 3009              		.loc 1 823 0
 3010 0018 FFF7FEBF 		b	mcpwm_get_last_inj_adc_isr_duration
 3011              	.LVL262:
 3012              	.L398:
 3013              		.align	2
 3014              	.L397:
 3015 001c 00000000 		.word	.LANCHOR12
 3016 0020 00000000 		.word	0
 3017              		.cfi_endproc
 3018              	.LFE294:
 3019              		.size	mc_interface_get_last_inj_adc_isr_duration, .-mc_interface_get_last_inj_adc_isr_duration
 3020              		.section	.text.mc_interface_read_reset_avg_motor_current,"ax",%progbits
 3021              		.align	1
ARM GAS  C:\Users\CHRIST~1\AppData\Local\Temp\ccb3oWGE.s 			page 54


 3022              		.p2align 4,,15
 3023              		.global	mc_interface_read_reset_avg_motor_current
 3024              		.syntax unified
 3025              		.thumb
 3026              		.thumb_func
 3027              		.fpu fpv4-sp-d16
 3028              		.type	mc_interface_read_reset_avg_motor_current, %function
 3029              	mc_interface_read_reset_avg_motor_current:
 3030              	.LFB295:
 3031              		.loc 1 837 0
 3032              		.cfi_startproc
 3033              		@ args = 0, pretend = 0, frame = 0
 3034              		@ frame_needed = 0, uses_anonymous_args = 0
 3035              		@ link register save eliminated.
 3036              		.loc 1 838 0
 3037 0000 0549     		ldr	r1, .L400
 3038 0002 064B     		ldr	r3, .L400+4
 3039 0004 91ED000A 		vldr.32	s0, [r1]
 3040 0008 D3ED007A 		vldr.32	s15, [r3]
 3041              	.LVL263:
 3042              		.loc 1 839 0
 3043 000c 0022     		movs	r2, #0
 3044 000e 0A60     		str	r2, [r1]	@ float
 3045              		.loc 1 842 0
 3046 0010 80EE270A 		vdiv.f32	s0, s0, s15
 3047              	.LVL264:
 3048              		.loc 1 840 0
 3049 0014 1A60     		str	r2, [r3]	@ float
 3050              		.loc 1 842 0
 3051 0016 7047     		bx	lr
 3052              	.L401:
 3053              		.align	2
 3054              	.L400:
 3055 0018 00000000 		.word	.LANCHOR18
 3056 001c 00000000 		.word	.LANCHOR20
 3057              		.cfi_endproc
 3058              	.LFE295:
 3059              		.size	mc_interface_read_reset_avg_motor_current, .-mc_interface_read_reset_avg_motor_current
 3060              		.section	.text.mc_interface_read_reset_avg_input_current,"ax",%progbits
 3061              		.align	1
 3062              		.p2align 4,,15
 3063              		.global	mc_interface_read_reset_avg_input_current
 3064              		.syntax unified
 3065              		.thumb
 3066              		.thumb_func
 3067              		.fpu fpv4-sp-d16
 3068              		.type	mc_interface_read_reset_avg_input_current, %function
 3069              	mc_interface_read_reset_avg_input_current:
 3070              	.LFB296:
 3071              		.loc 1 844 0
 3072              		.cfi_startproc
 3073              		@ args = 0, pretend = 0, frame = 0
 3074              		@ frame_needed = 0, uses_anonymous_args = 0
 3075              		@ link register save eliminated.
 3076              		.loc 1 845 0
 3077 0000 0549     		ldr	r1, .L403
 3078 0002 064B     		ldr	r3, .L403+4
ARM GAS  C:\Users\CHRIST~1\AppData\Local\Temp\ccb3oWGE.s 			page 55


 3079 0004 91ED000A 		vldr.32	s0, [r1]
 3080 0008 D3ED007A 		vldr.32	s15, [r3]
 3081              	.LVL265:
 3082              		.loc 1 846 0
 3083 000c 0022     		movs	r2, #0
 3084 000e 0A60     		str	r2, [r1]	@ float
 3085              		.loc 1 849 0
 3086 0010 80EE270A 		vdiv.f32	s0, s0, s15
 3087              	.LVL266:
 3088              		.loc 1 847 0
 3089 0014 1A60     		str	r2, [r3]	@ float
 3090              		.loc 1 849 0
 3091 0016 7047     		bx	lr
 3092              	.L404:
 3093              		.align	2
 3094              	.L403:
 3095 0018 00000000 		.word	.LANCHOR19
 3096 001c 00000000 		.word	.LANCHOR21
 3097              		.cfi_endproc
 3098              	.LFE296:
 3099              		.size	mc_interface_read_reset_avg_input_current, .-mc_interface_read_reset_avg_input_current
 3100              		.section	.text.mc_interface_read_reset_avg_id,"ax",%progbits
 3101              		.align	1
 3102              		.p2align 4,,15
 3103              		.global	mc_interface_read_reset_avg_id
 3104              		.syntax unified
 3105              		.thumb
 3106              		.thumb_func
 3107              		.fpu fpv4-sp-d16
 3108              		.type	mc_interface_read_reset_avg_id, %function
 3109              	mc_interface_read_reset_avg_id:
 3110              	.LFB297:
 3111              		.loc 1 857 0
 3112              		.cfi_startproc
 3113              		@ args = 0, pretend = 0, frame = 0
 3114              		@ frame_needed = 0, uses_anonymous_args = 0
 3115              		@ link register save eliminated.
 3116              		.loc 1 858 0
 3117 0000 084B     		ldr	r3, .L410
 3118 0002 0949     		ldr	r1, .L410+4
 3119              		.loc 1 861 0
 3120 0004 0948     		ldr	r0, .L410+8
 3121              		.loc 1 858 0
 3122 0006 91ED007A 		vldr.32	s14, [r1]
 3123 000a D3ED007A 		vldr.32	s15, [r3]
 3124              		.loc 1 859 0
 3125 000e 0022     		movs	r2, #0
 3126 0010 0A60     		str	r2, [r1]	@ float
 3127              		.loc 1 860 0
 3128 0012 1A60     		str	r2, [r3]	@ float
 3129              		.loc 1 861 0
 3130 0014 90F85D31 		ldrb	r3, [r0, #349]	@ zero_extendqisi2
 3131              		.loc 1 858 0
 3132 0018 87EE270A 		vdiv.f32	s0, s14, s15
 3133              	.LVL267:
 3134              		.loc 1 861 0
 3135 001c 0BB1     		cbz	r3, .L405
ARM GAS  C:\Users\CHRIST~1\AppData\Local\Temp\ccb3oWGE.s 			page 56


 3136 001e B1EE400A 		vneg.f32	s0, s0
 3137              	.LVL268:
 3138              	.L405:
 3139              		.loc 1 862 0
 3140 0022 7047     		bx	lr
 3141              	.L411:
 3142              		.align	2
 3143              	.L410:
 3144 0024 00000000 		.word	.LANCHOR24
 3145 0028 00000000 		.word	.LANCHOR22
 3146 002c 00000000 		.word	.LANCHOR12
 3147              		.cfi_endproc
 3148              	.LFE297:
 3149              		.size	mc_interface_read_reset_avg_id, .-mc_interface_read_reset_avg_id
 3150              		.section	.text.mc_interface_read_reset_avg_iq,"ax",%progbits
 3151              		.align	1
 3152              		.p2align 4,,15
 3153              		.global	mc_interface_read_reset_avg_iq
 3154              		.syntax unified
 3155              		.thumb
 3156              		.thumb_func
 3157              		.fpu fpv4-sp-d16
 3158              		.type	mc_interface_read_reset_avg_iq, %function
 3159              	mc_interface_read_reset_avg_iq:
 3160              	.LFB298:
 3161              		.loc 1 870 0
 3162              		.cfi_startproc
 3163              		@ args = 0, pretend = 0, frame = 0
 3164              		@ frame_needed = 0, uses_anonymous_args = 0
 3165              		@ link register save eliminated.
 3166              		.loc 1 871 0
 3167 0000 084B     		ldr	r3, .L417
 3168 0002 0949     		ldr	r1, .L417+4
 3169              		.loc 1 874 0
 3170 0004 0948     		ldr	r0, .L417+8
 3171              		.loc 1 871 0
 3172 0006 91ED007A 		vldr.32	s14, [r1]
 3173 000a D3ED007A 		vldr.32	s15, [r3]
 3174              		.loc 1 872 0
 3175 000e 0022     		movs	r2, #0
 3176 0010 0A60     		str	r2, [r1]	@ float
 3177              		.loc 1 873 0
 3178 0012 1A60     		str	r2, [r3]	@ float
 3179              		.loc 1 874 0
 3180 0014 90F85D31 		ldrb	r3, [r0, #349]	@ zero_extendqisi2
 3181              		.loc 1 871 0
 3182 0018 87EE270A 		vdiv.f32	s0, s14, s15
 3183              	.LVL269:
 3184              		.loc 1 874 0
 3185 001c 0BB1     		cbz	r3, .L412
 3186 001e B1EE400A 		vneg.f32	s0, s0
 3187              	.LVL270:
 3188              	.L412:
 3189              		.loc 1 875 0
 3190 0022 7047     		bx	lr
 3191              	.L418:
 3192              		.align	2
ARM GAS  C:\Users\CHRIST~1\AppData\Local\Temp\ccb3oWGE.s 			page 57


 3193              	.L417:
 3194 0024 00000000 		.word	.LANCHOR25
 3195 0028 00000000 		.word	.LANCHOR23
 3196 002c 00000000 		.word	.LANCHOR12
 3197              		.cfi_endproc
 3198              	.LFE298:
 3199              		.size	mc_interface_read_reset_avg_iq, .-mc_interface_read_reset_avg_iq
 3200              		.section	.text.mc_interface_get_pid_pos_set,"ax",%progbits
 3201              		.align	1
 3202              		.p2align 4,,15
 3203              		.global	mc_interface_get_pid_pos_set
 3204              		.syntax unified
 3205              		.thumb
 3206              		.thumb_func
 3207              		.fpu fpv4-sp-d16
 3208              		.type	mc_interface_get_pid_pos_set, %function
 3209              	mc_interface_get_pid_pos_set:
 3210              	.LFB299:
 3211              		.loc 1 877 0
 3212              		.cfi_startproc
 3213              		@ args = 0, pretend = 0, frame = 0
 3214              		@ frame_needed = 0, uses_anonymous_args = 0
 3215              		@ link register save eliminated.
 3216              		.loc 1 878 0
 3217 0000 014B     		ldr	r3, .L420
 3218 0002 93ED000A 		vldr.32	s0, [r3]
 3219              		.loc 1 879 0
 3220 0006 7047     		bx	lr
 3221              	.L421:
 3222              		.align	2
 3223              	.L420:
 3224 0008 00000000 		.word	.LANCHOR30
 3225              		.cfi_endproc
 3226              	.LFE299:
 3227              		.size	mc_interface_get_pid_pos_set, .-mc_interface_get_pid_pos_set
 3228              		.section	.text.mc_interface_get_pid_pos_now,"ax",%progbits
 3229              		.align	1
 3230              		.p2align 4,,15
 3231              		.global	mc_interface_get_pid_pos_now
 3232              		.syntax unified
 3233              		.thumb
 3234              		.thumb_func
 3235              		.fpu fpv4-sp-d16
 3236              		.type	mc_interface_get_pid_pos_now, %function
 3237              	mc_interface_get_pid_pos_now:
 3238              	.LFB300:
 3239              		.loc 1 881 0
 3240              		.cfi_startproc
 3241              		@ args = 0, pretend = 0, frame = 0
 3242              		@ frame_needed = 0, uses_anonymous_args = 0
 3243              	.LVL271:
 3244 0000 10B5     		push	{r4, lr}
 3245              		.cfi_def_cfa_offset 8
 3246              		.cfi_offset 4, -8
 3247              		.cfi_offset 14, -4
 3248              		.loc 1 884 0
 3249 0002 0B4C     		ldr	r4, .L434
ARM GAS  C:\Users\CHRIST~1\AppData\Local\Temp\ccb3oWGE.s 			page 58


 3250 0004 A378     		ldrb	r3, [r4, #2]	@ zero_extendqisi2
 3251 0006 DBB2     		uxtb	r3, r3
 3252 0008 012B     		cmp	r3, #1
 3253 000a 0DD9     		bls	.L424
 3254 000c 022B     		cmp	r3, #2
 3255 000e 08D0     		beq	.L425
 3256              		.loc 1 882 0
 3257 0010 9FED080A 		vldr.32	s0, .L434+4
 3258              	.LVL272:
 3259              	.L423:
 3260              		.loc 1 898 0
 3261 0014 94F85D31 		ldrb	r3, [r4, #349]	@ zero_extendqisi2
 3262 0018 03B9     		cbnz	r3, .L433
 3263              		.loc 1 899 0
 3264 001a 10BD     		pop	{r4, pc}
 3265              	.L433:
 3266 001c B1EE400A 		vneg.f32	s0, s0
 3267              	.LVL273:
 3268 0020 10BD     		pop	{r4, pc}
 3269              	.LVL274:
 3270              	.L425:
 3271              		.loc 1 891 0
 3272 0022 FFF7FEFF 		bl	mcpwm_foc_get_pid_pos_now
 3273              	.LVL275:
 3274              		.loc 1 892 0
 3275 0026 F5E7     		b	.L423
 3276              	.LVL276:
 3277              	.L424:
 3278              		.loc 1 887 0
 3279 0028 FFF7FEFF 		bl	encoder_read_deg
 3280              	.LVL277:
 3281              		.loc 1 888 0
 3282 002c F2E7     		b	.L423
 3283              	.L435:
 3284 002e 00BF     		.align	2
 3285              	.L434:
 3286 0030 00000000 		.word	.LANCHOR12
 3287 0034 00000000 		.word	0
 3288              		.cfi_endproc
 3289              	.LFE300:
 3290              		.size	mc_interface_get_pid_pos_now, .-mc_interface_get_pid_pos_now
 3291              		.section	.text.mc_interface_get_last_sample_adc_isr_duration,"ax",%progbits
 3292              		.align	1
 3293              		.p2align 4,,15
 3294              		.global	mc_interface_get_last_sample_adc_isr_duration
 3295              		.syntax unified
 3296              		.thumb
 3297              		.thumb_func
 3298              		.fpu fpv4-sp-d16
 3299              		.type	mc_interface_get_last_sample_adc_isr_duration, %function
 3300              	mc_interface_get_last_sample_adc_isr_duration:
 3301              	.LFB301:
 3302              		.loc 1 901 0
 3303              		.cfi_startproc
 3304              		@ args = 0, pretend = 0, frame = 0
 3305              		@ frame_needed = 0, uses_anonymous_args = 0
 3306              		@ link register save eliminated.
ARM GAS  C:\Users\CHRIST~1\AppData\Local\Temp\ccb3oWGE.s 			page 59


 3307              		.loc 1 902 0
 3308 0000 014B     		ldr	r3, .L437
 3309 0002 93ED000A 		vldr.32	s0, [r3]
 3310              		.loc 1 903 0
 3311 0006 7047     		bx	lr
 3312              	.L438:
 3313              		.align	2
 3314              	.L437:
 3315 0008 00000000 		.word	.LANCHOR31
 3316              		.cfi_endproc
 3317              	.LFE301:
 3318              		.size	mc_interface_get_last_sample_adc_isr_duration, .-mc_interface_get_last_sample_adc_isr_durati
 3319              		.section	.text.mc_interface_sample_print_data,"ax",%progbits
 3320              		.align	1
 3321              		.p2align 4,,15
 3322              		.global	mc_interface_sample_print_data
 3323              		.syntax unified
 3324              		.thumb
 3325              		.thumb_func
 3326              		.fpu fpv4-sp-d16
 3327              		.type	mc_interface_sample_print_data, %function
 3328              	mc_interface_sample_print_data:
 3329              	.LFB302:
 3330              		.loc 1 905 0
 3331              		.cfi_startproc
 3332              		@ args = 0, pretend = 0, frame = 0
 3333              		@ frame_needed = 0, uses_anonymous_args = 0
 3334              		@ link register save eliminated.
 3335              	.LVL278:
 3336 0000 B1F5FA6F 		cmp	r1, #2000
 3337 0004 28BF     		it	cs
 3338 0006 4FF4FA61 		movcs	r1, #2000
 3339              	.LVL279:
 3340              		.loc 1 910 0
 3341 000a 0728     		cmp	r0, #7
 3342 000c 0FD0     		beq	.L443
 3343              		.loc 1 905 0
 3344 000e F0B4     		push	{r4, r5, r6, r7}
 3345              		.cfi_def_cfa_offset 16
 3346              		.cfi_offset 4, -16
 3347              		.cfi_offset 5, -12
 3348              		.cfi_offset 6, -8
 3349              		.cfi_offset 7, -4
 3350              		.loc 1 913 0
 3351 0010 094E     		ldr	r6, .L444
 3352              		.loc 1 914 0
 3353 0012 0A4B     		ldr	r3, .L444+4
 3354              		.loc 1 915 0
 3355 0014 0A4D     		ldr	r5, .L444+8
 3356              		.loc 1 916 0
 3357 0016 0B4C     		ldr	r4, .L444+12
 3358              		.loc 1 913 0
 3359 0018 4FF0FF37 		mov	r7, #-1
 3360 001c 3760     		str	r7, [r6]
 3361              		.loc 1 914 0
 3362 001e 0026     		movs	r6, #0
 3363 0020 1E60     		str	r6, [r3]
ARM GAS  C:\Users\CHRIST~1\AppData\Local\Temp\ccb3oWGE.s 			page 60


 3364              		.loc 1 917 0
 3365 0022 094B     		ldr	r3, .L444+16
 3366              		.loc 1 915 0
 3367 0024 2960     		str	r1, [r5]
 3368              		.loc 1 916 0
 3369 0026 2260     		str	r2, [r4]
 3370              		.loc 1 917 0
 3371 0028 1870     		strb	r0, [r3]
 3372              		.loc 1 919 0
 3373 002a F0BC     		pop	{r4, r5, r6, r7}
 3374              		.cfi_restore 7
 3375              		.cfi_restore 6
 3376              		.cfi_restore 5
 3377              		.cfi_restore 4
 3378              		.cfi_def_cfa_offset 0
 3379 002c 7047     		bx	lr
 3380              	.L443:
 3381              		.loc 1 911 0
 3382 002e 074B     		ldr	r3, .L444+20
 3383 0030 0121     		movs	r1, #1
 3384              	.LVL280:
 3385 0032 1868     		ldr	r0, [r3]
 3386              	.LVL281:
 3387 0034 FFF7FEBF 		b	chEvtSignal
 3388              	.LVL282:
 3389              	.L445:
 3390              		.align	2
 3391              	.L444:
 3392 0038 00000000 		.word	.LANCHOR3
 3393 003c 00000000 		.word	.LANCHOR35
 3394 0040 00000000 		.word	.LANCHOR2
 3395 0044 00000000 		.word	.LANCHOR34
 3396 0048 00000000 		.word	.LANCHOR36
 3397 004c 00000000 		.word	.LANCHOR0
 3398              		.cfi_endproc
 3399              	.LFE302:
 3400              		.size	mc_interface_sample_print_data, .-mc_interface_sample_print_data
 3401              		.section	.text.mc_interface_temp_fet_filtered,"ax",%progbits
 3402              		.align	1
 3403              		.p2align 4,,15
 3404              		.global	mc_interface_temp_fet_filtered
 3405              		.syntax unified
 3406              		.thumb
 3407              		.thumb_func
 3408              		.fpu fpv4-sp-d16
 3409              		.type	mc_interface_temp_fet_filtered, %function
 3410              	mc_interface_temp_fet_filtered:
 3411              	.LFB303:
 3412              		.loc 1 928 0
 3413              		.cfi_startproc
 3414              		@ args = 0, pretend = 0, frame = 0
 3415              		@ frame_needed = 0, uses_anonymous_args = 0
 3416              		@ link register save eliminated.
 3417              		.loc 1 929 0
 3418 0000 014B     		ldr	r3, .L447
 3419 0002 93ED000A 		vldr.32	s0, [r3]
 3420              		.loc 1 930 0
ARM GAS  C:\Users\CHRIST~1\AppData\Local\Temp\ccb3oWGE.s 			page 61


 3421 0006 7047     		bx	lr
 3422              	.L448:
 3423              		.align	2
 3424              	.L447:
 3425 0008 00000000 		.word	.LANCHOR32
 3426              		.cfi_endproc
 3427              	.LFE303:
 3428              		.size	mc_interface_temp_fet_filtered, .-mc_interface_temp_fet_filtered
 3429              		.section	.text.mc_interface_temp_motor_filtered,"ax",%progbits
 3430              		.align	1
 3431              		.p2align 4,,15
 3432              		.global	mc_interface_temp_motor_filtered
 3433              		.syntax unified
 3434              		.thumb
 3435              		.thumb_func
 3436              		.fpu fpv4-sp-d16
 3437              		.type	mc_interface_temp_motor_filtered, %function
 3438              	mc_interface_temp_motor_filtered:
 3439              	.LFB304:
 3440              		.loc 1 939 0
 3441              		.cfi_startproc
 3442              		@ args = 0, pretend = 0, frame = 0
 3443              		@ frame_needed = 0, uses_anonymous_args = 0
 3444              		@ link register save eliminated.
 3445              		.loc 1 940 0
 3446 0000 014B     		ldr	r3, .L450
 3447 0002 93ED000A 		vldr.32	s0, [r3]
 3448              		.loc 1 941 0
 3449 0006 7047     		bx	lr
 3450              	.L451:
 3451              		.align	2
 3452              	.L450:
 3453 0008 00000000 		.word	.LANCHOR33
 3454              		.cfi_endproc
 3455              	.LFE304:
 3456              		.size	mc_interface_temp_motor_filtered, .-mc_interface_temp_motor_filtered
 3457              		.section	.text.mc_interface_try_input,"ax",%progbits
 3458              		.align	1
 3459              		.p2align 4,,15
 3460              		.global	mc_interface_try_input
 3461              		.syntax unified
 3462              		.thumb
 3463              		.thumb_func
 3464              		.fpu fpv4-sp-d16
 3465              		.type	mc_interface_try_input, %function
 3466              	mc_interface_try_input:
 3467              	.LFB305:
 3468              		.loc 1 953 0
 3469              		.cfi_startproc
 3470              		@ args = 0, pretend = 0, frame = 0
 3471              		@ frame_needed = 0, uses_anonymous_args = 0
 3472 0000 10B5     		push	{r4, lr}
 3473              		.cfi_def_cfa_offset 8
 3474              		.cfi_offset 4, -8
 3475              		.cfi_offset 14, -4
 3476              		.loc 1 955 0
 3477 0002 FFF7FEFF 		bl	mc_interface_get_state
ARM GAS  C:\Users\CHRIST~1\AppData\Local\Temp\ccb3oWGE.s 			page 62


 3478              	.LVL283:
 3479 0006 0128     		cmp	r0, #1
 3480 0008 22D0     		beq	.L467
 3481              		.loc 1 960 0
 3482 000a 164B     		ldr	r3, .L471
 3483 000c 1C68     		ldr	r4, [r3]
 3484              	.LVL284:
 3485              		.loc 1 962 0
 3486 000e 14B9     		cbnz	r4, .L454
 3487              		.loc 1 962 0 is_stmt 0 discriminator 1
 3488 0010 154B     		ldr	r3, .L471+4
 3489 0012 1B78     		ldrb	r3, [r3]	@ zero_extendqisi2
 3490 0014 63B9     		cbnz	r3, .L468
 3491              	.LVL285:
 3492              	.L454:
 3493              		.loc 1 970 0 is_stmt 1
 3494 0016 154B     		ldr	r3, .L471+8
 3495 0018 9B78     		ldrb	r3, [r3, #2]	@ zero_extendqisi2
 3496 001a DBB2     		uxtb	r3, r3
 3497 001c 012B     		cmp	r3, #1
 3498 001e 11D9     		bls	.L456
 3499              	.L470:
 3500 0020 022B     		cmp	r3, #2
 3501 0022 03D1     		bne	.L452
 3502              		.loc 1 979 0
 3503 0024 FFF7FEFF 		bl	mcpwm_foc_init_done
 3504              	.LVL286:
 3505 0028 00B9     		cbnz	r0, .L452
 3506              	.LVL287:
 3507              		.loc 1 974 0
 3508 002a 0124     		movs	r4, #1
 3509              	.LVL288:
 3510              	.L452:
 3511              		.loc 1 989 0
 3512 002c 2046     		mov	r0, r4
 3513 002e 10BD     		pop	{r4, pc}
 3514              	.LVL289:
 3515              	.L468:
 3516              		.loc 1 963 0
 3517 0030 0F4B     		ldr	r3, .L471+12
 3518 0032 1A78     		ldrb	r2, [r3]	@ zero_extendqisi2
 3519 0034 9AB9     		cbnz	r2, .L469
 3520              		.loc 1 970 0
 3521 0036 0D4B     		ldr	r3, .L471+8
 3522 0038 9B78     		ldrb	r3, [r3, #2]	@ zero_extendqisi2
 3523 003a DBB2     		uxtb	r3, r3
 3524 003c 012B     		cmp	r3, #1
 3525              		.loc 1 964 0
 3526 003e 4FF00104 		mov	r4, #1
 3527              	.LVL290:
 3528              		.loc 1 970 0
 3529 0042 EDD8     		bhi	.L470
 3530              	.L456:
 3531              		.loc 1 973 0
 3532 0044 FFF7FEFF 		bl	mcpwm_init_done
 3533              	.LVL291:
 3534 0048 0028     		cmp	r0, #0
ARM GAS  C:\Users\CHRIST~1\AppData\Local\Temp\ccb3oWGE.s 			page 63


 3535 004a EFD1     		bne	.L452
 3536              	.LVL292:
 3537              		.loc 1 974 0
 3538 004c 0124     		movs	r4, #1
 3539 004e EDE7     		b	.L452
 3540              	.LVL293:
 3541              	.L467:
 3542              		.loc 1 956 0
 3543 0050 FFF7FEFF 		bl	mcpwm_stop_pwm
 3544              	.LVL294:
 3545              		.loc 1 957 0
 3546 0054 034B     		ldr	r3, .L471
 3547 0056 4FF4FA74 		mov	r4, #500
 3548 005a 1C60     		str	r4, [r3]
 3549              	.LVL295:
 3550 005c DBE7     		b	.L454
 3551              	.LVL296:
 3552              	.L469:
 3553              		.loc 1 966 0
 3554 005e 1C70     		strb	r4, [r3]
 3555 0060 D9E7     		b	.L454
 3556              	.L472:
 3557 0062 00BF     		.align	2
 3558              	.L471:
 3559 0064 00000000 		.word	.LANCHOR14
 3560 0068 00000000 		.word	.LANCHOR16
 3561 006c 00000000 		.word	.LANCHOR12
 3562 0070 00000000 		.word	.LANCHOR17
 3563              		.cfi_endproc
 3564              	.LFE305:
 3565              		.size	mc_interface_try_input, .-mc_interface_try_input
 3566              		.section	.text.mc_interface_set_duty,"ax",%progbits
 3567              		.align	1
 3568              		.p2align 4,,15
 3569              		.global	mc_interface_set_duty
 3570              		.syntax unified
 3571              		.thumb
 3572              		.thumb_func
 3573              		.fpu fpv4-sp-d16
 3574              		.type	mc_interface_set_duty, %function
 3575              	mc_interface_set_duty:
 3576              	.LFB267:
 3577              		.loc 1 320 0
 3578              		.cfi_startproc
 3579              		@ args = 0, pretend = 0, frame = 0
 3580              		@ frame_needed = 0, uses_anonymous_args = 0
 3581              	.LVL297:
 3582 0000 08B5     		push	{r3, lr}
 3583              		.cfi_def_cfa_offset 8
 3584              		.cfi_offset 3, -8
 3585              		.cfi_offset 14, -4
 3586 0002 2DED028B 		vpush.64	{d8}
 3587              		.cfi_def_cfa_offset 16
 3588              		.cfi_offset 80, -16
 3589              		.cfi_offset 81, -12
 3590              		.loc 1 320 0
 3591 0006 B0EE408A 		vmov.f32	s16, s0
ARM GAS  C:\Users\CHRIST~1\AppData\Local\Temp\ccb3oWGE.s 			page 64


 3592              		.loc 1 321 0
 3593 000a FFF7FEFF 		bl	mc_interface_try_input
 3594              	.LVL298:
 3595 000e 98B9     		cbnz	r0, .L473
 3596              		.loc 1 325 0
 3597 0010 114A     		ldr	r2, .L486
 3598 0012 9378     		ldrb	r3, [r2, #2]	@ zero_extendqisi2
 3599 0014 DBB2     		uxtb	r3, r3
 3600 0016 012B     		cmp	r3, #1
 3601 0018 11D9     		bls	.L475
 3602 001a 022B     		cmp	r3, #2
 3603 001c 0CD1     		bne	.L473
 3604              		.loc 1 332 0
 3605 001e 92F85D31 		ldrb	r3, [r2, #349]	@ zero_extendqisi2
 3606 0022 0BB1     		cbz	r3, .L478
 3607 0024 B1EE488A 		vneg.f32	s16, s16
 3608              	.LVL299:
 3609              	.L478:
 3610              		.loc 1 332 0 is_stmt 0 discriminator 4
 3611 0028 B0EE480A 		vmov.f32	s0, s16
 3612              		.loc 1 338 0 is_stmt 1 discriminator 4
 3613 002c BDEC028B 		vldm	sp!, {d8}
 3614              		.cfi_remember_state
 3615              		.cfi_restore 80
 3616              		.cfi_restore 81
 3617              		.cfi_def_cfa_offset 8
 3618 0030 BDE80840 		pop	{r3, lr}
 3619              		.cfi_restore 14
 3620              		.cfi_restore 3
 3621              		.cfi_def_cfa_offset 0
 3622              		.loc 1 332 0 discriminator 4
 3623 0034 FFF7FEBF 		b	mcpwm_foc_set_duty
 3624              	.LVL300:
 3625              	.L473:
 3626              		.cfi_restore_state
 3627              		.loc 1 338 0
 3628 0038 BDEC028B 		vldm	sp!, {d8}
 3629              		.cfi_remember_state
 3630              		.cfi_restore 80
 3631              		.cfi_restore 81
 3632              		.cfi_def_cfa_offset 8
 3633              	.LVL301:
 3634 003c 08BD     		pop	{r3, pc}
 3635              	.LVL302:
 3636              	.L475:
 3637              		.cfi_restore_state
 3638              	.LBB155:
 3639              	.LBB156:
 3640              		.loc 1 328 0
 3641 003e 92F85D31 		ldrb	r3, [r2, #349]	@ zero_extendqisi2
 3642 0042 0BB1     		cbz	r3, .L477
 3643 0044 B1EE488A 		vneg.f32	s16, s16
 3644              	.LVL303:
 3645              	.L477:
 3646 0048 B0EE480A 		vmov.f32	s0, s16
 3647              	.LBE156:
 3648              	.LBE155:
ARM GAS  C:\Users\CHRIST~1\AppData\Local\Temp\ccb3oWGE.s 			page 65


 3649              		.loc 1 338 0
 3650 004c BDEC028B 		vldm	sp!, {d8}
 3651              		.cfi_restore 80
 3652              		.cfi_restore 81
 3653              		.cfi_def_cfa_offset 8
 3654 0050 BDE80840 		pop	{r3, lr}
 3655              		.cfi_restore 14
 3656              		.cfi_restore 3
 3657              		.cfi_def_cfa_offset 0
 3658              	.LBB158:
 3659              	.LBB157:
 3660              		.loc 1 328 0
 3661 0054 FFF7FEBF 		b	mcpwm_set_duty
 3662              	.LVL304:
 3663              	.L487:
 3664              		.align	2
 3665              	.L486:
 3666 0058 00000000 		.word	.LANCHOR12
 3667              	.LBE157:
 3668              	.LBE158:
 3669              		.cfi_endproc
 3670              	.LFE267:
 3671              		.size	mc_interface_set_duty, .-mc_interface_set_duty
 3672              		.section	.text.mc_interface_brake_now,"ax",%progbits
 3673              		.align	1
 3674              		.p2align 4,,15
 3675              		.global	mc_interface_brake_now
 3676              		.syntax unified
 3677              		.thumb
 3678              		.thumb_func
 3679              		.fpu fpv4-sp-d16
 3680              		.type	mc_interface_brake_now, %function
 3681              	mc_interface_brake_now:
 3682              	.LFB276:
 3683              		.loc 1 487 0
 3684              		.cfi_startproc
 3685              		@ args = 0, pretend = 0, frame = 0
 3686              		@ frame_needed = 0, uses_anonymous_args = 0
 3687              		@ link register save eliminated.
 3688              		.loc 1 488 0
 3689 0000 9FED010A 		vldr.32	s0, .L489
 3690 0004 FFF7FEBF 		b	mc_interface_set_duty
 3691              	.LVL305:
 3692              	.L490:
 3693              		.align	2
 3694              	.L489:
 3695 0008 00000000 		.word	0
 3696              		.cfi_endproc
 3697              	.LFE276:
 3698              		.size	mc_interface_brake_now, .-mc_interface_brake_now
 3699              		.section	.text.mc_interface_set_duty_noramp,"ax",%progbits
 3700              		.align	1
 3701              		.p2align 4,,15
 3702              		.global	mc_interface_set_duty_noramp
 3703              		.syntax unified
 3704              		.thumb
 3705              		.thumb_func
ARM GAS  C:\Users\CHRIST~1\AppData\Local\Temp\ccb3oWGE.s 			page 66


 3706              		.fpu fpv4-sp-d16
 3707              		.type	mc_interface_set_duty_noramp, %function
 3708              	mc_interface_set_duty_noramp:
 3709              	.LFB268:
 3710              		.loc 1 340 0
 3711              		.cfi_startproc
 3712              		@ args = 0, pretend = 0, frame = 0
 3713              		@ frame_needed = 0, uses_anonymous_args = 0
 3714              	.LVL306:
 3715 0000 08B5     		push	{r3, lr}
 3716              		.cfi_def_cfa_offset 8
 3717              		.cfi_offset 3, -8
 3718              		.cfi_offset 14, -4
 3719 0002 2DED028B 		vpush.64	{d8}
 3720              		.cfi_def_cfa_offset 16
 3721              		.cfi_offset 80, -16
 3722              		.cfi_offset 81, -12
 3723              		.loc 1 340 0
 3724 0006 B0EE408A 		vmov.f32	s16, s0
 3725              		.loc 1 341 0
 3726 000a FFF7FEFF 		bl	mc_interface_try_input
 3727              	.LVL307:
 3728 000e 98B9     		cbnz	r0, .L491
 3729              		.loc 1 345 0
 3730 0010 114A     		ldr	r2, .L504
 3731 0012 9378     		ldrb	r3, [r2, #2]	@ zero_extendqisi2
 3732 0014 DBB2     		uxtb	r3, r3
 3733 0016 012B     		cmp	r3, #1
 3734 0018 11D9     		bls	.L493
 3735 001a 022B     		cmp	r3, #2
 3736 001c 0CD1     		bne	.L491
 3737              		.loc 1 352 0
 3738 001e 92F85D31 		ldrb	r3, [r2, #349]	@ zero_extendqisi2
 3739 0022 0BB1     		cbz	r3, .L496
 3740 0024 B1EE488A 		vneg.f32	s16, s16
 3741              	.LVL308:
 3742              	.L496:
 3743              		.loc 1 352 0 is_stmt 0 discriminator 4
 3744 0028 B0EE480A 		vmov.f32	s0, s16
 3745              		.loc 1 358 0 is_stmt 1 discriminator 4
 3746 002c BDEC028B 		vldm	sp!, {d8}
 3747              		.cfi_remember_state
 3748              		.cfi_restore 80
 3749              		.cfi_restore 81
 3750              		.cfi_def_cfa_offset 8
 3751 0030 BDE80840 		pop	{r3, lr}
 3752              		.cfi_restore 14
 3753              		.cfi_restore 3
 3754              		.cfi_def_cfa_offset 0
 3755              		.loc 1 352 0 discriminator 4
 3756 0034 FFF7FEBF 		b	mcpwm_foc_set_duty_noramp
 3757              	.LVL309:
 3758              	.L491:
 3759              		.cfi_restore_state
 3760              		.loc 1 358 0
 3761 0038 BDEC028B 		vldm	sp!, {d8}
 3762              		.cfi_remember_state
ARM GAS  C:\Users\CHRIST~1\AppData\Local\Temp\ccb3oWGE.s 			page 67


 3763              		.cfi_restore 80
 3764              		.cfi_restore 81
 3765              		.cfi_def_cfa_offset 8
 3766              	.LVL310:
 3767 003c 08BD     		pop	{r3, pc}
 3768              	.LVL311:
 3769              	.L493:
 3770              		.cfi_restore_state
 3771              		.loc 1 348 0
 3772 003e 92F85D31 		ldrb	r3, [r2, #349]	@ zero_extendqisi2
 3773 0042 0BB1     		cbz	r3, .L495
 3774 0044 B1EE488A 		vneg.f32	s16, s16
 3775              	.LVL312:
 3776              	.L495:
 3777              		.loc 1 348 0 is_stmt 0 discriminator 4
 3778 0048 B0EE480A 		vmov.f32	s0, s16
 3779              		.loc 1 358 0 is_stmt 1 discriminator 4
 3780 004c BDEC028B 		vldm	sp!, {d8}
 3781              		.cfi_restore 80
 3782              		.cfi_restore 81
 3783              		.cfi_def_cfa_offset 8
 3784 0050 BDE80840 		pop	{r3, lr}
 3785              		.cfi_restore 14
 3786              		.cfi_restore 3
 3787              		.cfi_def_cfa_offset 0
 3788              		.loc 1 348 0 discriminator 4
 3789 0054 FFF7FEBF 		b	mcpwm_set_duty_noramp
 3790              	.LVL313:
 3791              	.L505:
 3792              		.align	2
 3793              	.L504:
 3794 0058 00000000 		.word	.LANCHOR12
 3795              		.cfi_endproc
 3796              	.LFE268:
 3797              		.size	mc_interface_set_duty_noramp, .-mc_interface_set_duty_noramp
 3798              		.section	.text.mc_interface_set_pid_speed,"ax",%progbits
 3799              		.align	1
 3800              		.p2align 4,,15
 3801              		.global	mc_interface_set_pid_speed
 3802              		.syntax unified
 3803              		.thumb
 3804              		.thumb_func
 3805              		.fpu fpv4-sp-d16
 3806              		.type	mc_interface_set_pid_speed, %function
 3807              	mc_interface_set_pid_speed:
 3808              	.LFB269:
 3809              		.loc 1 360 0
 3810              		.cfi_startproc
 3811              		@ args = 0, pretend = 0, frame = 0
 3812              		@ frame_needed = 0, uses_anonymous_args = 0
 3813              	.LVL314:
 3814 0000 08B5     		push	{r3, lr}
 3815              		.cfi_def_cfa_offset 8
 3816              		.cfi_offset 3, -8
 3817              		.cfi_offset 14, -4
 3818 0002 2DED028B 		vpush.64	{d8}
 3819              		.cfi_def_cfa_offset 16
ARM GAS  C:\Users\CHRIST~1\AppData\Local\Temp\ccb3oWGE.s 			page 68


 3820              		.cfi_offset 80, -16
 3821              		.cfi_offset 81, -12
 3822              		.loc 1 360 0
 3823 0006 B0EE408A 		vmov.f32	s16, s0
 3824              		.loc 1 361 0
 3825 000a FFF7FEFF 		bl	mc_interface_try_input
 3826              	.LVL315:
 3827 000e 98B9     		cbnz	r0, .L506
 3828              		.loc 1 365 0
 3829 0010 114A     		ldr	r2, .L519
 3830 0012 9378     		ldrb	r3, [r2, #2]	@ zero_extendqisi2
 3831 0014 DBB2     		uxtb	r3, r3
 3832 0016 012B     		cmp	r3, #1
 3833 0018 11D9     		bls	.L508
 3834 001a 022B     		cmp	r3, #2
 3835 001c 0CD1     		bne	.L506
 3836              		.loc 1 372 0
 3837 001e 92F85D31 		ldrb	r3, [r2, #349]	@ zero_extendqisi2
 3838 0022 0BB1     		cbz	r3, .L511
 3839 0024 B1EE488A 		vneg.f32	s16, s16
 3840              	.LVL316:
 3841              	.L511:
 3842              		.loc 1 372 0 is_stmt 0 discriminator 4
 3843 0028 B0EE480A 		vmov.f32	s0, s16
 3844              		.loc 1 378 0 is_stmt 1 discriminator 4
 3845 002c BDEC028B 		vldm	sp!, {d8}
 3846              		.cfi_remember_state
 3847              		.cfi_restore 80
 3848              		.cfi_restore 81
 3849              		.cfi_def_cfa_offset 8
 3850 0030 BDE80840 		pop	{r3, lr}
 3851              		.cfi_restore 14
 3852              		.cfi_restore 3
 3853              		.cfi_def_cfa_offset 0
 3854              		.loc 1 372 0 discriminator 4
 3855 0034 FFF7FEBF 		b	mcpwm_foc_set_pid_speed
 3856              	.LVL317:
 3857              	.L506:
 3858              		.cfi_restore_state
 3859              		.loc 1 378 0
 3860 0038 BDEC028B 		vldm	sp!, {d8}
 3861              		.cfi_remember_state
 3862              		.cfi_restore 80
 3863              		.cfi_restore 81
 3864              		.cfi_def_cfa_offset 8
 3865              	.LVL318:
 3866 003c 08BD     		pop	{r3, pc}
 3867              	.LVL319:
 3868              	.L508:
 3869              		.cfi_restore_state
 3870              		.loc 1 368 0
 3871 003e 92F85D31 		ldrb	r3, [r2, #349]	@ zero_extendqisi2
 3872 0042 0BB1     		cbz	r3, .L510
 3873 0044 B1EE488A 		vneg.f32	s16, s16
 3874              	.LVL320:
 3875              	.L510:
 3876              		.loc 1 368 0 is_stmt 0 discriminator 4
ARM GAS  C:\Users\CHRIST~1\AppData\Local\Temp\ccb3oWGE.s 			page 69


 3877 0048 B0EE480A 		vmov.f32	s0, s16
 3878              		.loc 1 378 0 is_stmt 1 discriminator 4
 3879 004c BDEC028B 		vldm	sp!, {d8}
 3880              		.cfi_restore 80
 3881              		.cfi_restore 81
 3882              		.cfi_def_cfa_offset 8
 3883 0050 BDE80840 		pop	{r3, lr}
 3884              		.cfi_restore 14
 3885              		.cfi_restore 3
 3886              		.cfi_def_cfa_offset 0
 3887              		.loc 1 368 0 discriminator 4
 3888 0054 FFF7FEBF 		b	mcpwm_set_pid_speed
 3889              	.LVL321:
 3890              	.L520:
 3891              		.align	2
 3892              	.L519:
 3893 0058 00000000 		.word	.LANCHOR12
 3894              		.cfi_endproc
 3895              	.LFE269:
 3896              		.size	mc_interface_set_pid_speed, .-mc_interface_set_pid_speed
 3897              		.section	.text.mc_interface_set_pid_pos,"ax",%progbits
 3898              		.align	1
 3899              		.p2align 4,,15
 3900              		.global	mc_interface_set_pid_pos
 3901              		.syntax unified
 3902              		.thumb
 3903              		.thumb_func
 3904              		.fpu fpv4-sp-d16
 3905              		.type	mc_interface_set_pid_pos, %function
 3906              	mc_interface_set_pid_pos:
 3907              	.LFB270:
 3908              		.loc 1 380 0
 3909              		.cfi_startproc
 3910              		@ args = 0, pretend = 0, frame = 0
 3911              		@ frame_needed = 0, uses_anonymous_args = 0
 3912              	.LVL322:
 3913 0000 08B5     		push	{r3, lr}
 3914              		.cfi_def_cfa_offset 8
 3915              		.cfi_offset 3, -8
 3916              		.cfi_offset 14, -4
 3917 0002 2DED028B 		vpush.64	{d8}
 3918              		.cfi_def_cfa_offset 16
 3919              		.cfi_offset 80, -16
 3920              		.cfi_offset 81, -12
 3921              		.loc 1 380 0
 3922 0006 B0EE408A 		vmov.f32	s16, s0
 3923              		.loc 1 381 0
 3924 000a FFF7FEFF 		bl	mc_interface_try_input
 3925              	.LVL323:
 3926 000e E8B9     		cbnz	r0, .L521
 3927              		.loc 1 385 0
 3928 0010 1A4A     		ldr	r2, .L530
 3929              		.loc 1 387 0
 3930 0012 1B49     		ldr	r1, .L530+4
 3931              		.loc 1 385 0
 3932 0014 82ED008A 		vstr.32	s16, [r2]
 3933              		.loc 1 387 0
ARM GAS  C:\Users\CHRIST~1\AppData\Local\Temp\ccb3oWGE.s 			page 70


 3934 0018 8B78     		ldrb	r3, [r1, #2]	@ zero_extendqisi2
 3935 001a DBB2     		uxtb	r3, r3
 3936 001c 012B     		cmp	r3, #1
 3937 001e 18D9     		bls	.L523
 3938 0020 022B     		cmp	r3, #2
 3939 0022 13D1     		bne	.L521
 3940              		.loc 1 400 0
 3941 0024 BDEC028B 		vldm	sp!, {d8}
 3942              		.cfi_remember_state
 3943              		.cfi_restore 80
 3944              		.cfi_restore 81
 3945              		.cfi_def_cfa_offset 8
 3946              	.LVL324:
 3947              		.loc 1 394 0
 3948 0028 91F85D31 		ldrb	r3, [r1, #349]	@ zero_extendqisi2
 3949 002c 92ED000A 		vldr.32	s0, [r2]
 3950 0030 002B     		cmp	r3, #0
 3951 0032 FFEE007A 		vmov.f32	s15, #-1.0e+0
 3952 0036 B7EE007A 		vmov.f32	s14, #1.0e+0
 3953 003a 08BF     		it	eq
 3954 003c F0EE477A 		vmoveq.f32	s15, s14
 3955 0040 20EE270A 		vmul.f32	s0, s0, s15
 3956              		.loc 1 400 0
 3957 0044 BDE80840 		pop	{r3, lr}
 3958              		.cfi_restore 14
 3959              		.cfi_restore 3
 3960              		.cfi_def_cfa_offset 0
 3961              		.loc 1 394 0
 3962 0048 FFF7FEBF 		b	mcpwm_foc_set_pid_pos
 3963              	.LVL325:
 3964              	.L521:
 3965              		.cfi_restore_state
 3966              		.loc 1 400 0
 3967 004c BDEC028B 		vldm	sp!, {d8}
 3968              		.cfi_remember_state
 3969              		.cfi_restore 80
 3970              		.cfi_restore 81
 3971              		.cfi_def_cfa_offset 8
 3972              	.LVL326:
 3973 0050 08BD     		pop	{r3, pc}
 3974              	.LVL327:
 3975              	.L523:
 3976              		.cfi_restore_state
 3977 0052 BDEC028B 		vldm	sp!, {d8}
 3978              		.cfi_restore 80
 3979              		.cfi_restore 81
 3980              		.cfi_def_cfa_offset 8
 3981              	.LVL328:
 3982              		.loc 1 390 0
 3983 0056 91F85D31 		ldrb	r3, [r1, #349]	@ zero_extendqisi2
 3984 005a 92ED000A 		vldr.32	s0, [r2]
 3985 005e 002B     		cmp	r3, #0
 3986 0060 FFEE007A 		vmov.f32	s15, #-1.0e+0
 3987 0064 B7EE007A 		vmov.f32	s14, #1.0e+0
 3988 0068 08BF     		it	eq
 3989 006a F0EE477A 		vmoveq.f32	s15, s14
 3990 006e 20EE270A 		vmul.f32	s0, s0, s15
ARM GAS  C:\Users\CHRIST~1\AppData\Local\Temp\ccb3oWGE.s 			page 71


 3991              		.loc 1 400 0
 3992 0072 BDE80840 		pop	{r3, lr}
 3993              		.cfi_restore 14
 3994              		.cfi_restore 3
 3995              		.cfi_def_cfa_offset 0
 3996              		.loc 1 390 0
 3997 0076 FFF7FEBF 		b	mcpwm_set_pid_pos
 3998              	.LVL329:
 3999              	.L531:
 4000 007a 00BF     		.align	2
 4001              	.L530:
 4002 007c 00000000 		.word	.LANCHOR30
 4003 0080 00000000 		.word	.LANCHOR12
 4004              		.cfi_endproc
 4005              	.LFE270:
 4006              		.size	mc_interface_set_pid_pos, .-mc_interface_set_pid_pos
 4007              		.section	.text.mc_interface_set_current,"ax",%progbits
 4008              		.align	1
 4009              		.p2align 4,,15
 4010              		.global	mc_interface_set_current
 4011              		.syntax unified
 4012              		.thumb
 4013              		.thumb_func
 4014              		.fpu fpv4-sp-d16
 4015              		.type	mc_interface_set_current, %function
 4016              	mc_interface_set_current:
 4017              	.LFB271:
 4018              		.loc 1 402 0
 4019              		.cfi_startproc
 4020              		@ args = 0, pretend = 0, frame = 0
 4021              		@ frame_needed = 0, uses_anonymous_args = 0
 4022              	.LVL330:
 4023 0000 08B5     		push	{r3, lr}
 4024              		.cfi_def_cfa_offset 8
 4025              		.cfi_offset 3, -8
 4026              		.cfi_offset 14, -4
 4027 0002 2DED028B 		vpush.64	{d8}
 4028              		.cfi_def_cfa_offset 16
 4029              		.cfi_offset 80, -16
 4030              		.cfi_offset 81, -12
 4031              		.loc 1 402 0
 4032 0006 B0EE408A 		vmov.f32	s16, s0
 4033              		.loc 1 403 0
 4034 000a FFF7FEFF 		bl	mc_interface_try_input
 4035              	.LVL331:
 4036 000e 98B9     		cbnz	r0, .L532
 4037              		.loc 1 407 0
 4038 0010 114A     		ldr	r2, .L545
 4039 0012 9378     		ldrb	r3, [r2, #2]	@ zero_extendqisi2
 4040 0014 DBB2     		uxtb	r3, r3
 4041 0016 012B     		cmp	r3, #1
 4042 0018 11D9     		bls	.L534
 4043 001a 022B     		cmp	r3, #2
 4044 001c 0CD1     		bne	.L532
 4045              		.loc 1 414 0
 4046 001e 92F85D31 		ldrb	r3, [r2, #349]	@ zero_extendqisi2
 4047 0022 0BB1     		cbz	r3, .L537
ARM GAS  C:\Users\CHRIST~1\AppData\Local\Temp\ccb3oWGE.s 			page 72


 4048 0024 B1EE488A 		vneg.f32	s16, s16
 4049              	.LVL332:
 4050              	.L537:
 4051              		.loc 1 414 0 is_stmt 0 discriminator 4
 4052 0028 B0EE480A 		vmov.f32	s0, s16
 4053              		.loc 1 420 0 is_stmt 1 discriminator 4
 4054 002c BDEC028B 		vldm	sp!, {d8}
 4055              		.cfi_remember_state
 4056              		.cfi_restore 80
 4057              		.cfi_restore 81
 4058              		.cfi_def_cfa_offset 8
 4059 0030 BDE80840 		pop	{r3, lr}
 4060              		.cfi_restore 14
 4061              		.cfi_restore 3
 4062              		.cfi_def_cfa_offset 0
 4063              		.loc 1 414 0 discriminator 4
 4064 0034 FFF7FEBF 		b	mcpwm_foc_set_current
 4065              	.LVL333:
 4066              	.L532:
 4067              		.cfi_restore_state
 4068              		.loc 1 420 0
 4069 0038 BDEC028B 		vldm	sp!, {d8}
 4070              		.cfi_remember_state
 4071              		.cfi_restore 80
 4072              		.cfi_restore 81
 4073              		.cfi_def_cfa_offset 8
 4074              	.LVL334:
 4075 003c 08BD     		pop	{r3, pc}
 4076              	.LVL335:
 4077              	.L534:
 4078              		.cfi_restore_state
 4079              	.LBB161:
 4080              	.LBB162:
 4081              		.loc 1 410 0
 4082 003e 92F85D31 		ldrb	r3, [r2, #349]	@ zero_extendqisi2
 4083 0042 0BB1     		cbz	r3, .L536
 4084 0044 B1EE488A 		vneg.f32	s16, s16
 4085              	.LVL336:
 4086              	.L536:
 4087 0048 B0EE480A 		vmov.f32	s0, s16
 4088              	.LBE162:
 4089              	.LBE161:
 4090              		.loc 1 420 0
 4091 004c BDEC028B 		vldm	sp!, {d8}
 4092              		.cfi_restore 80
 4093              		.cfi_restore 81
 4094              		.cfi_def_cfa_offset 8
 4095 0050 BDE80840 		pop	{r3, lr}
 4096              		.cfi_restore 14
 4097              		.cfi_restore 3
 4098              		.cfi_def_cfa_offset 0
 4099              	.LBB164:
 4100              	.LBB163:
 4101              		.loc 1 410 0
 4102 0054 FFF7FEBF 		b	mcpwm_set_current
 4103              	.LVL337:
 4104              	.L546:
ARM GAS  C:\Users\CHRIST~1\AppData\Local\Temp\ccb3oWGE.s 			page 73


 4105              		.align	2
 4106              	.L545:
 4107 0058 00000000 		.word	.LANCHOR12
 4108              	.LBE163:
 4109              	.LBE164:
 4110              		.cfi_endproc
 4111              	.LFE271:
 4112              		.size	mc_interface_set_current, .-mc_interface_set_current
 4113              		.section	.text.mc_interface_set_current_rel,"ax",%progbits
 4114              		.align	1
 4115              		.p2align 4,,15
 4116              		.global	mc_interface_set_current_rel
 4117              		.syntax unified
 4118              		.thumb
 4119              		.thumb_func
 4120              		.fpu fpv4-sp-d16
 4121              		.type	mc_interface_set_current_rel, %function
 4122              	mc_interface_set_current_rel:
 4123              	.LFB273:
 4124              		.loc 1 448 0
 4125              		.cfi_startproc
 4126              		@ args = 0, pretend = 0, frame = 0
 4127              		@ frame_needed = 0, uses_anonymous_args = 0
 4128              		@ link register save eliminated.
 4129              	.LVL338:
 4130              		.loc 1 449 0
 4131 0000 B5EEC00A 		vcmpe.f32	s0, #0
 4132 0004 F1EE10FA 		vmrs	APSR_nzcv, FPSCR
 4133              		.loc 1 450 0
 4134 0008 074B     		ldr	r3, .L552
 4135              		.loc 1 449 0
 4136 000a 05DD     		ble	.L551
 4137              		.loc 1 450 0
 4138 000c D3ED1D7A 		vldr.32	s15, [r3, #116]
 4139 0010 27EE800A 		vmul.f32	s0, s15, s0
 4140              	.LVL339:
 4141 0014 FFF7FEBF 		b	mc_interface_set_current
 4142              	.LVL340:
 4143              	.L551:
 4144              		.loc 1 452 0
 4145 0018 D3ED1E7A 		vldr.32	s15, [r3, #120]
 4146 001c F0EEE77A 		vabs.f32	s15, s15
 4147 0020 27EE800A 		vmul.f32	s0, s15, s0
 4148              	.LVL341:
 4149 0024 FFF7FEBF 		b	mc_interface_set_current
 4150              	.LVL342:
 4151              	.L553:
 4152              		.align	2
 4153              	.L552:
 4154 0028 00000000 		.word	.LANCHOR12
 4155              		.cfi_endproc
 4156              	.LFE273:
 4157              		.size	mc_interface_set_current_rel, .-mc_interface_set_current_rel
 4158              		.section	.text.mc_interface_release_motor,"ax",%progbits
 4159              		.align	1
 4160              		.p2align 4,,15
 4161              		.global	mc_interface_release_motor
ARM GAS  C:\Users\CHRIST~1\AppData\Local\Temp\ccb3oWGE.s 			page 74


 4162              		.syntax unified
 4163              		.thumb
 4164              		.thumb_func
 4165              		.fpu fpv4-sp-d16
 4166              		.type	mc_interface_release_motor, %function
 4167              	mc_interface_release_motor:
 4168              	.LFB277:
 4169              		.loc 1 494 0
 4170              		.cfi_startproc
 4171              		@ args = 0, pretend = 0, frame = 0
 4172              		@ frame_needed = 0, uses_anonymous_args = 0
 4173              		@ link register save eliminated.
 4174              		.loc 1 495 0
 4175 0000 9FED010A 		vldr.32	s0, .L555
 4176 0004 FFF7FEBF 		b	mc_interface_set_current
 4177              	.LVL343:
 4178              	.L556:
 4179              		.align	2
 4180              	.L555:
 4181 0008 00000000 		.word	0
 4182              		.cfi_endproc
 4183              	.LFE277:
 4184              		.size	mc_interface_release_motor, .-mc_interface_release_motor
 4185              		.section	.text.mc_interface_set_brake_current,"ax",%progbits
 4186              		.align	1
 4187              		.p2align 4,,15
 4188              		.global	mc_interface_set_brake_current
 4189              		.syntax unified
 4190              		.thumb
 4191              		.thumb_func
 4192              		.fpu fpv4-sp-d16
 4193              		.type	mc_interface_set_brake_current, %function
 4194              	mc_interface_set_brake_current:
 4195              	.LFB272:
 4196              		.loc 1 422 0
 4197              		.cfi_startproc
 4198              		@ args = 0, pretend = 0, frame = 0
 4199              		@ frame_needed = 0, uses_anonymous_args = 0
 4200              	.LVL344:
 4201 0000 08B5     		push	{r3, lr}
 4202              		.cfi_def_cfa_offset 8
 4203              		.cfi_offset 3, -8
 4204              		.cfi_offset 14, -4
 4205 0002 2DED028B 		vpush.64	{d8}
 4206              		.cfi_def_cfa_offset 16
 4207              		.cfi_offset 80, -16
 4208              		.cfi_offset 81, -12
 4209              		.loc 1 422 0
 4210 0006 B0EE408A 		vmov.f32	s16, s0
 4211              		.loc 1 423 0
 4212 000a FFF7FEFF 		bl	mc_interface_try_input
 4213              	.LVL345:
 4214 000e 98B9     		cbnz	r0, .L557
 4215              		.loc 1 427 0
 4216 0010 114A     		ldr	r2, .L570
 4217 0012 9378     		ldrb	r3, [r2, #2]	@ zero_extendqisi2
 4218 0014 DBB2     		uxtb	r3, r3
ARM GAS  C:\Users\CHRIST~1\AppData\Local\Temp\ccb3oWGE.s 			page 75


 4219 0016 012B     		cmp	r3, #1
 4220 0018 11D9     		bls	.L559
 4221 001a 022B     		cmp	r3, #2
 4222 001c 0CD1     		bne	.L557
 4223              		.loc 1 434 0
 4224 001e 92F85D31 		ldrb	r3, [r2, #349]	@ zero_extendqisi2
 4225 0022 0BB1     		cbz	r3, .L562
 4226 0024 B1EE488A 		vneg.f32	s16, s16
 4227              	.LVL346:
 4228              	.L562:
 4229              		.loc 1 434 0 is_stmt 0 discriminator 4
 4230 0028 B0EE480A 		vmov.f32	s0, s16
 4231              		.loc 1 440 0 is_stmt 1 discriminator 4
 4232 002c BDEC028B 		vldm	sp!, {d8}
 4233              		.cfi_remember_state
 4234              		.cfi_restore 80
 4235              		.cfi_restore 81
 4236              		.cfi_def_cfa_offset 8
 4237 0030 BDE80840 		pop	{r3, lr}
 4238              		.cfi_restore 14
 4239              		.cfi_restore 3
 4240              		.cfi_def_cfa_offset 0
 4241              		.loc 1 434 0 discriminator 4
 4242 0034 FFF7FEBF 		b	mcpwm_foc_set_brake_current
 4243              	.LVL347:
 4244              	.L557:
 4245              		.cfi_restore_state
 4246              		.loc 1 440 0
 4247 0038 BDEC028B 		vldm	sp!, {d8}
 4248              		.cfi_remember_state
 4249              		.cfi_restore 80
 4250              		.cfi_restore 81
 4251              		.cfi_def_cfa_offset 8
 4252              	.LVL348:
 4253 003c 08BD     		pop	{r3, pc}
 4254              	.LVL349:
 4255              	.L559:
 4256              		.cfi_restore_state
 4257              	.LBB167:
 4258              	.LBB168:
 4259              		.loc 1 430 0
 4260 003e 92F85D31 		ldrb	r3, [r2, #349]	@ zero_extendqisi2
 4261 0042 0BB1     		cbz	r3, .L561
 4262 0044 B1EE488A 		vneg.f32	s16, s16
 4263              	.LVL350:
 4264              	.L561:
 4265 0048 B0EE480A 		vmov.f32	s0, s16
 4266              	.LBE168:
 4267              	.LBE167:
 4268              		.loc 1 440 0
 4269 004c BDEC028B 		vldm	sp!, {d8}
 4270              		.cfi_restore 80
 4271              		.cfi_restore 81
 4272              		.cfi_def_cfa_offset 8
 4273 0050 BDE80840 		pop	{r3, lr}
 4274              		.cfi_restore 14
 4275              		.cfi_restore 3
ARM GAS  C:\Users\CHRIST~1\AppData\Local\Temp\ccb3oWGE.s 			page 76


 4276              		.cfi_def_cfa_offset 0
 4277              	.LBB170:
 4278              	.LBB169:
 4279              		.loc 1 430 0
 4280 0054 FFF7FEBF 		b	mcpwm_set_brake_current
 4281              	.LVL351:
 4282              	.L571:
 4283              		.align	2
 4284              	.L570:
 4285 0058 00000000 		.word	.LANCHOR12
 4286              	.LBE169:
 4287              	.LBE170:
 4288              		.cfi_endproc
 4289              	.LFE272:
 4290              		.size	mc_interface_set_brake_current, .-mc_interface_set_brake_current
 4291              		.section	.text.mc_interface_set_brake_current_rel,"ax",%progbits
 4292              		.align	1
 4293              		.p2align 4,,15
 4294              		.global	mc_interface_set_brake_current_rel
 4295              		.syntax unified
 4296              		.thumb
 4297              		.thumb_func
 4298              		.fpu fpv4-sp-d16
 4299              		.type	mc_interface_set_brake_current_rel, %function
 4300              	mc_interface_set_brake_current_rel:
 4301              	.LFB274:
 4302              		.loc 1 462 0
 4303              		.cfi_startproc
 4304              		@ args = 0, pretend = 0, frame = 0
 4305              		@ frame_needed = 0, uses_anonymous_args = 0
 4306              		@ link register save eliminated.
 4307              	.LVL352:
 4308              		.loc 1 463 0
 4309 0000 034B     		ldr	r3, .L573
 4310 0002 D3ED1D7A 		vldr.32	s15, [r3, #116]
 4311 0006 27EE800A 		vmul.f32	s0, s15, s0
 4312              	.LVL353:
 4313 000a FFF7FEBF 		b	mc_interface_set_brake_current
 4314              	.LVL354:
 4315              	.L574:
 4316 000e 00BF     		.align	2
 4317              	.L573:
 4318 0010 00000000 		.word	.LANCHOR12
 4319              		.cfi_endproc
 4320              	.LFE274:
 4321              		.size	mc_interface_set_brake_current_rel, .-mc_interface_set_brake_current_rel
 4322              		.section	.text.mc_interface_set_handbrake,"ax",%progbits
 4323              		.align	1
 4324              		.p2align 4,,15
 4325              		.global	mc_interface_set_handbrake
 4326              		.syntax unified
 4327              		.thumb
 4328              		.thumb_func
 4329              		.fpu fpv4-sp-d16
 4330              		.type	mc_interface_set_handbrake, %function
 4331              	mc_interface_set_handbrake:
 4332              	.LFB275:
ARM GAS  C:\Users\CHRIST~1\AppData\Local\Temp\ccb3oWGE.s 			page 77


 4333              		.loc 1 466 0
 4334              		.cfi_startproc
 4335              		@ args = 0, pretend = 0, frame = 0
 4336              		@ frame_needed = 0, uses_anonymous_args = 0
 4337              	.LVL355:
 4338 0000 08B5     		push	{r3, lr}
 4339              		.cfi_def_cfa_offset 8
 4340              		.cfi_offset 3, -8
 4341              		.cfi_offset 14, -4
 4342 0002 2DED028B 		vpush.64	{d8}
 4343              		.cfi_def_cfa_offset 16
 4344              		.cfi_offset 80, -16
 4345              		.cfi_offset 81, -12
 4346              		.loc 1 466 0
 4347 0006 B0EE408A 		vmov.f32	s16, s0
 4348              		.loc 1 467 0
 4349 000a FFF7FEFF 		bl	mc_interface_try_input
 4350              	.LVL356:
 4351 000e 70B9     		cbnz	r0, .L575
 4352              		.loc 1 471 0
 4353 0010 0C4B     		ldr	r3, .L580
 4354 0012 9B78     		ldrb	r3, [r3, #2]	@ zero_extendqisi2
 4355 0014 DBB2     		uxtb	r3, r3
 4356 0016 012B     		cmp	r3, #1
 4357 0018 0CD9     		bls	.L577
 4358 001a 022B     		cmp	r3, #2
 4359 001c 07D1     		bne	.L575
 4360              		.loc 1 479 0
 4361 001e B0EE480A 		vmov.f32	s0, s16
 4362              		.loc 1 485 0
 4363 0022 BDEC028B 		vldm	sp!, {d8}
 4364              		.cfi_remember_state
 4365              		.cfi_restore 80
 4366              		.cfi_restore 81
 4367              		.cfi_def_cfa_offset 8
 4368              	.LVL357:
 4369 0026 BDE80840 		pop	{r3, lr}
 4370              		.cfi_restore 14
 4371              		.cfi_restore 3
 4372              		.cfi_def_cfa_offset 0
 4373              		.loc 1 479 0
 4374 002a FFF7FEBF 		b	mcpwm_foc_set_handbrake
 4375              	.LVL358:
 4376              	.L575:
 4377              		.cfi_restore_state
 4378              		.loc 1 485 0
 4379 002e BDEC028B 		vldm	sp!, {d8}
 4380              		.cfi_remember_state
 4381              		.cfi_restore 80
 4382              		.cfi_restore 81
 4383              		.cfi_def_cfa_offset 8
 4384              	.LVL359:
 4385 0032 08BD     		pop	{r3, pc}
 4386              	.LVL360:
 4387              	.L577:
 4388              		.cfi_restore_state
 4389              		.loc 1 475 0
ARM GAS  C:\Users\CHRIST~1\AppData\Local\Temp\ccb3oWGE.s 			page 78


 4390 0034 B0EE480A 		vmov.f32	s0, s16
 4391              		.loc 1 485 0
 4392 0038 BDEC028B 		vldm	sp!, {d8}
 4393              		.cfi_restore 80
 4394              		.cfi_restore 81
 4395              		.cfi_def_cfa_offset 8
 4396              	.LVL361:
 4397 003c BDE80840 		pop	{r3, lr}
 4398              		.cfi_restore 14
 4399              		.cfi_restore 3
 4400              		.cfi_def_cfa_offset 0
 4401              		.loc 1 475 0
 4402 0040 FFF7FEBF 		b	mcpwm_set_brake_current
 4403              	.LVL362:
 4404              	.L581:
 4405              		.align	2
 4406              	.L580:
 4407 0044 00000000 		.word	.LANCHOR12
 4408              		.cfi_endproc
 4409              	.LFE275:
 4410              		.size	mc_interface_set_handbrake, .-mc_interface_set_handbrake
 4411              		.section	.text.mc_interface_fault_stop,"ax",%progbits
 4412              		.align	1
 4413              		.p2align 4,,15
 4414              		.global	mc_interface_fault_stop
 4415              		.syntax unified
 4416              		.thumb
 4417              		.thumb_func
 4418              		.fpu fpv4-sp-d16
 4419              		.type	mc_interface_fault_stop, %function
 4420              	mc_interface_fault_stop:
 4421              	.LFB306:
 4422              		.loc 1 991 0
 4423              		.cfi_startproc
 4424              		@ args = 0, pretend = 0, frame = 0
 4425              		@ frame_needed = 0, uses_anonymous_args = 0
 4426              		@ link register save eliminated.
 4427              	.LVL363:
 4428              		.loc 1 992 0
 4429 0000 054B     		ldr	r3, .L587
 4430 0002 1B78     		ldrb	r3, [r3]	@ zero_extendqisi2
 4431 0004 8342     		cmp	r3, r0
 4432 0006 01D0     		beq	.L586
 4433 0008 FFF7FEBF 		b	mc_interface_fault_stop.part.3
 4434              	.LVL364:
 4435              	.L586:
 4436              		.loc 1 993 0
 4437 000c 034A     		ldr	r2, .L587+4
 4438 000e 044B     		ldr	r3, .L587+8
 4439 0010 D2F84C21 		ldr	r2, [r2, #332]
 4440 0014 1A60     		str	r2, [r3]
 4441              		.loc 1 1045 0
 4442 0016 7047     		bx	lr
 4443              	.L588:
 4444              		.align	2
 4445              	.L587:
 4446 0018 00000000 		.word	.LANCHOR13
ARM GAS  C:\Users\CHRIST~1\AppData\Local\Temp\ccb3oWGE.s 			page 79


 4447 001c 00000000 		.word	.LANCHOR12
 4448 0020 00000000 		.word	.LANCHOR14
 4449              		.cfi_endproc
 4450              	.LFE306:
 4451              		.size	mc_interface_fault_stop, .-mc_interface_fault_stop
 4452              		.section	.text.mc_interface_mc_timer_isr,"ax",%progbits
 4453              		.align	1
 4454              		.p2align 4,,15
 4455              		.global	mc_interface_mc_timer_isr
 4456              		.syntax unified
 4457              		.thumb
 4458              		.thumb_func
 4459              		.fpu fpv4-sp-d16
 4460              		.type	mc_interface_mc_timer_isr, %function
 4461              	mc_interface_mc_timer_isr:
 4462              	.LFB307:
 4463              		.loc 1 1047 0
 4464              		.cfi_startproc
 4465              		@ args = 0, pretend = 0, frame = 8
 4466              		@ frame_needed = 0, uses_anonymous_args = 0
 4467 0000 2DE9F043 		push	{r4, r5, r6, r7, r8, r9, lr}
 4468              		.cfi_def_cfa_offset 28
 4469              		.cfi_offset 4, -28
 4470              		.cfi_offset 5, -24
 4471              		.cfi_offset 6, -20
 4472              		.cfi_offset 7, -16
 4473              		.cfi_offset 8, -12
 4474              		.cfi_offset 9, -8
 4475              		.cfi_offset 14, -4
 4476 0004 2DED048B 		vpush.64	{d8, d9}
 4477              		.cfi_def_cfa_offset 44
 4478              		.cfi_offset 80, -44
 4479              		.cfi_offset 81, -40
 4480              		.cfi_offset 82, -36
 4481              		.cfi_offset 83, -32
 4482              		.loc 1 1050 0
 4483 0008 7E4E     		ldr	r6, .L687
 4484              		.loc 1 1054 0
 4485 000a 7F4C     		ldr	r4, .L687+4
 4486              		.loc 1 1047 0
 4487 000c 83B0     		sub	sp, sp, #12
 4488              		.cfi_def_cfa_offset 56
 4489              		.loc 1 1048 0
 4490 000e FFF7FEFF 		bl	ledpwm_update_pwm
 4491              	.LVL365:
 4492              		.loc 1 1050 0
 4493 0012 338A     		ldrh	r3, [r6, #16]
 4494 0014 DFED7D6A 		vldr.32	s13, .L687+8
 4495 0018 9FED7D7A 		vldr.32	s14, .L687+12
 4496              		.loc 1 1054 0
 4497 001c D4ED0B7A 		vldr.32	s15, [r4, #44]
 4498              		.loc 1 1050 0
 4499 0020 08EE103A 		vmov	s16, r3	@ int
 4500 0024 B8EE488A 		vcvt.f32.u32	s16, s16
 4501 0028 28EE268A 		vmul.f32	s16, s16, s13
 4502 002c 28EE078A 		vmul.f32	s16, s16, s14
 4503              	.LVL366:
ARM GAS  C:\Users\CHRIST~1\AppData\Local\Temp\ccb3oWGE.s 			page 80


 4504              		.loc 1 1054 0
 4505 0030 F4EEC87A 		vcmpe.f32	s15, s16
 4506 0034 F1EE10FA 		vmrs	APSR_nzcv, FPSCR
 4507 0038 07DC     		bgt	.L590
 4508              		.loc 1 1055 0 discriminator 1
 4509 003a D4ED0C7A 		vldr.32	s15, [r4, #48]
 4510              		.loc 1 1054 0 discriminator 1
 4511 003e F4EEC87A 		vcmpe.f32	s15, s16
 4512 0042 F1EE10FA 		vmrs	APSR_nzcv, FPSCR
 4513 0046 40F1D881 		bpl	.L665
 4514              	.L590:
 4515              		.loc 1 1056 0
 4516 004a 724A     		ldr	r2, .L687+16
 4517 004c 1368     		ldr	r3, [r2]
 4518 004e 0133     		adds	r3, r3, #1
 4519              		.loc 1 1058 0
 4520 0050 072B     		cmp	r3, #7
 4521              		.loc 1 1056 0
 4522 0052 1360     		str	r3, [r2]
 4523              		.loc 1 1058 0
 4524 0054 00F3B681 		bgt	.L676
 4525              	.L593:
 4526              		.loc 1 1066 0
 4527 0058 FFF7FEFF 		bl	mc_interface_get_state
 4528              	.LVL367:
 4529 005c 0228     		cmp	r0, #2
 4530 005e 00F0C781 		beq	.L677
 4531              	.L597:
 4532              		.loc 1 1069 0
 4533 0062 6D4B     		ldr	r3, .L687+20
 4534 0064 0022     		movs	r2, #0
 4535 0066 1A60     		str	r2, [r3]
 4536              	.L598:
 4537              		.loc 1 1072 0
 4538 0068 6C4B     		ldr	r3, .L687+24
 4539 006a 1B68     		ldr	r3, [r3]
 4540 006c 03B1     		cbz	r3, .L599
 4541              		.loc 1 1073 0
 4542 006e 9847     		blx	r3
 4543              	.LVL368:
 4544              	.L599:
 4545              		.loc 1 1076 0
 4546 0070 FFF7FEFF 		bl	mc_interface_get_tot_current_filtered
 4547              	.LVL369:
 4548 0074 F0EE408A 		vmov.f32	s17, s0
 4549              	.LVL370:
 4550              		.loc 1 1077 0
 4551 0078 FFF7FEFF 		bl	mc_interface_get_tot_current_in_filtered
 4552              	.LVL371:
 4553              		.loc 1 1078 0
 4554 007c 6848     		ldr	r0, .L687+28
 4555              		.loc 1 1079 0
 4556 007e 6949     		ldr	r1, .L687+32
 4557              		.loc 1 1078 0
 4558 0080 D0ED007A 		vldr.32	s15, [r0]
 4559              		.loc 1 1080 0
 4560 0084 684A     		ldr	r2, .L687+36
ARM GAS  C:\Users\CHRIST~1\AppData\Local\Temp\ccb3oWGE.s 			page 81


 4561              		.loc 1 1081 0
 4562 0086 694B     		ldr	r3, .L687+40
 4563              		.loc 1 1078 0
 4564 0088 77EEA87A 		vadd.f32	s15, s15, s17
 4565              		.loc 1 1080 0
 4566 008c B7EE009A 		vmov.f32	s18, #1.0e+0
 4567              		.loc 1 1078 0
 4568 0090 C0ED007A 		vstr.32	s15, [r0]
 4569              		.loc 1 1079 0
 4570 0094 D1ED007A 		vldr.32	s15, [r1]
 4571 0098 77EE807A 		vadd.f32	s15, s15, s0
 4572              		.loc 1 1077 0
 4573 009c F0EE409A 		vmov.f32	s19, s0
 4574              	.LVL372:
 4575              		.loc 1 1079 0
 4576 00a0 C1ED007A 		vstr.32	s15, [r1]
 4577              		.loc 1 1080 0
 4578 00a4 D2ED007A 		vldr.32	s15, [r2]
 4579 00a8 77EE897A 		vadd.f32	s15, s15, s18
 4580 00ac C2ED007A 		vstr.32	s15, [r2]
 4581              		.loc 1 1081 0
 4582 00b0 D3ED007A 		vldr.32	s15, [r3]
 4583 00b4 77EE897A 		vadd.f32	s15, s15, s18
 4584 00b8 C3ED007A 		vstr.32	s15, [r3]
 4585              		.loc 1 1083 0
 4586 00bc FFF7FEFF 		bl	mcpwm_foc_get_id
 4587              	.LVL373:
 4588 00c0 5B4B     		ldr	r3, .L687+44
 4589 00c2 D3ED007A 		vldr.32	s15, [r3]
 4590 00c6 37EE800A 		vadd.f32	s0, s15, s0
 4591 00ca 83ED000A 		vstr.32	s0, [r3]
 4592              		.loc 1 1084 0
 4593 00ce FFF7FEFF 		bl	mcpwm_foc_get_iq
 4594              	.LVL374:
 4595 00d2 5849     		ldr	r1, .L687+48
 4596              		.loc 1 1085 0
 4597 00d4 584A     		ldr	r2, .L687+52
 4598              		.loc 1 1084 0
 4599 00d6 D1ED007A 		vldr.32	s15, [r1]
 4600              		.loc 1 1086 0
 4601 00da 584B     		ldr	r3, .L687+56
 4602              		.loc 1 1084 0
 4603 00dc 37EE800A 		vadd.f32	s0, s15, s0
 4604 00e0 81ED000A 		vstr.32	s0, [r1]
 4605              		.loc 1 1085 0
 4606 00e4 D2ED007A 		vldr.32	s15, [r2]
 4607 00e8 77EE897A 		vadd.f32	s15, s15, s18
 4608 00ec C2ED007A 		vstr.32	s15, [r2]
 4609              		.loc 1 1086 0
 4610 00f0 D3ED007A 		vldr.32	s15, [r3]
 4611 00f4 37EE899A 		vadd.f32	s18, s15, s18
 4612 00f8 83ED009A 		vstr.32	s18, [r3]
 4613              		.loc 1 1088 0
 4614 00fc FFF7FEFF 		bl	mc_interface_get_tot_current
 4615              	.LVL375:
 4616              		.loc 1 1090 0
 4617 0100 A378     		ldrb	r3, [r4, #2]	@ zero_extendqisi2
ARM GAS  C:\Users\CHRIST~1\AppData\Local\Temp\ccb3oWGE.s 			page 82


 4618 0102 022B     		cmp	r3, #2
 4619              		.loc 1 1088 0
 4620 0104 B0EE409A 		vmov.f32	s18, s0
 4621              	.LVL376:
 4622              		.loc 1 1090 0
 4623 0108 00F0CB81 		beq	.L678
 4624              		.loc 1 1089 0
 4625 010c B0EE680A 		vmov.f32	s0, s17
 4626              	.LVL377:
 4627              	.L600:
 4628              		.loc 1 1097 0
 4629 0110 94F83C30 		ldrb	r3, [r4, #60]	@ zero_extendqisi2
 4630              		.loc 1 1098 0
 4631 0114 D4ED057A 		vldr.32	s15, [r4, #20]
 4632              		.loc 1 1097 0
 4633 0118 002B     		cmp	r3, #0
 4634 011a 00F04581 		beq	.L601
 4635              		.loc 1 1098 0
 4636 011e B0EEC00A 		vabs.f32	s0, s0
 4637              	.LVL378:
 4638 0122 B4EEE70A 		vcmpe.f32	s0, s15
 4639 0126 F1EE10FA 		vmrs	APSR_nzcv, FPSCR
 4640 012a 5CDD     		ble	.L602
 4641              	.LVL379:
 4642              	.LBB171:
 4643              	.LBB172:
 4644              		.loc 1 992 0
 4645 012c 444B     		ldr	r3, .L687+60
 4646 012e 1B78     		ldrb	r3, [r3]	@ zero_extendqisi2
 4647 0130 042B     		cmp	r3, #4
 4648 0132 55D1     		bne	.L604
 4649              	.LVL380:
 4650              	.L683:
 4651              		.loc 1 993 0
 4652 0134 434B     		ldr	r3, .L687+64
 4653 0136 D4F84C21 		ldr	r2, [r4, #332]
 4654 013a 1A60     		str	r2, [r3]
 4655              	.LBE172:
 4656              	.LBE171:
 4657              		.loc 1 1108 0
 4658 013c 424B     		ldr	r3, .L687+68
 4659 013e 1B69     		ldr	r3, [r3, #16]
 4660 0140 DB04     		lsls	r3, r3, #19
 4661 0142 40F1AA81 		bpl	.L609
 4662              	.LVL381:
 4663              	.L608:
 4664              		.loc 1 1113 0
 4665 0146 FFF7FEFF 		bl	mc_interface_get_sampling_frequency_now
 4666              	.LVL382:
 4667              		.loc 1 1114 0
 4668 014a F0EEE88A 		vabs.f32	s17, s17
 4669              	.LVL383:
 4670 014e F7EE006A 		vmov.f32	s13, #1.0e+0
 4671 0152 F4EEE68A 		vcmpe.f32	s17, s13
 4672 0156 F1EE10FA 		vmrs	APSR_nzcv, FPSCR
 4673              		.loc 1 1113 0
 4674 015a B0EE409A 		vmov.f32	s18, s0
ARM GAS  C:\Users\CHRIST~1\AppData\Local\Temp\ccb3oWGE.s 			page 83


 4675              	.LVL384:
 4676              		.loc 1 1114 0
 4677 015e 31DD     		ble	.L611
 4678              	.LBB174:
 4679              		.loc 1 1120 0
 4680 0160 86EE807A 		vdiv.f32	s14, s13, s0
 4681 0164 394A     		ldr	r2, .L687+72
 4682              		.loc 1 1119 0
 4683 0166 3A4B     		ldr	r3, .L687+76
 4684 0168 C9EE807A 		vdiv.f32	s15, s19, s0
 4685              		.loc 1 1120 0
 4686 016c 92ED006A 		vldr.32	s12, [r2]
 4687              		.loc 1 1119 0
 4688 0170 D3ED005A 		vldr.32	s11, [r3]
 4689              		.loc 1 1122 0
 4690 0174 DFED376A 		vldr.32	s13, .L687+80
 4691              		.loc 1 1120 0
 4692 0178 37EE067A 		vadd.f32	s14, s14, s12
 4693              		.loc 1 1119 0
 4694 017c 77EEA57A 		vadd.f32	s15, s15, s11
 4695              		.loc 1 1122 0
 4696 0180 B4EEE67A 		vcmpe.f32	s14, s13
 4697 0184 F1EE10FA 		vmrs	APSR_nzcv, FPSCR
 4698              		.loc 1 1119 0
 4699 0188 C3ED007A 		vstr.32	s15, [r3]
 4700              		.loc 1 1120 0
 4701 018c 82ED007A 		vstr.32	s14, [r2]
 4702              		.loc 1 1122 0
 4703 0190 18DB     		blt	.L611
 4704              		.loc 1 1123 0
 4705 0192 F5EEC07A 		vcmpe.f32	s15, #0
 4706 0196 F1EE10FA 		vmrs	APSR_nzcv, FPSCR
 4707 019a 27EE888A 		vmul.f32	s16, s15, s16
 4708              	.LVL385:
 4709 019e 40F3A081 		ble	.L666
 4710              		.loc 1 1124 0
 4711 01a2 2D48     		ldr	r0, .L687+84
 4712              		.loc 1 1125 0
 4713 01a4 2D49     		ldr	r1, .L687+88
 4714              		.loc 1 1124 0
 4715 01a6 90ED007A 		vldr.32	s14, [r0]
 4716 01aa 77EE877A 		vadd.f32	s15, s15, s14
 4717 01ae C0ED007A 		vstr.32	s15, [r0]
 4718              		.loc 1 1125 0
 4719 01b2 D1ED007A 		vldr.32	s15, [r1]
 4720 01b6 37EE888A 		vadd.f32	s16, s15, s16
 4721 01ba 81ED008A 		vstr.32	s16, [r1]
 4722              	.L616:
 4723              		.loc 1 1131 0
 4724 01be 0021     		movs	r1, #0
 4725 01c0 1160     		str	r1, [r2]	@ float
 4726              		.loc 1 1132 0
 4727 01c2 1960     		str	r1, [r3]	@ float
 4728              	.L611:
 4729              	.LVL386:
 4730              	.LBE174:
 4731              		.loc 1 1138 0
ARM GAS  C:\Users\CHRIST~1\AppData\Local\Temp\ccb3oWGE.s 			page 84


 4732 01c4 264F     		ldr	r7, .L687+92
 4733 01c6 3B78     		ldrb	r3, [r7]	@ zero_extendqisi2
 4734 01c8 013B     		subs	r3, r3, #1
 4735 01ca 052B     		cmp	r3, #5
 4736 01cc 00F2E780 		bhi	.L589
 4737 01d0 DFE813F0 		tbh	[pc, r3, lsl #1]
 4738              	.L619:
 4739 01d4 4D01     		.2byte	(.L618-.L619)/2
 4740 01d6 2601     		.2byte	(.L620-.L619)/2
 4741 01d8 1701     		.2byte	(.L621-.L619)/2
 4742 01da 4800     		.2byte	(.L622-.L619)/2
 4743 01dc 1701     		.2byte	(.L621-.L619)/2
 4744 01de 4800     		.2byte	(.L622-.L619)/2
 4745              	.LVL387:
 4746              		.p2align 1
 4747              	.L604:
 4748              	.LBB175:
 4749              	.LBB176:
 4750 01e0 0420     		movs	r0, #4
 4751 01e2 FFF7FEFF 		bl	mc_interface_fault_stop.part.3
 4752              	.LVL388:
 4753              	.L602:
 4754              	.LBE176:
 4755              	.LBE175:
 4756              		.loc 1 1108 0
 4757 01e6 184B     		ldr	r3, .L687+68
 4758 01e8 1B69     		ldr	r3, [r3, #16]
 4759 01ea DA04     		lsls	r2, r3, #19
 4760 01ec ABD4     		bmi	.L608
 4761              	.LVL389:
 4762              	.LBB177:
 4763              	.LBB178:
 4764              		.loc 1 992 0
 4765 01ee 144B     		ldr	r3, .L687+60
 4766 01f0 1B78     		ldrb	r3, [r3]	@ zero_extendqisi2
 4767 01f2 032B     		cmp	r3, #3
 4768 01f4 40F05181 		bne	.L609
 4769              		.loc 1 993 0
 4770 01f8 124B     		ldr	r3, .L687+64
 4771 01fa D4F84C21 		ldr	r2, [r4, #332]
 4772 01fe 1A60     		str	r2, [r3]
 4773 0200 A1E7     		b	.L608
 4774              	.L688:
 4775 0202 00BF     		.align	2
 4776              	.L687:
 4777 0204 00000000 		.word	.LANCHOR41
 4778 0208 00000000 		.word	.LANCHOR12
 4779 020c 6740533A 		.word	978534503
 4780 0210 74D19541 		.word	1100337524
 4781 0214 00000000 		.word	.LANCHOR42
 4782 0218 00000000 		.word	.LANCHOR15
 4783 021c 00000000 		.word	.LANCHOR39
 4784 0220 00000000 		.word	.LANCHOR18
 4785 0224 00000000 		.word	.LANCHOR19
 4786 0228 00000000 		.word	.LANCHOR20
 4787 022c 00000000 		.word	.LANCHOR21
 4788 0230 00000000 		.word	.LANCHOR22
ARM GAS  C:\Users\CHRIST~1\AppData\Local\Temp\ccb3oWGE.s 			page 85


 4789 0234 00000000 		.word	.LANCHOR23
 4790 0238 00000000 		.word	.LANCHOR24
 4791 023c 00000000 		.word	.LANCHOR25
 4792 0240 00000000 		.word	.LANCHOR13
 4793 0244 00000000 		.word	.LANCHOR14
 4794 0248 00080240 		.word	1073874944
 4795 024c 00000000 		.word	.LANCHOR44
 4796 0250 00000000 		.word	.LANCHOR43
 4797 0254 0AD7233C 		.word	1008981770
 4798 0258 00000000 		.word	.LANCHOR26
 4799 025c 00000000 		.word	.LANCHOR28
 4800 0260 00000000 		.word	.LANCHOR36
 4801              	.LVL390:
 4802              	.L622:
 4803              	.LBE178:
 4804              	.LBE177:
 4805              	.LBB180:
 4806              		.loc 1 1200 0
 4807 0264 DFF85083 		ldr	r8, .L689+92
 4808 0268 D8F80030 		ldr	r3, [r8]
 4809 026c 002B     		cmp	r3, #0
 4810 026e 80F22281 		bge	.L679
 4811              		.loc 1 1199 0
 4812 0272 4FF0FF33 		mov	r3, #-1
 4813              	.LVL391:
 4814              	.L632:
 4815              		.loc 1 1207 0
 4816 0276 B94D     		ldr	r5, .L689
 4817 0278 2A68     		ldr	r2, [r5]
 4818 027a 9A42     		cmp	r2, r3
 4819 027c 00F05881 		beq	.L680
 4820              		.loc 1 1220 0
 4821 0280 B74B     		ldr	r3, .L689+4
 4822              	.LVL392:
 4823 0282 1B78     		ldrb	r3, [r3]	@ zero_extendqisi2
 4824 0284 33B1     		cbz	r3, .L624
 4825              	.LVL393:
 4826              	.L641:
 4827 0286 D8F80030 		ldr	r3, [r8]
 4828 028a 002B     		cmp	r3, #0
 4829              		.loc 1 1221 0
 4830 028c BCBF     		itt	lt
 4831 028e 2B68     		ldrlt	r3, [r5]
 4832 0290 C8F80030 		strlt	r3, [r8]
 4833              	.LVL394:
 4834              	.L624:
 4835              	.LBE180:
 4836              	.LBB191:
 4837              		.loc 1 1231 0
 4838 0294 B34A     		ldr	r2, .L689+8
 4839              		.loc 1 1233 0
 4840 0296 B449     		ldr	r1, .L689+12
 4841              		.loc 1 1231 0
 4842 0298 1368     		ldr	r3, [r2]
 4843              		.loc 1 1233 0
 4844 029a 0968     		ldr	r1, [r1]
 4845              		.loc 1 1231 0
ARM GAS  C:\Users\CHRIST~1\AppData\Local\Temp\ccb3oWGE.s 			page 86


 4846 029c 0133     		adds	r3, r3, #1
 4847              		.loc 1 1233 0
 4848 029e 8B42     		cmp	r3, r1
 4849              		.loc 1 1231 0
 4850 02a0 1360     		str	r3, [r2]
 4851              		.loc 1 1233 0
 4852 02a2 7CDB     		blt	.L589
 4853              	.LBB192:
 4854              		.loc 1 1236 0
 4855 02a4 2968     		ldr	r1, [r5]
 4856              		.loc 1 1234 0
 4857 02a6 0023     		movs	r3, #0
 4858              		.loc 1 1236 0
 4859 02a8 B1F5FA6F 		cmp	r1, #2000
 4860              		.loc 1 1237 0
 4861 02ac A8BF     		it	ge
 4862 02ae 2B60     		strge	r3, [r5]
 4863              		.loc 1 1234 0
 4864 02b0 1360     		str	r3, [r2]
 4865              		.loc 1 1241 0
 4866 02b2 A378     		ldrb	r3, [r4, #2]	@ zero_extendqisi2
 4867 02b4 022B     		cmp	r3, #2
 4868 02b6 00F08381 		beq	.L681
 4869              		.loc 1 1248 0
 4870 02ba AC4B     		ldr	r3, .L689+16
 4871              		.loc 1 1249 0
 4872 02bc AC4F     		ldr	r7, .L689+20
 4873              		.loc 1 1248 0
 4874 02be 1C68     		ldr	r4, [r3]
 4875              		.loc 1 1249 0
 4876 02c0 2B68     		ldr	r3, [r5]
 4877 02c2 3B44     		add	r3, r3, r7
 4878 02c4 0022     		movs	r2, #0
 4879              		.loc 1 1248 0
 4880 02c6 24B2     		sxth	r4, r4
 4881              	.LVL395:
 4882              		.loc 1 1249 0
 4883 02c8 83F8082E 		strb	r2, [r3, #3592]
 4884              	.L637:
 4885              		.loc 1 1252 0
 4886 02cc FFF7FEFF 		bl	mc_interface_get_state
 4887              	.LVL396:
 4888 02d0 0128     		cmp	r0, #1
 4889 02d2 00F09581 		beq	.L682
 4890              		.loc 1 1260 0
 4891 02d6 A748     		ldr	r0, .L689+24
 4892 02d8 A74B     		ldr	r3, .L689+28
 4893 02da 0268     		ldr	r2, [r0]
 4894 02dc D5F800C0 		ldr	ip, [r5]
 4895              		.loc 1 1263 0
 4896 02e0 A649     		ldr	r1, .L689+32
 4897              		.loc 1 1260 0
 4898 02e2 12B2     		sxth	r2, r2
 4899 02e4 23F81C20 		strh	r2, [r3, ip, lsl #1]	@ movhi
 4900              		.loc 1 1261 0
 4901 02e8 4268     		ldr	r2, [r0, #4]
 4902 02ea 2868     		ldr	r0, [r5]
ARM GAS  C:\Users\CHRIST~1\AppData\Local\Temp\ccb3oWGE.s 			page 87


 4903              		.loc 1 1264 0
 4904 02ec DFF8CCC2 		ldr	ip, .L689+96
 4905              		.loc 1 1261 0
 4906 02f0 03EB4003 		add	r3, r3, r0, lsl #1
 4907 02f4 12B2     		sxth	r2, r2
 4908 02f6 A3F8A02F 		strh	r2, [r3, #4000]	@ movhi
 4909              		.loc 1 1263 0
 4910 02fa B288     		ldrh	r2, [r6, #4]
 4911 02fc 2B68     		ldr	r3, [r5]
 4912 02fe A0B2     		uxth	r0, r4
 4913 0300 01EB4303 		add	r3, r1, r3, lsl #1
 4914 0304 121A     		subs	r2, r2, r0
 4915 0306 12B2     		sxth	r2, r2
 4916 0308 A3F8482E 		strh	r2, [r3, #3656]	@ movhi
 4917              		.loc 1 1264 0
 4918 030c 7288     		ldrh	r2, [r6, #2]
 4919 030e 2B68     		ldr	r3, [r5]
 4920              		.loc 1 1265 0
 4921 0310 9B49     		ldr	r1, .L689+36
 4922              		.loc 1 1264 0
 4923 0312 0CEB4303 		add	r3, ip, r3, lsl #1
 4924 0316 121A     		subs	r2, r2, r0
 4925 0318 12B2     		sxth	r2, r2
 4926 031a A3F8F02C 		strh	r2, [r3, #3312]	@ movhi
 4927              		.loc 1 1265 0
 4928 031e 3388     		ldrh	r3, [r6]
 4929 0320 2A68     		ldr	r2, [r5]
 4930 0322 1B1A     		subs	r3, r3, r0
 4931 0324 01EB4202 		add	r2, r1, r2, lsl #1
 4932 0328 1BB2     		sxth	r3, r3
 4933 032a A2F8983B 		strh	r3, [r2, #2968]	@ movhi
 4934              	.L639:
 4935              		.loc 1 1268 0
 4936 032e 2A68     		ldr	r2, [r5]
 4937 0330 944B     		ldr	r3, .L689+40
 4938 0332 03EB4203 		add	r3, r3, r2, lsl #1
 4939 0336 A3F8404A 		strh	r4, [r3, #2624]	@ movhi
 4940              		.loc 1 1269 0
 4941 033a FFF7FEFF 		bl	mc_interface_get_tot_current
 4942              	.LVL397:
 4943              		.loc 1 1270 0
 4944 033e F2EE047A 		vmov.f32	s15, #1.0e+1
 4945 0342 89EE277A 		vdiv.f32	s14, s18, s15
 4946              		.loc 1 1269 0
 4947 0346 2B68     		ldr	r3, [r5]
 4948 0348 8F48     		ldr	r0, .L689+44
 4949              		.loc 1 1270 0
 4950 034a 9049     		ldr	r1, .L689+48
 4951              		.loc 1 1269 0
 4952 034c 00EB4300 		add	r0, r0, r3, lsl #1
 4953 0350 DFED8F7A 		vldr.32	s15, .L689+52
 4954              		.loc 1 1270 0
 4955 0354 BDEEC77A 		vcvt.s32.f32	s14, s14
 4956              		.loc 1 1269 0
 4957 0358 20EE270A 		vmul.f32	s0, s0, s15
 4958              		.loc 1 1270 0
 4959 035c 17EE103A 		vmov	r3, s14	@ int
ARM GAS  C:\Users\CHRIST~1\AppData\Local\Temp\ccb3oWGE.s 			page 88


 4960              		.loc 1 1269 0
 4961 0360 BDEEC00A 		vcvt.s32.f32	s0, s0
 4962              		.loc 1 1270 0
 4963 0364 1AB2     		sxth	r2, r3
 4964              		.loc 1 1269 0
 4965 0366 10EE103A 		vmov	r3, s0	@ int
 4966 036a 1BB2     		sxth	r3, r3
 4967 036c A0F8E838 		strh	r3, [r0, #2280]	@ movhi
 4968              		.loc 1 1270 0
 4969 0370 2B68     		ldr	r3, [r5]
 4970 0372 01EB4303 		add	r3, r1, r3, lsl #1
 4971 0376 A3F89027 		strh	r2, [r3, #1936]	@ movhi
 4972              		.loc 1 1271 0
 4973 037a FFF7FEFF 		bl	mcpwm_get_comm_step
 4974              	.LVL398:
 4975 037e 0446     		mov	r4, r0
 4976              	.LVL399:
 4977 0380 FFF7FEFF 		bl	mcpwm_read_hall_phase
 4978              	.LVL400:
 4979 0384 2B68     		ldr	r3, [r5]
 4980              	.LBB193:
 4981              	.LBB194:
 4982              		.loc 1 902 0
 4983 0386 834A     		ldr	r2, .L689+56
 4984              	.LBE194:
 4985              	.LBE193:
 4986              		.loc 1 1271 0
 4987 0388 1F44     		add	r7, r7, r3
 4988 038a 44EAC000 		orr	r0, r4, r0, lsl #3
 4989 038e C0B2     		uxtb	r0, r0
 4990 0390 87F83806 		strb	r0, [r7, #1592]
 4991              		.loc 1 1273 0
 4992 0394 2B68     		ldr	r3, [r5]
 4993 0396 0133     		adds	r3, r3, #1
 4994 0398 2B60     		str	r3, [r5]
 4995              	.LBB196:
 4996              	.LBB195:
 4997              		.loc 1 902 0
 4998 039a 1368     		ldr	r3, [r2]	@ float
 4999              	.LBE195:
 5000              	.LBE196:
 5001              		.loc 1 1275 0
 5002 039c 1360     		str	r3, [r2]	@ float
 5003              	.L589:
 5004              	.LBE192:
 5005              	.LBE191:
 5006              		.loc 1 1278 0
 5007 039e 03B0     		add	sp, sp, #12
 5008              		.cfi_remember_state
 5009              		.cfi_def_cfa_offset 44
 5010              		@ sp needed
 5011 03a0 BDEC048B 		vldm	sp!, {d8-d9}
 5012              		.cfi_restore 82
 5013              		.cfi_restore 83
 5014              		.cfi_restore 80
 5015              		.cfi_restore 81
 5016              		.cfi_def_cfa_offset 28
ARM GAS  C:\Users\CHRIST~1\AppData\Local\Temp\ccb3oWGE.s 			page 89


 5017              	.LVL401:
 5018 03a4 BDE8F083 		pop	{r4, r5, r6, r7, r8, r9, pc}
 5019              	.LVL402:
 5020              	.L601:
 5021              		.cfi_restore_state
 5022              		.loc 1 1102 0
 5023 03a8 B0EEC99A 		vabs.f32	s18, s18
 5024              	.LVL403:
 5025 03ac B4EEE79A 		vcmpe.f32	s18, s15
 5026 03b0 F1EE10FA 		vmrs	APSR_nzcv, FPSCR
 5027 03b4 7FF717AF 		ble	.L602
 5028              	.LVL404:
 5029              	.LBB198:
 5030              	.LBB173:
 5031              		.loc 1 992 0
 5032 03b8 694B     		ldr	r3, .L689+4
 5033 03ba 1B78     		ldrb	r3, [r3]	@ zero_extendqisi2
 5034 03bc 042B     		cmp	r3, #4
 5035 03be 3FF4B9AE 		beq	.L683
 5036 03c2 0DE7     		b	.L604
 5037              	.LVL405:
 5038              	.L676:
 5039              	.LBE173:
 5040              	.LBE198:
 5041              		.loc 1 1059 0
 5042 03c4 D4ED0B7A 		vldr.32	s15, [r4, #44]
 5043              	.LBB199:
 5044              	.LBB200:
 5045              		.loc 1 992 0
 5046 03c8 654B     		ldr	r3, .L689+4
 5047              	.LBE200:
 5048              	.LBE199:
 5049              		.loc 1 1059 0
 5050 03ca F4EEC87A 		vcmpe.f32	s15, s16
 5051 03ce F1EE10FA 		vmrs	APSR_nzcv, FPSCR
 5052              	.LBB204:
 5053              	.LBB201:
 5054              		.loc 1 992 0
 5055 03d2 1B78     		ldrb	r3, [r3]	@ zero_extendqisi2
 5056              	.LBE201:
 5057              	.LBE204:
 5058              		.loc 1 1059 0
 5059 03d4 CCBF     		ite	gt
 5060 03d6 0220     		movgt	r0, #2
 5061 03d8 0120     		movle	r0, #1
 5062              	.LVL406:
 5063              	.LBB205:
 5064              	.LBB202:
 5065              		.loc 1 992 0
 5066 03da 8342     		cmp	r3, r0
 5067 03dc 68D1     		bne	.L596
 5068              		.loc 1 993 0
 5069 03de 6E4B     		ldr	r3, .L689+60
 5070 03e0 D4F84C21 		ldr	r2, [r4, #332]
 5071 03e4 1A60     		str	r2, [r3]
 5072              	.LBE202:
 5073              	.LBE205:
ARM GAS  C:\Users\CHRIST~1\AppData\Local\Temp\ccb3oWGE.s 			page 90


 5074              		.loc 1 1066 0
 5075 03e6 FFF7FEFF 		bl	mc_interface_get_state
 5076              	.LVL407:
 5077 03ea 0228     		cmp	r0, #2
 5078 03ec 7FF439AE 		bne	.L597
 5079              	.L677:
 5080              		.loc 1 1067 0
 5081 03f0 6A4A     		ldr	r2, .L689+64
 5082 03f2 1368     		ldr	r3, [r2]
 5083 03f4 0133     		adds	r3, r3, #1
 5084 03f6 1360     		str	r3, [r2]
 5085 03f8 36E6     		b	.L598
 5086              	.L665:
 5087              		.loc 1 1063 0
 5088 03fa 694B     		ldr	r3, .L689+68
 5089 03fc 0022     		movs	r2, #0
 5090 03fe 1A60     		str	r2, [r3]
 5091 0400 2AE6     		b	.L593
 5092              	.LVL408:
 5093              	.L621:
 5094              	.LBB206:
 5095              		.loc 1 1170 0
 5096 0402 DFF8B481 		ldr	r8, .L689+92
 5097 0406 D8F80030 		ldr	r3, [r8]
 5098 040a 002B     		cmp	r3, #0
 5099 040c 5DDB     		blt	.L645
 5100              		.loc 1 1171 0
 5101 040e 654A     		ldr	r2, .L689+72
 5102 0410 D8F80030 		ldr	r3, [r8]
 5103 0414 1268     		ldr	r2, [r2]
 5104              	.LVL409:
 5105              		.loc 1 1172 0
 5106 0416 9B1A     		subs	r3, r3, r2
 5107              	.LVL410:
 5108 0418 59D5     		bpl	.L628
 5109              		.loc 1 1173 0
 5110 041a 03F5FA63 		add	r3, r3, #2000
 5111              	.LVL411:
 5112 041e 56E0     		b	.L628
 5113              	.LVL412:
 5114              	.L620:
 5115              	.LBE206:
 5116              		.loc 1 1152 0
 5117 0420 FFF7FEFF 		bl	mc_interface_get_state
 5118              	.LVL413:
 5119 0424 0228     		cmp	r0, #2
 5120 0426 4D4D     		ldr	r5, .L689
 5121 0428 03D0     		beq	.L625
 5122              		.loc 1 1152 0 is_stmt 0 discriminator 1
 5123 042a 2B68     		ldr	r3, [r5]
 5124 042c 002B     		cmp	r3, #0
 5125 042e 40F33381 		ble	.L684
 5126              	.L625:
 5127              	.LVL414:
 5128              		.loc 1 1156 0 is_stmt 1
 5129 0432 5C4B     		ldr	r3, .L689+72
 5130 0434 2A68     		ldr	r2, [r5]
ARM GAS  C:\Users\CHRIST~1\AppData\Local\Temp\ccb3oWGE.s 			page 91


 5131 0436 1B68     		ldr	r3, [r3]
 5132 0438 9A42     		cmp	r2, r3
 5133 043a 7FF42BAF 		bne	.L624
 5134 043e 4FF00109 		mov	r9, #1
 5135              	.LVL415:
 5136              	.L640:
 5137              		.loc 1 1157 0
 5138 0442 3B78     		ldrb	r3, [r7]	@ zero_extendqisi2
 5139 0444 584A     		ldr	r2, .L689+76
 5140 0446 DBB2     		uxtb	r3, r3
 5141              		.loc 1 1158 0
 5142 0448 4FF00008 		mov	r8, #0
 5143              		.loc 1 1157 0
 5144 044c 1370     		strb	r3, [r2]
 5145              	.LBB217:
 5146              	.LBB218:
 5147              	.LBB219:
 5148              	.LBB220:
 5149              	.LBB221:
 5150              		.file 3 "ChibiOS_3.0.2/os/ext/CMSIS/include/core_cmFunc.h"
 5151              		.loc 3 546 0
 5152 044e 2023     		movs	r3, #32
 5153              	.LBE221:
 5154              	.LBE220:
 5155              	.LBE219:
 5156              	.LBE218:
 5157              	.LBE217:
 5158              		.loc 1 1158 0
 5159 0450 87F80080 		strb	r8, [r7]
 5160              	.LVL416:
 5161              	.LBB226:
 5162              	.LBB225:
 5163              	.LBB224:
 5164              	.LBB223:
 5165              	.LBB222:
 5166              		.loc 3 546 0
 5167              		.syntax unified
 5168              	@ 546 "ChibiOS_3.0.2/os/ext/CMSIS/include/core_cmFunc.h" 1
 5169 0454 83F31188 		MSR basepri, r3
 5170              	@ 0 "" 2
 5171              	.LVL417:
 5172              		.thumb
 5173              		.syntax unified
 5174              	.LBE222:
 5175              	.LBE223:
 5176              	.LBE224:
 5177              	.LBE225:
 5178              	.LBE226:
 5179              		.loc 1 1160 0
 5180 0458 544B     		ldr	r3, .L689+80
 5181 045a 0121     		movs	r1, #1
 5182 045c 1868     		ldr	r0, [r3]
 5183 045e FFF7FEFF 		bl	chEvtSignalI
 5184              	.LVL418:
 5185              	.LBB227:
 5186              	.LBB228:
 5187              	.LBB229:
ARM GAS  C:\Users\CHRIST~1\AppData\Local\Temp\ccb3oWGE.s 			page 92


 5188              	.LBB230:
 5189              	.LBB231:
 5190              		.loc 3 546 0
 5191              		.syntax unified
 5192              	@ 546 "ChibiOS_3.0.2/os/ext/CMSIS/include/core_cmFunc.h" 1
 5193 0462 88F31188 		MSR basepri, r8
 5194              	@ 0 "" 2
 5195              	.LVL419:
 5196              		.thumb
 5197              		.syntax unified
 5198              	.LBE231:
 5199              	.LBE230:
 5200              	.LBE229:
 5201              	.LBE228:
 5202              	.LBE227:
 5203              		.loc 1 1229 0
 5204 0466 B9F1000F 		cmp	r9, #0
 5205 046a 98D0     		beq	.L589
 5206 046c 12E7     		b	.L624
 5207              	.LVL420:
 5208              	.L618:
 5209              		.loc 1 1140 0
 5210 046e 3B4D     		ldr	r5, .L689
 5211 0470 4C4B     		ldr	r3, .L689+72
 5212 0472 2A68     		ldr	r2, [r5]
 5213 0474 1B68     		ldr	r3, [r3]
 5214 0476 9A42     		cmp	r2, r3
 5215 0478 7FF40CAF 		bne	.L624
 5216              		.loc 1 1142 0
 5217 047c 4A4A     		ldr	r2, .L689+76
 5218              		.loc 1 1141 0
 5219 047e 0024     		movs	r4, #0
 5220              		.loc 1 1142 0
 5221 0480 0121     		movs	r1, #1
 5222              		.loc 1 1141 0
 5223 0482 3C70     		strb	r4, [r7]
 5224              	.LBB232:
 5225              	.LBB233:
 5226              	.LBB234:
 5227              	.LBB235:
 5228              	.LBB236:
 5229              		.loc 3 546 0
 5230 0484 2023     		movs	r3, #32
 5231              	.LBE236:
 5232              	.LBE235:
 5233              	.LBE234:
 5234              	.LBE233:
 5235              	.LBE232:
 5236              		.loc 1 1142 0
 5237 0486 1170     		strb	r1, [r2]
 5238              	.LVL421:
 5239              	.LBB241:
 5240              	.LBB240:
 5241              	.LBB239:
 5242              	.LBB238:
 5243              	.LBB237:
 5244              		.loc 3 546 0
ARM GAS  C:\Users\CHRIST~1\AppData\Local\Temp\ccb3oWGE.s 			page 93


 5245              		.syntax unified
 5246              	@ 546 "ChibiOS_3.0.2/os/ext/CMSIS/include/core_cmFunc.h" 1
 5247 0488 83F31188 		MSR basepri, r3
 5248              	@ 0 "" 2
 5249              	.LVL422:
 5250              		.thumb
 5251              		.syntax unified
 5252              	.LBE237:
 5253              	.LBE238:
 5254              	.LBE239:
 5255              	.LBE240:
 5256              	.LBE241:
 5257              		.loc 1 1144 0
 5258 048c 474B     		ldr	r3, .L689+80
 5259 048e 1868     		ldr	r0, [r3]
 5260 0490 FFF7FEFF 		bl	chEvtSignalI
 5261              	.LVL423:
 5262              	.LBB242:
 5263              	.LBB243:
 5264              	.LBB244:
 5265              	.LBB245:
 5266              	.LBB246:
 5267              		.loc 3 546 0
 5268              		.syntax unified
 5269              	@ 546 "ChibiOS_3.0.2/os/ext/CMSIS/include/core_cmFunc.h" 1
 5270 0494 84F31188 		MSR basepri, r4
 5271              	@ 0 "" 2
 5272              	.LVL424:
 5273              		.thumb
 5274              		.syntax unified
 5275 0498 81E7     		b	.L589
 5276              	.LVL425:
 5277              	.L609:
 5278              	.LBE246:
 5279              	.LBE245:
 5280              	.LBE244:
 5281              	.LBE243:
 5282              	.LBE242:
 5283              	.LBB247:
 5284              	.LBB179:
 5285 049a 0320     		movs	r0, #3
 5286 049c FFF7FEFF 		bl	mc_interface_fault_stop.part.3
 5287              	.LVL426:
 5288 04a0 51E6     		b	.L608
 5289              	.LVL427:
 5290              	.L678:
 5291              	.LBE179:
 5292              	.LBE247:
 5293              		.loc 1 1092 0
 5294 04a2 FFF7FEFF 		bl	mcpwm_foc_get_abs_motor_current
 5295              	.LVL428:
 5296 04a6 B0EE409A 		vmov.f32	s18, s0
 5297              	.LVL429:
 5298              		.loc 1 1093 0
 5299 04aa FFF7FEFF 		bl	mcpwm_foc_get_abs_motor_current_filtered
 5300              	.LVL430:
 5301 04ae 2FE6     		b	.L600
ARM GAS  C:\Users\CHRIST~1\AppData\Local\Temp\ccb3oWGE.s 			page 94


 5302              	.LVL431:
 5303              	.L596:
 5304              	.LBB248:
 5305              	.LBB203:
 5306 04b0 FFF7FEFF 		bl	mc_interface_fault_stop.part.3
 5307              	.LVL432:
 5308 04b4 D0E5     		b	.L593
 5309              	.LVL433:
 5310              	.L679:
 5311              	.LBE203:
 5312              	.LBE248:
 5313              	.LBB249:
 5314              		.loc 1 1201 0
 5315 04b6 3B4A     		ldr	r2, .L689+72
 5316 04b8 D8F80030 		ldr	r3, [r8]
 5317 04bc 1268     		ldr	r2, [r2]
 5318              	.LVL434:
 5319              		.loc 1 1202 0
 5320 04be 9B1A     		subs	r3, r3, r2
 5321              	.LVL435:
 5322 04c0 7FF5D9AE 		bpl	.L632
 5323              		.loc 1 1203 0
 5324 04c4 03F5FA63 		add	r3, r3, #2000
 5325              	.LVL436:
 5326 04c8 D5E6     		b	.L632
 5327              	.LVL437:
 5328              	.L645:
 5329              	.LBE249:
 5330              	.LBB250:
 5331              		.loc 1 1169 0
 5332 04ca 4FF0FF33 		mov	r3, #-1
 5333              	.LVL438:
 5334              	.L628:
 5335              		.loc 1 1177 0
 5336 04ce 234D     		ldr	r5, .L689
 5337 04d0 2A68     		ldr	r2, [r5]
 5338 04d2 9A42     		cmp	r2, r3
 5339 04d4 14D0     		beq	.L629
 5340              		.loc 1 1190 0
 5341 04d6 FFF7FEFF 		bl	mc_interface_get_state
 5342              	.LVL439:
 5343 04da 0228     		cmp	r0, #2
 5344 04dc 7FF4DAAE 		bne	.L624
 5345 04e0 D1E6     		b	.L641
 5346              	.LVL440:
 5347              	.L666:
 5348              	.LBE250:
 5349              	.LBB251:
 5350              		.loc 1 1127 0
 5351 04e2 3348     		ldr	r0, .L689+84
 5352              		.loc 1 1128 0
 5353 04e4 3349     		ldr	r1, .L689+88
 5354              		.loc 1 1127 0
 5355 04e6 90ED007A 		vldr.32	s14, [r0]
 5356 04ea 77EE677A 		vsub.f32	s15, s14, s15
 5357 04ee C0ED007A 		vstr.32	s15, [r0]
 5358              		.loc 1 1128 0
ARM GAS  C:\Users\CHRIST~1\AppData\Local\Temp\ccb3oWGE.s 			page 95


 5359 04f2 D1ED007A 		vldr.32	s15, [r1]
 5360 04f6 37EEC88A 		vsub.f32	s16, s15, s16
 5361 04fa 81ED008A 		vstr.32	s16, [r1]
 5362 04fe 5EE6     		b	.L616
 5363              	.LVL441:
 5364              	.L629:
 5365              	.LBE251:
 5366              	.LBB252:
 5367              		.loc 1 1178 0
 5368 0500 3B78     		ldrb	r3, [r7]	@ zero_extendqisi2
 5369              	.LVL442:
 5370 0502 294A     		ldr	r2, .L689+76
 5371 0504 DBB2     		uxtb	r3, r3
 5372 0506 1370     		strb	r3, [r2]
 5373              	.LVL443:
 5374              		.loc 1 1181 0
 5375 0508 3B78     		ldrb	r3, [r7]	@ zero_extendqisi2
 5376 050a 032B     		cmp	r3, #3
 5377 050c 00F0CD80 		beq	.L685
 5378              	.LVL444:
 5379              	.L630:
 5380              		.loc 1 1187 0
 5381 0510 0023     		movs	r3, #0
 5382 0512 3B70     		strb	r3, [r7]
 5383              		.loc 1 1190 0
 5384 0514 FFF7FEFF 		bl	mc_interface_get_state
 5385              	.LVL445:
 5386 0518 0228     		cmp	r0, #2
 5387 051a 7FF440AF 		bne	.L589
 5388 051e D8F80030 		ldr	r3, [r8]
 5389 0522 002B     		cmp	r3, #0
 5390 0524 BFF63BAF 		bge	.L589
 5391              	.L672:
 5392              	.LBE252:
 5393              	.LBB253:
 5394              		.loc 1 1221 0
 5395 0528 2B68     		ldr	r3, [r5]
 5396 052a C8F80030 		str	r3, [r8]
 5397 052e 36E7     		b	.L589
 5398              	.LVL446:
 5399              	.L680:
 5400              		.loc 1 1208 0
 5401 0530 3B78     		ldrb	r3, [r7]	@ zero_extendqisi2
 5402              	.LVL447:
 5403 0532 1D4A     		ldr	r2, .L689+76
 5404 0534 DBB2     		uxtb	r3, r3
 5405 0536 1370     		strb	r3, [r2]
 5406              	.LVL448:
 5407              		.loc 1 1211 0
 5408 0538 3B78     		ldrb	r3, [r7]	@ zero_extendqisi2
 5409 053a 042B     		cmp	r3, #4
 5410 053c 00F0C180 		beq	.L686
 5411              	.LVL449:
 5412              	.L634:
 5413              		.loc 1 1220 0
 5414 0540 074B     		ldr	r3, .L689+4
 5415 0542 1B78     		ldrb	r3, [r3]	@ zero_extendqisi2
ARM GAS  C:\Users\CHRIST~1\AppData\Local\Temp\ccb3oWGE.s 			page 96


 5416              		.loc 1 1217 0
 5417 0544 0022     		movs	r2, #0
 5418 0546 3A70     		strb	r2, [r7]
 5419              		.loc 1 1220 0
 5420 0548 002B     		cmp	r3, #0
 5421 054a 3FF428AF 		beq	.L589
 5422 054e D8F80030 		ldr	r3, [r8]
 5423 0552 9342     		cmp	r3, r2
 5424 0554 BFF623AF 		bge	.L589
 5425 0558 E6E7     		b	.L672
 5426              	.L690:
 5427 055a 00BF     		.align	2
 5428              	.L689:
 5429 055c 00000000 		.word	.LANCHOR35
 5430 0560 00000000 		.word	.LANCHOR13
 5431 0564 00000000 		.word	.LANCHOR45
 5432 0568 00000000 		.word	.LANCHOR34
 5433 056c 00000000 		.word	mcpwm_vzero
 5434 0570 C8760000 		.word	.LANCHOR11
 5435 0574 00000000 		.word	.LANCHOR46
 5436 0578 00000000 		.word	.LANCHOR4
 5437 057c F8100000 		.word	.LANCHOR5
 5438 0580 E8320000 		.word	.LANCHOR7
 5439 0584 E0430000 		.word	.LANCHOR8
 5440 0588 D8540000 		.word	.LANCHOR9
 5441 058c D0650000 		.word	.LANCHOR10
 5442 0590 A48BC642 		.word	1120308132
 5443 0594 00000000 		.word	.LANCHOR31
 5444 0598 00000000 		.word	.LANCHOR14
 5445 059c 00000000 		.word	.LANCHOR15
 5446 05a0 00000000 		.word	.LANCHOR42
 5447 05a4 00000000 		.word	.LANCHOR2
 5448 05a8 00000000 		.word	.LANCHOR1
 5449 05ac 00000000 		.word	.LANCHOR0
 5450 05b0 00000000 		.word	.LANCHOR27
 5451 05b4 00000000 		.word	.LANCHOR29
 5452 05b8 00000000 		.word	.LANCHOR3
 5453 05bc F0210000 		.word	.LANCHOR6
 5454              	.LVL450:
 5455              	.L681:
 5456              	.LBE253:
 5457              	.LBB254:
 5458              	.LBB197:
 5459              		.loc 1 1242 0
 5460 05c0 B188     		ldrh	r1, [r6, #4]
 5461 05c2 7488     		ldrh	r4, [r6, #2]
 5462 05c4 3288     		ldrh	r2, [r6]
 5463 05c6 454B     		ldr	r3, .L691
 5464              		.loc 1 1243 0
 5465 05c8 454F     		ldr	r7, .L691+4
 5466              		.loc 1 1242 0
 5467 05ca 0C44     		add	r4, r4, r1
 5468 05cc 1444     		add	r4, r4, r2
 5469 05ce A3FB0434 		umull	r3, r4, r3, r4
 5470              		.loc 1 1243 0
 5471 05d2 FFF7FEFF 		bl	mcpwm_foc_get_phase
 5472              	.LVL451:
ARM GAS  C:\Users\CHRIST~1\AppData\Local\Temp\ccb3oWGE.s 			page 97


 5473 05d6 9FED437A 		vldr.32	s14, .L691+8
 5474 05da DFED437A 		vldr.32	s15, .L691+12
 5475 05de 2B68     		ldr	r3, [r5]
 5476 05e0 80EE070A 		vdiv.f32	s0, s0, s14
 5477 05e4 3B44     		add	r3, r3, r7
 5478              		.loc 1 1242 0
 5479 05e6 44F34F04 		sbfx	r4, r4, #1, #16
 5480              	.LVL452:
 5481              		.loc 1 1243 0
 5482 05ea 20EE270A 		vmul.f32	s0, s0, s15
 5483 05ee FCEEC07A 		vcvt.u32.f32	s15, s0
 5484 05f2 CDED017A 		vstr.32	s15, [sp, #4]	@ int
 5485 05f6 9DF90420 		ldrsb	r2, [sp, #4]
 5486 05fa 83F8082E 		strb	r2, [r3, #3592]
 5487 05fe 65E6     		b	.L637
 5488              	.L682:
 5489              		.loc 1 1253 0
 5490 0600 FFF7FEFF 		bl	mcpwm_get_comm_step
 5491              	.LVL453:
 5492 0604 394B     		ldr	r3, .L691+16
 5493 0606 3A4E     		ldr	r6, .L691+20
 5494 0608 0138     		subs	r0, r0, #1
 5495 060a 03EB8003 		add	r3, r3, r0, lsl #2
 5496 060e D3ED007A 		vldr.32	s15, [r3]
 5497 0612 2A68     		ldr	r2, [r5]
 5498 0614 FDEEE77A 		vcvt.s32.f32	s15, s15
 5499 0618 17EE903A 		vmov	r3, s15	@ int
 5500 061c 1BB2     		sxth	r3, r3
 5501 061e 26F81230 		strh	r3, [r6, r2, lsl #1]	@ movhi
 5502              		.loc 1 1254 0
 5503 0622 FFF7FEFF 		bl	mcpwm_get_comm_step
 5504              	.LVL454:
 5505 0626 334B     		ldr	r3, .L691+24
 5506              		.loc 1 1256 0
 5507 0628 3349     		ldr	r1, .L691+28
 5508 062a 344A     		ldr	r2, .L691+32
 5509              		.loc 1 1254 0
 5510 062c 0138     		subs	r0, r0, #1
 5511 062e 03EB8003 		add	r3, r3, r0, lsl #2
 5512 0632 D3ED007A 		vldr.32	s15, [r3]
 5513 0636 2B68     		ldr	r3, [r5]
 5514              		.loc 1 1257 0
 5515 0638 3148     		ldr	r0, .L691+36
 5516              		.loc 1 1254 0
 5517 063a FDEEE77A 		vcvt.s32.f32	s15, s15
 5518 063e 06EB4306 		add	r6, r6, r3, lsl #1
 5519 0642 17EE903A 		vmov	r3, s15	@ int
 5520 0646 1BB2     		sxth	r3, r3
 5521 0648 A6F8A03F 		strh	r3, [r6, #4000]	@ movhi
 5522              		.loc 1 1256 0
 5523 064c D1ED007A 		vldr.32	s15, [r1]
 5524 0650 2B68     		ldr	r3, [r5]
 5525 0652 FDEEE77A 		vcvt.s32.f32	s15, s15
 5526 0656 02EB4302 		add	r2, r2, r3, lsl #1
 5527 065a 17EE903A 		vmov	r3, s15	@ int
 5528 065e 1BB2     		sxth	r3, r3
 5529 0660 A2F8483E 		strh	r3, [r2, #3656]	@ movhi
ARM GAS  C:\Users\CHRIST~1\AppData\Local\Temp\ccb3oWGE.s 			page 98


 5530              		.loc 1 1257 0
 5531 0664 D1ED017A 		vldr.32	s15, [r1, #4]
 5532 0668 2B68     		ldr	r3, [r5]
 5533              		.loc 1 1258 0
 5534 066a 264A     		ldr	r2, .L691+40
 5535              		.loc 1 1257 0
 5536 066c FDEEE77A 		vcvt.s32.f32	s15, s15
 5537 0670 00EB4300 		add	r0, r0, r3, lsl #1
 5538 0674 17EE903A 		vmov	r3, s15	@ int
 5539 0678 1BB2     		sxth	r3, r3
 5540 067a A0F8F03C 		strh	r3, [r0, #3312]	@ movhi
 5541              		.loc 1 1258 0
 5542 067e D1ED027A 		vldr.32	s15, [r1, #8]
 5543 0682 2B68     		ldr	r3, [r5]
 5544 0684 FDEEE77A 		vcvt.s32.f32	s15, s15
 5545 0688 02EB4302 		add	r2, r2, r3, lsl #1
 5546 068c 17EE903A 		vmov	r3, s15	@ int
 5547 0690 1BB2     		sxth	r3, r3
 5548 0692 A2F8983B 		strh	r3, [r2, #2968]	@ movhi
 5549 0696 4AE6     		b	.L639
 5550              	.LVL455:
 5551              	.L684:
 5552              	.LBE197:
 5553              	.LBE254:
 5554              		.loc 1 1156 0
 5555 0698 1B4B     		ldr	r3, .L691+44
 5556 069a 2A68     		ldr	r2, [r5]
 5557 069c 1B68     		ldr	r3, [r3]
 5558 069e 9A42     		cmp	r2, r3
 5559 06a0 7FF47DAE 		bne	.L589
 5560              		.loc 1 1136 0
 5561 06a4 4FF00009 		mov	r9, #0
 5562 06a8 CBE6     		b	.L640
 5563              	.LVL456:
 5564              	.L685:
 5565              	.LBB255:
 5566              	.LBB207:
 5567              	.LBB208:
 5568              	.LBB209:
 5569              	.LBB210:
 5570              	.LBB211:
 5571              		.loc 3 546 0
 5572 06aa 2023     		movs	r3, #32
 5573              		.syntax unified
 5574              	@ 546 "ChibiOS_3.0.2/os/ext/CMSIS/include/core_cmFunc.h" 1
 5575 06ac 83F31188 		MSR basepri, r3
 5576              	@ 0 "" 2
 5577              	.LVL457:
 5578              		.thumb
 5579              		.syntax unified
 5580              	.LBE211:
 5581              	.LBE210:
 5582              	.LBE209:
 5583              	.LBE208:
 5584              	.LBE207:
 5585              		.loc 1 1183 0
 5586 06b0 164B     		ldr	r3, .L691+48
ARM GAS  C:\Users\CHRIST~1\AppData\Local\Temp\ccb3oWGE.s 			page 99


 5587 06b2 0121     		movs	r1, #1
 5588 06b4 1868     		ldr	r0, [r3]
 5589 06b6 FFF7FEFF 		bl	chEvtSignalI
 5590              	.LVL458:
 5591              	.LBB212:
 5592              	.LBB213:
 5593              	.LBB214:
 5594              	.LBB215:
 5595              	.LBB216:
 5596              		.loc 3 546 0
 5597 06ba 0023     		movs	r3, #0
 5598              		.syntax unified
 5599              	@ 546 "ChibiOS_3.0.2/os/ext/CMSIS/include/core_cmFunc.h" 1
 5600 06bc 83F31188 		MSR basepri, r3
 5601              	@ 0 "" 2
 5602              	.LVL459:
 5603              		.thumb
 5604              		.syntax unified
 5605 06c0 26E7     		b	.L630
 5606              	.LVL460:
 5607              	.L686:
 5608              	.LBE216:
 5609              	.LBE215:
 5610              	.LBE214:
 5611              	.LBE213:
 5612              	.LBE212:
 5613              	.LBE255:
 5614              	.LBB256:
 5615              	.LBB181:
 5616              	.LBB182:
 5617              	.LBB183:
 5618              	.LBB184:
 5619              	.LBB185:
 5620 06c2 2023     		movs	r3, #32
 5621              		.syntax unified
 5622              	@ 546 "ChibiOS_3.0.2/os/ext/CMSIS/include/core_cmFunc.h" 1
 5623 06c4 83F31188 		MSR basepri, r3
 5624              	@ 0 "" 2
 5625              	.LVL461:
 5626              		.thumb
 5627              		.syntax unified
 5628              	.LBE185:
 5629              	.LBE184:
 5630              	.LBE183:
 5631              	.LBE182:
 5632              	.LBE181:
 5633              		.loc 1 1213 0
 5634 06c8 104B     		ldr	r3, .L691+48
 5635 06ca 0121     		movs	r1, #1
 5636 06cc 1868     		ldr	r0, [r3]
 5637 06ce FFF7FEFF 		bl	chEvtSignalI
 5638              	.LVL462:
 5639              	.LBB186:
 5640              	.LBB187:
 5641              	.LBB188:
 5642              	.LBB189:
 5643              	.LBB190:
ARM GAS  C:\Users\CHRIST~1\AppData\Local\Temp\ccb3oWGE.s 			page 100


 5644              		.loc 3 546 0
 5645 06d2 0023     		movs	r3, #0
 5646              		.syntax unified
 5647              	@ 546 "ChibiOS_3.0.2/os/ext/CMSIS/include/core_cmFunc.h" 1
 5648 06d4 83F31188 		MSR basepri, r3
 5649              	@ 0 "" 2
 5650              	.LVL463:
 5651              		.thumb
 5652              		.syntax unified
 5653 06d8 32E7     		b	.L634
 5654              	.L692:
 5655 06da 00BF     		.align	2
 5656              	.L691:
 5657 06dc ABAAAAAA 		.word	-1431655765
 5658 06e0 C8760000 		.word	.LANCHOR11
 5659 06e4 0000B443 		.word	1135869952
 5660 06e8 00007A43 		.word	1132068864
 5661 06ec 00000000 		.word	mcpwm_detect_currents
 5662 06f0 00000000 		.word	.LANCHOR4
 5663 06f4 00000000 		.word	mcpwm_detect_currents_diff
 5664 06f8 00000000 		.word	mcpwm_detect_voltages
 5665 06fc F8100000 		.word	.LANCHOR5
 5666 0700 F0210000 		.word	.LANCHOR6
 5667 0704 E8320000 		.word	.LANCHOR7
 5668 0708 00000000 		.word	.LANCHOR2
 5669 070c 00000000 		.word	.LANCHOR0
 5670              	.LBE190:
 5671              	.LBE189:
 5672              	.LBE188:
 5673              	.LBE187:
 5674              	.LBE186:
 5675              	.LBE256:
 5676              		.cfi_endproc
 5677              	.LFE307:
 5678              		.size	mc_interface_mc_timer_isr, .-mc_interface_mc_timer_isr
 5679              		.section	.text.mc_interface_adc_inj_int_handler,"ax",%progbits
 5680              		.align	1
 5681              		.p2align 4,,15
 5682              		.global	mc_interface_adc_inj_int_handler
 5683              		.syntax unified
 5684              		.thumb
 5685              		.thumb_func
 5686              		.fpu fpv4-sp-d16
 5687              		.type	mc_interface_adc_inj_int_handler, %function
 5688              	mc_interface_adc_inj_int_handler:
 5689              	.LFB308:
 5690              		.loc 1 1280 0
 5691              		.cfi_startproc
 5692              		@ args = 0, pretend = 0, frame = 0
 5693              		@ frame_needed = 0, uses_anonymous_args = 0
 5694              		@ link register save eliminated.
 5695              		.loc 1 1281 0
 5696 0000 034B     		ldr	r3, .L697
 5697 0002 9B78     		ldrb	r3, [r3, #2]	@ zero_extendqisi2
 5698 0004 012B     		cmp	r3, #1
 5699 0006 00D9     		bls	.L696
 5700              		.loc 1 1293 0
ARM GAS  C:\Users\CHRIST~1\AppData\Local\Temp\ccb3oWGE.s 			page 101


 5701 0008 7047     		bx	lr
 5702              	.L696:
 5703              		.loc 1 1284 0
 5704 000a FFF7FEBF 		b	mcpwm_adc_inj_int_handler
 5705              	.LVL464:
 5706              	.L698:
 5707 000e 00BF     		.align	2
 5708              	.L697:
 5709 0010 00000000 		.word	.LANCHOR12
 5710              		.cfi_endproc
 5711              	.LFE308:
 5712              		.size	mc_interface_adc_inj_int_handler, .-mc_interface_adc_inj_int_handler
 5713              		.global	ADC_curr_norm_value
 5714              		.global	ADC_Value
 5715              		.section	.bss.ADC_Value,"aw",%nobits
 5716              		.align	2
 5717              		.set	.LANCHOR41,. + 0
 5718              		.type	ADC_Value, %object
 5719              		.size	ADC_Value, 24
 5720              	ADC_Value:
 5721 0000 00000000 		.space	24
 5721      00000000 
 5721      00000000 
 5721      00000000 
 5721      00000000 
 5722              		.section	.bss.ADC_curr_norm_value,"aw",%nobits
 5723              		.align	2
 5724              		.set	.LANCHOR46,. + 0
 5725              		.type	ADC_curr_norm_value, %object
 5726              		.size	ADC_curr_norm_value, 12
 5727              	ADC_curr_norm_value:
 5728 0000 00000000 		.space	12
 5728      00000000 
 5728      00000000 
 5729              		.section	.bss.a.12082,"aw",%nobits
 5730              		.align	2
 5731              		.set	.LANCHOR45,. + 0
 5732              		.type	a.12082, %object
 5733              		.size	a.12082, 4
 5734              	a.12082:
 5735 0000 00000000 		.space	4
 5736              		.section	.bss.curr_diff_samples.12070,"aw",%nobits
 5737              		.align	2
 5738              		.set	.LANCHOR44,. + 0
 5739              		.type	curr_diff_samples.12070, %object
 5740              		.size	curr_diff_samples.12070, 4
 5741              	curr_diff_samples.12070:
 5742 0000 00000000 		.space	4
 5743              		.section	.bss.curr_diff_sum.12069,"aw",%nobits
 5744              		.align	2
 5745              		.set	.LANCHOR43,. + 0
 5746              		.type	curr_diff_sum.12069, %object
 5747              		.size	curr_diff_sum.12069, 4
 5748              	curr_diff_sum.12069:
 5749 0000 00000000 		.space	4
 5750              		.section	.bss.m_amp_seconds,"aw",%nobits
 5751              		.align	2
ARM GAS  C:\Users\CHRIST~1\AppData\Local\Temp\ccb3oWGE.s 			page 102


 5752              		.set	.LANCHOR26,. + 0
 5753              		.type	m_amp_seconds, %object
 5754              		.size	m_amp_seconds, 4
 5755              	m_amp_seconds:
 5756 0000 00000000 		.space	4
 5757              		.section	.bss.m_amp_seconds_charged,"aw",%nobits
 5758              		.align	2
 5759              		.set	.LANCHOR27,. + 0
 5760              		.type	m_amp_seconds_charged, %object
 5761              		.size	m_amp_seconds_charged, 4
 5762              	m_amp_seconds_charged:
 5763 0000 00000000 		.space	4
 5764              		.section	.bss.m_conf,"aw",%nobits
 5765              		.align	2
 5766              		.set	.LANCHOR12,. + 0
 5767              		.type	m_conf, %object
 5768              		.size	m_conf, 372
 5769              	m_conf:
 5770 0000 00000000 		.space	372
 5770      00000000 
 5770      00000000 
 5770      00000000 
 5770      00000000 
 5771              		.section	.bss.m_cycles_running,"aw",%nobits
 5772              		.align	2
 5773              		.set	.LANCHOR15,. + 0
 5774              		.type	m_cycles_running, %object
 5775              		.size	m_cycles_running, 4
 5776              	m_cycles_running:
 5777 0000 00000000 		.space	4
 5778              		.section	.bss.m_fault_now,"aw",%nobits
 5779              		.set	.LANCHOR13,. + 0
 5780              		.type	m_fault_now, %object
 5781              		.size	m_fault_now, 1
 5782              	m_fault_now:
 5783 0000 00       		.space	1
 5784              		.section	.bss.m_ignore_iterations,"aw",%nobits
 5785              		.align	2
 5786              		.set	.LANCHOR14,. + 0
 5787              		.type	m_ignore_iterations, %object
 5788              		.size	m_ignore_iterations, 4
 5789              	m_ignore_iterations:
 5790 0000 00000000 		.space	4
 5791              		.section	.bss.m_input_current_iterations,"aw",%nobits
 5792              		.align	2
 5793              		.set	.LANCHOR21,. + 0
 5794              		.type	m_input_current_iterations, %object
 5795              		.size	m_input_current_iterations, 4
 5796              	m_input_current_iterations:
 5797 0000 00000000 		.space	4
 5798              		.section	.bss.m_input_current_sum,"aw",%nobits
 5799              		.align	2
 5800              		.set	.LANCHOR19,. + 0
 5801              		.type	m_input_current_sum, %object
 5802              		.size	m_input_current_sum, 4
 5803              	m_input_current_sum:
 5804 0000 00000000 		.space	4
ARM GAS  C:\Users\CHRIST~1\AppData\Local\Temp\ccb3oWGE.s 			page 103


 5805              		.section	.bss.m_last_adc_duration_sample,"aw",%nobits
 5806              		.align	2
 5807              		.set	.LANCHOR31,. + 0
 5808              		.type	m_last_adc_duration_sample, %object
 5809              		.size	m_last_adc_duration_sample, 4
 5810              	m_last_adc_duration_sample:
 5811 0000 00000000 		.space	4
 5812              		.section	.bss.m_lock_enabled,"aw",%nobits
 5813              		.set	.LANCHOR16,. + 0
 5814              		.type	m_lock_enabled, %object
 5815              		.size	m_lock_enabled, 1
 5816              	m_lock_enabled:
 5817 0000 00       		.space	1
 5818              		.section	.bss.m_lock_override_once,"aw",%nobits
 5819              		.set	.LANCHOR17,. + 0
 5820              		.type	m_lock_override_once, %object
 5821              		.size	m_lock_override_once, 1
 5822              	m_lock_override_once:
 5823 0000 00       		.space	1
 5824              		.section	.bss.m_motor_current_iterations,"aw",%nobits
 5825              		.align	2
 5826              		.set	.LANCHOR20,. + 0
 5827              		.type	m_motor_current_iterations, %object
 5828              		.size	m_motor_current_iterations, 4
 5829              	m_motor_current_iterations:
 5830 0000 00000000 		.space	4
 5831              		.section	.bss.m_motor_current_sum,"aw",%nobits
 5832              		.align	2
 5833              		.set	.LANCHOR18,. + 0
 5834              		.type	m_motor_current_sum, %object
 5835              		.size	m_motor_current_sum, 4
 5836              	m_motor_current_sum:
 5837 0000 00000000 		.space	4
 5838              		.section	.bss.m_motor_id_iterations,"aw",%nobits
 5839              		.align	2
 5840              		.set	.LANCHOR24,. + 0
 5841              		.type	m_motor_id_iterations, %object
 5842              		.size	m_motor_id_iterations, 4
 5843              	m_motor_id_iterations:
 5844 0000 00000000 		.space	4
 5845              		.section	.bss.m_motor_id_sum,"aw",%nobits
 5846              		.align	2
 5847              		.set	.LANCHOR22,. + 0
 5848              		.type	m_motor_id_sum, %object
 5849              		.size	m_motor_id_sum, 4
 5850              	m_motor_id_sum:
 5851 0000 00000000 		.space	4
 5852              		.section	.bss.m_motor_iq_iterations,"aw",%nobits
 5853              		.align	2
 5854              		.set	.LANCHOR25,. + 0
 5855              		.type	m_motor_iq_iterations, %object
 5856              		.size	m_motor_iq_iterations, 4
 5857              	m_motor_iq_iterations:
 5858 0000 00000000 		.space	4
 5859              		.section	.bss.m_motor_iq_sum,"aw",%nobits
 5860              		.align	2
 5861              		.set	.LANCHOR23,. + 0
ARM GAS  C:\Users\CHRIST~1\AppData\Local\Temp\ccb3oWGE.s 			page 104


 5862              		.type	m_motor_iq_sum, %object
 5863              		.size	m_motor_iq_sum, 4
 5864              	m_motor_iq_sum:
 5865 0000 00000000 		.space	4
 5866              		.section	.bss.m_position_set,"aw",%nobits
 5867              		.align	2
 5868              		.set	.LANCHOR30,. + 0
 5869              		.type	m_position_set, %object
 5870              		.size	m_position_set, 4
 5871              	m_position_set:
 5872 0000 00000000 		.space	4
 5873              		.section	.bss.m_sample_int,"aw",%nobits
 5874              		.align	2
 5875              		.set	.LANCHOR34,. + 0
 5876              		.type	m_sample_int, %object
 5877              		.size	m_sample_int, 4
 5878              	m_sample_int:
 5879 0000 00000000 		.space	4
 5880              		.section	.bss.m_sample_len,"aw",%nobits
 5881              		.align	2
 5882              		.set	.LANCHOR2,. + 0
 5883              		.type	m_sample_len, %object
 5884              		.size	m_sample_len, 4
 5885              	m_sample_len:
 5886 0000 00000000 		.space	4
 5887              		.section	.bss.m_sample_mode,"aw",%nobits
 5888              		.set	.LANCHOR36,. + 0
 5889              		.type	m_sample_mode, %object
 5890              		.size	m_sample_mode, 1
 5891              	m_sample_mode:
 5892 0000 00       		.space	1
 5893              		.section	.bss.m_sample_mode_last,"aw",%nobits
 5894              		.set	.LANCHOR1,. + 0
 5895              		.type	m_sample_mode_last, %object
 5896              		.size	m_sample_mode_last, 1
 5897              	m_sample_mode_last:
 5898 0000 00       		.space	1
 5899              		.section	.bss.m_sample_now,"aw",%nobits
 5900              		.align	2
 5901              		.set	.LANCHOR35,. + 0
 5902              		.type	m_sample_now, %object
 5903              		.size	m_sample_now, 4
 5904              	m_sample_now:
 5905 0000 00000000 		.space	4
 5906              		.section	.bss.m_sample_trigger,"aw",%nobits
 5907              		.align	2
 5908              		.set	.LANCHOR3,. + 0
 5909              		.type	m_sample_trigger, %object
 5910              		.size	m_sample_trigger, 4
 5911              	m_sample_trigger:
 5912 0000 00000000 		.space	4
 5913              		.section	.bss.m_temp_fet,"aw",%nobits
 5914              		.align	2
 5915              		.set	.LANCHOR32,. + 0
 5916              		.type	m_temp_fet, %object
 5917              		.size	m_temp_fet, 4
 5918              	m_temp_fet:
ARM GAS  C:\Users\CHRIST~1\AppData\Local\Temp\ccb3oWGE.s 			page 105


 5919 0000 00000000 		.space	4
 5920              		.section	.bss.m_temp_motor,"aw",%nobits
 5921              		.align	2
 5922              		.set	.LANCHOR33,. + 0
 5923              		.type	m_temp_motor, %object
 5924              		.size	m_temp_motor, 4
 5925              	m_temp_motor:
 5926 0000 00000000 		.space	4
 5927              		.section	.bss.m_watt_seconds,"aw",%nobits
 5928              		.align	2
 5929              		.set	.LANCHOR28,. + 0
 5930              		.type	m_watt_seconds, %object
 5931              		.size	m_watt_seconds, 4
 5932              	m_watt_seconds:
 5933 0000 00000000 		.space	4
 5934              		.section	.bss.m_watt_seconds_charged,"aw",%nobits
 5935              		.align	2
 5936              		.set	.LANCHOR29,. + 0
 5937              		.type	m_watt_seconds_charged, %object
 5938              		.size	m_watt_seconds_charged, 4
 5939              	m_watt_seconds_charged:
 5940 0000 00000000 		.space	4
 5941              		.section	.bss.pwn_done_func,"aw",%nobits
 5942              		.align	2
 5943              		.set	.LANCHOR39,. + 0
 5944              		.type	pwn_done_func, %object
 5945              		.size	pwn_done_func, 4
 5946              	pwn_done_func:
 5947 0000 00000000 		.space	4
 5948              		.section	.bss.sample_send_thread_wa,"aw",%nobits
 5949              		.align	3
 5950              		.set	.LANCHOR38,. + 0
 5951              		.type	sample_send_thread_wa, %object
 5952              		.size	sample_send_thread_wa, 1432
 5953              	sample_send_thread_wa:
 5954 0000 00000000 		.space	1432
 5954      00000000 
 5954      00000000 
 5954      00000000 
 5954      00000000 
 5955              		.section	.bss.sample_send_tp,"aw",%nobits
 5956              		.align	2
 5957              		.set	.LANCHOR0,. + 0
 5958              		.type	sample_send_tp, %object
 5959              		.size	sample_send_tp, 4
 5960              	sample_send_tp:
 5961 0000 00000000 		.space	4
 5962              		.section	.bss.timer_thread_wa,"aw",%nobits
 5963              		.align	3
 5964              		.set	.LANCHOR37,. + 0
 5965              		.type	timer_thread_wa, %object
 5966              		.size	timer_thread_wa, 1432
 5967              	timer_thread_wa:
 5968 0000 00000000 		.space	1432
 5968      00000000 
 5968      00000000 
 5968      00000000 
ARM GAS  C:\Users\CHRIST~1\AppData\Local\Temp\ccb3oWGE.s 			page 106


 5968      00000000 
 5969              		.section	.bss.wrong_voltage_iterations.12063,"aw",%nobits
 5970              		.align	2
 5971              		.set	.LANCHOR42,. + 0
 5972              		.type	wrong_voltage_iterations.12063, %object
 5973              		.size	wrong_voltage_iterations.12063, 4
 5974              	wrong_voltage_iterations.12063:
 5975 0000 00000000 		.space	4
 5976              		.section	.ram4,"aw",%progbits
 5977              		.align	2
 5978              		.set	.LANCHOR4,. + 0
 5979              		.set	.LANCHOR5,. + 4344
 5980              		.set	.LANCHOR6,. + 8688
 5981              		.set	.LANCHOR7,. + 13032
 5982              		.set	.LANCHOR8,. + 17376
 5983              		.set	.LANCHOR9,. + 21720
 5984              		.set	.LANCHOR10,. + 26064
 5985              		.set	.LANCHOR11,. + 30408
 5986              		.type	m_curr0_samples, %object
 5987              		.size	m_curr0_samples, 4000
 5988              	m_curr0_samples:
 5989 0000 00000000 		.space	4000
 5989      00000000 
 5989      00000000 
 5989      00000000 
 5989      00000000 
 5990              		.type	m_curr1_samples, %object
 5991              		.size	m_curr1_samples, 4000
 5992              	m_curr1_samples:
 5993 0fa0 00000000 		.space	4000
 5993      00000000 
 5993      00000000 
 5993      00000000 
 5993      00000000 
 5994              		.type	m_ph1_samples, %object
 5995              		.size	m_ph1_samples, 4000
 5996              	m_ph1_samples:
 5997 1f40 00000000 		.space	4000
 5997      00000000 
 5997      00000000 
 5997      00000000 
 5997      00000000 
 5998              		.type	m_ph2_samples, %object
 5999              		.size	m_ph2_samples, 4000
 6000              	m_ph2_samples:
 6001 2ee0 00000000 		.space	4000
 6001      00000000 
 6001      00000000 
 6001      00000000 
 6001      00000000 
 6002              		.type	m_ph3_samples, %object
 6003              		.size	m_ph3_samples, 4000
 6004              	m_ph3_samples:
 6005 3e80 00000000 		.space	4000
 6005      00000000 
 6005      00000000 
 6005      00000000 
ARM GAS  C:\Users\CHRIST~1\AppData\Local\Temp\ccb3oWGE.s 			page 107


 6005      00000000 
 6006              		.type	m_vzero_samples, %object
 6007              		.size	m_vzero_samples, 4000
 6008              	m_vzero_samples:
 6009 4e20 00000000 		.space	4000
 6009      00000000 
 6009      00000000 
 6009      00000000 
 6009      00000000 
 6010              		.type	m_curr_fir_samples, %object
 6011              		.size	m_curr_fir_samples, 4000
 6012              	m_curr_fir_samples:
 6013 5dc0 00000000 		.space	4000
 6013      00000000 
 6013      00000000 
 6013      00000000 
 6013      00000000 
 6014              		.type	m_f_sw_samples, %object
 6015              		.size	m_f_sw_samples, 4000
 6016              	m_f_sw_samples:
 6017 6d60 00000000 		.space	4000
 6017      00000000 
 6017      00000000 
 6017      00000000 
 6017      00000000 
 6018              		.type	m_status_samples, %object
 6019              		.size	m_status_samples, 2000
 6020              	m_status_samples:
 6021 7d00 00000000 		.space	2000
 6021      00000000 
 6021      00000000 
 6021      00000000 
 6021      00000000 
 6022              		.type	m_phase_samples, %object
 6023              		.size	m_phase_samples, 2000
 6024              	m_phase_samples:
 6025 84d0 00000000 		.space	2000
 6025      00000000 
 6025      00000000 
 6025      00000000 
 6025      00000000 
 6026              		.section	.rodata.CSWTCH.177,"a",%progbits
 6027              		.align	2
 6028              		.set	.LANCHOR40,. + 0
 6029              		.type	CSWTCH.177, %object
 6030              		.size	CSWTCH.177, 28
 6031              	CSWTCH.177:
 6032 0000 00000000 		.word	.LC3
 6033 0004 10000000 		.word	.LC4
 6034 0008 28000000 		.word	.LC5
 6035 000c 44000000 		.word	.LC6
 6036 0010 54000000 		.word	.LC7
 6037 0014 70000000 		.word	.LC8
 6038 0018 8C000000 		.word	.LC9
 6039              		.section	.rodata.mc_interface_fault_to_string.str1.4,"aMS",%progbits,1
 6040              		.align	2
 6041              	.LC1:
ARM GAS  C:\Users\CHRIST~1\AppData\Local\Temp\ccb3oWGE.s 			page 108


 6042 0000 4641554C 		.ascii	"FAULT_UNKNOWN\000"
 6042      545F554E 
 6042      4B4E4F57 
 6042      4E00
 6043              		.section	.rodata.sample_send_thread.str1.4,"aMS",%progbits,1
 6044              		.align	2
 6045              	.LC0:
 6046 0000 53616D70 		.ascii	"SampleSender\000"
 6046      6C655365 
 6046      6E646572 
 6046      00
 6047              		.section	.rodata.str1.4,"aMS",%progbits,1
 6048              		.align	2
 6049              	.LC3:
 6050 0000 4641554C 		.ascii	"FAULT_CODE_NONE\000"
 6050      545F434F 
 6050      44455F4E 
 6050      4F4E4500 
 6051              	.LC4:
 6052 0010 4641554C 		.ascii	"FAULT_CODE_OVER_VOLTAGE\000"
 6052      545F434F 
 6052      44455F4F 
 6052      5645525F 
 6052      564F4C54 
 6053              	.LC5:
 6054 0028 4641554C 		.ascii	"FAULT_CODE_UNDER_VOLTAGE\000"
 6054      545F434F 
 6054      44455F55 
 6054      4E444552 
 6054      5F564F4C 
 6055 0041 000000   		.space	3
 6056              	.LC6:
 6057 0044 4641554C 		.ascii	"FAULT_CODE_DRV\000"
 6057      545F434F 
 6057      44455F44 
 6057      525600
 6058 0053 00       		.space	1
 6059              	.LC7:
 6060 0054 4641554C 		.ascii	"FAULT_CODE_ABS_OVER_CURRENT\000"
 6060      545F434F 
 6060      44455F41 
 6060      42535F4F 
 6060      5645525F 
 6061              	.LC8:
 6062 0070 4641554C 		.ascii	"FAULT_CODE_OVER_TEMP_FET\000"
 6062      545F434F 
 6062      44455F4F 
 6062      5645525F 
 6062      54454D50 
 6063 0089 000000   		.space	3
 6064              	.LC9:
 6065 008c 4641554C 		.ascii	"FAULT_CODE_OVER_TEMP_MOTOR\000"
 6065      545F434F 
 6065      44455F4F 
 6065      5645525F 
 6065      54454D50 
 6066              		.section	.rodata.timer_thread.str1.4,"aMS",%progbits,1
ARM GAS  C:\Users\CHRIST~1\AppData\Local\Temp\ccb3oWGE.s 			page 109


 6067              		.align	2
 6068              	.LC2:
 6069 0000 6D636966 		.ascii	"mcif timer\000"
 6069      2074696D 
 6069      657200
 6070              		.text
 6071              	.Letext0:
 6072              		.file 4 "c:\\program files (x86)\\gnu tools arm embedded\\7 2017-q4-major\\arm-none-eabi\\include\
 6073              		.file 5 "c:\\program files (x86)\\gnu tools arm embedded\\7 2017-q4-major\\arm-none-eabi\\include\
 6074              		.file 6 "c:\\program files (x86)\\gnu tools arm embedded\\7 2017-q4-major\\lib\\gcc\\arm-none-eabi
 6075              		.file 7 "ChibiOS_3.0.2/os/rt/ports/ARMCMx/compilers/GCC/chtypes.h"
 6076              		.file 8 "ChibiOS_3.0.2/os/rt/include/chsystypes.h"
 6077              		.file 9 "ChibiOS_3.0.2/os/rt/include/chschd.h"
 6078              		.file 10 "ChibiOS_3.0.2/os/ext/CMSIS/include/core_cm4.h"
 6079              		.file 11 "ChibiOS_3.0.2/os/ext/CMSIS/ST/system_stm32f4xx.h"
 6080              		.file 12 "ChibiOS_3.0.2/os/ext/CMSIS/ST/stm32f407xx.h"
 6081              		.file 13 "ChibiOS_3.0.2/os/rt/ports/ARMCMx/chcore.h"
 6082              		.file 14 "ChibiOS_3.0.2/os/rt/ports/ARMCMx/chcore_v7m.h"
 6083              		.file 15 "ChibiOS_3.0.2/os/rt/include/chtm.h"
 6084              		.file 16 "ChibiOS_3.0.2/os/rt/include/chsem.h"
 6085              		.file 17 "ChibiOS_3.0.2/os/rt/include/chmtx.h"
 6086              		.file 18 "ChibiOS_3.0.2/os/rt/include/chevents.h"
 6087              		.file 19 "ChibiOS_3.0.2/os/rt/include/chqueues.h"
 6088              		.file 20 "datatypes.h"
 6089              		.file 21 "conf_general.h"
 6090              		.file 22 "mc_interface.h"
 6091              		.file 23 "mcpwm.h"
 6092              		.file 24 "ChibiOS_3.0.2/os/hal/ports/STM32/STM32F4xx/stm32_dma.h"
 6093              		.file 25 "ChibiOS_3.0.2/os/hal/ports/STM32/LLD/GPIOv2/pal_lld.h"
 6094              		.file 26 "ChibiOS_3.0.2/os/hal/include/can.h"
 6095              		.file 27 "ChibiOS_3.0.2/os/hal/ports/STM32/LLD/can_lld.h"
 6096              		.file 28 "ChibiOS_3.0.2/os/hal/include/i2c.h"
 6097              		.file 29 "ChibiOS_3.0.2/os/hal/ports/STM32/LLD/I2Cv1/i2c_lld.h"
 6098              		.file 30 "ChibiOS_3.0.2/os/hal/include/icu.h"
 6099              		.file 31 "ChibiOS_3.0.2/os/hal/ports/STM32/LLD/TIMv1/icu_lld.h"
 6100              		.file 32 "ChibiOS_3.0.2/os/hal/ports/STM32/LLD/TIMv1/stm32_tim.h"
 6101              		.file 33 "ChibiOS_3.0.2/os/hal/include/spi.h"
 6102              		.file 34 "ChibiOS_3.0.2/os/hal/ports/STM32/LLD/SPIv1/spi_lld.h"
 6103              		.file 35 "ChibiOS_3.0.2/os/hal/include/uart.h"
 6104              		.file 36 "ChibiOS_3.0.2/os/hal/ports/STM32/LLD/USARTv1/uart_lld.h"
 6105              		.file 37 "ChibiOS_3.0.2/os/hal/include/usb.h"
 6106              		.file 38 "ChibiOS_3.0.2/os/hal/ports/STM32/LLD/OTGv1/usb_lld.h"
 6107              		.file 39 "ChibiOS_3.0.2/os/hal/ports/STM32/LLD/OTGv1/stm32_otg.h"
 6108              		.file 40 "c:\\program files (x86)\\gnu tools arm embedded\\7 2017-q4-major\\arm-none-eabi\\include
 6109              		.file 41 "c:\\program files (x86)\\gnu tools arm embedded\\7 2017-q4-major\\arm-none-eabi\\include
 6110              		.file 42 "c:\\program files (x86)\\gnu tools arm embedded\\7 2017-q4-major\\arm-none-eabi\\include
 6111              		.file 43 "c:\\program files (x86)\\gnu tools arm embedded\\7 2017-q4-major\\arm-none-eabi\\include
 6112              		.file 44 "ChibiOS_3.0.2/os/rt/include/chsys.h"
 6113              		.file 45 "buffer.h"
 6114              		.file 46 "commands.h"
 6115              		.file 47 "ChibiOS_3.0.2/os/rt/include/chthreads.h"
 6116              		.file 48 "mcpwm_foc.h"
 6117              		.file 49 "ledpwm.h"
 6118              		.file 50 "encoder.h"
 6119              		.file 51 "utils.h"
 6120              		.file 52 "terminal.h"
 6121              		.file 53 "<built-in>"
ARM GAS  C:\Users\CHRIST~1\AppData\Local\Temp\ccb3oWGE.s 			page 110

