ARM GAS  C:\Users\CHRIST~1\AppData\Local\Temp\ccBtEVpO.s 			page 1


   1              		.cpu cortex-m4
   2              		.eabi_attribute 27, 1
   3              		.eabi_attribute 28, 1
   4              		.eabi_attribute 20, 1
   5              		.eabi_attribute 21, 1
   6              		.eabi_attribute 23, 3
   7              		.eabi_attribute 24, 1
   8              		.eabi_attribute 25, 1
   9              		.eabi_attribute 26, 1
  10              		.eabi_attribute 30, 2
  11              		.eabi_attribute 34, 1
  12              		.eabi_attribute 18, 4
  13              		.file	"mcpwm.c"
  14              		.text
  15              	.Ltext0:
  16              		.cfi_sections	.debug_frame
  17              		.section	.text.update_adc_sample_pos,"ax",%progbits
  18              		.align	1
  19              		.p2align 4,,15
  20              		.syntax unified
  21              		.thumb
  22              		.thumb_func
  23              		.fpu fpv4-sp-d16
  24              		.type	update_adc_sample_pos, %function
  25              	update_adc_sample_pos:
  26              	.LFB315:
  27              		.file 1 "mcpwm.c"
  28              		.loc 1 2272 0
  29              		.cfi_startproc
  30              		@ args = 0, pretend = 0, frame = 24
  31              		@ frame_needed = 0, uses_anonymous_args = 0
  32              		@ link register save eliminated.
  33              	.LVL0:
  34 0000 F0B4     		push	{r4, r5, r6, r7}
  35              		.cfi_def_cfa_offset 16
  36              		.cfi_offset 4, -16
  37              		.cfi_offset 5, -12
  38              		.cfi_offset 6, -8
  39              		.cfi_offset 7, -4
  40 0002 86B0     		sub	sp, sp, #24
  41              		.cfi_def_cfa_offset 40
  42              		.loc 1 2273 0
  43 0004 8268     		ldr	r2, [r0, #8]
  44 0006 0192     		str	r2, [sp, #4]
  45              		.loc 1 2274 0
  46 0008 4268     		ldr	r2, [r0, #4]
  47 000a 0292     		str	r2, [sp, #8]
  48              		.loc 1 2275 0
  49 000c C268     		ldr	r2, [r0, #12]
  50 000e 0392     		str	r2, [sp, #12]
  51              		.loc 1 2276 0
  52 0010 0269     		ldr	r2, [r0, #16]
  53 0012 0492     		str	r2, [sp, #16]
  54              		.loc 1 2277 0
  55 0014 4269     		ldr	r2, [r0, #20]
  56              		.loc 1 2283 0
  57 0016 654B     		ldr	r3, .L46
ARM GAS  C:\Users\CHRIST~1\AppData\Local\Temp\ccBtEVpO.s 			page 2


  58              		.loc 1 2277 0
  59 0018 0592     		str	r2, [sp, #20]
  60              		.loc 1 2283 0
  61 001a DDED027A 		vldr.32	s15, [sp, #8]	@ int
  62 001e 1A68     		ldr	r2, [r3]
  63 0020 F8EE677A 		vcvt.f32.u32	s15, s15
  64 0024 92ED167A 		vldr.32	s14, [r2, #88]
  65 0028 019B     		ldr	r3, [sp, #4]
  66 002a 67EE877A 		vmul.f32	s15, s15, s14
  67 002e FCEEE77A 		vcvt.u32.f32	s15, s15
  68 0032 17EE901A 		vmov	r1, s15	@ int
  69 0036 9942     		cmp	r1, r3
  70 0038 0BD2     		bcs	.L2
  71              		.loc 1 2284 0
  72 003a DDED027A 		vldr.32	s15, [sp, #8]	@ int
  73 003e 92ED167A 		vldr.32	s14, [r2, #88]
  74 0042 F8EE677A 		vcvt.f32.u32	s15, s15
  75 0046 67EE877A 		vmul.f32	s15, s15, s14
  76 004a FCEEE77A 		vcvt.u32.f32	s15, s15
  77 004e CDED017A 		vstr.32	s15, [sp, #4]	@ int
  78              	.L2:
  79              		.loc 1 2287 0
  80 0052 5749     		ldr	r1, .L46+4
  81 0054 0023     		movs	r3, #0
  82 0056 0B60     		str	r3, [r1]
  83              		.loc 1 2289 0
  84 0058 9378     		ldrb	r3, [r2, #2]	@ zero_extendqisi2
  85 005a DBB2     		uxtb	r3, r3
  86 005c 012B     		cmp	r3, #1
  87 005e 45D0     		beq	.L43
  88              		.loc 1 2310 0
  89 0060 544B     		ldr	r3, .L46+8
  90 0062 1B78     		ldrb	r3, [r3]	@ zero_extendqisi2
  91 0064 012B     		cmp	r3, #1
  92 0066 27D0     		beq	.L44
  93              		.loc 1 2321 0
  94 0068 1378     		ldrb	r3, [r2]	@ zero_extendqisi2
  95 006a 022B     		cmp	r3, #2
  96 006c 55D0     		beq	.L45
  97              		.loc 1 2406 0
  98 006e 019B     		ldr	r3, [sp, #4]
  99 0070 5B08     		lsrs	r3, r3, #1
 100 0072 0393     		str	r3, [sp, #12]
 101              		.loc 1 2409 0
 102 0074 029A     		ldr	r2, [sp, #8]
 103 0076 019C     		ldr	r4, [sp, #4]
 104 0078 019B     		ldr	r3, [sp, #4]
 105 007a 121B     		subs	r2, r2, r4
 106 007c 03EB5203 		add	r3, r3, r2, lsr #1
 107 0080 0493     		str	r3, [sp, #16]
 108              		.loc 1 2410 0
 109 0082 029B     		ldr	r3, [sp, #8]
 110 0084 049A     		ldr	r2, [sp, #16]
 111 0086 463B     		subs	r3, r3, #70
 112 0088 9342     		cmp	r3, r2
 113 008a 02D2     		bcs	.L22
 114              		.loc 1 2411 0
ARM GAS  C:\Users\CHRIST~1\AppData\Local\Temp\ccBtEVpO.s 			page 3


 115 008c 029B     		ldr	r3, [sp, #8]
 116 008e 463B     		subs	r3, r3, #70
 117 0090 0493     		str	r3, [sp, #16]
 118              	.L22:
 119              		.loc 1 2414 0
 120 0092 049B     		ldr	r3, [sp, #16]
 121 0094 0593     		str	r3, [sp, #20]
 122              		.loc 1 2421 0
 123 0096 029A     		ldr	r2, [sp, #8]
 124 0098 019B     		ldr	r3, [sp, #4]
 125 009a B3EB520F 		cmp	r3, r2, lsr #1
 126 009e 1CD9     		bls	.L5
 127              		.loc 1 2466 0
 128 00a0 454B     		ldr	r3, .L46+12
 129 00a2 1B68     		ldr	r3, [r3]
 130              		.loc 1 2477 0
 131 00a4 454B     		ldr	r3, .L46+16
 132 00a6 1B68     		ldr	r3, [r3]
 133 00a8 013B     		subs	r3, r3, #1
 134 00aa 052B     		cmp	r3, #5
 135 00ac 15D8     		bhi	.L5
 136 00ae DFE803F0 		tbb	[pc, r3]
 137              	.L32:
 138 00b2 31       		.byte	(.L37-.L32)/2
 139 00b3 4B       		.byte	(.L34-.L32)/2
 140 00b4 4B       		.byte	(.L34-.L32)/2
 141 00b5 31       		.byte	(.L37-.L32)/2
 142 00b6 31       		.byte	(.L37-.L32)/2
 143 00b7 31       		.byte	(.L37-.L32)/2
 144              		.p2align 1
 145              	.L44:
 146              		.loc 1 2312 0
 147 00b8 019B     		ldr	r3, [sp, #4]
 148 00ba 5B08     		lsrs	r3, r3, #1
 149 00bc 0393     		str	r3, [sp, #12]
 150              		.loc 1 2315 0
 151 00be 029A     		ldr	r2, [sp, #8]
 152 00c0 0199     		ldr	r1, [sp, #4]
 153 00c2 019B     		ldr	r3, [sp, #4]
 154 00c4 521A     		subs	r2, r2, r1
 155 00c6 03EB5203 		add	r3, r3, r2, lsr #1
 156 00ca 0493     		str	r3, [sp, #16]
 157              		.loc 1 2316 0
 158 00cc 029A     		ldr	r2, [sp, #8]
 159 00ce 0199     		ldr	r1, [sp, #4]
 160 00d0 019B     		ldr	r3, [sp, #4]
 161 00d2 521A     		subs	r2, r2, r1
 162 00d4 03EB5203 		add	r3, r3, r2, lsr #1
 163 00d8 0593     		str	r3, [sp, #20]
 164              	.L5:
 165              		.loc 1 2493 0
 166 00da 039B     		ldr	r3, [sp, #12]
 167 00dc C360     		str	r3, [r0, #12]
 168              		.loc 1 2494 0
 169 00de 049B     		ldr	r3, [sp, #16]
 170 00e0 0361     		str	r3, [r0, #16]
 171              		.loc 1 2495 0
ARM GAS  C:\Users\CHRIST~1\AppData\Local\Temp\ccBtEVpO.s 			page 4


 172 00e2 059B     		ldr	r3, [sp, #20]
 173 00e4 4361     		str	r3, [r0, #20]
 174              		.loc 1 2499 0
 175 00e6 06B0     		add	sp, sp, #24
 176              		.cfi_remember_state
 177              		.cfi_def_cfa_offset 16
 178              		@ sp needed
 179 00e8 F0BC     		pop	{r4, r5, r6, r7}
 180              		.cfi_restore 7
 181              		.cfi_restore 6
 182              		.cfi_restore 5
 183              		.cfi_restore 4
 184              		.cfi_def_cfa_offset 0
 185 00ea 7047     		bx	lr
 186              	.L43:
 187              		.cfi_restore_state
 188              		.loc 1 2290 0
 189 00ec 029A     		ldr	r2, [sp, #8]
 190 00ee 0A3A     		subs	r2, r2, #10
 191 00f0 0492     		str	r2, [sp, #16]
 192              		.loc 1 2291 0
 193 00f2 029A     		ldr	r2, [sp, #8]
 194 00f4 0A3A     		subs	r2, r2, #10
 195 00f6 0592     		str	r2, [sp, #20]
 196              		.loc 1 2296 0
 197 00f8 019A     		ldr	r2, [sp, #4]
 198 00fa B2F57A7F 		cmp	r2, #1000
 199 00fe 03D9     		bls	.L4
 200              		.loc 1 2297 0
 201 0100 019B     		ldr	r3, [sp, #4]
 202 0102 5B08     		lsrs	r3, r3, #1
 203 0104 0393     		str	r3, [sp, #12]
 204 0106 E8E7     		b	.L5
 205              	.L4:
 206              		.loc 1 2299 0
 207 0108 019A     		ldr	r2, [sp, #4]
 208 010a 02F54872 		add	r2, r2, #800
 209 010e 0392     		str	r2, [sp, #12]
 210              		.loc 1 2300 0
 211 0110 0B60     		str	r3, [r1]
 212 0112 E2E7     		b	.L5
 213              	.L37:
 214              		.loc 1 2483 0
 215 0114 0123     		movs	r3, #1
 216 0116 0B60     		str	r3, [r1]
 217 0118 DFE7     		b	.L5
 218              	.L45:
 219              	.LBB72:
 220              		.loc 1 2322 0
 221 011a 029D     		ldr	r5, [sp, #8]
 222              		.loc 1 2323 0
 223 011c 029A     		ldr	r2, [sp, #8]
 224 011e 019F     		ldr	r7, [sp, #4]
 225 0120 019C     		ldr	r4, [sp, #4]
 226              		.loc 1 2324 0
 227 0122 029E     		ldr	r6, [sp, #8]
 228              		.loc 1 2327 0
ARM GAS  C:\Users\CHRIST~1\AppData\Local\Temp\ccBtEVpO.s 			page 5


 229 0124 029B     		ldr	r3, [sp, #8]
 230 0126 9B08     		lsrs	r3, r3, #2
 231 0128 0393     		str	r3, [sp, #12]
 232              		.loc 1 2335 0
 233 012a 244B     		ldr	r3, .L46+16
 234 012c 1B68     		ldr	r3, [r3]
 235              		.loc 1 2323 0
 236 012e D21B     		subs	r2, r2, r7
 237              		.loc 1 2335 0
 238 0130 013B     		subs	r3, r3, #1
 239              		.loc 1 2322 0
 240 0132 023D     		subs	r5, r5, #2
 241              	.LVL1:
 242              		.loc 1 2323 0
 243 0134 04EB5202 		add	r2, r4, r2, lsr #1
 244              	.LVL2:
 245              		.loc 1 2324 0
 246 0138 023E     		subs	r6, r6, #2
 247              	.LVL3:
 248              		.loc 1 2335 0
 249 013a 052B     		cmp	r3, #5
 250 013c CDD8     		bhi	.L5
 251 013e DFE803F0 		tbb	[pc, r3]
 252              	.L10:
 253 0142 2C       		.byte	(.L9-.L10)/2
 254 0143 23       		.byte	(.L11-.L10)/2
 255 0144 1D       		.byte	(.L12-.L10)/2
 256 0145 17       		.byte	(.L13-.L10)/2
 257 0146 0E       		.byte	(.L14-.L10)/2
 258 0147 06       		.byte	(.L15-.L10)/2
 259              	.LVL4:
 260              		.p2align 1
 261              	.L34:
 262              	.LBE72:
 263              		.loc 1 2480 0
 264 0148 0223     		movs	r3, #2
 265 014a 0B60     		str	r3, [r1]
 266 014c C5E7     		b	.L5
 267              	.LVL5:
 268              	.L15:
 269              	.LBB73:
 270              		.loc 1 2393 0
 271 014e 1A4B     		ldr	r3, .L46+12
 272 0150 1B68     		ldr	r3, [r3]
 273 0152 43B1     		cbz	r3, .L21
 274              	.L41:
 275              		.loc 1 2396 0
 276 0154 0123     		movs	r3, #1
 277              		.loc 1 2394 0
 278 0156 0495     		str	r5, [sp, #16]
 279              		.loc 1 2395 0
 280 0158 0596     		str	r6, [sp, #20]
 281              		.loc 1 2396 0
 282 015a 0B60     		str	r3, [r1]
 283 015c BDE7     		b	.L5
 284              	.L14:
 285              		.loc 1 2381 0
ARM GAS  C:\Users\CHRIST~1\AppData\Local\Temp\ccBtEVpO.s 			page 6


 286 015e 164B     		ldr	r3, .L46+12
 287 0160 1B68     		ldr	r3, [r3]
 288 0162 002B     		cmp	r3, #0
 289 0164 F6D0     		beq	.L41
 290              	.L21:
 291              		.loc 1 2400 0
 292 0166 0123     		movs	r3, #1
 293              		.loc 1 2398 0
 294 0168 0495     		str	r5, [sp, #16]
 295              		.loc 1 2399 0
 296 016a 0592     		str	r2, [sp, #20]
 297              		.loc 1 2400 0
 298 016c 0B60     		str	r3, [r1]
 299 016e B4E7     		b	.L5
 300              	.L13:
 301              		.loc 1 2370 0
 302 0170 114B     		ldr	r3, .L46+12
 303 0172 1B68     		ldr	r3, [r3]
 304 0174 ABB1     		cbz	r3, .L19
 305              	.L39:
 306              		.loc 1 2371 0
 307 0176 0496     		str	r6, [sp, #16]
 308              		.loc 1 2372 0
 309 0178 0592     		str	r2, [sp, #20]
 310 017a AEE7     		b	.L5
 311              	.L12:
 312              		.loc 1 2359 0
 313 017c 0E4B     		ldr	r3, .L46+12
 314 017e 1B68     		ldr	r3, [r3]
 315 0180 33B1     		cbz	r3, .L18
 316              	.L40:
 317              		.loc 1 2360 0
 318 0182 0492     		str	r2, [sp, #16]
 319              		.loc 1 2361 0
 320 0184 0596     		str	r6, [sp, #20]
 321 0186 A8E7     		b	.L5
 322              	.L11:
 323              		.loc 1 2348 0
 324 0188 0B4B     		ldr	r3, .L46+12
 325 018a 1B68     		ldr	r3, [r3]
 326 018c 002B     		cmp	r3, #0
 327 018e F8D0     		beq	.L40
 328              	.L18:
 329              		.loc 1 2365 0
 330 0190 0223     		movs	r3, #2
 331              		.loc 1 2363 0
 332 0192 0492     		str	r2, [sp, #16]
 333              		.loc 1 2364 0
 334 0194 0595     		str	r5, [sp, #20]
 335              		.loc 1 2365 0
 336 0196 0B60     		str	r3, [r1]
 337 0198 9FE7     		b	.L5
 338              	.L9:
 339              		.loc 1 2337 0
 340 019a 074B     		ldr	r3, .L46+12
 341 019c 1B68     		ldr	r3, [r3]
 342 019e 002B     		cmp	r3, #0
ARM GAS  C:\Users\CHRIST~1\AppData\Local\Temp\ccBtEVpO.s 			page 7


 343 01a0 E9D0     		beq	.L39
 344              	.L19:
 345              		.loc 1 2376 0
 346 01a2 0223     		movs	r3, #2
 347              		.loc 1 2374 0
 348 01a4 0496     		str	r6, [sp, #16]
 349              		.loc 1 2375 0
 350 01a6 0595     		str	r5, [sp, #20]
 351              		.loc 1 2376 0
 352 01a8 0B60     		str	r3, [r1]
 353 01aa 96E7     		b	.L5
 354              	.L47:
 355              		.align	2
 356              	.L46:
 357 01ac 00000000 		.word	.LANCHOR0
 358 01b0 00000000 		.word	.LANCHOR1
 359 01b4 00000000 		.word	.LANCHOR2
 360 01b8 00000000 		.word	.LANCHOR4
 361 01bc 00000000 		.word	.LANCHOR3
 362              	.LBE73:
 363              		.cfi_endproc
 364              	.LFE315:
 365              		.size	update_adc_sample_pos, .-update_adc_sample_pos
 366              		.section	.text.update_rpm_tacho,"ax",%progbits
 367              		.align	1
 368              		.p2align 4,,15
 369              		.syntax unified
 370              		.thumb
 371              		.thumb_func
 372              		.fpu fpv4-sp-d16
 373              		.type	update_rpm_tacho, %function
 374              	update_rpm_tacho:
 375              	.LFB316:
 376              		.loc 1 2501 0
 377              		.cfi_startproc
 378              		@ args = 0, pretend = 0, frame = 0
 379              		@ frame_needed = 0, uses_anonymous_args = 0
 380              		@ link register save eliminated.
 381              		.loc 1 2502 0
 382 0000 1F4B     		ldr	r3, .L60
 383              		.loc 1 2504 0
 384 0002 2048     		ldr	r0, .L60+4
 385              		.loc 1 2502 0
 386 0004 1968     		ldr	r1, [r3]
 387              		.loc 1 2504 0
 388 0006 0268     		ldr	r2, [r0]
 389 0008 1F4B     		ldr	r3, .L60+8
 390              		.loc 1 2502 0
 391 000a 0139     		subs	r1, r1, #1
 392              	.LVL6:
 393              		.loc 1 2504 0
 394 000c 8A1A     		subs	r2, r1, r2
 395              		.loc 1 2501 0
 396 000e 10B4     		push	{r4}
 397              		.cfi_def_cfa_offset 4
 398              		.cfi_offset 4, -4
 399              		.loc 1 2504 0
ARM GAS  C:\Users\CHRIST~1\AppData\Local\Temp\ccBtEVpO.s 			page 8


 400 0010 83FB0243 		smull	r4, r3, r3, r2
 401 0014 A3EBE273 		sub	r3, r3, r2, asr #31
 402 0018 03EB4303 		add	r3, r3, r3, lsl #1
 403 001c A2EB4303 		sub	r3, r2, r3, lsl #1
 404              	.LVL7:
 405              		.loc 1 2507 0
 406 0020 032B     		cmp	r3, #3
 407              		.loc 1 2505 0
 408 0022 0160     		str	r1, [r0]
 409              		.loc 1 2507 0
 410 0024 1EDD     		ble	.L49
 411              		.loc 1 2508 0
 412 0026 063B     		subs	r3, r3, #6
 413              	.LVL8:
 414              	.L50:
 415              		.loc 1 2514 0
 416 0028 184A     		ldr	r2, .L60+12
 417 002a 5169     		ldr	r1, [r2, #20]
 418              	.LVL9:
 419              		.loc 1 2515 0
 420 002c 4FF08040 		mov	r0, #1073741824
 421              		.loc 1 2514 0
 422 0030 1944     		add	r1, r1, r3
 423 0032 5161     		str	r1, [r2, #20]
 424              		.loc 1 2515 0
 425 0034 446A     		ldr	r4, [r0, #36]
 426 0036 9169     		ldr	r1, [r2, #24]
 427 0038 2144     		add	r1, r1, r4
 428              		.loc 1 2516 0
 429 003a 0024     		movs	r4, #0
 430              		.loc 1 2515 0
 431 003c 9161     		str	r1, [r2, #24]
 432              		.loc 1 2516 0
 433 003e 4462     		str	r4, [r0, #36]
 434              	.LVL10:
 435              	.L52:
 436              		.loc 1 2520 0
 437 0040 1348     		ldr	r0, .L60+16
 438              		.loc 1 2521 0
 439 0042 1449     		ldr	r1, .L60+20
 440              		.loc 1 2520 0
 441 0044 0268     		ldr	r2, [r0]
 442              		.loc 1 2523 0
 443 0046 144C     		ldr	r4, .L60+24
 444              		.loc 1 2520 0
 445 0048 1A44     		add	r2, r2, r3
 446 004a 0260     		str	r2, [r0]
 447              		.loc 1 2521 0
 448 004c 0A68     		ldr	r2, [r1]
 449 004e 1A44     		add	r2, r2, r3
 450 0050 0A60     		str	r2, [r1]
 451              		.loc 1 2523 0
 452 0052 2268     		ldr	r2, [r4]
 453              		.loc 1 2524 0
 454 0054 1149     		ldr	r1, .L60+28
 455              		.loc 1 2523 0
 456 0056 62B9     		cbnz	r2, .L59
ARM GAS  C:\Users\CHRIST~1\AppData\Local\Temp\ccBtEVpO.s 			page 9


 457              		.loc 1 2526 0
 458 0058 0A68     		ldr	r2, [r1]
 459              		.loc 1 2528 0
 460 005a 5DF8044B 		ldr	r4, [sp], #4
 461              		.cfi_remember_state
 462              		.cfi_restore 4
 463              		.cfi_def_cfa_offset 0
 464              		.loc 1 2526 0
 465 005e D31A     		subs	r3, r2, r3
 466              	.LVL11:
 467 0060 0B60     		str	r3, [r1]
 468              		.loc 1 2528 0
 469 0062 7047     		bx	lr
 470              	.LVL12:
 471              	.L49:
 472              		.cfi_restore_state
 473              		.loc 1 2509 0
 474 0064 9A1C     		adds	r2, r3, #2
 475 0066 01DA     		bge	.L51
 476              		.loc 1 2510 0
 477 0068 0633     		adds	r3, r3, #6
 478              	.LVL13:
 479 006a DDE7     		b	.L50
 480              	.L51:
 481              		.loc 1 2513 0
 482 006c 002B     		cmp	r3, #0
 483 006e E7D0     		beq	.L52
 484 0070 DAE7     		b	.L50
 485              	.LVL14:
 486              	.L59:
 487              		.loc 1 2524 0
 488 0072 0A68     		ldr	r2, [r1]
 489              		.loc 1 2528 0
 490 0074 5DF8044B 		ldr	r4, [sp], #4
 491              		.cfi_restore 4
 492              		.cfi_def_cfa_offset 0
 493              		.loc 1 2524 0
 494 0078 1344     		add	r3, r3, r2
 495              	.LVL15:
 496 007a 0B60     		str	r3, [r1]
 497              		.loc 1 2528 0
 498 007c 7047     		bx	lr
 499              	.L61:
 500 007e 00BF     		.align	2
 501              	.L60:
 502 0080 00000000 		.word	.LANCHOR3
 503 0084 00000000 		.word	.LANCHOR5
 504 0088 ABAAAA2A 		.word	715827883
 505 008c 00000000 		.word	.LANCHOR6
 506 0090 00000000 		.word	.LANCHOR7
 507 0094 00000000 		.word	.LANCHOR8
 508 0098 00000000 		.word	.LANCHOR4
 509 009c 00000000 		.word	.LANCHOR9
 510              		.cfi_endproc
 511              	.LFE316:
 512              		.size	update_rpm_tacho, .-update_rpm_tacho
 513              		.section	.text.update_sensor_mode,"ax",%progbits
ARM GAS  C:\Users\CHRIST~1\AppData\Local\Temp\ccBtEVpO.s 			page 10


 514              		.align	1
 515              		.p2align 4,,15
 516              		.syntax unified
 517              		.thumb
 518              		.thumb_func
 519              		.fpu fpv4-sp-d16
 520              		.type	update_sensor_mode, %function
 521              	update_sensor_mode:
 522              	.LFB317:
 523              		.loc 1 2530 0
 524              		.cfi_startproc
 525              		@ args = 0, pretend = 0, frame = 0
 526              		@ frame_needed = 0, uses_anonymous_args = 0
 527              		@ link register save eliminated.
 528              		.loc 1 2531 0
 529 0000 0E4B     		ldr	r3, .L73
 530 0002 1B68     		ldr	r3, [r3]
 531 0004 DA78     		ldrb	r2, [r3, #3]	@ zero_extendqisi2
 532 0006 A2B1     		cbz	r2, .L63
 533              		.loc 1 2532 0 discriminator 1
 534 0008 DA78     		ldrb	r2, [r3, #3]	@ zero_extendqisi2
 535              		.loc 1 2531 0 discriminator 1
 536 000a 022A     		cmp	r2, #2
 537 000c 03D0     		beq	.L72
 538              	.L64:
 539              		.loc 1 2536 0
 540 000e 0C4B     		ldr	r3, .L73+4
 541 0010 0022     		movs	r2, #0
 542 0012 1A70     		strb	r2, [r3]
 543              		.loc 1 2538 0
 544 0014 7047     		bx	lr
 545              	.L72:
 546              	.LBB74:
 547              	.LBB75:
 548              		.loc 1 733 0
 549 0016 0B4A     		ldr	r2, .L73+8
 550 0018 1268     		ldr	r2, [r2]
 551 001a 0B4A     		ldr	r2, .L73+12
 552 001c D2ED007A 		vldr.32	s15, [r2]
 553              	.LBE75:
 554              	.LBE74:
 555              		.loc 1 2533 0
 556 0020 93ED287A 		vldr.32	s14, [r3, #160]
 557 0024 F0EEE77A 		vabs.f32	s15, s15
 558              		.loc 1 2532 0
 559 0028 F4EEC77A 		vcmpe.f32	s15, s14
 560 002c F1EE10FA 		vmrs	APSR_nzcv, FPSCR
 561 0030 EDDD     		ble	.L64
 562              	.L63:
 563              		.loc 1 2534 0
 564 0032 034B     		ldr	r3, .L73+4
 565 0034 0122     		movs	r2, #1
 566 0036 1A70     		strb	r2, [r3]
 567 0038 7047     		bx	lr
 568              	.L74:
 569 003a 00BF     		.align	2
 570              	.L73:
ARM GAS  C:\Users\CHRIST~1\AppData\Local\Temp\ccBtEVpO.s 			page 11


 571 003c 00000000 		.word	.LANCHOR0
 572 0040 00000000 		.word	.LANCHOR11
 573 0044 00000000 		.word	.LANCHOR4
 574 0048 00000000 		.word	.LANCHOR10
 575              		.cfi_endproc
 576              	.LFE317:
 577              		.size	update_sensor_mode, .-update_sensor_mode
 578              		.section	.text.update_timer_attempt,"ax",%progbits
 579              		.align	1
 580              		.p2align 4,,15
 581              		.syntax unified
 582              		.thumb
 583              		.thumb_func
 584              		.fpu fpv4-sp-d16
 585              		.type	update_timer_attempt, %function
 586              	update_timer_attempt:
 587              	.LFB320:
 588              		.loc 1 2593 0
 589              		.cfi_startproc
 590              		@ args = 0, pretend = 0, frame = 0
 591              		@ frame_needed = 0, uses_anonymous_args = 0
 592 0000 08B5     		push	{r3, lr}
 593              		.cfi_def_cfa_offset 8
 594              		.cfi_offset 3, -8
 595              		.cfi_offset 14, -4
 596              		.loc 1 2594 0
 597 0002 FFF7FEFF 		bl	utils_sys_lock_cnt
 598              	.LVL16:
 599              		.loc 1 2597 0
 600 0006 194B     		ldr	r3, .L78
 601 0008 1A78     		ldrb	r2, [r3]	@ zero_extendqisi2
 602 000a 002A     		cmp	r2, #0
 603 000c 2AD1     		bne	.L76
 604              		.loc 1 2597 0 is_stmt 0 discriminator 1
 605 000e 184A     		ldr	r2, .L78+4
 606 0010 516A     		ldr	r1, [r2, #36]
 607 0012 0A29     		cmp	r1, #10
 608 0014 26D9     		bls	.L76
 609              		.loc 1 2597 0 discriminator 2
 610 0016 506A     		ldr	r0, [r2, #36]
 611 0018 D16A     		ldr	r1, [r2, #44]
 612 001a A1F5FA71 		sub	r1, r1, #500
 613 001e 8842     		cmp	r0, r1
 614 0020 20D2     		bcs	.L76
 615              		.loc 1 2599 0 is_stmt 1
 616 0022 1068     		ldr	r0, [r2]
 617              		.loc 1 2600 0
 618 0024 1349     		ldr	r1, .L78+8
 619              		.loc 1 2599 0
 620 0026 40F00200 		orr	r0, r0, #2
 621 002a 1060     		str	r0, [r2]
 622              		.loc 1 2600 0
 623 002c 0868     		ldr	r0, [r1]
 624 002e 40F00200 		orr	r0, r0, #2
 625 0032 0860     		str	r0, [r1]
 626              		.loc 1 2603 0
 627 0034 5868     		ldr	r0, [r3, #4]
ARM GAS  C:\Users\CHRIST~1\AppData\Local\Temp\ccBtEVpO.s 			page 12


 628 0036 D062     		str	r0, [r2, #44]
 629              		.loc 1 2604 0
 630 0038 9868     		ldr	r0, [r3, #8]
 631 003a 5063     		str	r0, [r2, #52]
 632              		.loc 1 2605 0
 633 003c 9868     		ldr	r0, [r3, #8]
 634 003e 9063     		str	r0, [r2, #56]
 635              		.loc 1 2606 0
 636 0040 9868     		ldr	r0, [r3, #8]
 637 0042 D063     		str	r0, [r2, #60]
 638              		.loc 1 2607 0
 639 0044 D868     		ldr	r0, [r3, #12]
 640 0046 4863     		str	r0, [r1, #52]
 641              		.loc 1 2608 0
 642 0048 1869     		ldr	r0, [r3, #16]
 643 004a 1064     		str	r0, [r2, #64]
 644              		.loc 1 2609 0
 645 004c 5869     		ldr	r0, [r3, #20]
 646 004e 8863     		str	r0, [r1, #56]
 647              		.loc 1 2615 0
 648 0050 1068     		ldr	r0, [r2]
 649 0052 20F00200 		bic	r0, r0, #2
 650 0056 1060     		str	r0, [r2]
 651              		.loc 1 2616 0
 652 0058 0A68     		ldr	r2, [r1]
 653              		.loc 1 2617 0
 654 005a 0120     		movs	r0, #1
 655              		.loc 1 2616 0
 656 005c 22F00202 		bic	r2, r2, #2
 657 0060 0A60     		str	r2, [r1]
 658              		.loc 1 2617 0
 659 0062 1870     		strb	r0, [r3]
 660              	.L76:
 661              		.loc 1 2621 0
 662 0064 BDE80840 		pop	{r3, lr}
 663              		.cfi_restore 14
 664              		.cfi_restore 3
 665              		.cfi_def_cfa_offset 0
 666              		.loc 1 2620 0
 667 0068 FFF7FEBF 		b	utils_sys_unlock_cnt
 668              	.LVL17:
 669              	.L79:
 670              		.align	2
 671              	.L78:
 672 006c 00000000 		.word	.LANCHOR12
 673 0070 00000140 		.word	1073807360
 674 0074 00040140 		.word	1073808384
 675              		.cfi_endproc
 676              	.LFE320:
 677              		.size	update_timer_attempt, .-update_timer_attempt
 678              		.section	.text.set_next_timer_settings,"ax",%progbits
 679              		.align	1
 680              		.p2align 4,,15
 681              		.syntax unified
 682              		.thumb
 683              		.thumb_func
 684              		.fpu fpv4-sp-d16
ARM GAS  C:\Users\CHRIST~1\AppData\Local\Temp\ccBtEVpO.s 			page 13


 685              		.type	set_next_timer_settings, %function
 686              	set_next_timer_settings:
 687              	.LFB319:
 688              		.loc 1 2580 0
 689              		.cfi_startproc
 690              		@ args = 0, pretend = 0, frame = 0
 691              		@ frame_needed = 0, uses_anonymous_args = 0
 692              	.LVL18:
 693 0000 70B5     		push	{r4, r5, r6, lr}
 694              		.cfi_def_cfa_offset 16
 695              		.cfi_offset 4, -16
 696              		.cfi_offset 5, -12
 697              		.cfi_offset 6, -8
 698              		.cfi_offset 14, -4
 699              		.loc 1 2580 0
 700 0002 0446     		mov	r4, r0
 701              		.loc 1 2581 0
 702 0004 FFF7FEFF 		bl	utils_sys_lock_cnt
 703              	.LVL19:
 704              		.loc 1 2582 0
 705 0008 0FCC     		ldmia	r4!, {r0, r1, r2, r3}
 706              	.LVL20:
 707 000a 074E     		ldr	r6, .L82
 708 000c 3546     		mov	r5, r6
 709 000e 0FC5     		stmia	r5!, {r0, r1, r2, r3}
 710 0010 94E80300 		ldm	r4, {r0, r1}
 711              		.loc 1 2583 0
 712 0014 0023     		movs	r3, #0
 713              		.loc 1 2582 0
 714 0016 85E80300 		stm	r5, {r0, r1}
 715              		.loc 1 2583 0
 716 001a 3370     		strb	r3, [r6]
 717              		.loc 1 2584 0
 718 001c FFF7FEFF 		bl	utils_sys_unlock_cnt
 719              	.LVL21:
 720              		.loc 1 2587 0
 721 0020 BDE87040 		pop	{r4, r5, r6, lr}
 722              		.cfi_restore 14
 723              		.cfi_restore 6
 724              		.cfi_restore 5
 725              		.cfi_restore 4
 726              		.cfi_def_cfa_offset 0
 727              	.LVL22:
 728              		.loc 1 2586 0
 729 0024 FFF7FEBF 		b	update_timer_attempt
 730              	.LVL23:
 731              	.L83:
 732              		.align	2
 733              	.L82:
 734 0028 00000000 		.word	.LANCHOR12
 735              		.cfi_endproc
 736              	.LFE319:
 737              		.size	set_next_timer_settings, .-set_next_timer_settings
 738              		.section	.text.set_switching_frequency,"ax",%progbits
 739              		.align	1
 740              		.p2align 4,,15
 741              		.syntax unified
ARM GAS  C:\Users\CHRIST~1\AppData\Local\Temp\ccBtEVpO.s 			page 14


 742              		.thumb
 743              		.thumb_func
 744              		.fpu fpv4-sp-d16
 745              		.type	set_switching_frequency, %function
 746              	set_switching_frequency:
 747              	.LFB321:
 748              		.loc 1 2623 0
 749              		.cfi_startproc
 750              		@ args = 0, pretend = 0, frame = 24
 751              		@ frame_needed = 0, uses_anonymous_args = 0
 752              	.LVL24:
 753 0000 70B5     		push	{r4, r5, r6, lr}
 754              		.cfi_def_cfa_offset 16
 755              		.cfi_offset 4, -16
 756              		.cfi_offset 5, -12
 757              		.cfi_offset 6, -8
 758              		.cfi_offset 14, -4
 759              		.loc 1 2624 0
 760 0002 114E     		ldr	r6, .L86
 761              		.loc 1 2628 0
 762 0004 114D     		ldr	r5, .L86+4
 763              		.loc 1 2624 0
 764 0006 86ED000A 		vstr.32	s0, [r6]
 765              		.loc 1 2623 0
 766 000a 86B0     		sub	sp, sp, #24
 767              		.cfi_def_cfa_offset 40
 768              		.loc 1 2627 0
 769 000c FFF7FEFF 		bl	utils_sys_lock_cnt
 770              	.LVL25:
 771              		.loc 1 2628 0
 772 0010 0FCD     		ldmia	r5!, {r0, r1, r2, r3}
 773 0012 6C46     		mov	r4, sp
 774 0014 0FC4     		stmia	r4!, {r0, r1, r2, r3}
 775 0016 95E80300 		ldm	r5, {r0, r1}
 776 001a 84E80300 		stm	r4, {r0, r1}
 777              		.loc 1 2629 0
 778 001e FFF7FEFF 		bl	utils_sys_unlock_cnt
 779              	.LVL26:
 780              		.loc 1 2631 0
 781 0022 D6ED007A 		vldr.32	s15, [r6]
 782 0026 0A4A     		ldr	r2, .L86+8
 783 0028 FDEEE77A 		vcvt.s32.f32	s15, s15
 784              		.loc 1 2632 0
 785 002c 6846     		mov	r0, sp
 786              		.loc 1 2631 0
 787 002e 17EE903A 		vmov	r3, s15	@ int
 788 0032 92FBF3F3 		sdiv	r3, r2, r3
 789 0036 0193     		str	r3, [sp, #4]
 790              		.loc 1 2632 0
 791 0038 FFF7FEFF 		bl	update_adc_sample_pos
 792              	.LVL27:
 793              		.loc 1 2633 0
 794 003c 6846     		mov	r0, sp
 795 003e FFF7FEFF 		bl	set_next_timer_settings
 796              	.LVL28:
 797              		.loc 1 2634 0
 798 0042 06B0     		add	sp, sp, #24
ARM GAS  C:\Users\CHRIST~1\AppData\Local\Temp\ccBtEVpO.s 			page 15


 799              		.cfi_def_cfa_offset 16
 800              		@ sp needed
 801 0044 70BD     		pop	{r4, r5, r6, pc}
 802              	.L87:
 803 0046 00BF     		.align	2
 804              	.L86:
 805 0048 00000000 		.word	.LANCHOR13
 806 004c 00000000 		.word	.LANCHOR12
 807 0050 007A030A 		.word	168000000
 808              		.cfi_endproc
 809              	.LFE321:
 810              		.size	set_switching_frequency, .-set_switching_frequency
 811              		.section	.text.set_duty_cycle_hw,"ax",%progbits
 812              		.align	1
 813              		.p2align 4,,15
 814              		.syntax unified
 815              		.thumb
 816              		.thumb_func
 817              		.fpu fpv4-sp-d16
 818              		.type	set_duty_cycle_hw, %function
 819              	set_duty_cycle_hw:
 820              	.LFB294:
 821              		.loc 1 1087 0
 822              		.cfi_startproc
 823              		@ args = 0, pretend = 0, frame = 32
 824              		@ frame_needed = 0, uses_anonymous_args = 0
 825              	.LVL29:
 826 0000 70B5     		push	{r4, r5, r6, lr}
 827              		.cfi_def_cfa_offset 16
 828              		.cfi_offset 4, -16
 829              		.cfi_offset 5, -12
 830              		.cfi_offset 6, -8
 831              		.cfi_offset 14, -4
 832              		.loc 1 1091 0
 833 0002 404D     		ldr	r5, .L104
 834              		.loc 1 1094 0
 835 0004 404E     		ldr	r6, .L104+4
 836              		.loc 1 1087 0
 837 0006 88B0     		sub	sp, sp, #32
 838              		.cfi_def_cfa_offset 48
 839              		.loc 1 1087 0
 840 0008 8DED010A 		vstr.32	s0, [sp, #4]
 841              		.loc 1 1090 0
 842 000c FFF7FEFF 		bl	utils_sys_lock_cnt
 843              	.LVL30:
 844              		.loc 1 1091 0
 845 0010 0FCD     		ldmia	r5!, {r0, r1, r2, r3}
 846 0012 02AC     		add	r4, sp, #8
 847 0014 0FC4     		stmia	r4!, {r0, r1, r2, r3}
 848 0016 95E80300 		ldm	r5, {r0, r1}
 849 001a 84E80300 		stm	r4, {r0, r1}
 850              		.loc 1 1092 0
 851 001e FFF7FEFF 		bl	utils_sys_unlock_cnt
 852              	.LVL31:
 853              		.loc 1 1094 0
 854 0022 3368     		ldr	r3, [r6]
 855 0024 01A8     		add	r0, sp, #4
ARM GAS  C:\Users\CHRIST~1\AppData\Local\Temp\ccBtEVpO.s 			page 16


 856 0026 93ED150A 		vldr.32	s0, [r3, #84]
 857 002a D3ED160A 		vldr.32	s1, [r3, #88]
 858 002e FFF7FEFF 		bl	utils_truncate_number
 859              	.LVL32:
 860              		.loc 1 1096 0
 861 0032 3368     		ldr	r3, [r6]
 862 0034 9A78     		ldrb	r2, [r3, #2]	@ zero_extendqisi2
 863 0036 012A     		cmp	r2, #1
 864 0038 41D0     		beq	.L102
 865              		.loc 1 1099 0
 866 003a 344A     		ldr	r2, .L104+8
 867 003c DDED016A 		vldr.32	s13, [sp, #4]
 868 0040 1278     		ldrb	r2, [r2]	@ zero_extendqisi2
 869 0042 012A     		cmp	r2, #1
 870 0044 36D0     		beq	.L91
 871              		.loc 1 1099 0 is_stmt 0 discriminator 1
 872 0046 1A78     		ldrb	r2, [r3]	@ zero_extendqisi2
 873 0048 022A     		cmp	r2, #2
 874 004a 33D0     		beq	.L91
 875              		.loc 1 1102 0 is_stmt 1
 876 004c D3ED595A 		vldr.32	s11, [r3, #356]
 877              		.loc 1 1103 0
 878 0050 D3ED5A7A 		vldr.32	s15, [r3, #360]
 879              		.loc 1 1102 0
 880 0054 2E4A     		ldr	r2, .L104+12
 881 0056 B0EEE66A 		vabs.f32	s12, s13
 882 005a B7EE007A 		vmov.f32	s14, #1.0e+0
 883              		.loc 1 1103 0
 884 005e 66EE277A 		vmul.f32	s15, s12, s15
 885              		.loc 1 1102 0
 886 0062 37EE467A 		vsub.f32	s14, s14, s12
 887 0066 E5EE877A 		vfma.f32	s15, s11, s14
 888 006a C2ED007A 		vstr.32	s15, [r2]
 889              	.L90:
 890              		.loc 1 1107 0
 891 006e 92ED007A 		vldr.32	s14, [r2]
 892 0072 2849     		ldr	r1, .L104+16
 893 0074 FDEEC77A 		vcvt.s32.f32	s15, s14
 894 0078 17EE902A 		vmov	r2, s15	@ int
 895 007c 91FBF2F2 		sdiv	r2, r1, r2
 896 0080 0392     		str	r2, [sp, #12]
 897              		.loc 1 1109 0
 898 0082 9A78     		ldrb	r2, [r3, #2]	@ zero_extendqisi2
 899 0084 12B9     		cbnz	r2, .L93
 900              		.loc 1 1109 0 is_stmt 0 discriminator 1
 901 0086 1B78     		ldrb	r3, [r3]	@ zero_extendqisi2
 902 0088 022B     		cmp	r3, #2
 903 008a 1FD0     		beq	.L103
 904              	.L93:
 905              		.loc 1 1113 0 is_stmt 1
 906 008c DDED037A 		vldr.32	s15, [sp, #12]	@ int
 907 0090 F8EE677A 		vcvt.f32.u32	s15, s15
 908 0094 67EEA67A 		vmul.f32	s15, s15, s13
 909 0098 FCEEE77A 		vcvt.u32.f32	s15, s15
 910 009c 17EE903A 		vmov	r3, s15	@ int
 911 00a0 9BB2     		uxth	r3, r3
 912 00a2 0493     		str	r3, [sp, #16]
ARM GAS  C:\Users\CHRIST~1\AppData\Local\Temp\ccBtEVpO.s 			page 17


 913              	.L94:
 914              		.loc 1 1116 0
 915 00a4 02A8     		add	r0, sp, #8
 916 00a6 FFF7FEFF 		bl	update_adc_sample_pos
 917              	.LVL33:
 918              		.loc 1 1117 0
 919 00aa 02A8     		add	r0, sp, #8
 920 00ac FFF7FEFF 		bl	set_next_timer_settings
 921              	.LVL34:
 922              		.loc 1 1118 0
 923 00b0 08B0     		add	sp, sp, #32
 924              		.cfi_remember_state
 925              		.cfi_def_cfa_offset 16
 926              		@ sp needed
 927 00b2 70BD     		pop	{r4, r5, r6, pc}
 928              	.L91:
 929              		.cfi_restore_state
 930              		.loc 1 1100 0
 931 00b4 164A     		ldr	r2, .L104+12
 932 00b6 D3F86811 		ldr	r1, [r3, #360]	@ float
 933 00ba 1160     		str	r1, [r2]	@ float
 934 00bc D7E7     		b	.L90
 935              	.L102:
 936              		.loc 1 1097 0
 937 00be 144A     		ldr	r2, .L104+12
 938 00c0 D3F86C11 		ldr	r1, [r3, #364]	@ float
 939 00c4 DDED016A 		vldr.32	s13, [sp, #4]
 940 00c8 1160     		str	r1, [r2]	@ float
 941 00ca D0E7     		b	.L90
 942              	.L103:
 943              		.loc 1 1109 0 discriminator 2
 944 00cc 0F4B     		ldr	r3, .L104+8
 945 00ce 1B78     		ldrb	r3, [r3]	@ zero_extendqisi2
 946 00d0 012B     		cmp	r3, #1
 947 00d2 DBD0     		beq	.L93
 948              		.loc 1 1110 0
 949 00d4 9DED037A 		vldr.32	s14, [sp, #12]	@ int
 950              		.loc 1 1111 0
 951 00d8 DDED037A 		vldr.32	s15, [sp, #12]	@ int
 952              		.loc 1 1110 0
 953 00dc B8EE477A 		vcvt.f32.u32	s14, s14
 954              		.loc 1 1111 0
 955 00e0 F8EE677A 		vcvt.f32.u32	s15, s15
 956              		.loc 1 1110 0
 957 00e4 B6EE006A 		vmov.f32	s12, #5.0e-1
 958 00e8 27EE067A 		vmul.f32	s14, s14, s12
 959              		.loc 1 1111 0
 960 00ec 67EE867A 		vmul.f32	s15, s15, s12
 961 00f0 E7EE267A 		vfma.f32	s15, s14, s13
 962              		.loc 1 1110 0
 963 00f4 FCEEE77A 		vcvt.u32.f32	s15, s15
 964 00f8 17EE903A 		vmov	r3, s15	@ int
 965 00fc 9BB2     		uxth	r3, r3
 966 00fe 0493     		str	r3, [sp, #16]
 967 0100 D0E7     		b	.L94
 968              	.L105:
 969 0102 00BF     		.align	2
ARM GAS  C:\Users\CHRIST~1\AppData\Local\Temp\ccBtEVpO.s 			page 18


 970              	.L104:
 971 0104 00000000 		.word	.LANCHOR12
 972 0108 00000000 		.word	.LANCHOR0
 973 010c 00000000 		.word	.LANCHOR2
 974 0110 00000000 		.word	.LANCHOR13
 975 0114 007A030A 		.word	168000000
 976              		.cfi_endproc
 977              	.LFE294:
 978              		.size	set_duty_cycle_hw, .-set_duty_cycle_hw
 979              		.section	.text.set_next_comm_step,"ax",%progbits
 980              		.align	1
 981              		.p2align 4,,15
 982              		.syntax unified
 983              		.thumb
 984              		.thumb_func
 985              		.fpu fpv4-sp-d16
 986              		.type	set_next_comm_step, %function
 987              	set_next_comm_step:
 988              	.LFB322:
 989              		.loc 1 2636 0
 990              		.cfi_startproc
 991              		@ args = 0, pretend = 0, frame = 0
 992              		@ frame_needed = 0, uses_anonymous_args = 0
 993              	.LVL35:
 994 0000 F8B5     		push	{r3, r4, r5, r6, r7, lr}
 995              		.cfi_def_cfa_offset 24
 996              		.cfi_offset 3, -24
 997              		.cfi_offset 4, -20
 998              		.cfi_offset 5, -16
 999              		.cfi_offset 6, -12
 1000              		.cfi_offset 7, -8
 1001              		.cfi_offset 14, -4
 1002              		.loc 1 2637 0
 1003 0002 BD4B     		ldr	r3, .L143
 1004 0004 1B68     		ldr	r3, [r3]
 1005 0006 9C78     		ldrb	r4, [r3, #2]	@ zero_extendqisi2
 1006 0008 E4B2     		uxtb	r4, r4
 1007 000a 012C     		cmp	r4, #1
 1008 000c 79D0     		beq	.L136
 1009              	.LVL36:
 1010              		.loc 1 2677 0
 1011 000e BB4A     		ldr	r2, .L143+4
 1012 0010 1278     		ldrb	r2, [r2]	@ zero_extendqisi2
 1013 0012 012A     		cmp	r2, #1
 1014 0014 0546     		mov	r5, r0
 1015 0016 3CD0     		beq	.L124
 1016              		.loc 1 2678 0
 1017 0018 1B78     		ldrb	r3, [r3]	@ zero_extendqisi2
 1018 001a 03F0FF04 		and	r4, r3, #255
 1019 001e 002B     		cmp	r3, #0
 1020 0020 38D0     		beq	.L127
 1021              		.loc 1 2672 0
 1022 0022 022C     		cmp	r4, #2
 1023 0024 0CBF     		ite	eq
 1024 0026 7026     		moveq	r6, #112
 1025 0028 2026     		movne	r6, #32
 1026              		.loc 1 2692 0
ARM GAS  C:\Users\CHRIST~1\AppData\Local\Temp\ccBtEVpO.s 			page 19


 1027 002a 012D     		cmp	r5, #1
 1028              		.loc 1 2672 0
 1029 002c 4FF00404 		mov	r4, #4
 1030              	.LVL37:
 1031              		.loc 1 2692 0
 1032 0030 34D0     		beq	.L137
 1033              	.L112:
 1034              		.loc 1 2734 0
 1035 0032 022D     		cmp	r5, #2
 1036 0034 00F0E180 		beq	.L138
 1037              		.loc 1 2776 0
 1038 0038 032D     		cmp	r5, #3
 1039 003a 00F00781 		beq	.L139
 1040              		.loc 1 2818 0
 1041 003e 042D     		cmp	r5, #4
 1042 0040 00F09280 		beq	.L140
 1043              		.loc 1 2860 0
 1044 0044 052D     		cmp	r5, #5
 1045 0046 00F05F81 		beq	.L141
 1046              		.loc 1 2902 0
 1047 004a 062D     		cmp	r5, #6
 1048 004c 40F0D581 		bne	.L122
 1049              		.loc 1 2903 0
 1050 0050 AB4B     		ldr	r3, .L143+8
 1051 0052 1D68     		ldr	r5, [r3]
 1052              		.loc 1 2910 0
 1053 0054 2022     		movs	r2, #32
 1054              		.loc 1 2903 0
 1055 0056 002D     		cmp	r5, #0
 1056 0058 00F0B481 		beq	.L123
 1057              		.loc 1 2910 0
 1058 005c 0821     		movs	r1, #8
 1059 005e A948     		ldr	r0, .L143+12
 1060              	.LVL38:
 1061 0060 FFF7FEFF 		bl	TIM_SelectOCxM
 1062              	.LVL39:
 1063              		.loc 1 2911 0
 1064 0064 0122     		movs	r2, #1
 1065 0066 0821     		movs	r1, #8
 1066 0068 A648     		ldr	r0, .L143+12
 1067 006a FFF7FEFF 		bl	TIM_CCxCmd
 1068              	.LVL40:
 1069              		.loc 1 2912 0
 1070 006e 0022     		movs	r2, #0
 1071 0070 0821     		movs	r1, #8
 1072 0072 A448     		ldr	r0, .L143+12
 1073 0074 FFF7FEFF 		bl	TIM_CCxNCmd
 1074              	.LVL41:
 1075              		.loc 1 2915 0
 1076 0078 6022     		movs	r2, #96
 1077 007a 0421     		movs	r1, #4
 1078 007c A148     		ldr	r0, .L143+12
 1079 007e FFF7FEFF 		bl	TIM_SelectOCxM
 1080              	.LVL42:
 1081              		.loc 1 2916 0
 1082 0082 0122     		movs	r2, #1
 1083 0084 0421     		movs	r1, #4
ARM GAS  C:\Users\CHRIST~1\AppData\Local\Temp\ccBtEVpO.s 			page 20


 1084 0086 9F48     		ldr	r0, .L143+12
 1085 0088 FFF7FEFF 		bl	TIM_CCxCmd
 1086              	.LVL43:
 1087              		.loc 1 2917 0
 1088 008c 2246     		mov	r2, r4
 1089 008e 0421     		movs	r1, #4
 1090 0090 59E1     		b	.L132
 1091              	.LVL44:
 1092              	.L124:
 1093              		.loc 1 2672 0
 1094 0092 0424     		movs	r4, #4
 1095              	.L127:
 1096              		.loc 1 2692 0
 1097 0094 012D     		cmp	r5, #1
 1098              		.loc 1 2669 0
 1099 0096 4FF02006 		mov	r6, #32
 1100              	.LVL45:
 1101              		.loc 1 2692 0
 1102 009a CAD1     		bne	.L112
 1103              	.L137:
 1104              		.loc 1 2693 0
 1105 009c 984B     		ldr	r3, .L143+8
 1106 009e 1F68     		ldr	r7, [r3]
 1107              		.loc 1 2700 0
 1108 00a0 2022     		movs	r2, #32
 1109              		.loc 1 2693 0
 1110 00a2 002F     		cmp	r7, #0
 1111 00a4 66D0     		beq	.L135
 1112              		.loc 1 2700 0
 1113 00a6 0021     		movs	r1, #0
 1114 00a8 9648     		ldr	r0, .L143+12
 1115              	.LVL46:
 1116 00aa FFF7FEFF 		bl	TIM_SelectOCxM
 1117              	.LVL47:
 1118              		.loc 1 2701 0
 1119 00ae 2A46     		mov	r2, r5
 1120 00b0 0021     		movs	r1, #0
 1121 00b2 9448     		ldr	r0, .L143+12
 1122 00b4 FFF7FEFF 		bl	TIM_CCxCmd
 1123              	.LVL48:
 1124              		.loc 1 2702 0
 1125 00b8 0022     		movs	r2, #0
 1126 00ba 1146     		mov	r1, r2
 1127 00bc 9148     		ldr	r0, .L143+12
 1128 00be FFF7FEFF 		bl	TIM_CCxNCmd
 1129              	.LVL49:
 1130              		.loc 1 2705 0
 1131 00c2 6022     		movs	r2, #96
 1132 00c4 0421     		movs	r1, #4
 1133 00c6 8F48     		ldr	r0, .L143+12
 1134 00c8 FFF7FEFF 		bl	TIM_SelectOCxM
 1135              	.LVL50:
 1136              		.loc 1 2706 0
 1137 00cc 2A46     		mov	r2, r5
 1138 00ce 0421     		movs	r1, #4
 1139 00d0 8C48     		ldr	r0, .L143+12
 1140 00d2 FFF7FEFF 		bl	TIM_CCxCmd
ARM GAS  C:\Users\CHRIST~1\AppData\Local\Temp\ccBtEVpO.s 			page 21


 1141              	.LVL51:
 1142              		.loc 1 2707 0
 1143 00d6 2246     		mov	r2, r4
 1144 00d8 0421     		movs	r1, #4
 1145 00da 8A48     		ldr	r0, .L143+12
 1146 00dc FFF7FEFF 		bl	TIM_CCxNCmd
 1147              	.LVL52:
 1148              		.loc 1 2710 0
 1149 00e0 3246     		mov	r2, r6
 1150 00e2 0821     		movs	r1, #8
 1151 00e4 8748     		ldr	r0, .L143+12
 1152 00e6 FFF7FEFF 		bl	TIM_SelectOCxM
 1153              	.LVL53:
 1154              		.loc 1 2711 0
 1155 00ea 2A46     		mov	r2, r5
 1156              	.LVL54:
 1157              	.L128:
 1158 00ec 0821     		movs	r1, #8
 1159 00ee 8548     		ldr	r0, .L143+12
 1160 00f0 FFF7FEFF 		bl	TIM_CCxCmd
 1161              	.LVL55:
 1162              		.loc 1 2712 0
 1163 00f4 0422     		movs	r2, #4
 1164 00f6 0821     		movs	r1, #8
 1165 00f8 8248     		ldr	r0, .L143+12
 1166              		.loc 1 2963 0
 1167 00fa BDE8F840 		pop	{r3, r4, r5, r6, r7, lr}
 1168              		.cfi_remember_state
 1169              		.cfi_restore 14
 1170              		.cfi_restore 7
 1171              		.cfi_restore 6
 1172              		.cfi_restore 5
 1173              		.cfi_restore 4
 1174              		.cfi_restore 3
 1175              		.cfi_def_cfa_offset 0
 1176              		.loc 1 2712 0
 1177 00fe FFF7FEBF 		b	TIM_CCxNCmd
 1178              	.LVL56:
 1179              	.L136:
 1180              		.cfi_restore_state
 1181              		.loc 1 2639 0
 1182 0102 2022     		movs	r2, #32
 1183 0104 0421     		movs	r1, #4
 1184 0106 7F48     		ldr	r0, .L143+12
 1185              	.LVL57:
 1186 0108 FFF7FEFF 		bl	TIM_SelectOCxM
 1187              	.LVL58:
 1188              		.loc 1 2640 0
 1189 010c 2246     		mov	r2, r4
 1190 010e 0421     		movs	r1, #4
 1191 0110 7C48     		ldr	r0, .L143+12
 1192 0112 FFF7FEFF 		bl	TIM_CCxCmd
 1193              	.LVL59:
 1194              		.loc 1 2641 0
 1195 0116 0022     		movs	r2, #0
 1196 0118 0421     		movs	r1, #4
 1197 011a 7A48     		ldr	r0, .L143+12
ARM GAS  C:\Users\CHRIST~1\AppData\Local\Temp\ccBtEVpO.s 			page 22


 1198 011c FFF7FEFF 		bl	TIM_CCxNCmd
 1199              	.LVL60:
 1200              		.loc 1 2643 0
 1201 0120 774B     		ldr	r3, .L143+8
 1202 0122 1D68     		ldr	r5, [r3]
 1203              		.loc 1 2645 0
 1204 0124 6022     		movs	r2, #96
 1205              		.loc 1 2643 0
 1206 0126 002D     		cmp	r5, #0
 1207 0128 52D1     		bne	.L142
 1208              		.loc 1 2655 0
 1209 012a 0821     		movs	r1, #8
 1210 012c 7548     		ldr	r0, .L143+12
 1211 012e FFF7FEFF 		bl	TIM_SelectOCxM
 1212              	.LVL61:
 1213              		.loc 1 2656 0
 1214 0132 2246     		mov	r2, r4
 1215 0134 0821     		movs	r1, #8
 1216 0136 7348     		ldr	r0, .L143+12
 1217 0138 FFF7FEFF 		bl	TIM_CCxCmd
 1218              	.LVL62:
 1219              		.loc 1 2657 0
 1220 013c 0422     		movs	r2, #4
 1221 013e 0821     		movs	r1, #8
 1222 0140 7048     		ldr	r0, .L143+12
 1223 0142 FFF7FEFF 		bl	TIM_CCxNCmd
 1224              	.LVL63:
 1225              		.loc 1 2660 0
 1226 0146 2022     		movs	r2, #32
 1227              	.L129:
 1228              		.loc 1 2940 0
 1229 0148 2946     		mov	r1, r5
 1230 014a 6E48     		ldr	r0, .L143+12
 1231 014c FFF7FEFF 		bl	TIM_SelectOCxM
 1232              	.LVL64:
 1233              		.loc 1 2941 0
 1234 0150 2946     		mov	r1, r5
 1235 0152 0122     		movs	r2, #1
 1236 0154 6B48     		ldr	r0, .L143+12
 1237 0156 FFF7FEFF 		bl	TIM_CCxCmd
 1238              	.LVL65:
 1239              		.loc 1 2942 0
 1240 015a 2946     		mov	r1, r5
 1241 015c 0422     		movs	r2, #4
 1242 015e 6948     		ldr	r0, .L143+12
 1243              		.loc 1 2963 0
 1244 0160 BDE8F840 		pop	{r3, r4, r5, r6, r7, lr}
 1245              		.cfi_remember_state
 1246              		.cfi_restore 14
 1247              		.cfi_restore 7
 1248              		.cfi_restore 6
 1249              		.cfi_restore 5
 1250              		.cfi_restore 4
 1251              		.cfi_restore 3
 1252              		.cfi_def_cfa_offset 0
 1253              		.loc 1 2942 0
 1254 0164 FFF7FEBF 		b	TIM_CCxNCmd
ARM GAS  C:\Users\CHRIST~1\AppData\Local\Temp\ccBtEVpO.s 			page 23


 1255              	.LVL66:
 1256              	.L140:
 1257              		.cfi_restore_state
 1258              		.loc 1 2819 0
 1259 0168 654B     		ldr	r3, .L143+8
 1260 016a 1F68     		ldr	r7, [r3]
 1261              		.loc 1 2826 0
 1262 016c 2022     		movs	r2, #32
 1263              		.loc 1 2819 0
 1264 016e 002F     		cmp	r7, #0
 1265 0170 00F0FD80 		beq	.L119
 1266              	.L135:
 1267              		.loc 1 2826 0
 1268 0174 0021     		movs	r1, #0
 1269 0176 6348     		ldr	r0, .L143+12
 1270              	.LVL67:
 1271 0178 FFF7FEFF 		bl	TIM_SelectOCxM
 1272              	.LVL68:
 1273              		.loc 1 2827 0
 1274 017c 0122     		movs	r2, #1
 1275 017e 0021     		movs	r1, #0
 1276 0180 6048     		ldr	r0, .L143+12
 1277 0182 FFF7FEFF 		bl	TIM_CCxCmd
 1278              	.LVL69:
 1279              		.loc 1 2828 0
 1280 0186 0022     		movs	r2, #0
 1281 0188 1146     		mov	r1, r2
 1282 018a 5E48     		ldr	r0, .L143+12
 1283 018c FFF7FEFF 		bl	TIM_CCxNCmd
 1284              	.LVL70:
 1285              		.loc 1 2831 0
 1286 0190 6022     		movs	r2, #96
 1287 0192 0821     		movs	r1, #8
 1288 0194 5B48     		ldr	r0, .L143+12
 1289 0196 FFF7FEFF 		bl	TIM_SelectOCxM
 1290              	.LVL71:
 1291              		.loc 1 2832 0
 1292 019a 0122     		movs	r2, #1
 1293 019c 0821     		movs	r1, #8
 1294 019e 5948     		ldr	r0, .L143+12
 1295 01a0 FFF7FEFF 		bl	TIM_CCxCmd
 1296              	.LVL72:
 1297              		.loc 1 2833 0
 1298 01a4 2246     		mov	r2, r4
 1299 01a6 0821     		movs	r1, #8
 1300              	.LVL73:
 1301              	.L130:
 1302              		.loc 1 2769 0
 1303 01a8 5648     		ldr	r0, .L143+12
 1304 01aa FFF7FEFF 		bl	TIM_CCxNCmd
 1305              	.LVL74:
 1306              		.loc 1 2772 0
 1307 01ae 3246     		mov	r2, r6
 1308 01b0 0421     		movs	r1, #4
 1309 01b2 5448     		ldr	r0, .L143+12
 1310 01b4 FFF7FEFF 		bl	TIM_SelectOCxM
 1311              	.LVL75:
ARM GAS  C:\Users\CHRIST~1\AppData\Local\Temp\ccBtEVpO.s 			page 24


 1312              		.loc 1 2773 0
 1313 01b8 0122     		movs	r2, #1
 1314 01ba 0421     		movs	r1, #4
 1315 01bc 5148     		ldr	r0, .L143+12
 1316 01be FFF7FEFF 		bl	TIM_CCxCmd
 1317              	.LVL76:
 1318              		.loc 1 2774 0
 1319 01c2 0422     		movs	r2, #4
 1320 01c4 1146     		mov	r1, r2
 1321 01c6 4F48     		ldr	r0, .L143+12
 1322              		.loc 1 2963 0
 1323 01c8 BDE8F840 		pop	{r3, r4, r5, r6, r7, lr}
 1324              		.cfi_remember_state
 1325              		.cfi_restore 14
 1326              		.cfi_restore 7
 1327              		.cfi_restore 6
 1328              		.cfi_restore 5
 1329              		.cfi_restore 4
 1330              		.cfi_restore 3
 1331              		.cfi_def_cfa_offset 0
 1332              	.LVL77:
 1333              		.loc 1 2774 0
 1334 01cc FFF7FEBF 		b	TIM_CCxNCmd
 1335              	.LVL78:
 1336              	.L142:
 1337              		.cfi_restore_state
 1338              		.loc 1 2645 0
 1339 01d0 0021     		movs	r1, #0
 1340 01d2 4C48     		ldr	r0, .L143+12
 1341 01d4 FFF7FEFF 		bl	TIM_SelectOCxM
 1342              	.LVL79:
 1343              		.loc 1 2646 0
 1344 01d8 2246     		mov	r2, r4
 1345 01da 0021     		movs	r1, #0
 1346 01dc 4948     		ldr	r0, .L143+12
 1347 01de FFF7FEFF 		bl	TIM_CCxCmd
 1348              	.LVL80:
 1349              		.loc 1 2647 0
 1350 01e2 0422     		movs	r2, #4
 1351 01e4 0021     		movs	r1, #0
 1352 01e6 4748     		ldr	r0, .L143+12
 1353 01e8 FFF7FEFF 		bl	TIM_CCxNCmd
 1354              	.LVL81:
 1355              		.loc 1 2650 0
 1356 01ec 2022     		movs	r2, #32
 1357 01ee 0821     		movs	r1, #8
 1358 01f0 4448     		ldr	r0, .L143+12
 1359 01f2 FFF7FEFF 		bl	TIM_SelectOCxM
 1360              	.LVL82:
 1361              		.loc 1 2651 0
 1362 01f6 2246     		mov	r2, r4
 1363 01f8 78E7     		b	.L128
 1364              	.LVL83:
 1365              	.L138:
 1366              		.loc 1 2735 0
 1367 01fa 414B     		ldr	r3, .L143+8
 1368 01fc 1D68     		ldr	r5, [r3]
ARM GAS  C:\Users\CHRIST~1\AppData\Local\Temp\ccBtEVpO.s 			page 25


 1369              		.loc 1 2742 0
 1370 01fe 2022     		movs	r2, #32
 1371              		.loc 1 2735 0
 1372 0200 002D     		cmp	r5, #0
 1373 0202 42D0     		beq	.L115
 1374              		.loc 1 2742 0
 1375 0204 0421     		movs	r1, #4
 1376 0206 3F48     		ldr	r0, .L143+12
 1377              	.LVL84:
 1378 0208 FFF7FEFF 		bl	TIM_SelectOCxM
 1379              	.LVL85:
 1380              		.loc 1 2743 0
 1381 020c 0122     		movs	r2, #1
 1382 020e 0421     		movs	r1, #4
 1383 0210 3C48     		ldr	r0, .L143+12
 1384 0212 FFF7FEFF 		bl	TIM_CCxCmd
 1385              	.LVL86:
 1386              		.loc 1 2744 0
 1387 0216 0022     		movs	r2, #0
 1388 0218 0421     		movs	r1, #4
 1389 021a 3A48     		ldr	r0, .L143+12
 1390 021c FFF7FEFF 		bl	TIM_CCxNCmd
 1391              	.LVL87:
 1392              		.loc 1 2747 0
 1393 0220 6022     		movs	r2, #96
 1394 0222 0021     		movs	r1, #0
 1395 0224 3748     		ldr	r0, .L143+12
 1396 0226 FFF7FEFF 		bl	TIM_SelectOCxM
 1397              	.LVL88:
 1398              		.loc 1 2748 0
 1399 022a 0122     		movs	r2, #1
 1400 022c 0021     		movs	r1, #0
 1401 022e 3548     		ldr	r0, .L143+12
 1402 0230 FFF7FEFF 		bl	TIM_CCxCmd
 1403              	.LVL89:
 1404              		.loc 1 2749 0
 1405 0234 2246     		mov	r2, r4
 1406 0236 0021     		movs	r1, #0
 1407              	.L134:
 1408              		.loc 1 2853 0
 1409 0238 3248     		ldr	r0, .L143+12
 1410 023a FFF7FEFF 		bl	TIM_CCxNCmd
 1411              	.LVL90:
 1412              		.loc 1 2856 0
 1413 023e 3246     		mov	r2, r6
 1414 0240 0821     		movs	r1, #8
 1415 0242 3048     		ldr	r0, .L143+12
 1416 0244 FFF7FEFF 		bl	TIM_SelectOCxM
 1417              	.LVL91:
 1418              		.loc 1 2857 0
 1419 0248 0122     		movs	r2, #1
 1420 024a 4FE7     		b	.L128
 1421              	.LVL92:
 1422              	.L139:
 1423              		.loc 1 2777 0
 1424 024c 2C4B     		ldr	r3, .L143+8
 1425 024e 1D68     		ldr	r5, [r3]
ARM GAS  C:\Users\CHRIST~1\AppData\Local\Temp\ccBtEVpO.s 			page 26


 1426              		.loc 1 2784 0
 1427 0250 2022     		movs	r2, #32
 1428              		.loc 1 2777 0
 1429 0252 ADB3     		cbz	r5, .L117
 1430              		.loc 1 2784 0
 1431 0254 0821     		movs	r1, #8
 1432 0256 2B48     		ldr	r0, .L143+12
 1433              	.LVL93:
 1434 0258 FFF7FEFF 		bl	TIM_SelectOCxM
 1435              	.LVL94:
 1436              		.loc 1 2785 0
 1437 025c 0122     		movs	r2, #1
 1438 025e 0821     		movs	r1, #8
 1439 0260 2848     		ldr	r0, .L143+12
 1440 0262 FFF7FEFF 		bl	TIM_CCxCmd
 1441              	.LVL95:
 1442              		.loc 1 2786 0
 1443 0266 0022     		movs	r2, #0
 1444 0268 0821     		movs	r1, #8
 1445 026a 2648     		ldr	r0, .L143+12
 1446 026c FFF7FEFF 		bl	TIM_CCxNCmd
 1447              	.LVL96:
 1448              		.loc 1 2789 0
 1449 0270 6022     		movs	r2, #96
 1450 0272 0021     		movs	r1, #0
 1451 0274 2348     		ldr	r0, .L143+12
 1452 0276 FFF7FEFF 		bl	TIM_SelectOCxM
 1453              	.LVL97:
 1454              		.loc 1 2790 0
 1455 027a 0122     		movs	r2, #1
 1456 027c 0021     		movs	r1, #0
 1457 027e 2148     		ldr	r0, .L143+12
 1458 0280 FFF7FEFF 		bl	TIM_CCxCmd
 1459              	.LVL98:
 1460              		.loc 1 2791 0
 1461 0284 2246     		mov	r2, r4
 1462 0286 0021     		movs	r1, #0
 1463 0288 8EE7     		b	.L130
 1464              	.LVL99:
 1465              	.L115:
 1466              		.loc 1 2762 0
 1467 028a 0821     		movs	r1, #8
 1468 028c 1D48     		ldr	r0, .L143+12
 1469              	.LVL100:
 1470 028e FFF7FEFF 		bl	TIM_SelectOCxM
 1471              	.LVL101:
 1472              		.loc 1 2763 0
 1473 0292 0122     		movs	r2, #1
 1474 0294 0821     		movs	r1, #8
 1475 0296 1B48     		ldr	r0, .L143+12
 1476 0298 FFF7FEFF 		bl	TIM_CCxCmd
 1477              	.LVL102:
 1478              		.loc 1 2764 0
 1479 029c 2A46     		mov	r2, r5
 1480 029e 0821     		movs	r1, #8
 1481 02a0 1848     		ldr	r0, .L143+12
 1482 02a2 FFF7FEFF 		bl	TIM_CCxNCmd
ARM GAS  C:\Users\CHRIST~1\AppData\Local\Temp\ccBtEVpO.s 			page 27


 1483              	.LVL103:
 1484              		.loc 1 2767 0
 1485 02a6 6022     		movs	r2, #96
 1486 02a8 2946     		mov	r1, r5
 1487 02aa 1648     		ldr	r0, .L143+12
 1488 02ac FFF7FEFF 		bl	TIM_SelectOCxM
 1489              	.LVL104:
 1490              		.loc 1 2768 0
 1491 02b0 0122     		movs	r2, #1
 1492 02b2 2946     		mov	r1, r5
 1493 02b4 1348     		ldr	r0, .L143+12
 1494 02b6 FFF7FEFF 		bl	TIM_CCxCmd
 1495              	.LVL105:
 1496              		.loc 1 2769 0
 1497 02ba 2246     		mov	r2, r4
 1498 02bc 2946     		mov	r1, r5
 1499 02be 73E7     		b	.L130
 1500              	.LVL106:
 1501              	.L117:
 1502              		.loc 1 2804 0
 1503 02c0 0421     		movs	r1, #4
 1504 02c2 1048     		ldr	r0, .L143+12
 1505              	.LVL107:
 1506 02c4 FFF7FEFF 		bl	TIM_SelectOCxM
 1507              	.LVL108:
 1508              		.loc 1 2805 0
 1509 02c8 0122     		movs	r2, #1
 1510 02ca 0421     		movs	r1, #4
 1511 02cc 0D48     		ldr	r0, .L143+12
 1512 02ce FFF7FEFF 		bl	TIM_CCxCmd
 1513              	.LVL109:
 1514              		.loc 1 2806 0
 1515 02d2 2A46     		mov	r2, r5
 1516 02d4 0421     		movs	r1, #4
 1517              	.L133:
 1518              		.loc 1 2848 0
 1519 02d6 0B48     		ldr	r0, .L143+12
 1520 02d8 FFF7FEFF 		bl	TIM_CCxNCmd
 1521              	.LVL110:
 1522              		.loc 1 2851 0
 1523 02dc 6022     		movs	r2, #96
 1524 02de 2946     		mov	r1, r5
 1525 02e0 0848     		ldr	r0, .L143+12
 1526 02e2 FFF7FEFF 		bl	TIM_SelectOCxM
 1527              	.LVL111:
 1528              		.loc 1 2852 0
 1529 02e6 0122     		movs	r2, #1
 1530 02e8 2946     		mov	r1, r5
 1531 02ea 0648     		ldr	r0, .L143+12
 1532 02ec FFF7FEFF 		bl	TIM_CCxCmd
 1533              	.LVL112:
 1534              		.loc 1 2853 0
 1535 02f0 2246     		mov	r2, r4
 1536 02f2 2946     		mov	r1, r5
 1537 02f4 A0E7     		b	.L134
 1538              	.L144:
 1539 02f6 00BF     		.align	2
ARM GAS  C:\Users\CHRIST~1\AppData\Local\Temp\ccBtEVpO.s 			page 28


 1540              	.L143:
 1541 02f8 00000000 		.word	.LANCHOR0
 1542 02fc 00000000 		.word	.LANCHOR2
 1543 0300 00000000 		.word	.LANCHOR4
 1544 0304 00000140 		.word	1073807360
 1545              	.LVL113:
 1546              	.L141:
 1547              		.loc 1 2861 0
 1548 0308 534B     		ldr	r3, .L145
 1549 030a 1D68     		ldr	r5, [r3]
 1550              		.loc 1 2868 0
 1551 030c 2022     		movs	r2, #32
 1552              		.loc 1 2861 0
 1553 030e 002D     		cmp	r5, #0
 1554 0310 39D0     		beq	.L121
 1555              		.loc 1 2868 0
 1556 0312 0421     		movs	r1, #4
 1557 0314 5148     		ldr	r0, .L145+4
 1558              	.LVL114:
 1559 0316 FFF7FEFF 		bl	TIM_SelectOCxM
 1560              	.LVL115:
 1561              		.loc 1 2869 0
 1562 031a 0122     		movs	r2, #1
 1563 031c 0421     		movs	r1, #4
 1564 031e 4F48     		ldr	r0, .L145+4
 1565 0320 FFF7FEFF 		bl	TIM_CCxCmd
 1566              	.LVL116:
 1567              		.loc 1 2870 0
 1568 0324 0022     		movs	r2, #0
 1569 0326 0421     		movs	r1, #4
 1570 0328 4C48     		ldr	r0, .L145+4
 1571 032a FFF7FEFF 		bl	TIM_CCxNCmd
 1572              	.LVL117:
 1573              		.loc 1 2873 0
 1574 032e 6022     		movs	r2, #96
 1575 0330 0821     		movs	r1, #8
 1576 0332 4A48     		ldr	r0, .L145+4
 1577 0334 FFF7FEFF 		bl	TIM_SelectOCxM
 1578              	.LVL118:
 1579              		.loc 1 2874 0
 1580 0338 0122     		movs	r2, #1
 1581 033a 0821     		movs	r1, #8
 1582 033c 4748     		ldr	r0, .L145+4
 1583 033e FFF7FEFF 		bl	TIM_CCxCmd
 1584              	.LVL119:
 1585              		.loc 1 2875 0
 1586 0342 2246     		mov	r2, r4
 1587 0344 0821     		movs	r1, #8
 1588              	.L132:
 1589              		.loc 1 2917 0
 1590 0346 4548     		ldr	r0, .L145+4
 1591 0348 FFF7FEFF 		bl	TIM_CCxNCmd
 1592              	.LVL120:
 1593              		.loc 1 2920 0
 1594 034c 3246     		mov	r2, r6
 1595 034e 0021     		movs	r1, #0
 1596 0350 4248     		ldr	r0, .L145+4
ARM GAS  C:\Users\CHRIST~1\AppData\Local\Temp\ccBtEVpO.s 			page 29


 1597 0352 FFF7FEFF 		bl	TIM_SelectOCxM
 1598              	.LVL121:
 1599              		.loc 1 2921 0
 1600 0356 0122     		movs	r2, #1
 1601 0358 0021     		movs	r1, #0
 1602 035a 4048     		ldr	r0, .L145+4
 1603 035c FFF7FEFF 		bl	TIM_CCxCmd
 1604              	.LVL122:
 1605              		.loc 1 2922 0
 1606 0360 0422     		movs	r2, #4
 1607 0362 0021     		movs	r1, #0
 1608 0364 3D48     		ldr	r0, .L145+4
 1609              		.loc 1 2963 0
 1610 0366 BDE8F840 		pop	{r3, r4, r5, r6, r7, lr}
 1611              		.cfi_remember_state
 1612              		.cfi_restore 14
 1613              		.cfi_restore 7
 1614              		.cfi_restore 6
 1615              		.cfi_restore 5
 1616              		.cfi_restore 4
 1617              		.cfi_restore 3
 1618              		.cfi_def_cfa_offset 0
 1619              	.LVL123:
 1620              		.loc 1 2922 0
 1621 036a FFF7FEBF 		b	TIM_CCxNCmd
 1622              	.LVL124:
 1623              	.L119:
 1624              		.cfi_restore_state
 1625              		.loc 1 2846 0
 1626 036e 3946     		mov	r1, r7
 1627 0370 3A48     		ldr	r0, .L145+4
 1628              	.LVL125:
 1629 0372 FFF7FEFF 		bl	TIM_SelectOCxM
 1630              	.LVL126:
 1631              		.loc 1 2847 0
 1632 0376 0122     		movs	r2, #1
 1633 0378 3946     		mov	r1, r7
 1634 037a 3848     		ldr	r0, .L145+4
 1635 037c FFF7FEFF 		bl	TIM_CCxCmd
 1636              	.LVL127:
 1637              		.loc 1 2848 0
 1638 0380 3A46     		mov	r2, r7
 1639 0382 3946     		mov	r1, r7
 1640 0384 A7E7     		b	.L133
 1641              	.LVL128:
 1642              	.L121:
 1643              		.loc 1 2888 0
 1644 0386 0821     		movs	r1, #8
 1645 0388 3448     		ldr	r0, .L145+4
 1646              	.LVL129:
 1647 038a FFF7FEFF 		bl	TIM_SelectOCxM
 1648              	.LVL130:
 1649              		.loc 1 2889 0
 1650 038e 0122     		movs	r2, #1
 1651 0390 0821     		movs	r1, #8
 1652 0392 3248     		ldr	r0, .L145+4
 1653 0394 FFF7FEFF 		bl	TIM_CCxCmd
ARM GAS  C:\Users\CHRIST~1\AppData\Local\Temp\ccBtEVpO.s 			page 30


 1654              	.LVL131:
 1655              		.loc 1 2890 0
 1656 0398 2A46     		mov	r2, r5
 1657 039a 0821     		movs	r1, #8
 1658 039c 2F48     		ldr	r0, .L145+4
 1659 039e FFF7FEFF 		bl	TIM_CCxNCmd
 1660              	.LVL132:
 1661              		.loc 1 2893 0
 1662 03a2 6022     		movs	r2, #96
 1663 03a4 0421     		movs	r1, #4
 1664 03a6 2D48     		ldr	r0, .L145+4
 1665 03a8 FFF7FEFF 		bl	TIM_SelectOCxM
 1666              	.LVL133:
 1667              		.loc 1 2894 0
 1668 03ac 0122     		movs	r2, #1
 1669 03ae 0421     		movs	r1, #4
 1670 03b0 2A48     		ldr	r0, .L145+4
 1671 03b2 FFF7FEFF 		bl	TIM_CCxCmd
 1672              	.LVL134:
 1673              		.loc 1 2895 0
 1674 03b6 2246     		mov	r2, r4
 1675 03b8 0421     		movs	r1, #4
 1676              	.L131:
 1677              		.loc 1 2937 0
 1678 03ba 2848     		ldr	r0, .L145+4
 1679 03bc FFF7FEFF 		bl	TIM_CCxNCmd
 1680              	.LVL135:
 1681              		.loc 1 2940 0
 1682 03c0 3246     		mov	r2, r6
 1683 03c2 C1E6     		b	.L129
 1684              	.LVL136:
 1685              	.L123:
 1686              		.loc 1 2930 0
 1687 03c4 0421     		movs	r1, #4
 1688 03c6 2548     		ldr	r0, .L145+4
 1689              	.LVL137:
 1690 03c8 FFF7FEFF 		bl	TIM_SelectOCxM
 1691              	.LVL138:
 1692              		.loc 1 2931 0
 1693 03cc 0122     		movs	r2, #1
 1694 03ce 0421     		movs	r1, #4
 1695 03d0 2248     		ldr	r0, .L145+4
 1696 03d2 FFF7FEFF 		bl	TIM_CCxCmd
 1697              	.LVL139:
 1698              		.loc 1 2932 0
 1699 03d6 2A46     		mov	r2, r5
 1700 03d8 0421     		movs	r1, #4
 1701 03da 2048     		ldr	r0, .L145+4
 1702 03dc FFF7FEFF 		bl	TIM_CCxNCmd
 1703              	.LVL140:
 1704              		.loc 1 2935 0
 1705 03e0 6022     		movs	r2, #96
 1706 03e2 0821     		movs	r1, #8
 1707 03e4 1D48     		ldr	r0, .L145+4
 1708 03e6 FFF7FEFF 		bl	TIM_SelectOCxM
 1709              	.LVL141:
 1710              		.loc 1 2936 0
ARM GAS  C:\Users\CHRIST~1\AppData\Local\Temp\ccBtEVpO.s 			page 31


 1711 03ea 0122     		movs	r2, #1
 1712 03ec 0821     		movs	r1, #8
 1713 03ee 1B48     		ldr	r0, .L145+4
 1714 03f0 FFF7FEFF 		bl	TIM_CCxCmd
 1715              	.LVL142:
 1716              		.loc 1 2937 0
 1717 03f4 2246     		mov	r2, r4
 1718 03f6 0821     		movs	r1, #8
 1719 03f8 DFE7     		b	.L131
 1720              	.LVL143:
 1721              	.L122:
 1722              		.loc 1 2951 0
 1723 03fa 4022     		movs	r2, #64
 1724 03fc 0021     		movs	r1, #0
 1725 03fe 1748     		ldr	r0, .L145+4
 1726              	.LVL144:
 1727 0400 FFF7FEFF 		bl	TIM_SelectOCxM
 1728              	.LVL145:
 1729              		.loc 1 2952 0
 1730 0404 0122     		movs	r2, #1
 1731 0406 0021     		movs	r1, #0
 1732 0408 1448     		ldr	r0, .L145+4
 1733 040a FFF7FEFF 		bl	TIM_CCxCmd
 1734              	.LVL146:
 1735              		.loc 1 2953 0
 1736 040e 0022     		movs	r2, #0
 1737 0410 1146     		mov	r1, r2
 1738 0412 1248     		ldr	r0, .L145+4
 1739 0414 FFF7FEFF 		bl	TIM_CCxNCmd
 1740              	.LVL147:
 1741              		.loc 1 2955 0
 1742 0418 4022     		movs	r2, #64
 1743 041a 0421     		movs	r1, #4
 1744 041c 0F48     		ldr	r0, .L145+4
 1745 041e FFF7FEFF 		bl	TIM_SelectOCxM
 1746              	.LVL148:
 1747              		.loc 1 2956 0
 1748 0422 0122     		movs	r2, #1
 1749 0424 0421     		movs	r1, #4
 1750 0426 0D48     		ldr	r0, .L145+4
 1751 0428 FFF7FEFF 		bl	TIM_CCxCmd
 1752              	.LVL149:
 1753              		.loc 1 2957 0
 1754 042c 0022     		movs	r2, #0
 1755 042e 0421     		movs	r1, #4
 1756 0430 0A48     		ldr	r0, .L145+4
 1757 0432 FFF7FEFF 		bl	TIM_CCxNCmd
 1758              	.LVL150:
 1759              		.loc 1 2959 0
 1760 0436 4022     		movs	r2, #64
 1761 0438 0821     		movs	r1, #8
 1762 043a 0848     		ldr	r0, .L145+4
 1763 043c FFF7FEFF 		bl	TIM_SelectOCxM
 1764              	.LVL151:
 1765              		.loc 1 2960 0
 1766 0440 0122     		movs	r2, #1
 1767 0442 0821     		movs	r1, #8
ARM GAS  C:\Users\CHRIST~1\AppData\Local\Temp\ccBtEVpO.s 			page 32


 1768 0444 0548     		ldr	r0, .L145+4
 1769 0446 FFF7FEFF 		bl	TIM_CCxCmd
 1770              	.LVL152:
 1771              		.loc 1 2961 0
 1772 044a 0022     		movs	r2, #0
 1773 044c 0821     		movs	r1, #8
 1774 044e 0348     		ldr	r0, .L145+4
 1775              		.loc 1 2963 0
 1776 0450 BDE8F840 		pop	{r3, r4, r5, r6, r7, lr}
 1777              		.cfi_restore 14
 1778              		.cfi_restore 7
 1779              		.cfi_restore 6
 1780              		.cfi_restore 5
 1781              		.cfi_restore 4
 1782              		.cfi_restore 3
 1783              		.cfi_def_cfa_offset 0
 1784              	.LVL153:
 1785              		.loc 1 2961 0
 1786 0454 FFF7FEBF 		b	TIM_CCxNCmd
 1787              	.LVL154:
 1788              	.L146:
 1789              		.align	2
 1790              	.L145:
 1791 0458 00000000 		.word	.LANCHOR4
 1792 045c 00000140 		.word	1073807360
 1793              		.cfi_endproc
 1794              	.LFE322:
 1795              		.size	set_next_comm_step, .-set_next_comm_step
 1796              		.section	.text.full_brake_hw,"ax",%progbits
 1797              		.align	1
 1798              		.p2align 4,,15
 1799              		.syntax unified
 1800              		.thumb
 1801              		.thumb_func
 1802              		.fpu fpv4-sp-d16
 1803              		.type	full_brake_hw, %function
 1804              	full_brake_hw:
 1805              	.LFB291:
 1806              		.loc 1 918 0
 1807              		.cfi_startproc
 1808              		@ args = 0, pretend = 0, frame = 0
 1809              		@ frame_needed = 0, uses_anonymous_args = 0
 1810 0000 10B5     		push	{r4, lr}
 1811              		.cfi_def_cfa_offset 8
 1812              		.cfi_offset 4, -8
 1813              		.cfi_offset 14, -4
 1814              		.loc 1 923 0
 1815 0002 1D4C     		ldr	r4, .L149
 1816 0004 4022     		movs	r2, #64
 1817 0006 2046     		mov	r0, r4
 1818 0008 0021     		movs	r1, #0
 1819 000a FFF7FEFF 		bl	TIM_SelectOCxM
 1820              	.LVL155:
 1821              		.loc 1 924 0
 1822 000e 2046     		mov	r0, r4
 1823 0010 0122     		movs	r2, #1
 1824 0012 0021     		movs	r1, #0
ARM GAS  C:\Users\CHRIST~1\AppData\Local\Temp\ccBtEVpO.s 			page 33


 1825 0014 FFF7FEFF 		bl	TIM_CCxCmd
 1826              	.LVL156:
 1827              		.loc 1 925 0
 1828 0018 2046     		mov	r0, r4
 1829 001a 0422     		movs	r2, #4
 1830 001c 0021     		movs	r1, #0
 1831 001e FFF7FEFF 		bl	TIM_CCxNCmd
 1832              	.LVL157:
 1833              		.loc 1 927 0
 1834 0022 2046     		mov	r0, r4
 1835 0024 4022     		movs	r2, #64
 1836 0026 0421     		movs	r1, #4
 1837 0028 FFF7FEFF 		bl	TIM_SelectOCxM
 1838              	.LVL158:
 1839              		.loc 1 928 0
 1840 002c 2046     		mov	r0, r4
 1841 002e 0122     		movs	r2, #1
 1842 0030 0421     		movs	r1, #4
 1843 0032 FFF7FEFF 		bl	TIM_CCxCmd
 1844              	.LVL159:
 1845              		.loc 1 929 0
 1846 0036 0422     		movs	r2, #4
 1847 0038 2046     		mov	r0, r4
 1848 003a 1146     		mov	r1, r2
 1849 003c FFF7FEFF 		bl	TIM_CCxNCmd
 1850              	.LVL160:
 1851              		.loc 1 931 0
 1852 0040 2046     		mov	r0, r4
 1853 0042 4022     		movs	r2, #64
 1854 0044 0821     		movs	r1, #8
 1855 0046 FFF7FEFF 		bl	TIM_SelectOCxM
 1856              	.LVL161:
 1857              		.loc 1 932 0
 1858 004a 2046     		mov	r0, r4
 1859 004c 0122     		movs	r2, #1
 1860 004e 0821     		movs	r1, #8
 1861 0050 FFF7FEFF 		bl	TIM_CCxCmd
 1862              	.LVL162:
 1863              		.loc 1 933 0
 1864 0054 2046     		mov	r0, r4
 1865 0056 0422     		movs	r2, #4
 1866 0058 0821     		movs	r1, #8
 1867 005a FFF7FEFF 		bl	TIM_CCxNCmd
 1868              	.LVL163:
 1869              		.loc 1 935 0
 1870 005e 2046     		mov	r0, r4
 1871 0060 2021     		movs	r1, #32
 1872 0062 FFF7FEFF 		bl	TIM_GenerateEvent
 1873              	.LVL164:
 1874              		.loc 1 937 0
 1875 0066 054B     		ldr	r3, .L149+4
 1876 0068 1B68     		ldr	r3, [r3]
 1877              		.loc 1 938 0
 1878 006a BDE81040 		pop	{r4, lr}
 1879              		.cfi_restore 14
 1880              		.cfi_restore 4
 1881              		.cfi_def_cfa_offset 0
ARM GAS  C:\Users\CHRIST~1\AppData\Local\Temp\ccBtEVpO.s 			page 34


 1882              		.loc 1 937 0
 1883 006e 93ED5A0A 		vldr.32	s0, [r3, #360]
 1884 0072 FFF7FEBF 		b	set_switching_frequency
 1885              	.LVL165:
 1886              	.L150:
 1887 0076 00BF     		.align	2
 1888              	.L149:
 1889 0078 00000140 		.word	1073807360
 1890 007c 00000000 		.word	.LANCHOR0
 1891              		.cfi_endproc
 1892              	.LFE291:
 1893              		.size	full_brake_hw, .-full_brake_hw
 1894              		.section	.text.stop_pwm_hw,"ax",%progbits
 1895              		.align	1
 1896              		.p2align 4,,15
 1897              		.syntax unified
 1898              		.thumb
 1899              		.thumb_func
 1900              		.fpu fpv4-sp-d16
 1901              		.type	stop_pwm_hw, %function
 1902              	stop_pwm_hw:
 1903              	.LFB289:
 1904              		.loc 1 890 0
 1905              		.cfi_startproc
 1906              		@ args = 0, pretend = 0, frame = 0
 1907              		@ frame_needed = 0, uses_anonymous_args = 0
 1908 0000 10B5     		push	{r4, lr}
 1909              		.cfi_def_cfa_offset 8
 1910              		.cfi_offset 4, -8
 1911              		.cfi_offset 14, -4
 1912              		.loc 1 895 0
 1913 0002 1D4C     		ldr	r4, .L153
 1914 0004 4022     		movs	r2, #64
 1915 0006 2046     		mov	r0, r4
 1916 0008 0021     		movs	r1, #0
 1917 000a FFF7FEFF 		bl	TIM_SelectOCxM
 1918              	.LVL166:
 1919              		.loc 1 896 0
 1920 000e 2046     		mov	r0, r4
 1921 0010 0122     		movs	r2, #1
 1922 0012 0021     		movs	r1, #0
 1923 0014 FFF7FEFF 		bl	TIM_CCxCmd
 1924              	.LVL167:
 1925              		.loc 1 897 0
 1926 0018 0022     		movs	r2, #0
 1927 001a 2046     		mov	r0, r4
 1928 001c 1146     		mov	r1, r2
 1929 001e FFF7FEFF 		bl	TIM_CCxNCmd
 1930              	.LVL168:
 1931              		.loc 1 899 0
 1932 0022 2046     		mov	r0, r4
 1933 0024 4022     		movs	r2, #64
 1934 0026 0421     		movs	r1, #4
 1935 0028 FFF7FEFF 		bl	TIM_SelectOCxM
 1936              	.LVL169:
 1937              		.loc 1 900 0
 1938 002c 2046     		mov	r0, r4
ARM GAS  C:\Users\CHRIST~1\AppData\Local\Temp\ccBtEVpO.s 			page 35


 1939 002e 0122     		movs	r2, #1
 1940 0030 0421     		movs	r1, #4
 1941 0032 FFF7FEFF 		bl	TIM_CCxCmd
 1942              	.LVL170:
 1943              		.loc 1 901 0
 1944 0036 2046     		mov	r0, r4
 1945 0038 0022     		movs	r2, #0
 1946 003a 0421     		movs	r1, #4
 1947 003c FFF7FEFF 		bl	TIM_CCxNCmd
 1948              	.LVL171:
 1949              		.loc 1 903 0
 1950 0040 2046     		mov	r0, r4
 1951 0042 4022     		movs	r2, #64
 1952 0044 0821     		movs	r1, #8
 1953 0046 FFF7FEFF 		bl	TIM_SelectOCxM
 1954              	.LVL172:
 1955              		.loc 1 904 0
 1956 004a 2046     		mov	r0, r4
 1957 004c 0122     		movs	r2, #1
 1958 004e 0821     		movs	r1, #8
 1959 0050 FFF7FEFF 		bl	TIM_CCxCmd
 1960              	.LVL173:
 1961              		.loc 1 905 0
 1962 0054 2046     		mov	r0, r4
 1963 0056 0022     		movs	r2, #0
 1964 0058 0821     		movs	r1, #8
 1965 005a FFF7FEFF 		bl	TIM_CCxNCmd
 1966              	.LVL174:
 1967              		.loc 1 907 0
 1968 005e 2046     		mov	r0, r4
 1969 0060 2021     		movs	r1, #32
 1970 0062 FFF7FEFF 		bl	TIM_GenerateEvent
 1971              	.LVL175:
 1972              		.loc 1 909 0
 1973 0066 054B     		ldr	r3, .L153+4
 1974 0068 1B68     		ldr	r3, [r3]
 1975              		.loc 1 910 0
 1976 006a BDE81040 		pop	{r4, lr}
 1977              		.cfi_restore 14
 1978              		.cfi_restore 4
 1979              		.cfi_def_cfa_offset 0
 1980              		.loc 1 909 0
 1981 006e 93ED5A0A 		vldr.32	s0, [r3, #360]
 1982 0072 FFF7FEBF 		b	set_switching_frequency
 1983              	.LVL176:
 1984              	.L154:
 1985 0076 00BF     		.align	2
 1986              	.L153:
 1987 0078 00000140 		.word	1073807360
 1988 007c 00000000 		.word	.LANCHOR0
 1989              		.cfi_endproc
 1990              	.LFE289:
 1991              		.size	stop_pwm_hw, .-stop_pwm_hw
 1992              		.section	.text.commutate,"ax",%progbits
 1993              		.align	1
 1994              		.p2align 4,,15
 1995              		.syntax unified
ARM GAS  C:\Users\CHRIST~1\AppData\Local\Temp\ccBtEVpO.s 			page 36


 1996              		.thumb
 1997              		.thumb_func
 1998              		.fpu fpv4-sp-d16
 1999              		.type	commutate, %function
 2000              	commutate:
 2001              	.LFB318:
 2002              		.loc 1 2540 0
 2003              		.cfi_startproc
 2004              		@ args = 0, pretend = 0, frame = 24
 2005              		@ frame_needed = 0, uses_anonymous_args = 0
 2006              	.LVL177:
 2007              		.loc 1 2541 0
 2008 0000 2E4B     		ldr	r3, .L171
 2009 0002 2F4A     		ldr	r2, .L171+4
 2010 0004 1968     		ldr	r1, [r3]	@ float
 2011              		.loc 1 2540 0
 2012 0006 F0B5     		push	{r4, r5, r6, r7, lr}
 2013              		.cfi_def_cfa_offset 20
 2014              		.cfi_offset 4, -20
 2015              		.cfi_offset 5, -16
 2016              		.cfi_offset 6, -12
 2017              		.cfi_offset 7, -8
 2018              		.cfi_offset 14, -4
 2019              		.loc 1 2542 0
 2020 0008 2E4C     		ldr	r4, .L171+8
 2021              		.loc 1 2541 0
 2022 000a 1160     		str	r1, [r2]	@ float
 2023              		.loc 1 2542 0
 2024 000c 2168     		ldr	r1, [r4]
 2025 000e 2E4A     		ldr	r2, .L171+12
 2026              		.loc 1 2546 0
 2027 0010 2E4E     		ldr	r6, .L171+16
 2028              		.loc 1 2542 0
 2029 0012 1F68     		ldr	r7, [r3]	@ float
 2030 0014 0139     		subs	r1, r1, #1
 2031 0016 02EB8102 		add	r2, r2, r1, lsl #2
 2032              		.loc 1 2543 0
 2033 001a 0025     		movs	r5, #0
 2034              		.loc 1 2544 0
 2035 001c 2C49     		ldr	r1, .L171+20
 2036              		.loc 1 2542 0
 2037 001e 1760     		str	r7, [r2]	@ float
 2038              		.loc 1 2543 0
 2039 0020 1D60     		str	r5, [r3]	@ float
 2040              		.loc 1 2546 0
 2041 0022 3268     		ldr	r2, [r6]
 2042              		.loc 1 2544 0
 2043 0024 0023     		movs	r3, #0
 2044 0026 0B60     		str	r3, [r1]
 2045              		.loc 1 2546 0
 2046 0028 9378     		ldrb	r3, [r2, #2]	@ zero_extendqisi2
 2047              		.loc 1 2540 0
 2048 002a 87B0     		sub	sp, sp, #28
 2049              		.cfi_def_cfa_offset 48
 2050              		.loc 1 2546 0
 2051 002c 23BB     		cbnz	r3, .L156
 2052              		.loc 1 2546 0 is_stmt 0 discriminator 1
ARM GAS  C:\Users\CHRIST~1\AppData\Local\Temp\ccBtEVpO.s 			page 37


 2053 002e 294B     		ldr	r3, .L171+24
 2054 0030 1B78     		ldrb	r3, [r3]	@ zero_extendqisi2
 2055 0032 0BB3     		cbz	r3, .L156
 2056              		.loc 1 2547 0 is_stmt 1
 2057 0034 2368     		ldr	r3, [r4]
 2058 0036 1844     		add	r0, r0, r3
 2059              	.LVL178:
 2060 0038 2060     		str	r0, [r4]
 2061              		.loc 1 2548 0
 2062 003a 2368     		ldr	r3, [r4]
 2063 003c 062B     		cmp	r3, #6
 2064 003e 0BDD     		ble	.L169
 2065              	.L158:
 2066              		.loc 1 2549 0
 2067 0040 2368     		ldr	r3, [r4]
 2068 0042 063B     		subs	r3, r3, #6
 2069 0044 2360     		str	r3, [r4]
 2070              		.loc 1 2548 0
 2071 0046 2368     		ldr	r3, [r4]
 2072 0048 062B     		cmp	r3, #6
 2073 004a F9DC     		bgt	.L158
 2074              		.loc 1 2551 0
 2075 004c 2368     		ldr	r3, [r4]
 2076 004e 002B     		cmp	r3, #0
 2077 0050 05DC     		bgt	.L170
 2078              	.L160:
 2079              		.loc 1 2552 0
 2080 0052 2368     		ldr	r3, [r4]
 2081 0054 0633     		adds	r3, r3, #6
 2082 0056 2360     		str	r3, [r4]
 2083              	.L169:
 2084              		.loc 1 2551 0
 2085 0058 2368     		ldr	r3, [r4]
 2086 005a 002B     		cmp	r3, #0
 2087 005c F9DD     		ble	.L160
 2088              	.L170:
 2089              		.loc 1 2555 0
 2090 005e FFF7FEFF 		bl	update_rpm_tacho
 2091              	.LVL179:
 2092              		.loc 1 2557 0
 2093 0062 1D4B     		ldr	r3, .L171+28
 2094 0064 1B78     		ldrb	r3, [r3]	@ zero_extendqisi2
 2095 0066 022B     		cmp	r3, #2
 2096 0068 03D0     		beq	.L161
 2097              		.loc 1 2558 0
 2098 006a FFF7FEFF 		bl	update_sensor_mode
 2099              	.LVL180:
 2100              		.loc 1 2578 0
 2101 006e 07B0     		add	sp, sp, #28
 2102              		.cfi_remember_state
 2103              		.cfi_def_cfa_offset 20
 2104              		@ sp needed
 2105 0070 F0BD     		pop	{r4, r5, r6, r7, pc}
 2106              	.L161:
 2107              		.cfi_restore_state
 2108              		.loc 1 2562 0
 2109 0072 2068     		ldr	r0, [r4]
ARM GAS  C:\Users\CHRIST~1\AppData\Local\Temp\ccBtEVpO.s 			page 38


 2110 0074 FFF7FEFF 		bl	set_next_comm_step
 2111              	.LVL181:
 2112              	.L156:
 2113              		.loc 1 2565 0
 2114 0078 2021     		movs	r1, #32
 2115 007a 1848     		ldr	r0, .L171+32
 2116              		.loc 1 2571 0
 2117 007c 184D     		ldr	r5, .L171+36
 2118              		.loc 1 2565 0
 2119 007e FFF7FEFF 		bl	TIM_GenerateEvent
 2120              	.LVL182:
 2121              		.loc 1 2566 0
 2122 0082 184B     		ldr	r3, .L171+40
 2123 0084 0122     		movs	r2, #1
 2124 0086 1A60     		str	r2, [r3]
 2125              		.loc 1 2570 0
 2126 0088 FFF7FEFF 		bl	utils_sys_lock_cnt
 2127              	.LVL183:
 2128              		.loc 1 2571 0
 2129 008c 0FCD     		ldmia	r5!, {r0, r1, r2, r3}
 2130 008e 6C46     		mov	r4, sp
 2131 0090 0FC4     		stmia	r4!, {r0, r1, r2, r3}
 2132 0092 95E80300 		ldm	r5, {r0, r1}
 2133 0096 84E80300 		stm	r4, {r0, r1}
 2134              		.loc 1 2572 0
 2135 009a FFF7FEFF 		bl	utils_sys_unlock_cnt
 2136              	.LVL184:
 2137              		.loc 1 2574 0
 2138 009e 6846     		mov	r0, sp
 2139 00a0 FFF7FEFF 		bl	update_adc_sample_pos
 2140              	.LVL185:
 2141              		.loc 1 2575 0
 2142 00a4 6846     		mov	r0, sp
 2143 00a6 FFF7FEFF 		bl	set_next_timer_settings
 2144              	.LVL186:
 2145              		.loc 1 2576 0
 2146 00aa FFF7FEFF 		bl	update_sensor_mode
 2147              	.LVL187:
 2148              		.loc 1 2577 0
 2149 00ae 0E4B     		ldr	r3, .L171+44
 2150 00b0 3268     		ldr	r2, [r6]
 2151 00b2 1B78     		ldrb	r3, [r3]	@ zero_extendqisi2
 2152 00b4 DBB2     		uxtb	r3, r3
 2153 00b6 5370     		strb	r3, [r2, #1]
 2154              		.loc 1 2578 0
 2155 00b8 07B0     		add	sp, sp, #28
 2156              		.cfi_def_cfa_offset 20
 2157              		@ sp needed
 2158 00ba F0BD     		pop	{r4, r5, r6, r7, pc}
 2159              	.L172:
 2160              		.align	2
 2161              	.L171:
 2162 00bc 00000000 		.word	.LANCHOR14
 2163 00c0 00000000 		.word	.LANCHOR15
 2164 00c4 00000000 		.word	.LANCHOR3
 2165 00c8 00000000 		.word	.LANCHOR16
 2166 00cc 00000000 		.word	.LANCHOR0
ARM GAS  C:\Users\CHRIST~1\AppData\Local\Temp\ccBtEVpO.s 			page 39


 2167 00d0 00000000 		.word	.LANCHOR17
 2168 00d4 00000000 		.word	.LANCHOR11
 2169 00d8 00000000 		.word	.LANCHOR2
 2170 00dc 00000140 		.word	1073807360
 2171 00e0 00000000 		.word	.LANCHOR12
 2172 00e4 00000000 		.word	.LANCHOR18
 2173 00e8 00000000 		.word	.LANCHOR19
 2174              		.cfi_endproc
 2175              	.LFE318:
 2176              		.size	commutate, .-commutate
 2177              		.section	.text.timer_thread,"ax",%progbits
 2178              		.align	1
 2179              		.p2align 4,,15
 2180              		.syntax unified
 2181              		.thumb
 2182              		.thumb_func
 2183              		.fpu fpv4-sp-d16
 2184              		.type	timer_thread, %function
 2185              	timer_thread:
 2186              	.LFB298:
 2187              		.loc 1 1317 0
 2188              		.cfi_startproc
 2189              		@ args = 0, pretend = 0, frame = 0
 2190              		@ frame_needed = 0, uses_anonymous_args = 0
 2191              	.LVL188:
 2192 0000 2DE9F041 		push	{r4, r5, r6, r7, r8, lr}
 2193              		.cfi_def_cfa_offset 24
 2194              		.cfi_offset 4, -24
 2195              		.cfi_offset 5, -20
 2196              		.cfi_offset 6, -16
 2197              		.cfi_offset 7, -12
 2198              		.cfi_offset 8, -8
 2199              		.cfi_offset 14, -4
 2200              	.LBB76:
 2201              	.LBB77:
 2202              		.file 2 "ChibiOS_3.0.2/os/rt/include/chregistry.h"
 2203              		.loc 2 135 0
 2204 0004 7A4B     		ldr	r3, .L225
 2205              	.LBE77:
 2206              	.LBE76:
 2207              	.LBB81:
 2208              		.loc 1 1327 0
 2209 0006 7B4E     		ldr	r6, .L225+4
 2210              	.LBE81:
 2211              	.LBB95:
 2212              	.LBB78:
 2213              		.loc 2 135 0
 2214 0008 9A69     		ldr	r2, [r3, #24]
 2215              	.LBE78:
 2216              	.LBE95:
 2217              	.LBB96:
 2218              		.loc 1 1327 0
 2219 000a 3378     		ldrb	r3, [r6]	@ zero_extendqisi2
 2220              	.LBE96:
 2221              	.LBB97:
 2222              	.LBB79:
 2223              		.loc 2 135 0
ARM GAS  C:\Users\CHRIST~1\AppData\Local\Temp\ccBtEVpO.s 			page 40


 2224 000c 7A49     		ldr	r1, .L225+8
 2225              	.LBE79:
 2226              	.LBE97:
 2227              		.loc 1 1317 0
 2228 000e 2DED068B 		vpush.64	{d8, d9, d10}
 2229              		.cfi_def_cfa_offset 48
 2230              		.cfi_offset 80, -48
 2231              		.cfi_offset 81, -44
 2232              		.cfi_offset 82, -40
 2233              		.cfi_offset 83, -36
 2234              		.cfi_offset 84, -32
 2235              		.cfi_offset 85, -28
 2236              	.LBB98:
 2237              	.LBB80:
 2238              		.loc 2 135 0
 2239 0012 9161     		str	r1, [r2, #24]
 2240              	.LBE80:
 2241              	.LBE98:
 2242              	.LBB99:
 2243              		.loc 1 1327 0
 2244 0014 002B     		cmp	r3, #0
 2245 0016 5DD1     		bne	.L201
 2246 0018 784D     		ldr	r5, .L225+12
 2247 001a 794C     		ldr	r4, .L225+16
 2248              		.loc 1 1404 0
 2249 001c 794F     		ldr	r7, .L225+20
 2250              		.loc 1 1349 0
 2251 001e 9FED7AAA 		vldr.32	s20, .L225+24
 2252              		.loc 1 1348 0
 2253 0022 DFED7A9A 		vldr.32	s19, .L225+28
 2254              		.loc 1 1369 0
 2255 0026 9FED7A9A 		vldr.32	s18, .L225+32
 2256              	.LBB82:
 2257              	.LBB83:
 2258              		.loc 1 749 0
 2259 002a DFED7A8A 		vldr.32	s17, .L225+36
 2260 002e 9FED7A8A 		vldr.32	s16, .L225+40
 2261 0032 06E0     		b	.L174
 2262              	.LVL189:
 2263              	.L220:
 2264              	.LBE83:
 2265              	.LBE82:
 2266              		.loc 1 1409 0
 2267 0034 2360     		str	r3, [r4]
 2268              	.L197:
 2269              		.loc 1 1423 0
 2270 0036 0A20     		movs	r0, #10
 2271 0038 FFF7FEFF 		bl	chThdSleep
 2272              	.LVL190:
 2273              		.loc 1 1327 0
 2274 003c 3378     		ldrb	r3, [r6]	@ zero_extendqisi2
 2275 003e 002B     		cmp	r3, #0
 2276 0040 48D1     		bne	.L201
 2277              	.L174:
 2278              		.loc 1 1332 0
 2279 0042 2B78     		ldrb	r3, [r5]	@ zero_extendqisi2
 2280 0044 03F0FF08 		and	r8, r3, #255
ARM GAS  C:\Users\CHRIST~1\AppData\Local\Temp\ccBtEVpO.s 			page 41


 2281 0048 23B3     		cbz	r3, .L219
 2282              		.loc 1 1404 0
 2283 004a 0023     		movs	r3, #0
 2284 004c 3B60     		str	r3, [r7]
 2285              	.L195:
 2286              		.loc 1 1409 0
 2287 004e 2368     		ldr	r3, [r4]
 2288 0050 0133     		adds	r3, r3, #1
 2289              		.loc 1 1410 0
 2290 0052 092B     		cmp	r3, #9
 2291 0054 EEDD     		ble	.L220
 2292              		.loc 1 1412 0
 2293 0056 2B78     		ldrb	r3, [r5]	@ zero_extendqisi2
 2294              		.loc 1 1411 0
 2295 0058 0022     		movs	r2, #0
 2296              		.loc 1 1412 0
 2297 005a 022B     		cmp	r3, #2
 2298              		.loc 1 1411 0
 2299 005c 2260     		str	r2, [r4]
 2300              		.loc 1 1412 0
 2301 005e 64D0     		beq	.L221
 2302              		.loc 1 1415 0
 2303 0060 2B78     		ldrb	r3, [r5]	@ zero_extendqisi2
 2304 0062 002B     		cmp	r3, #0
 2305 0064 E7D1     		bne	.L197
 2306              		.loc 1 1416 0
 2307 0066 6D4A     		ldr	r2, .L225+44
 2308 0068 6D4B     		ldr	r3, .L225+48
 2309 006a 1268     		ldr	r2, [r2]
 2310 006c 92ED157A 		vldr.32	s14, [r2, #84]
 2311 0070 D3ED007A 		vldr.32	s15, [r3]
 2312 0074 B4EEE77A 		vcmpe.f32	s14, s15
 2313 0078 F1EE10FA 		vmrs	APSR_nzcv, FPSCR
 2314 007c DBD8     		bhi	.L197
 2315              	.LBB87:
 2316              	.LBB84:
 2317              		.loc 1 749 0
 2318 007e 6949     		ldr	r1, .L225+52
 2319 0080 694A     		ldr	r2, .L225+56
 2320 0082 91ED000A 		vldr.32	s0, [r1]
 2321 0086 128A     		ldrh	r2, [r2, #16]
 2322 0088 93ED007A 		vldr.32	s14, [r3]
 2323 008c 07EE902A 		vmov	s15, r2	@ int
 2324              	.LBE84:
 2325              	.LBE87:
 2326              		.loc 1 1417 0
 2327 0090 664A     		ldr	r2, .L225+60
 2328 0092 55E0     		b	.L218
 2329              	.L219:
 2330              		.loc 1 1335 0
 2331 0094 664B     		ldr	r3, .L225+64
 2332 0096 6749     		ldr	r1, .L225+68
 2333 0098 1B68     		ldr	r3, [r3]
 2334 009a 6748     		ldr	r0, .L225+72
 2335 009c 0722     		movs	r2, #7
 2336 009e FFF7FEFF 		bl	filter_run_fir_iteration
 2337              	.LVL191:
ARM GAS  C:\Users\CHRIST~1\AppData\Local\Temp\ccBtEVpO.s 			page 42


 2338              		.loc 1 1339 0
 2339 00a2 5E4B     		ldr	r3, .L225+44
 2340 00a4 1968     		ldr	r1, [r3]
 2341 00a6 8B78     		ldrb	r3, [r1, #2]	@ zero_extendqisi2
 2342 00a8 DBB2     		uxtb	r3, r3
 2343 00aa 012B     		cmp	r3, #1
 2344 00ac 18D0     		beq	.L222
 2345              		.loc 1 1347 0
 2346 00ae 634B     		ldr	r3, .L225+76
 2347 00b0 1B78     		ldrb	r3, [r3]	@ zero_extendqisi2
 2348 00b2 03F0FF00 		and	r0, r3, #255
 2349 00b6 002B     		cmp	r3, #0
 2350 00b8 59D1     		bne	.L223
 2351              		.loc 1 1384 0
 2352 00ba 3B68     		ldr	r3, [r7]
 2353 00bc 0333     		adds	r3, r3, #3
 2354 00be 50DA     		bge	.L190
 2355              		.loc 1 1385 0
 2356 00c0 5F4A     		ldr	r2, .L225+80
 2357 00c2 1368     		ldr	r3, [r2]
 2358 00c4 012B     		cmp	r3, #1
 2359 00c6 00F09080 		beq	.L224
 2360              	.L191:
 2361              		.loc 1 1388 0
 2362 00ca 0123     		movs	r3, #1
 2363 00cc 1360     		str	r3, [r2]
 2364              	.L192:
 2365              		.loc 1 1390 0
 2366 00ce 0023     		movs	r3, #0
 2367 00d0 3B60     		str	r3, [r7]
 2368 00d2 10E0     		b	.L179
 2369              	.LVL192:
 2370              	.L201:
 2371              	.LBE99:
 2372              		.loc 1 1425 0
 2373 00d4 BDEC068B 		vldm	sp!, {d8-d10}
 2374              		.cfi_remember_state
 2375              		.cfi_restore 84
 2376              		.cfi_restore 85
 2377              		.cfi_restore 82
 2378              		.cfi_restore 83
 2379              		.cfi_restore 80
 2380              		.cfi_restore 81
 2381              		.cfi_def_cfa_offset 24
 2382              	.LBB100:
 2383              		.loc 1 1328 0
 2384 00d8 0023     		movs	r3, #0
 2385 00da 3370     		strb	r3, [r6]
 2386              	.LBE100:
 2387              		.loc 1 1425 0
 2388 00dc BDE8F081 		pop	{r4, r5, r6, r7, r8, pc}
 2389              	.LVL193:
 2390              	.L222:
 2391              		.cfi_restore_state
 2392              	.LBB101:
 2393              		.loc 1 1340 0
 2394 00e0 B5EEC00A 		vcmpe.f32	s0, #0
ARM GAS  C:\Users\CHRIST~1\AppData\Local\Temp\ccBtEVpO.s 			page 43


 2395              		.loc 1 1341 0
 2396 00e4 564A     		ldr	r2, .L225+80
 2397              		.loc 1 1340 0
 2398 00e6 F1EE10FA 		vmrs	APSR_nzcv, FPSCR
 2399              		.loc 1 1341 0
 2400 00ea CEBF     		itee	gt
 2401 00ec C2F80080 		strgt	r8, [r2]
 2402              		.loc 1 1344 0
 2403 00f0 B1EE400A 		vnegle.f32	s0, s0
 2404              	.LVL194:
 2405              		.loc 1 1343 0
 2406 00f4 1360     		strle	r3, [r2]
 2407              	.L179:
 2408              		.loc 1 1397 0
 2409 00f6 1368     		ldr	r3, [r2]
 2410              		.loc 1 1398 0
 2411 00f8 4B4A     		ldr	r2, .L225+56
 2412              		.loc 1 1402 0
 2413 00fa 4948     		ldr	r0, .L225+48
 2414              		.loc 1 1398 0
 2415 00fc 128A     		ldrh	r2, [r2, #16]
 2416 00fe 07EE902A 		vmov	s15, r2	@ int
 2417              		.loc 1 1397 0
 2418 0102 012B     		cmp	r3, #1
 2419              		.loc 1 1398 0
 2420 0104 F8EE677A 		vcvt.f32.u32	s15, s15
 2421              		.loc 1 1400 0
 2422 0108 18BF     		it	ne
 2423 010a B1EE400A 		vnegne.f32	s0, s0
 2424              	.LVL195:
 2425 010e 80EE277A 		vdiv.f32	s14, s0, s15
 2426              		.loc 1 1398 0
 2427 0112 434B     		ldr	r3, .L225+48
 2428              		.loc 1 1400 0
 2429 0114 83ED007A 		vstr.32	s14, [r3]
 2430              		.loc 1 1402 0
 2431 0118 91ED160A 		vldr.32	s0, [r1, #88]
 2432 011c D1ED160A 		vldr.32	s1, [r1, #88]
 2433 0120 B1EE400A 		vneg.f32	s0, s0
 2434 0124 FFF7FEFF 		bl	utils_truncate_number
 2435              	.LVL196:
 2436 0128 91E7     		b	.L195
 2437              	.L221:
 2438              	.LBB88:
 2439              	.LBB89:
 2440              		.loc 1 749 0
 2441 012a 3E4A     		ldr	r2, .L225+52
 2442 012c 3E4B     		ldr	r3, .L225+56
 2443 012e 92ED000A 		vldr.32	s0, [r2]
 2444 0132 1B8A     		ldrh	r3, [r3, #16]
 2445              	.LBE89:
 2446              	.LBE88:
 2447              		.loc 1 1413 0
 2448 0134 3D4A     		ldr	r2, .L225+60
 2449              	.LBB91:
 2450              	.LBB90:
 2451              		.loc 1 749 0
ARM GAS  C:\Users\CHRIST~1\AppData\Local\Temp\ccBtEVpO.s 			page 44


 2452 0136 07EE903A 		vmov	s15, r3	@ int
 2453 013a 394B     		ldr	r3, .L225+48
 2454 013c 93ED007A 		vldr.32	s14, [r3]
 2455              	.L218:
 2456              	.LBE90:
 2457              	.LBE91:
 2458              		.loc 1 1417 0
 2459 0140 4048     		ldr	r0, .L225+84
 2460              	.LBB92:
 2461              	.LBB85:
 2462              		.loc 1 749 0
 2463 0142 F8EE677A 		vcvt.f32.u32	s15, s15
 2464 0146 B0EEC77A 		vabs.f32	s14, s14
 2465 014a 67EEA87A 		vmul.f32	s15, s15, s17
 2466              	.LBE85:
 2467              	.LBE92:
 2468              		.loc 1 1417 0
 2469 014e 0721     		movs	r1, #7
 2470              	.LBB93:
 2471              	.LBB86:
 2472              		.loc 1 749 0
 2473 0150 67EE887A 		vmul.f32	s15, s15, s16
 2474 0154 67EE877A 		vmul.f32	s15, s15, s14
 2475              	.LBE86:
 2476              	.LBE93:
 2477              		.loc 1 1417 0
 2478 0158 80EE270A 		vdiv.f32	s0, s0, s15
 2479 015c FFF7FEFF 		bl	filter_add_sample
 2480              	.LVL197:
 2481 0160 69E7     		b	.L197
 2482              	.LVL198:
 2483              	.L190:
 2484              		.loc 1 1391 0
 2485 0162 3B68     		ldr	r3, [r7]
 2486 0164 364A     		ldr	r2, .L225+80
 2487 0166 002B     		cmp	r3, #0
 2488              		.loc 1 1392 0
 2489 0168 C8BF     		it	gt
 2490 016a 3860     		strgt	r0, [r7]
 2491 016c C3E7     		b	.L179
 2492              	.L223:
 2493 016e DFF8D8C0 		ldr	ip, .L225+88
 2494              		.loc 1 1349 0
 2495 0172 F0EE4A7A 		vmov.f32	s15, s20
 2496              		.loc 1 1348 0
 2497 0176 F0EE696A 		vmov.f32	s13, s19
 2498              	.LBB94:
 2499              		.loc 1 1351 0
 2500 017a 4346     		mov	r3, r8
 2501              	.L185:
 2502              	.LVL199:
 2503              		.loc 1 1352 0
 2504 017c 9A00     		lsls	r2, r3, #2
 2505 017e 0CEB0200 		add	r0, ip, r2
 2506 0182 90ED007A 		vldr.32	s14, [r0]
 2507 0186 B4EEE67A 		vcmpe.f32	s14, s13
 2508 018a F1EE10FA 		vmrs	APSR_nzcv, FPSCR
ARM GAS  C:\Users\CHRIST~1\AppData\Local\Temp\ccBtEVpO.s 			page 45


 2509              		.loc 1 1353 0
 2510 018e 48BF     		it	mi
 2511 0190 D0ED006A 		vldrmi.32	s13, [r0]
 2512              	.LVL200:
 2513              		.loc 1 1356 0
 2514 0194 90ED007A 		vldr.32	s14, [r0]
 2515 0198 B4EEE77A 		vcmpe.f32	s14, s15
 2516 019c F1EE10FA 		vmrs	APSR_nzcv, FPSCR
 2517              		.loc 1 1351 0
 2518 01a0 03F10103 		add	r3, r3, #1
 2519              	.LVL201:
 2520              		.loc 1 1357 0
 2521 01a4 C8BF     		it	gt
 2522 01a6 D0ED007A 		vldrgt.32	s15, [r0]
 2523              	.LVL202:
 2524              		.loc 1 1351 0
 2525 01aa 062B     		cmp	r3, #6
 2526 01ac E6D1     		bne	.L185
 2527              	.LBE94:
 2528              		.loc 1 1369 0
 2529 01ae 36EEA77A 		vadd.f32	s14, s13, s15
 2530 01b2 B6EE006A 		vmov.f32	s12, #5.0e-1
 2531 01b6 77EEE67A 		vsub.f32	s15, s15, s13
 2532              	.LVL203:
 2533 01ba 27EE067A 		vmul.f32	s14, s14, s12
 2534 01be C7EE876A 		vdiv.f32	s13, s15, s14
 2535              	.LVL204:
 2536 01c2 F4EEC96A 		vcmpe.f32	s13, s18
 2537 01c6 F1EE10FA 		vmrs	APSR_nzcv, FPSCR
 2538 01ca 0ADD     		ble	.L213
 2539              		.loc 1 1370 0
 2540 01cc 3B68     		ldr	r3, [r7]
 2541              	.LVL205:
 2542              		.loc 1 1371 0
 2543 01ce 1C4A     		ldr	r2, .L225+80
 2544              		.loc 1 1370 0
 2545 01d0 0C2B     		cmp	r3, #12
 2546 01d2 90DD     		ble	.L179
 2547              		.loc 1 1371 0
 2548 01d4 1368     		ldr	r3, [r2]
 2549 01d6 012B     		cmp	r3, #1
 2550 01d8 7FF477AF 		bne	.L191
 2551              		.loc 1 1372 0
 2552 01dc 0023     		movs	r3, #0
 2553 01de 1360     		str	r3, [r2]
 2554 01e0 75E7     		b	.L192
 2555              	.LVL206:
 2556              	.L213:
 2557              		.loc 1 1379 0
 2558 01e2 0023     		movs	r3, #0
 2559              	.LVL207:
 2560 01e4 3B60     		str	r3, [r7]
 2561 01e6 164A     		ldr	r2, .L225+80
 2562 01e8 85E7     		b	.L179
 2563              	.L224:
 2564              		.loc 1 1386 0
 2565 01ea 1060     		str	r0, [r2]
ARM GAS  C:\Users\CHRIST~1\AppData\Local\Temp\ccBtEVpO.s 			page 46


 2566 01ec 6FE7     		b	.L192
 2567              	.L226:
 2568 01ee 00BF     		.align	2
 2569              	.L225:
 2570 01f0 00000000 		.word	ch
 2571 01f4 00000000 		.word	.LANCHOR20
 2572 01f8 00000000 		.word	.LC1
 2573 01fc 00000000 		.word	.LANCHOR2
 2574 0200 00000000 		.word	.LANCHOR25
 2575 0204 00000000 		.word	.LANCHOR7
 2576 0208 00000000 		.word	0
 2577 020c E7841155 		.word	1427211495
 2578 0210 9A99993F 		.word	1067030938
 2579 0214 6740533A 		.word	978534503
 2580 0218 74D19541 		.word	1100337524
 2581 021c 00000000 		.word	.LANCHOR0
 2582 0220 00000000 		.word	.LANCHOR24
 2583 0224 00000000 		.word	.LANCHOR10
 2584 0228 00000000 		.word	ADC_Value
 2585 022c 00000000 		.word	.LANCHOR26
 2586 0230 00000000 		.word	.LANCHOR21
 2587 0234 00000000 		.word	.LANCHOR22
 2588 0238 00000000 		.word	.LANCHOR23
 2589 023c 00000000 		.word	.LANCHOR11
 2590 0240 00000000 		.word	.LANCHOR4
 2591 0244 00000000 		.word	.LANCHOR27
 2592 0248 00000000 		.word	.LANCHOR16
 2593              	.LBE101:
 2594              		.cfi_endproc
 2595              	.LFE298:
 2596              		.size	timer_thread, .-timer_thread
 2597              		.section	.text.mcpwm_deinit,"ax",%progbits
 2598              		.align	1
 2599              		.p2align 4,,15
 2600              		.global	mcpwm_deinit
 2601              		.syntax unified
 2602              		.thumb
 2603              		.thumb_func
 2604              		.fpu fpv4-sp-d16
 2605              		.type	mcpwm_deinit, %function
 2606              	mcpwm_deinit:
 2607              	.LFB260:
 2608              		.loc 1 476 0
 2609              		.cfi_startproc
 2610              		@ args = 0, pretend = 0, frame = 0
 2611              		@ frame_needed = 0, uses_anonymous_args = 0
 2612 0000 38B5     		push	{r3, r4, r5, lr}
 2613              		.cfi_def_cfa_offset 16
 2614              		.cfi_offset 3, -16
 2615              		.cfi_offset 4, -12
 2616              		.cfi_offset 5, -8
 2617              		.cfi_offset 14, -4
 2618              		.loc 1 477 0
 2619 0002 174B     		ldr	r3, .L231
 2620              		.loc 1 481 0
 2621 0004 174C     		ldr	r4, .L231+4
 2622              		.loc 1 482 0
ARM GAS  C:\Users\CHRIST~1\AppData\Local\Temp\ccBtEVpO.s 			page 47


 2623 0006 184D     		ldr	r5, .L231+8
 2624              		.loc 1 477 0
 2625 0008 0022     		movs	r2, #0
 2626 000a 1A70     		strb	r2, [r3]
 2627              		.loc 1 479 0
 2628 000c FFF7FEFF 		bl	WWDG_DeInit
 2629              	.LVL208:
 2630              		.loc 1 481 0
 2631 0010 0123     		movs	r3, #1
 2632 0012 2370     		strb	r3, [r4]
 2633              		.loc 1 482 0
 2634 0014 2B70     		strb	r3, [r5]
 2635              		.loc 1 484 0
 2636 0016 01E0     		b	.L228
 2637              	.L229:
 2638              		.loc 1 485 0
 2639 0018 FFF7FEFF 		bl	chThdSleep
 2640              	.LVL209:
 2641              	.L228:
 2642              		.loc 1 484 0
 2643 001c 2378     		ldrb	r3, [r4]	@ zero_extendqisi2
 2644              		.loc 1 485 0
 2645 001e 0A20     		movs	r0, #10
 2646              		.loc 1 484 0
 2647 0020 002B     		cmp	r3, #0
 2648 0022 F9D1     		bne	.L229
 2649              		.loc 1 484 0 is_stmt 0 discriminator 1
 2650 0024 2B78     		ldrb	r3, [r5]	@ zero_extendqisi2
 2651 0026 002B     		cmp	r3, #0
 2652 0028 F6D1     		bne	.L229
 2653              		.loc 1 488 0 is_stmt 1
 2654 002a 1048     		ldr	r0, .L231+12
 2655 002c FFF7FEFF 		bl	TIM_DeInit
 2656              	.LVL210:
 2657              		.loc 1 489 0
 2658 0030 4FF08040 		mov	r0, #1073741824
 2659 0034 FFF7FEFF 		bl	TIM_DeInit
 2660              	.LVL211:
 2661              		.loc 1 490 0
 2662 0038 0D48     		ldr	r0, .L231+16
 2663 003a FFF7FEFF 		bl	TIM_DeInit
 2664              	.LVL212:
 2665              		.loc 1 491 0
 2666 003e 0D48     		ldr	r0, .L231+20
 2667 0040 FFF7FEFF 		bl	TIM_DeInit
 2668              	.LVL213:
 2669              		.loc 1 492 0
 2670 0044 FFF7FEFF 		bl	ADC_DeInit
 2671              	.LVL214:
 2672              		.loc 1 493 0
 2673 0048 0B48     		ldr	r0, .L231+24
 2674 004a FFF7FEFF 		bl	DMA_DeInit
 2675              	.LVL215:
 2676              		.loc 1 494 0
 2677 004e 1220     		movs	r0, #18
 2678 0050 FFF7FEFF 		bl	nvicDisableVector
 2679              	.LVL216:
ARM GAS  C:\Users\CHRIST~1\AppData\Local\Temp\ccBtEVpO.s 			page 48


 2680              		.loc 1 495 0
 2681 0054 0948     		ldr	r0, .L231+28
 2682              		.loc 1 496 0
 2683 0056 BDE83840 		pop	{r3, r4, r5, lr}
 2684              		.cfi_restore 14
 2685              		.cfi_restore 5
 2686              		.cfi_restore 4
 2687              		.cfi_restore 3
 2688              		.cfi_def_cfa_offset 0
 2689              		.loc 1 495 0
 2690 005a FFF7FEBF 		b	dmaStreamRelease
 2691              	.LVL217:
 2692              	.L232:
 2693 005e 00BF     		.align	2
 2694              	.L231:
 2695 0060 00000000 		.word	.LANCHOR28
 2696 0064 00000000 		.word	.LANCHOR20
 2697 0068 00000000 		.word	.LANCHOR29
 2698 006c 00000140 		.word	1073807360
 2699 0070 00040140 		.word	1073808384
 2700 0074 00180040 		.word	1073747968
 2701 0078 70640240 		.word	1073898608
 2702 007c 90000000 		.word	_stm32_dma_streams+144
 2703              		.cfi_endproc
 2704              	.LFE260:
 2705              		.size	mcpwm_deinit, .-mcpwm_deinit
 2706              		.section	.text.mcpwm_init_done,"ax",%progbits
 2707              		.align	1
 2708              		.p2align 4,,15
 2709              		.global	mcpwm_init_done
 2710              		.syntax unified
 2711              		.thumb
 2712              		.thumb_func
 2713              		.fpu fpv4-sp-d16
 2714              		.type	mcpwm_init_done, %function
 2715              	mcpwm_init_done:
 2716              	.LFB261:
 2717              		.loc 1 498 0
 2718              		.cfi_startproc
 2719              		@ args = 0, pretend = 0, frame = 0
 2720              		@ frame_needed = 0, uses_anonymous_args = 0
 2721              		@ link register save eliminated.
 2722              		.loc 1 499 0
 2723 0000 014B     		ldr	r3, .L234
 2724 0002 1878     		ldrb	r0, [r3]	@ zero_extendqisi2
 2725              		.loc 1 500 0
 2726 0004 7047     		bx	lr
 2727              	.L235:
 2728 0006 00BF     		.align	2
 2729              	.L234:
 2730 0008 00000000 		.word	.LANCHOR28
 2731              		.cfi_endproc
 2732              	.LFE261:
 2733              		.size	mcpwm_init_done, .-mcpwm_init_done
 2734              		.section	.text.mcpwm_init_hall_table,"ax",%progbits
 2735              		.align	1
 2736              		.p2align 4,,15
ARM GAS  C:\Users\CHRIST~1\AppData\Local\Temp\ccBtEVpO.s 			page 49


 2737              		.global	mcpwm_init_hall_table
 2738              		.syntax unified
 2739              		.thumb
 2740              		.thumb_func
 2741              		.fpu fpv4-sp-d16
 2742              		.type	mcpwm_init_hall_table, %function
 2743              	mcpwm_init_hall_table:
 2744              	.LFB263:
 2745              		.loc 1 521 0
 2746              		.cfi_startproc
 2747              		@ args = 0, pretend = 0, frame = 32
 2748              		@ frame_needed = 0, uses_anonymous_args = 0
 2749              		@ link register save eliminated.
 2750              	.LVL218:
 2751 0000 F0B4     		push	{r4, r5, r6, r7}
 2752              		.cfi_def_cfa_offset 16
 2753              		.cfi_offset 4, -16
 2754              		.cfi_offset 5, -12
 2755              		.cfi_offset 6, -8
 2756              		.cfi_offset 7, -4
 2757              		.loc 1 522 0
 2758 0002 0F4F     		ldr	r7, .L243
 2759 0004 0F4C     		ldr	r4, .L243+4
 2760              		.loc 1 521 0
 2761 0006 0546     		mov	r5, r0
 2762              		.loc 1 522 0
 2763 0008 0FCF     		ldmia	r7!, {r0, r1, r2, r3}
 2764              	.LVL219:
 2765              		.loc 1 521 0
 2766 000a 88B0     		sub	sp, sp, #32
 2767              		.cfi_def_cfa_offset 48
 2768              		.loc 1 522 0
 2769 000c 01AE     		add	r6, sp, #4
 2770 000e 0FC6     		stmia	r6!, {r0, r1, r2, r3}
 2771 0010 97E80700 		ldm	r7, {r0, r1, r2}
 2772 0014 86E80700 		stm	r6, {r0, r1, r2}
 2773              	.LVL220:
 2774 0018 6A1E     		subs	r2, r5, #1
 2775 001a E81D     		adds	r0, r5, #7
 2776              	.LVL221:
 2777              	.L239:
 2778              	.LBB102:
 2779              	.LBB103:
 2780              		.loc 1 525 0
 2781 001c 12F9013F 		ldrsb	r3, [r2, #1]!
 2782              	.LVL222:
 2783 0020 44F8043B 		str	r3, [r4], #4
 2784              	.LVL223:
 2785              		.loc 1 533 0
 2786 0024 08A9     		add	r1, sp, #32
 2787 0026 01EB8301 		add	r1, r1, r3, lsl #2
 2788              		.loc 1 528 0
 2789 002a 002B     		cmp	r3, #0
 2790              		.loc 1 533 0
 2791 002c C8BF     		it	gt
 2792 002e 51F81C3C 		ldrgt	r3, [r1, #-28]
 2793              	.LVL224:
ARM GAS  C:\Users\CHRIST~1\AppData\Local\Temp\ccBtEVpO.s 			page 50


 2794 0032 44F8243C 		str	r3, [r4, #-36]
 2795              	.LVL225:
 2796              	.LBE103:
 2797              		.loc 1 524 0
 2798 0036 8242     		cmp	r2, r0
 2799 0038 F0D1     		bne	.L239
 2800              	.LBE102:
 2801              		.loc 1 535 0
 2802 003a 08B0     		add	sp, sp, #32
 2803              		.cfi_def_cfa_offset 16
 2804              		@ sp needed
 2805 003c F0BC     		pop	{r4, r5, r6, r7}
 2806              		.cfi_restore 7
 2807              		.cfi_restore 6
 2808              		.cfi_restore 5
 2809              		.cfi_restore 4
 2810              		.cfi_def_cfa_offset 0
 2811              	.LVL226:
 2812 003e 7047     		bx	lr
 2813              	.L244:
 2814              		.align	2
 2815              	.L243:
 2816 0040 00000000 		.word	.LANCHOR30
 2817 0044 20000000 		.word	.LANCHOR31+32
 2818              		.cfi_endproc
 2819              	.LFE263:
 2820              		.size	mcpwm_init_hall_table, .-mcpwm_init_hall_table
 2821              		.section	.text.mcpwm_init,"ax",%progbits
 2822              		.align	1
 2823              		.p2align 4,,15
 2824              		.global	mcpwm_init
 2825              		.syntax unified
 2826              		.thumb
 2827              		.thumb_func
 2828              		.fpu fpv4-sp-d16
 2829              		.type	mcpwm_init, %function
 2830              	mcpwm_init:
 2831              	.LFB259:
 2832              		.loc 1 163 0
 2833              		.cfi_startproc
 2834              		@ args = 0, pretend = 0, frame = 176
 2835              		@ frame_needed = 0, uses_anonymous_args = 0
 2836              	.LVL227:
 2837 0000 2DE9F04F 		push	{r4, r5, r6, r7, r8, r9, r10, fp, lr}
 2838              		.cfi_def_cfa_offset 36
 2839              		.cfi_offset 4, -36
 2840              		.cfi_offset 5, -32
 2841              		.cfi_offset 6, -28
 2842              		.cfi_offset 7, -24
 2843              		.cfi_offset 8, -20
 2844              		.cfi_offset 9, -16
 2845              		.cfi_offset 10, -12
 2846              		.cfi_offset 11, -8
 2847              		.cfi_offset 14, -4
 2848              		.loc 1 172 0
 2849 0004 C74C     		ldr	r4, .L253
 2850              		.loc 1 166 0
ARM GAS  C:\Users\CHRIST~1\AppData\Local\Temp\ccBtEVpO.s 			page 51


 2851 0006 DFF8CCB3 		ldr	fp, .L253+176
 2852              		.loc 1 176 0
 2853 000a DFF8CCA3 		ldr	r10, .L253+180
 2854              		.loc 1 191 0
 2855 000e DFF8CC93 		ldr	r9, .L253+184
 2856              		.loc 1 219 0
 2857 0012 C54E     		ldr	r6, .L253+4
 2858              		.loc 1 220 0
 2859 0014 C54F     		ldr	r7, .L253+8
 2860              		.loc 1 163 0
 2861 0016 AFB0     		sub	sp, sp, #188
 2862              		.cfi_def_cfa_offset 224
 2863              		.loc 1 163 0
 2864 0018 8046     		mov	r8, r0
 2865              		.loc 1 164 0
 2866 001a FFF7FEFF 		bl	utils_sys_lock_cnt
 2867              	.LVL228:
 2868              		.loc 1 175 0
 2869 001e C44B     		ldr	r3, .L253+12
 2870              		.loc 1 172 0
 2871 0020 C4F80080 		str	r8, [r4]
 2872              		.loc 1 175 0
 2873 0024 0125     		movs	r5, #1
 2874              		.loc 1 166 0
 2875 0026 0024     		movs	r4, #0
 2876 0028 8BF80040 		strb	r4, [fp]
 2877              		.loc 1 178 0
 2878 002c DFEDC17A 		vldr.32	s15, .L253+16
 2879              		.loc 1 175 0
 2880 0030 1D60     		str	r5, [r3]
 2881              		.loc 1 177 0
 2882 0032 DFF8ACE3 		ldr	lr, .L253+188
 2883              		.loc 1 178 0
 2884 0036 DFF8ACC3 		ldr	ip, .L253+192
 2885              		.loc 1 179 0
 2886 003a BF48     		ldr	r0, .L253+20
 2887              		.loc 1 180 0
 2888 003c BF49     		ldr	r1, .L253+24
 2889              		.loc 1 181 0
 2890 003e C04A     		ldr	r2, .L253+28
 2891              		.loc 1 182 0
 2892 0040 C04B     		ldr	r3, .L253+32
 2893              		.loc 1 176 0
 2894 0042 CAF80040 		str	r4, [r10]
 2895              		.loc 1 177 0
 2896 0046 CEF80050 		str	r5, [lr]
 2897              		.loc 1 178 0
 2898 004a CCED007A 		vstr.32	s15, [ip]
 2899              		.loc 1 183 0
 2900 004e DFF898E3 		ldr	lr, .L253+196
 2901              		.loc 1 179 0
 2902 0052 C0ED007A 		vstr.32	s15, [r0]
 2903              		.loc 1 180 0
 2904 0056 C1ED007A 		vstr.32	s15, [r1]
 2905              		.loc 1 181 0
 2906 005a C2ED007A 		vstr.32	s15, [r2]
 2907              		.loc 1 182 0
ARM GAS  C:\Users\CHRIST~1\AppData\Local\Temp\ccBtEVpO.s 			page 52


 2908 005e C3ED007A 		vstr.32	s15, [r3]
 2909              		.loc 1 184 0
 2910 0062 B94B     		ldr	r3, .L253+36
 2911              		.loc 1 183 0
 2912 0064 CEED007A 		vstr.32	s15, [lr]
 2913              		.loc 1 184 0
 2914 0068 1C60     		str	r4, [r3]
 2915              		.loc 1 185 0
 2916 006a B84B     		ldr	r3, .L253+40
 2917              		.loc 1 186 0
 2918 006c DFF87CC3 		ldr	ip, .L253+200
 2919              		.loc 1 185 0
 2920 0070 1C60     		str	r4, [r3]
 2921              		.loc 1 187 0
 2922 0072 B748     		ldr	r0, .L253+44
 2923              		.loc 1 188 0
 2924 0074 B749     		ldr	r1, .L253+48
 2925              		.loc 1 189 0
 2926 0076 B84A     		ldr	r2, .L253+52
 2927              		.loc 1 190 0
 2928 0078 B84B     		ldr	r3, .L253+56
 2929              		.loc 1 186 0
 2930 007a CCF80040 		str	r4, [ip]
 2931              		.loc 1 188 0
 2932 007e 4FF0070A 		mov	r10, #7
 2933              		.loc 1 187 0
 2934 0082 0470     		strb	r4, [r0]
 2935              		.loc 1 188 0
 2936 0084 81F800A0 		strb	r10, [r1]
 2937              		.loc 1 189 0
 2938 0088 C2ED007A 		vstr.32	s15, [r2]
 2939              		.loc 1 190 0
 2940 008c C3ED007A 		vstr.32	s15, [r3]
 2941              		.loc 1 191 0
 2942 0090 D8F86831 		ldr	r3, [r8, #360]	@ float
 2943 0094 C9F80030 		str	r3, [r9]	@ float
 2944              		.loc 1 192 0
 2945 0098 DFF854C3 		ldr	ip, .L253+204
 2946              		.loc 1 196 0
 2947 009c B04B     		ldr	r3, .L253+60
 2948              		.loc 1 193 0
 2949 009e B149     		ldr	r1, .L253+64
 2950              		.loc 1 194 0
 2951 00a0 B14A     		ldr	r2, .L253+68
 2952              		.loc 1 195 0
 2953 00a2 B248     		ldr	r0, .L253+72
 2954              		.loc 1 197 0
 2955 00a4 DFF84CE3 		ldr	lr, .L253+208
 2956              		.loc 1 192 0
 2957 00a8 CCF80040 		str	r4, [ip]
 2958              		.loc 1 201 0
 2959 00ac DFF848C3 		ldr	ip, .L253+212
 2960              		.loc 1 193 0
 2961 00b0 0C60     		str	r4, [r1]
 2962              		.loc 1 194 0
 2963 00b2 1460     		str	r4, [r2]
 2964              		.loc 1 198 0
ARM GAS  C:\Users\CHRIST~1\AppData\Local\Temp\ccBtEVpO.s 			page 53


 2965 00b4 AE49     		ldr	r1, .L253+76
 2966              		.loc 1 195 0
 2967 00b6 0460     		str	r4, [r0]
 2968              		.loc 1 199 0
 2969 00b8 AE4A     		ldr	r2, .L253+80
 2970              		.loc 1 196 0
 2971 00ba 1C60     		str	r4, [r3]
 2972              		.loc 1 200 0
 2973 00bc AE48     		ldr	r0, .L253+84
 2974              		.loc 1 196 0
 2975 00be 5C60     		str	r4, [r3, #4]
 2976 00c0 9C60     		str	r4, [r3, #8]
 2977 00c2 DC60     		str	r4, [r3, #12]
 2978 00c4 1C61     		str	r4, [r3, #16]
 2979 00c6 5C61     		str	r4, [r3, #20]
 2980 00c8 9C61     		str	r4, [r3, #24]
 2981              		.loc 1 202 0
 2982 00ca AC4B     		ldr	r3, .L253+88
 2983              		.loc 1 197 0
 2984 00cc CEED007A 		vstr.32	s15, [lr]
 2985              		.loc 1 198 0
 2986 00d0 C1ED007A 		vstr.32	s15, [r1]
 2987              		.loc 1 199 0
 2988 00d4 C2ED007A 		vstr.32	s15, [r2]
 2989              		.loc 1 200 0
 2990 00d8 0460     		str	r4, [r0]
 2991              		.loc 1 201 0
 2992 00da CCED007A 		vstr.32	s15, [ip]
 2993              		.loc 1 202 0
 2994 00de 1C60     		str	r4, [r3]
 2995 00e0 5C60     		str	r4, [r3, #4]
 2996 00e2 9C60     		str	r4, [r3, #8]
 2997 00e4 DC60     		str	r4, [r3, #12]
 2998 00e6 1C61     		str	r4, [r3, #16]
 2999 00e8 5C61     		str	r4, [r3, #20]
 3000              		.loc 1 203 0
 3001 00ea A54B     		ldr	r3, .L253+92
 3002              		.loc 1 204 0
 3003 00ec A548     		ldr	r0, .L253+96
 3004              		.loc 1 203 0
 3005 00ee 1C70     		strb	r4, [r3]
 3006              		.loc 1 204 0
 3007 00f0 2146     		mov	r1, r4
 3008 00f2 E022     		movs	r2, #224
 3009 00f4 FFF7FEFF 		bl	memset
 3010              	.LVL229:
 3011              		.loc 1 205 0
 3012 00f8 FFF7FEFF 		bl	update_sensor_mode
 3013              	.LVL230:
 3014              		.loc 1 206 0
 3015 00fc 98F80130 		ldrb	r3, [r8, #1]	@ zero_extendqisi2
 3016 0100 A14A     		ldr	r2, .L253+100
 3017 0102 DBB2     		uxtb	r3, r3
 3018              		.loc 1 208 0
 3019 0104 08F19800 		add	r0, r8, #152
 3020              		.loc 1 206 0
 3021 0108 1370     		strb	r3, [r2]
ARM GAS  C:\Users\CHRIST~1\AppData\Local\Temp\ccBtEVpO.s 			page 54


 3022              		.loc 1 208 0
 3023 010a FFF7FEFF 		bl	mcpwm_init_hall_table
 3024              	.LVL231:
 3025              		.loc 1 211 0
 3026 010e 2A46     		mov	r2, r5
 3027 0110 5146     		mov	r1, r10
 3028 0112 9FED9E0A 		vldr.32	s0, .L253+104
 3029 0116 9E48     		ldr	r0, .L253+108
 3030 0118 FFF7FEFF 		bl	filter_create_fir_lowpass
 3031              	.LVL232:
 3032              		.loc 1 214 0
 3033 011c 2A46     		mov	r2, r5
 3034 011e 5146     		mov	r1, r10
 3035 0120 9FED9A0A 		vldr.32	s0, .L253+104
 3036 0124 9B48     		ldr	r0, .L253+112
 3037 0126 FFF7FEFF 		bl	filter_create_fir_lowpass
 3038              	.LVL233:
 3039              		.loc 1 217 0
 3040 012a 9FED9B0A 		vldr.32	s0, .L253+116
 3041 012e 9B48     		ldr	r0, .L253+120
 3042 0130 2A46     		mov	r2, r5
 3043 0132 0421     		movs	r1, #4
 3044 0134 FFF7FEFF 		bl	filter_create_fir_lowpass
 3045              	.LVL234:
 3046              		.loc 1 219 0
 3047 0138 3046     		mov	r0, r6
 3048 013a FFF7FEFF 		bl	TIM_DeInit
 3049              	.LVL235:
 3050              		.loc 1 220 0
 3051 013e 3846     		mov	r0, r7
 3052 0140 FFF7FEFF 		bl	TIM_DeInit
 3053              	.LVL236:
 3054              		.loc 1 221 0
 3055 0144 7462     		str	r4, [r6, #36]
 3056              		.loc 1 225 0
 3057 0146 2946     		mov	r1, r5
 3058 0148 2846     		mov	r0, r5
 3059              		.loc 1 222 0
 3060 014a 7C62     		str	r4, [r7, #36]
 3061              		.loc 1 225 0
 3062 014c FFF7FEFF 		bl	RCC_APB2PeriphClockCmd
 3063              	.LVL237:
 3064              		.loc 1 230 0
 3065 0150 D9ED007A 		vldr.32	s15, [r9]
 3066 0154 924A     		ldr	r2, .L253+124
 3067              		.loc 1 228 0
 3068 0156 0394     		str	r4, [sp, #12]
 3069              		.loc 1 230 0
 3070 0158 FDEEE77A 		vcvt.s32.f32	s15, s15
 3071              		.loc 1 234 0
 3072 015c 3046     		mov	r0, r6
 3073              		.loc 1 230 0
 3074 015e 17EE903A 		vmov	r3, s15	@ int
 3075              		.loc 1 234 0
 3076 0162 03A9     		add	r1, sp, #12
 3077              		.loc 1 230 0
 3078 0164 92FBF3F3 		sdiv	r3, r2, r3
ARM GAS  C:\Users\CHRIST~1\AppData\Local\Temp\ccBtEVpO.s 			page 55


 3079              		.loc 1 231 0
 3080 0168 ADF81440 		strh	r4, [sp, #20]	@ movhi
 3081              		.loc 1 232 0
 3082 016c 8DF81640 		strb	r4, [sp, #22]
 3083              		.loc 1 230 0
 3084 0170 0493     		str	r3, [sp, #16]
 3085              		.loc 1 234 0
 3086 0172 FFF7FEFF 		bl	TIM_TimeBaseInit
 3087              	.LVL238:
 3088              		.loc 1 240 0
 3089 0176 F36A     		ldr	r3, [r6, #44]
 3090              		.loc 1 237 0
 3091 0178 8A4A     		ldr	r2, .L253+128
 3092 017a 0E92     		str	r2, [sp, #56]
 3093              		.loc 1 240 0
 3094 017c EB40     		lsrs	r3, r3, r5
 3095              		.loc 1 238 0
 3096 017e 4FF00408 		mov	r8, #4
 3097              	.LVL239:
 3098              		.loc 1 241 0
 3099 0182 CDE91034 		strd	r3, r4, [sp, #64]
 3100              		.loc 1 246 0
 3101 0186 3046     		mov	r0, r6
 3102              		.loc 1 242 0
 3103 0188 874B     		ldr	r3, .L253+132
 3104 018a 1293     		str	r3, [sp, #72]
 3105              		.loc 1 246 0
 3106 018c 0EA9     		add	r1, sp, #56
 3107              		.loc 1 238 0
 3108 018e ADF83C80 		strh	r8, [sp, #60]	@ movhi
 3109              		.loc 1 246 0
 3110 0192 FFF7FEFF 		bl	TIM_OC1Init
 3111              	.LVL240:
 3112              		.loc 1 247 0
 3113 0196 0EA9     		add	r1, sp, #56
 3114 0198 3046     		mov	r0, r6
 3115 019a FFF7FEFF 		bl	TIM_OC2Init
 3116              	.LVL241:
 3117              		.loc 1 248 0
 3118 019e 0EA9     		add	r1, sp, #56
 3119 01a0 3046     		mov	r0, r6
 3120 01a2 FFF7FEFF 		bl	TIM_OC3Init
 3121              	.LVL242:
 3122              		.loc 1 249 0
 3123 01a6 0EA9     		add	r1, sp, #56
 3124 01a8 3046     		mov	r0, r6
 3125 01aa FFF7FEFF 		bl	TIM_OC4Init
 3126              	.LVL243:
 3127              		.loc 1 251 0
 3128 01ae 3046     		mov	r0, r6
 3129 01b0 0821     		movs	r1, #8
 3130 01b2 FFF7FEFF 		bl	TIM_OC1PreloadConfig
 3131              	.LVL244:
 3132              		.loc 1 252 0
 3133 01b6 3046     		mov	r0, r6
 3134 01b8 0821     		movs	r1, #8
 3135 01ba FFF7FEFF 		bl	TIM_OC2PreloadConfig
ARM GAS  C:\Users\CHRIST~1\AppData\Local\Temp\ccBtEVpO.s 			page 56


 3136              	.LVL245:
 3137              		.loc 1 253 0
 3138 01be 3046     		mov	r0, r6
 3139 01c0 0821     		movs	r1, #8
 3140 01c2 FFF7FEFF 		bl	TIM_OC3PreloadConfig
 3141              	.LVL246:
 3142              		.loc 1 254 0
 3143 01c6 3046     		mov	r0, r6
 3144 01c8 0821     		movs	r1, #8
 3145 01ca FFF7FEFF 		bl	TIM_OC4PreloadConfig
 3146              	.LVL247:
 3147              		.loc 1 257 0
 3148 01ce 774A     		ldr	r2, .L253+136
 3149              		.loc 1 262 0
 3150 01d0 ADF82440 		strh	r4, [sp, #36]	@ movhi
 3151              		.loc 1 258 0
 3152 01d4 4FF47013 		mov	r3, #3932160
 3153              		.loc 1 260 0
 3154 01d8 4FF00059 		mov	r9, #536870912
 3155              		.loc 1 265 0
 3156 01dc 3046     		mov	r0, r6
 3157 01de 06A9     		add	r1, sp, #24
 3158              		.loc 1 258 0
 3159 01e0 CDE90623 		strd	r2, r3, [sp, #24]
 3160              		.loc 1 260 0
 3161 01e4 CDF82090 		str	r9, [sp, #32]
 3162              		.loc 1 265 0
 3163 01e8 FFF7FEFF 		bl	TIM_BDTRConfig
 3164              	.LVL248:
 3165              		.loc 1 266 0
 3166 01ec 2946     		mov	r1, r5
 3167 01ee 3046     		mov	r0, r6
 3168 01f0 FFF7FEFF 		bl	TIM_CCPreloadControl
 3169              	.LVL249:
 3170              		.loc 1 267 0
 3171 01f4 2946     		mov	r1, r5
 3172 01f6 3046     		mov	r0, r6
 3173 01f8 FFF7FEFF 		bl	TIM_ARRPreloadConfig
 3174              	.LVL250:
 3175              		.loc 1 277 0
 3176 01fc 2946     		mov	r1, r5
 3177 01fe 6C48     		ldr	r0, .L253+140
 3178 0200 FFF7FEFF 		bl	RCC_AHB1PeriphClockCmd
 3179              	.LVL251:
 3180              		.loc 1 278 0
 3181 0204 2946     		mov	r1, r5
 3182 0206 4FF4E060 		mov	r0, #1792
 3183 020a FFF7FEFF 		bl	RCC_APB2PeriphClockCmd
 3184              	.LVL252:
 3185              		.loc 1 280 0
 3186 020e 2346     		mov	r3, r4
 3187 0210 684A     		ldr	r2, .L253+144
 3188 0212 6948     		ldr	r0, .L253+148
 3189 0214 0321     		movs	r1, #3
 3190 0216 FFF7FEFF 		bl	dmaStreamAllocate
 3191              	.LVL253:
 3192              		.loc 1 287 0
ARM GAS  C:\Users\CHRIST~1\AppData\Local\Temp\ccBtEVpO.s 			page 57


 3193 021a 684B     		ldr	r3, .L253+152
 3194              		.loc 1 288 0
 3195 021c 6849     		ldr	r1, .L253+156
 3196              		.loc 1 287 0
 3197 021e 2193     		str	r3, [sp, #132]
 3198              		.loc 1 292 0
 3199 0220 4FF4806A 		mov	r10, #1024
 3200              		.loc 1 290 0
 3201 0224 0C22     		movs	r2, #12
 3202              		.loc 1 293 0
 3203 0226 4FF40063 		mov	r3, #2048
 3204              		.loc 1 288 0
 3205 022a 2091     		str	r1, [sp, #128]
 3206              		.loc 1 294 0
 3207 022c 4FF40051 		mov	r1, #8192
 3208              		.loc 1 301 0
 3209 0230 6448     		ldr	r0, .L253+160
 3210              		.loc 1 290 0
 3211 0232 2392     		str	r2, [sp, #140]
 3212              		.loc 1 293 0
 3213 0234 CDE925A3 		strd	r10, r3, [sp, #148]
 3214              		.loc 1 295 0
 3215 0238 4FF48072 		mov	r2, #256
 3216              		.loc 1 296 0
 3217 023c 4FF40033 		mov	r3, #131072
 3218              		.loc 1 294 0
 3219 0240 2791     		str	r1, [sp, #156]
 3220              		.loc 1 301 0
 3221 0242 1FA9     		add	r1, sp, #124
 3222              		.loc 1 296 0
 3223 0244 CDE92823 		strd	r2, r3, [sp, #160]
 3224              		.loc 1 286 0
 3225 0248 1F94     		str	r4, [sp, #124]
 3226              		.loc 1 289 0
 3227 024a 2294     		str	r4, [sp, #136]
 3228              		.loc 1 291 0
 3229 024c 2494     		str	r4, [sp, #144]
 3230              		.loc 1 298 0
 3231 024e CDE92A44 		strd	r4, r4, [sp, #168]
 3232              		.loc 1 300 0
 3233 0252 CDE92C44 		strd	r4, r4, [sp, #176]
 3234              		.loc 1 301 0
 3235 0256 FFF7FEFF 		bl	DMA_Init
 3236              	.LVL254:
 3237              		.loc 1 304 0
 3238 025a 2946     		mov	r1, r5
 3239 025c 5948     		ldr	r0, .L253+160
 3240 025e FFF7FEFF 		bl	DMA_Cmd
 3241              	.LVL255:
 3242              		.loc 1 307 0
 3243 0262 2A46     		mov	r2, r5
 3244 0264 1021     		movs	r1, #16
 3245 0266 5748     		ldr	r0, .L253+160
 3246 0268 FFF7FEFF 		bl	DMA_ITConfig
 3247              	.LVL256:
 3248              		.loc 1 312 0
 3249 026c 1622     		movs	r2, #22
ARM GAS  C:\Users\CHRIST~1\AppData\Local\Temp\ccBtEVpO.s 			page 58


 3250              		.loc 1 314 0
 3251 026e 4FF48043 		mov	r3, #16384
 3252              		.loc 1 316 0
 3253 0272 0AA8     		add	r0, sp, #40
 3254              		.loc 1 312 0
 3255 0274 0A92     		str	r2, [sp, #40]
 3256              		.loc 1 313 0
 3257 0276 0B94     		str	r4, [sp, #44]
 3258              		.loc 1 315 0
 3259 0278 0D94     		str	r4, [sp, #52]
 3260              		.loc 1 314 0
 3261 027a 0C93     		str	r3, [sp, #48]
 3262              		.loc 1 316 0
 3263 027c FFF7FEFF 		bl	ADC_CommonInit
 3264              	.LVL257:
 3265              		.loc 1 323 0
 3266 0280 4FF05063 		mov	r3, #218103808
 3267              		.loc 1 327 0
 3268 0284 13A9     		add	r1, sp, #76
 3269 0286 5048     		ldr	r0, .L253+164
 3270              		.loc 1 323 0
 3271 0288 1693     		str	r3, [sp, #88]
 3272              		.loc 1 319 0
 3273 028a 1394     		str	r4, [sp, #76]
 3274              		.loc 1 320 0
 3275 028c 8DF85050 		strb	r5, [sp, #80]
 3276              		.loc 1 321 0
 3277 0290 8DF85140 		strb	r4, [sp, #81]
 3278              		.loc 1 324 0
 3279 0294 1794     		str	r4, [sp, #92]
 3280              		.loc 1 322 0
 3281 0296 CDF85490 		str	r9, [sp, #84]
 3282              		.loc 1 325 0
 3283 029a 8DF86080 		strb	r8, [sp, #96]
 3284              		.loc 1 327 0
 3285 029e FFF7FEFF 		bl	ADC_Init
 3286              	.LVL258:
 3287              		.loc 1 330 0
 3288 02a2 13A9     		add	r1, sp, #76
 3289 02a4 4948     		ldr	r0, .L253+168
 3290              		.loc 1 329 0
 3291 02a6 CDE91544 		strd	r4, r4, [sp, #84]
 3292              		.loc 1 330 0
 3293 02aa FFF7FEFF 		bl	ADC_Init
 3294              	.LVL259:
 3295              		.loc 1 331 0
 3296 02ae 13A9     		add	r1, sp, #76
 3297 02b0 4748     		ldr	r0, .L253+172
 3298 02b2 FFF7FEFF 		bl	ADC_Init
 3299              	.LVL260:
 3300              		.loc 1 334 0
 3301 02b6 2846     		mov	r0, r5
 3302 02b8 FFF7FEFF 		bl	ADC_TempSensorVrefintCmd
 3303              	.LVL261:
 3304              		.loc 1 337 0
 3305 02bc 2846     		mov	r0, r5
 3306 02be FFF7FEFF 		bl	ADC_MultiModeDMARequestAfterLastTransferCmd
ARM GAS  C:\Users\CHRIST~1\AppData\Local\Temp\ccBtEVpO.s 			page 59


 3307              	.LVL262:
 3308              		.loc 1 340 0
 3309 02c2 2146     		mov	r1, r4
 3310 02c4 4048     		ldr	r0, .L253+164
 3311 02c6 FFF7FEFF 		bl	ADC_ExternalTrigInjectedConvConfig
 3312              	.LVL263:
 3313              		.loc 1 341 0
 3314 02ca 4FF44021 		mov	r1, #786432
 3315 02ce 3F48     		ldr	r0, .L253+168
 3316 02d0 FFF7FEFF 		bl	ADC_ExternalTrigInjectedConvConfig
 3317              	.LVL264:
 3318              		.loc 1 345 0
 3319 02d4 4FF40011 		mov	r1, #2097152
 3320 02d8 3B48     		ldr	r0, .L253+164
 3321 02da FFF7FEFF 		bl	ADC_ExternalTrigInjectedConvEdgeConfig
 3322              	.LVL265:
 3323              		.loc 1 346 0
 3324 02de 4FF40011 		mov	r1, #2097152
 3325 02e2 3A48     		ldr	r0, .L253+168
 3326 02e4 FFF7FEFF 		bl	ADC_ExternalTrigInjectedConvEdgeConfig
 3327              	.LVL266:
 3328              		.loc 1 350 0
 3329 02e8 0221     		movs	r1, #2
 3330 02ea 3748     		ldr	r0, .L253+164
 3331 02ec FFF7FEFF 		bl	ADC_InjectedSequencerLengthConfig
 3332              	.LVL267:
 3333              		.loc 1 351 0
 3334 02f0 0221     		movs	r1, #2
 3335 02f2 3648     		ldr	r0, .L253+168
 3336 02f4 FFF7FEFF 		bl	ADC_InjectedSequencerLengthConfig
 3337              	.LVL268:
 3338              		.loc 1 356 0
 3339 02f8 FFF7FEFF 		bl	hw_setup_adc_channels
 3340              	.LVL269:
 3341              		.loc 1 359 0
 3342 02fc 2A46     		mov	r2, r5
 3343 02fe 40F20741 		movw	r1, #1031
 3344 0302 3148     		ldr	r0, .L253+164
 3345 0304 FFF7FEFF 		bl	ADC_ITConfig
 3346              	.LVL270:
 3347              		.loc 1 360 0
 3348 0308 0621     		movs	r1, #6
 3349 030a 1220     		movs	r0, #18
 3350 030c FFF7FEFF 		bl	nvicEnableVector
 3351              	.LVL271:
 3352              		.loc 1 363 0
 3353 0310 2946     		mov	r1, r5
 3354 0312 2D48     		ldr	r0, .L253+164
 3355 0314 FFF7FEFF 		bl	ADC_Cmd
 3356              	.LVL272:
 3357              		.loc 1 366 0
 3358 0318 2946     		mov	r1, r5
 3359 031a 2C48     		ldr	r0, .L253+168
 3360 031c FFF7FEFF 		bl	ADC_Cmd
 3361              	.LVL273:
 3362              		.loc 1 369 0
 3363 0320 2946     		mov	r1, r5
ARM GAS  C:\Users\CHRIST~1\AppData\Local\Temp\ccBtEVpO.s 			page 60


 3364 0322 6BE0     		b	.L254
 3365              	.L255:
 3366              		.align	2
 3367              	.L253:
 3368 0324 00000000 		.word	.LANCHOR0
 3369 0328 00000140 		.word	1073807360
 3370 032c 00040140 		.word	1073808384
 3371 0330 00000000 		.word	.LANCHOR3
 3372 0334 00000000 		.word	0
 3373 0338 00000000 		.word	.LANCHOR33
 3374 033c 00000000 		.word	.LANCHOR24
 3375 0340 00000000 		.word	.LANCHOR34
 3376 0344 00000000 		.word	.LANCHOR35
 3377 0348 00000000 		.word	.LANCHOR9
 3378 034c 00000000 		.word	.LANCHOR8
 3379 0350 00000000 		.word	.LANCHOR2
 3380 0354 00000000 		.word	.LANCHOR37
 3381 0358 00000000 		.word	.LANCHOR38
 3382 035c 00000000 		.word	.LANCHOR39
 3383 0360 00000000 		.word	.LANCHOR6
 3384 0364 00000000 		.word	.LANCHOR1
 3385 0368 00000000 		.word	.LANCHOR41
 3386 036c 00000000 		.word	.LANCHOR18
 3387 0370 00000000 		.word	.LANCHOR43
 3388 0374 00000000 		.word	.LANCHOR14
 3389 0378 00000000 		.word	.LANCHOR17
 3390 037c 00000000 		.word	.LANCHOR16
 3391 0380 00000000 		.word	.LANCHOR44
 3392 0384 00000000 		.word	.LANCHOR45
 3393 0388 00000000 		.word	.LANCHOR19
 3394 038c 0AD7A33C 		.word	1017370378
 3395 0390 00000000 		.word	.LANCHOR46
 3396 0394 00000000 		.word	.LANCHOR22
 3397 0398 9A99193E 		.word	1041865114
 3398 039c 00000000 		.word	.LANCHOR47
 3399 03a0 007A030A 		.word	168000000
 3400 03a4 60000100 		.word	65632
 3401 03a8 00010002 		.word	33554688
 3402 03ac 00080004 		.word	67110912
 3403 03b0 05004000 		.word	4194309
 3404 03b4 00000000 		.word	mcpwm_adc_int_handler
 3405 03b8 90000000 		.word	_stm32_dma_streams+144
 3406 03bc 00000000 		.word	ADC_Value
 3407 03c0 08230140 		.word	1073816328
 3408 03c4 70640240 		.word	1073898608
 3409 03c8 00200140 		.word	1073815552
 3410 03cc 00210140 		.word	1073815808
 3411 03d0 00220140 		.word	1073816064
 3412 03d4 00000000 		.word	.LANCHOR28
 3413 03d8 00000000 		.word	.LANCHOR32
 3414 03dc 00000000 		.word	.LANCHOR13
 3415 03e0 00000000 		.word	.LANCHOR4
 3416 03e4 00000000 		.word	.LANCHOR10
 3417 03e8 00000000 		.word	.LANCHOR36
 3418 03ec 00000000 		.word	.LANCHOR7
 3419 03f0 00000000 		.word	.LANCHOR40
 3420 03f4 00000000 		.word	.LANCHOR42
ARM GAS  C:\Users\CHRIST~1\AppData\Local\Temp\ccBtEVpO.s 			page 61


 3421 03f8 00000000 		.word	.LANCHOR15
 3422              	.L254:
 3423 03fc 7948     		ldr	r0, .L256
 3424 03fe FFF7FEFF 		bl	ADC_Cmd
 3425              	.LVL274:
 3426              		.loc 1 373 0
 3427 0402 2946     		mov	r1, r5
 3428 0404 0220     		movs	r0, #2
 3429 0406 FFF7FEFF 		bl	RCC_APB2PeriphClockCmd
 3430              	.LVL275:
 3431              		.loc 1 376 0
 3432 040a 4FF6FF73 		movw	r3, #65535
 3433              		.loc 1 380 0
 3434 040e 03A9     		add	r1, sp, #12
 3435 0410 3846     		mov	r0, r7
 3436              		.loc 1 375 0
 3437 0412 0394     		str	r4, [sp, #12]
 3438              		.loc 1 377 0
 3439 0414 ADF81440 		strh	r4, [sp, #20]	@ movhi
 3440              		.loc 1 378 0
 3441 0418 8DF81640 		strb	r4, [sp, #22]
 3442              		.loc 1 376 0
 3443 041c 0493     		str	r3, [sp, #16]
 3444              		.loc 1 380 0
 3445 041e FFF7FEFF 		bl	TIM_TimeBaseInit
 3446              	.LVL276:
 3447              		.loc 1 382 0
 3448 0422 714A     		ldr	r2, .L256+4
 3449 0424 0E92     		str	r2, [sp, #56]
 3450              		.loc 1 384 0
 3451 0426 4FF4FA73 		mov	r3, #500
 3452              		.loc 1 386 0
 3453 042a 704A     		ldr	r2, .L256+8
 3454 042c 1292     		str	r2, [sp, #72]
 3455              		.loc 1 389 0
 3456 042e 0EA9     		add	r1, sp, #56
 3457 0430 3846     		mov	r0, r7
 3458              		.loc 1 384 0
 3459 0432 1093     		str	r3, [sp, #64]
 3460 0434 1194     		str	r4, [sp, #68]
 3461              		.loc 1 389 0
 3462 0436 FFF7FEFF 		bl	TIM_OC1Init
 3463              	.LVL277:
 3464              		.loc 1 390 0
 3465 043a 3846     		mov	r0, r7
 3466 043c 0821     		movs	r1, #8
 3467 043e FFF7FEFF 		bl	TIM_OC1PreloadConfig
 3468              	.LVL278:
 3469              		.loc 1 391 0
 3470 0442 0EA9     		add	r1, sp, #56
 3471 0444 3846     		mov	r0, r7
 3472 0446 FFF7FEFF 		bl	TIM_OC2Init
 3473              	.LVL279:
 3474              		.loc 1 392 0
 3475 044a 3846     		mov	r0, r7
 3476 044c 0821     		movs	r1, #8
 3477 044e FFF7FEFF 		bl	TIM_OC2PreloadConfig
ARM GAS  C:\Users\CHRIST~1\AppData\Local\Temp\ccBtEVpO.s 			page 62


 3478              	.LVL280:
 3479              		.loc 1 393 0
 3480 0452 0EA9     		add	r1, sp, #56
 3481 0454 3846     		mov	r0, r7
 3482 0456 FFF7FEFF 		bl	TIM_OC3Init
 3483              	.LVL281:
 3484              		.loc 1 394 0
 3485 045a 3846     		mov	r0, r7
 3486 045c 0821     		movs	r1, #8
 3487 045e FFF7FEFF 		bl	TIM_OC3PreloadConfig
 3488              	.LVL282:
 3489              		.loc 1 396 0
 3490 0462 2946     		mov	r1, r5
 3491 0464 3846     		mov	r0, r7
 3492 0466 FFF7FEFF 		bl	TIM_ARRPreloadConfig
 3493              	.LVL283:
 3494              		.loc 1 397 0
 3495 046a 2946     		mov	r1, r5
 3496 046c 3846     		mov	r0, r7
 3497 046e FFF7FEFF 		bl	TIM_CCPreloadControl
 3498              	.LVL284:
 3499              		.loc 1 400 0
 3500 0472 2946     		mov	r1, r5
 3501 0474 3846     		mov	r0, r7
 3502 0476 FFF7FEFF 		bl	TIM_CtrlPWMOutputs
 3503              	.LVL285:
 3504              		.loc 1 403 0
 3505 047a 3046     		mov	r0, r6
 3506 047c 2021     		movs	r1, #32
 3507 047e FFF7FEFF 		bl	TIM_SelectOutputTrigger
 3508              	.LVL286:
 3509              		.loc 1 404 0
 3510 0482 3046     		mov	r0, r6
 3511 0484 8021     		movs	r1, #128
 3512 0486 FFF7FEFF 		bl	TIM_SelectMasterSlaveMode
 3513              	.LVL287:
 3514              		.loc 1 405 0
 3515 048a 2146     		mov	r1, r4
 3516 048c 3846     		mov	r0, r7
 3517 048e FFF7FEFF 		bl	TIM_SelectInputTrigger
 3518              	.LVL288:
 3519              		.loc 1 406 0
 3520 0492 4146     		mov	r1, r8
 3521 0494 3846     		mov	r0, r7
 3522 0496 FFF7FEFF 		bl	TIM_SelectSlaveMode
 3523              	.LVL289:
 3524              		.loc 1 409 0
 3525 049a 2946     		mov	r1, r5
 3526 049c 3046     		mov	r0, r6
 3527 049e FFF7FEFF 		bl	TIM_Cmd
 3528              	.LVL290:
 3529              		.loc 1 410 0
 3530 04a2 2946     		mov	r1, r5
 3531 04a4 3846     		mov	r0, r7
 3532 04a6 FFF7FEFF 		bl	TIM_Cmd
 3533              	.LVL291:
 3534              		.loc 1 413 0
ARM GAS  C:\Users\CHRIST~1\AppData\Local\Temp\ccBtEVpO.s 			page 63


 3535 04aa 2946     		mov	r1, r5
 3536 04ac 3046     		mov	r0, r6
 3537 04ae FFF7FEFF 		bl	TIM_CtrlPWMOutputs
 3538              	.LVL292:
 3539              		.loc 1 416 0
 3540 04b2 2946     		mov	r1, r5
 3541 04b4 2846     		mov	r0, r5
 3542 04b6 FFF7FEFF 		bl	RCC_APB1PeriphClockCmd
 3543              	.LVL293:
 3544              		.loc 1 421 0
 3545 04ba 5322     		movs	r2, #83
 3546              		.loc 1 423 0
 3547 04bc 4FF0FF33 		mov	r3, #-1
 3548              		.loc 1 424 0
 3549 04c0 03A9     		add	r1, sp, #12
 3550 04c2 4FF08040 		mov	r0, #1073741824
 3551              		.loc 1 423 0
 3552 04c6 CDE90323 		strd	r2, r3, [sp, #12]
 3553              		.loc 1 420 0
 3554 04ca ADF81440 		strh	r4, [sp, #20]	@ movhi
 3555              		.loc 1 424 0
 3556 04ce FFF7FEFF 		bl	TIM_TimeBaseInit
 3557              	.LVL294:
 3558              		.loc 1 427 0
 3559 04d2 2946     		mov	r1, r5
 3560 04d4 4FF08040 		mov	r0, #1073741824
 3561 04d8 FFF7FEFF 		bl	TIM_Cmd
 3562              	.LVL295:
 3563              		.loc 1 430 0
 3564 04dc FFF7FEFF 		bl	stop_pwm_hw
 3565              	.LVL296:
 3566              		.loc 1 432 0
 3567 04e0 F36A     		ldr	r3, [r6, #44]
 3568 04e2 1A93     		str	r3, [sp, #104]
 3569              		.loc 1 433 0
 3570 04e4 F36A     		ldr	r3, [r6, #44]
 3571              		.loc 1 434 0
 3572 04e6 19A8     		add	r0, sp, #100
 3573              		.loc 1 433 0
 3574 04e8 EB40     		lsrs	r3, r3, r5
 3575 04ea 1B93     		str	r3, [sp, #108]
 3576              		.loc 1 434 0
 3577 04ec FFF7FEFF 		bl	update_adc_sample_pos
 3578              	.LVL297:
 3579              		.loc 1 435 0
 3580 04f0 19A8     		add	r0, sp, #100
 3581 04f2 FFF7FEFF 		bl	set_next_timer_settings
 3582              	.LVL298:
 3583              		.loc 1 440 0
 3584 04f6 3E4D     		ldr	r5, .L256+12
 3585              		.loc 1 437 0
 3586 04f8 FFF7FEFF 		bl	utils_sys_unlock_cnt
 3587              	.LVL299:
 3588              		.loc 1 441 0
 3589 04fc 3D4B     		ldr	r3, .L256+16
 3590              		.loc 1 440 0
 3591 04fe A5F818A0 		strh	r10, [r5, #24]	@ movhi
ARM GAS  C:\Users\CHRIST~1\AppData\Local\Temp\ccBtEVpO.s 			page 64


 3592              		.loc 1 441 0
 3593 0502 4FF48052 		mov	r2, #4096
 3594 0506 5A83     		strh	r2, [r3, #26]	@ movhi
 3595              	.LBB106:
 3596              	.LBB107:
 3597              		.loc 1 538 0
 3598 0508 41F28934 		movw	r4, #5001
 3599 050c 1A83     		strh	r2, [r3, #24]	@ movhi
 3600              	.LVL300:
 3601 050e 03E0     		b	.L246
 3602              	.LVL301:
 3603              	.L248:
 3604              		.loc 1 543 0
 3605 0510 FFF7FEFF 		bl	chThdSleep
 3606              	.LVL302:
 3607              		.loc 1 545 0
 3608 0514 013C     		subs	r4, r4, #1
 3609              	.LVL303:
 3610 0516 04D0     		beq	.L249
 3611              	.LVL304:
 3612              	.L246:
 3613              		.loc 1 542 0
 3614 0518 2B69     		ldr	r3, [r5, #16]
 3615 051a DB04     		lsls	r3, r3, #19
 3616              		.loc 1 543 0
 3617 051c 4FF00A00 		mov	r0, #10
 3618              		.loc 1 542 0
 3619 0520 F6D5     		bpl	.L248
 3620              	.LVL305:
 3621              	.L249:
 3622              		.loc 1 550 0
 3623 0522 42F21070 		movw	r0, #10000
 3624 0526 FFF7FEFF 		bl	chThdSleep
 3625              	.LVL306:
 3626              		.loc 1 551 0
 3627 052a 3348     		ldr	r0, .L256+20
 3628              		.loc 1 552 0
 3629 052c 3349     		ldr	r1, .L256+24
 3630              		.loc 1 558 0
 3631 052e 344A     		ldr	r2, .L256+28
 3632              		.loc 1 551 0
 3633 0530 0023     		movs	r3, #0
 3634 0532 0360     		str	r3, [r0]
 3635              		.loc 1 552 0
 3636 0534 0B60     		str	r3, [r1]
 3637              		.loc 1 558 0
 3638 0536 1360     		str	r3, [r2]
 3639              	.L247:
 3640              		.loc 1 559 0
 3641 0538 1368     		ldr	r3, [r2]
 3642 053a B3F57A6F 		cmp	r3, #4000
 3643 053e FBDB     		blt	.L247
 3644              		.loc 1 560 0
 3645 0540 304D     		ldr	r5, .L256+32
 3646              		.loc 1 561 0
 3647 0542 314C     		ldr	r4, .L256+36
 3648              		.loc 1 560 0
ARM GAS  C:\Users\CHRIST~1\AppData\Local\Temp\ccBtEVpO.s 			page 65


 3649 0544 0368     		ldr	r3, [r0]
 3650 0546 1068     		ldr	r0, [r2]
 3651 0548 93FBF0F3 		sdiv	r3, r3, r0
 3652              		.loc 1 567 0
 3653 054c 2948     		ldr	r0, .L256+16
 3654              		.loc 1 560 0
 3655 054e 2B60     		str	r3, [r5]
 3656              		.loc 1 561 0
 3657 0550 0B68     		ldr	r3, [r1]
 3658 0552 1268     		ldr	r2, [r2]
 3659 0554 93FBF2F3 		sdiv	r3, r3, r2
 3660              		.loc 1 568 0
 3661 0558 0125     		movs	r5, #1
 3662              		.loc 1 561 0
 3663 055a 2360     		str	r3, [r4]
 3664              		.loc 1 567 0
 3665 055c 4FF48052 		mov	r2, #4096
 3666              		.loc 1 568 0
 3667 0560 2A4B     		ldr	r3, .L256+40
 3668              		.loc 1 567 0
 3669 0562 4283     		strh	r2, [r0, #26]	@ movhi
 3670              	.LBE107:
 3671              	.LBE106:
 3672              		.loc 1 445 0
 3673 0564 2946     		mov	r1, r5
 3674 0566 4020     		movs	r0, #64
 3675              		.loc 1 449 0
 3676 0568 0024     		movs	r4, #0
 3677              	.LBB109:
 3678              	.LBB108:
 3679              		.loc 1 568 0
 3680 056a 1D70     		strb	r5, [r3]
 3681              	.LBE108:
 3682              	.LBE109:
 3683              		.loc 1 445 0
 3684 056c FFF7FEFF 		bl	RCC_APB1PeriphClockCmd
 3685              	.LVL307:
 3686              		.loc 1 450 0
 3687 0570 0722     		movs	r2, #7
 3688              		.loc 1 452 0
 3689 0572 4FF0FF33 		mov	r3, #-1
 3690              		.loc 1 453 0
 3691 0576 03A9     		add	r1, sp, #12
 3692 0578 2548     		ldr	r0, .L256+44
 3693              		.loc 1 449 0
 3694 057a ADF81440 		strh	r4, [sp, #20]	@ movhi
 3695              		.loc 1 452 0
 3696 057e CDE90323 		strd	r2, r3, [sp, #12]
 3697              		.loc 1 453 0
 3698 0582 FFF7FEFF 		bl	TIM_TimeBaseInit
 3699              	.LVL308:
 3700              		.loc 1 455 0
 3701 0586 2946     		mov	r1, r5
 3702 0588 2148     		ldr	r0, .L256+44
 3703              		.loc 1 459 0
 3704 058a 224E     		ldr	r6, .L256+48
 3705              		.loc 1 455 0
ARM GAS  C:\Users\CHRIST~1\AppData\Local\Temp\ccBtEVpO.s 			page 66


 3706 058c FFF7FEFF 		bl	TIM_Cmd
 3707              	.LVL309:
 3708              		.loc 1 458 0
 3709 0590 214A     		ldr	r2, .L256+52
 3710              		.loc 1 460 0
 3711 0592 0094     		str	r4, [sp]
 3712 0594 214B     		ldr	r3, .L256+56
 3713              		.loc 1 458 0
 3714 0596 1470     		strb	r4, [r2]
 3715              		.loc 1 460 0
 3716 0598 40F69811 		movw	r1, #2456
 3717 059c 4022     		movs	r2, #64
 3718              		.loc 1 459 0
 3719 059e 3470     		strb	r4, [r6]
 3720              		.loc 1 460 0
 3721 05a0 1F48     		ldr	r0, .L256+60
 3722 05a2 FFF7FEFF 		bl	chThdCreateStatic
 3723              	.LVL310:
 3724              		.loc 1 461 0
 3725 05a6 1F4B     		ldr	r3, .L256+64
 3726 05a8 0094     		str	r4, [sp]
 3727 05aa 4022     		movs	r2, #64
 3728 05ac 4FF4B361 		mov	r1, #1432
 3729 05b0 1D48     		ldr	r0, .L256+68
 3730 05b2 FFF7FEFF 		bl	chThdCreateStatic
 3731              	.LVL311:
 3732              		.loc 1 464 0
 3733 05b6 2946     		mov	r1, r5
 3734 05b8 4FF40060 		mov	r0, #2048
 3735 05bc FFF7FEFF 		bl	RCC_APB1PeriphClockCmd
 3736              	.LVL312:
 3737              		.loc 1 465 0
 3738 05c0 2046     		mov	r0, r4
 3739 05c2 FFF7FEFF 		bl	WWDG_SetPrescaler
 3740              	.LVL313:
 3741              		.loc 1 466 0
 3742 05c6 FF20     		movs	r0, #255
 3743 05c8 FFF7FEFF 		bl	WWDG_SetWindowValue
 3744              	.LVL314:
 3745              		.loc 1 467 0
 3746 05cc 6420     		movs	r0, #100
 3747 05ce FFF7FEFF 		bl	WWDG_Enable
 3748              	.LVL315:
 3749              		.loc 1 470 0
 3750 05d2 164B     		ldr	r3, .L256+72
 3751 05d4 1C60     		str	r4, [r3]
 3752              		.loc 1 471 0
 3753 05d6 164B     		ldr	r3, .L256+76
 3754 05d8 1C60     		str	r4, [r3]
 3755              		.loc 1 473 0
 3756 05da 8BF80050 		strb	r5, [fp]
 3757              		.loc 1 474 0
 3758 05de 2FB0     		add	sp, sp, #188
 3759              		.cfi_def_cfa_offset 36
 3760              		@ sp needed
 3761 05e0 BDE8F08F 		pop	{r4, r5, r6, r7, r8, r9, r10, fp, pc}
 3762              	.L257:
ARM GAS  C:\Users\CHRIST~1\AppData\Local\Temp\ccBtEVpO.s 			page 67


 3763              		.align	2
 3764              	.L256:
 3765 05e4 00220140 		.word	1073816064
 3766 05e8 60000100 		.word	65632
 3767 05ec 00010002 		.word	33554688
 3768 05f0 00080240 		.word	1073874944
 3769 05f4 00040240 		.word	1073873920
 3770 05f8 00000000 		.word	.LANCHOR48
 3771 05fc 00000000 		.word	.LANCHOR49
 3772 0600 00000000 		.word	.LANCHOR50
 3773 0604 00000000 		.word	.LANCHOR51
 3774 0608 00000000 		.word	.LANCHOR52
 3775 060c 00000000 		.word	.LANCHOR44
 3776 0610 00180040 		.word	1073747968
 3777 0614 00000000 		.word	.LANCHOR29
 3778 0618 00000000 		.word	.LANCHOR20
 3779 061c 00000000 		.word	timer_thread
 3780 0620 00000000 		.word	.LANCHOR53
 3781 0624 00000000 		.word	rpm_thread
 3782 0628 00000000 		.word	.LANCHOR54
 3783 062c 00000000 		.word	.LANCHOR9
 3784 0630 00000000 		.word	.LANCHOR8
 3785              		.cfi_endproc
 3786              	.LFE259:
 3787              		.size	mcpwm_init, .-mcpwm_init
 3788              		.section	.text.mcpwm_set_configuration,"ax",%progbits
 3789              		.align	1
 3790              		.p2align 4,,15
 3791              		.global	mcpwm_set_configuration
 3792              		.syntax unified
 3793              		.thumb
 3794              		.thumb_func
 3795              		.fpu fpv4-sp-d16
 3796              		.type	mcpwm_set_configuration, %function
 3797              	mcpwm_set_configuration:
 3798              	.LFB262:
 3799              		.loc 1 502 0
 3800              		.cfi_startproc
 3801              		@ args = 0, pretend = 0, frame = 0
 3802              		@ frame_needed = 0, uses_anonymous_args = 0
 3803              	.LVL316:
 3804 0000 38B5     		push	{r3, r4, r5, lr}
 3805              		.cfi_def_cfa_offset 16
 3806              		.cfi_offset 3, -16
 3807              		.cfi_offset 4, -12
 3808              		.cfi_offset 5, -8
 3809              		.cfi_offset 14, -4
 3810              	.LBB110:
 3811              	.LBB111:
 3812              		.loc 1 885 0
 3813 0002 0E49     		ldr	r1, .L260
 3814              		.loc 1 886 0
 3815 0004 0E4A     		ldr	r2, .L260+4
 3816              	.LBE111:
 3817              	.LBE110:
 3818              		.loc 1 502 0
 3819 0006 0446     		mov	r4, r0
ARM GAS  C:\Users\CHRIST~1\AppData\Local\Temp\ccBtEVpO.s 			page 68


 3820              		.loc 1 504 0
 3821 0008 0E48     		ldr	r0, .L260+8
 3822              	.LVL317:
 3823              	.LBB114:
 3824              	.LBB112:
 3825              		.loc 1 885 0
 3826 000a 0023     		movs	r3, #0
 3827              	.LBE112:
 3828              	.LBE114:
 3829              		.loc 1 504 0
 3830 000c 0725     		movs	r5, #7
 3831 000e 0570     		strb	r5, [r0]
 3832              	.LBB115:
 3833              	.LBB113:
 3834              		.loc 1 885 0
 3835 0010 0B70     		strb	r3, [r1]
 3836              		.loc 1 886 0
 3837 0012 1360     		str	r3, [r2]
 3838              		.loc 1 887 0
 3839 0014 FFF7FEFF 		bl	stop_pwm_hw
 3840              	.LVL318:
 3841              	.LBE113:
 3842              	.LBE115:
 3843              		.loc 1 507 0
 3844 0018 FFF7FEFF 		bl	utils_sys_lock_cnt
 3845              	.LVL319:
 3846              		.loc 1 509 0
 3847 001c 6378     		ldrb	r3, [r4, #1]	@ zero_extendqisi2
 3848              		.loc 1 508 0
 3849 001e 0A49     		ldr	r1, .L260+12
 3850              		.loc 1 509 0
 3851 0020 0A4A     		ldr	r2, .L260+16
 3852              		.loc 1 508 0
 3853 0022 0C60     		str	r4, [r1]
 3854              		.loc 1 509 0
 3855 0024 DBB2     		uxtb	r3, r3
 3856              		.loc 1 510 0
 3857 0026 04F19800 		add	r0, r4, #152
 3858              		.loc 1 509 0
 3859 002a 1370     		strb	r3, [r2]
 3860              		.loc 1 510 0
 3861 002c FFF7FEFF 		bl	mcpwm_init_hall_table
 3862              	.LVL320:
 3863              		.loc 1 511 0
 3864 0030 FFF7FEFF 		bl	update_sensor_mode
 3865              	.LVL321:
 3866              		.loc 1 513 0
 3867 0034 BDE83840 		pop	{r3, r4, r5, lr}
 3868              		.cfi_restore 14
 3869              		.cfi_restore 5
 3870              		.cfi_restore 4
 3871              		.cfi_restore 3
 3872              		.cfi_def_cfa_offset 0
 3873              	.LVL322:
 3874              		.loc 1 512 0
 3875 0038 FFF7FEBF 		b	utils_sys_unlock_cnt
 3876              	.LVL323:
ARM GAS  C:\Users\CHRIST~1\AppData\Local\Temp\ccBtEVpO.s 			page 69


 3877              	.L261:
 3878              		.align	2
 3879              	.L260:
 3880 003c 00000000 		.word	.LANCHOR2
 3881 0040 00000000 		.word	.LANCHOR40
 3882 0044 00000000 		.word	.LANCHOR37
 3883 0048 00000000 		.word	.LANCHOR0
 3884 004c 00000000 		.word	.LANCHOR19
 3885              		.cfi_endproc
 3886              	.LFE262:
 3887              		.size	mcpwm_set_configuration, .-mcpwm_set_configuration
 3888              		.section	.text.mcpwm_set_pid_speed,"ax",%progbits
 3889              		.align	1
 3890              		.p2align 4,,15
 3891              		.global	mcpwm_set_pid_speed
 3892              		.syntax unified
 3893              		.thumb
 3894              		.thumb_func
 3895              		.fpu fpv4-sp-d16
 3896              		.type	mcpwm_set_pid_speed, %function
 3897              	mcpwm_set_pid_speed:
 3898              	.LFB267:
 3899              		.loc 1 612 0
 3900              		.cfi_startproc
 3901              		@ args = 0, pretend = 0, frame = 0
 3902              		@ frame_needed = 0, uses_anonymous_args = 0
 3903              		@ link register save eliminated.
 3904              	.LVL324:
 3905              		.loc 1 613 0
 3906 0000 034A     		ldr	r2, .L263
 3907              		.loc 1 614 0
 3908 0002 044B     		ldr	r3, .L263+4
 3909              		.loc 1 613 0
 3910 0004 0121     		movs	r1, #1
 3911 0006 1170     		strb	r1, [r2]
 3912              		.loc 1 614 0
 3913 0008 83ED000A 		vstr.32	s0, [r3]
 3914              		.loc 1 615 0
 3915 000c 7047     		bx	lr
 3916              	.L264:
 3917 000e 00BF     		.align	2
 3918              	.L263:
 3919 0010 00000000 		.word	.LANCHOR37
 3920 0014 00000000 		.word	.LANCHOR34
 3921              		.cfi_endproc
 3922              	.LFE267:
 3923              		.size	mcpwm_set_pid_speed, .-mcpwm_set_pid_speed
 3924              		.section	.text.mcpwm_set_brake_current,"ax",%progbits
 3925              		.align	1
 3926              		.p2align 4,,15
 3927              		.global	mcpwm_set_brake_current
 3928              		.syntax unified
 3929              		.thumb
 3930              		.thumb_func
 3931              		.fpu fpv4-sp-d16
 3932              		.type	mcpwm_set_brake_current, %function
 3933              	mcpwm_set_brake_current:
ARM GAS  C:\Users\CHRIST~1\AppData\Local\Temp\ccBtEVpO.s 			page 70


 3934              	.LFB270:
 3935              		.loc 1 665 0
 3936              		.cfi_startproc
 3937              		@ args = 0, pretend = 0, frame = 8
 3938              		@ frame_needed = 0, uses_anonymous_args = 0
 3939              	.LVL325:
 3940 0000 30B5     		push	{r4, r5, lr}
 3941              		.cfi_def_cfa_offset 12
 3942              		.cfi_offset 4, -12
 3943              		.cfi_offset 5, -8
 3944              		.cfi_offset 14, -4
 3945              		.loc 1 666 0
 3946 0002 2D4C     		ldr	r4, .L290
 3947 0004 2368     		ldr	r3, [r4]
 3948 0006 D3ED507A 		vldr.32	s15, [r3, #320]
 3949 000a B0EEC07A 		vabs.f32	s14, s0
 3950 000e B4EEE77A 		vcmpe.f32	s14, s15
 3951              		.loc 1 665 0
 3952 0012 83B0     		sub	sp, sp, #12
 3953              		.cfi_def_cfa_offset 24
 3954              		.loc 1 666 0
 3955 0014 F1EE10FA 		vmrs	APSR_nzcv, FPSCR
 3956              		.loc 1 665 0
 3957 0018 8DED010A 		vstr.32	s0, [sp, #4]
 3958              		.loc 1 666 0
 3959 001c 2DD4     		bmi	.L288
 3960              		.loc 1 672 0
 3961 001e 93ED020A 		vldr.32	s0, [r3, #8]
 3962              	.LVL326:
 3963 0022 D3ED020A 		vldr.32	s1, [r3, #8]
 3964              		.loc 1 674 0
 3965 0026 254D     		ldr	r5, .L290+4
 3966              		.loc 1 672 0
 3967 0028 B0EEC00A 		vabs.f32	s0, s0
 3968 002c B1EE400A 		vneg.f32	s0, s0
 3969 0030 F0EEE00A 		vabs.f32	s1, s1
 3970 0034 01A8     		add	r0, sp, #4
 3971              	.LVL327:
 3972 0036 FFF7FEFF 		bl	utils_truncate_number
 3973              	.LVL328:
 3974              		.loc 1 675 0
 3975 003a 2149     		ldr	r1, .L290+8
 3976 003c 0198     		ldr	r0, [sp, #4]	@ float
 3977              		.loc 1 677 0
 3978 003e 214B     		ldr	r3, .L290+12
 3979              		.loc 1 674 0
 3980 0040 0322     		movs	r2, #3
 3981 0042 2A70     		strb	r2, [r5]
 3982              		.loc 1 675 0
 3983 0044 0860     		str	r0, [r1]	@ float
 3984              		.loc 1 677 0
 3985 0046 1978     		ldrb	r1, [r3]	@ zero_extendqisi2
 3986 0048 0229     		cmp	r1, #2
 3987 004a 14D0     		beq	.L265
 3988              		.loc 1 677 0 is_stmt 0 discriminator 1
 3989 004c 1978     		ldrb	r1, [r3]	@ zero_extendqisi2
 3990 004e 9142     		cmp	r1, r2
ARM GAS  C:\Users\CHRIST~1\AppData\Local\Temp\ccBtEVpO.s 			page 71


 3991 0050 11D0     		beq	.L265
 3992              		.loc 1 680 0 is_stmt 1
 3993 0052 2168     		ldr	r1, [r4]
 3994 0054 8878     		ldrb	r0, [r1, #2]	@ zero_extendqisi2
 3995 0056 0128     		cmp	r0, #1
 3996 0058 1BD0     		beq	.L289
 3997              		.loc 1 687 0
 3998 005a 1B48     		ldr	r0, .L290+16
 3999 005c D0ED007A 		vldr.32	s15, [r0]
 4000 0060 91ED097A 		vldr.32	s14, [r1, #36]
 4001 0064 F0EEE77A 		vabs.f32	s15, s15
 4002 0068 F4EEC77A 		vcmpe.f32	s15, s14
 4003 006c F1EE10FA 		vmrs	APSR_nzcv, FPSCR
 4004 0070 1BDD     		ble	.L285
 4005              	.L287:
 4006              		.loc 1 688 0
 4007 0072 0222     		movs	r2, #2
 4008 0074 1A70     		strb	r2, [r3]
 4009              	.L265:
 4010              		.loc 1 694 0
 4011 0076 03B0     		add	sp, sp, #12
 4012              		.cfi_remember_state
 4013              		.cfi_def_cfa_offset 12
 4014              		@ sp needed
 4015 0078 30BD     		pop	{r4, r5, pc}
 4016              	.LVL329:
 4017              	.L288:
 4018              		.cfi_restore_state
 4019              		.loc 1 667 0
 4020 007a 1048     		ldr	r0, .L290+4
 4021              	.LBB116:
 4022              	.LBB117:
 4023              		.loc 1 885 0
 4024 007c 1149     		ldr	r1, .L290+12
 4025              		.loc 1 886 0
 4026 007e 134A     		ldr	r2, .L290+20
 4027              		.loc 1 885 0
 4028 0080 0023     		movs	r3, #0
 4029              	.LBE117:
 4030              	.LBE116:
 4031              		.loc 1 667 0
 4032 0082 0724     		movs	r4, #7
 4033 0084 0470     		strb	r4, [r0]
 4034              	.LBB119:
 4035              	.LBB118:
 4036              		.loc 1 885 0
 4037 0086 0B70     		strb	r3, [r1]
 4038              		.loc 1 886 0
 4039 0088 1360     		str	r3, [r2]
 4040              		.loc 1 887 0
 4041 008a FFF7FEFF 		bl	stop_pwm_hw
 4042              	.LVL330:
 4043              	.LBE118:
 4044              	.LBE119:
 4045              		.loc 1 694 0
 4046 008e 03B0     		add	sp, sp, #12
 4047              		.cfi_remember_state
ARM GAS  C:\Users\CHRIST~1\AppData\Local\Temp\ccBtEVpO.s 			page 72


 4048              		.cfi_def_cfa_offset 12
 4049              		@ sp needed
 4050 0090 30BD     		pop	{r4, r5, pc}
 4051              	.L289:
 4052              		.cfi_restore_state
 4053              		.loc 1 681 0
 4054 0092 0F49     		ldr	r1, .L290+24
 4055 0094 9FED0F7A 		vldr.32	s14, .L290+28
 4056 0098 D1ED007A 		vldr.32	s15, [r1]
 4057 009c F0EEE77A 		vabs.f32	s15, s15
 4058 00a0 F4EEC77A 		vcmpe.f32	s15, s14
 4059 00a4 F1EE10FA 		vmrs	APSR_nzcv, FPSCR
 4060 00a8 E3DC     		bgt	.L287
 4061              	.L285:
 4062              	.LBB120:
 4063              	.LBB121:
 4064              		.loc 1 914 0
 4065 00aa 0849     		ldr	r1, .L290+20
 4066              		.loc 1 913 0
 4067 00ac 1A70     		strb	r2, [r3]
 4068              		.loc 1 914 0
 4069 00ae 0023     		movs	r3, #0
 4070 00b0 0B60     		str	r3, [r1]
 4071              		.loc 1 915 0
 4072 00b2 FFF7FEFF 		bl	full_brake_hw
 4073              	.LVL331:
 4074 00b6 DEE7     		b	.L265
 4075              	.L291:
 4076              		.align	2
 4077              	.L290:
 4078 00b8 00000000 		.word	.LANCHOR0
 4079 00bc 00000000 		.word	.LANCHOR37
 4080 00c0 00000000 		.word	.LANCHOR36
 4081 00c4 00000000 		.word	.LANCHOR2
 4082 00c8 00000000 		.word	.LANCHOR10
 4083 00cc 00000000 		.word	.LANCHOR40
 4084 00d0 00000000 		.word	.LANCHOR24
 4085 00d4 CDCCCC3D 		.word	1036831949
 4086              	.LBE121:
 4087              	.LBE120:
 4088              		.cfi_endproc
 4089              	.LFE270:
 4090              		.size	mcpwm_set_brake_current, .-mcpwm_set_brake_current
 4091              		.section	.text.mcpwm_get_comm_step,"ax",%progbits
 4092              		.align	1
 4093              		.p2align 4,,15
 4094              		.global	mcpwm_get_comm_step
 4095              		.syntax unified
 4096              		.thumb
 4097              		.thumb_func
 4098              		.fpu fpv4-sp-d16
 4099              		.type	mcpwm_get_comm_step, %function
 4100              	mcpwm_get_comm_step:
 4101              	.LFB271:
 4102              		.loc 1 702 0
 4103              		.cfi_startproc
 4104              		@ args = 0, pretend = 0, frame = 0
ARM GAS  C:\Users\CHRIST~1\AppData\Local\Temp\ccBtEVpO.s 			page 73


 4105              		@ frame_needed = 0, uses_anonymous_args = 0
 4106              		@ link register save eliminated.
 4107              		.loc 1 703 0
 4108 0000 014B     		ldr	r3, .L293
 4109 0002 1868     		ldr	r0, [r3]
 4110              		.loc 1 704 0
 4111 0004 7047     		bx	lr
 4112              	.L294:
 4113 0006 00BF     		.align	2
 4114              	.L293:
 4115 0008 00000000 		.word	.LANCHOR3
 4116              		.cfi_endproc
 4117              	.LFE271:
 4118              		.size	mcpwm_get_comm_step, .-mcpwm_get_comm_step
 4119              		.section	.text.mcpwm_get_duty_cycle_set,"ax",%progbits
 4120              		.align	1
 4121              		.p2align 4,,15
 4122              		.global	mcpwm_get_duty_cycle_set
 4123              		.syntax unified
 4124              		.thumb
 4125              		.thumb_func
 4126              		.fpu fpv4-sp-d16
 4127              		.type	mcpwm_get_duty_cycle_set, %function
 4128              	mcpwm_get_duty_cycle_set:
 4129              	.LFB272:
 4130              		.loc 1 706 0
 4131              		.cfi_startproc
 4132              		@ args = 0, pretend = 0, frame = 0
 4133              		@ frame_needed = 0, uses_anonymous_args = 0
 4134              		@ link register save eliminated.
 4135              		.loc 1 707 0
 4136 0000 014B     		ldr	r3, .L296
 4137 0002 93ED000A 		vldr.32	s0, [r3]
 4138              		.loc 1 708 0
 4139 0006 7047     		bx	lr
 4140              	.L297:
 4141              		.align	2
 4142              	.L296:
 4143 0008 00000000 		.word	.LANCHOR33
 4144              		.cfi_endproc
 4145              	.LFE272:
 4146              		.size	mcpwm_get_duty_cycle_set, .-mcpwm_get_duty_cycle_set
 4147              		.section	.text.mcpwm_get_duty_cycle_now,"ax",%progbits
 4148              		.align	1
 4149              		.p2align 4,,15
 4150              		.global	mcpwm_get_duty_cycle_now
 4151              		.syntax unified
 4152              		.thumb
 4153              		.thumb_func
 4154              		.fpu fpv4-sp-d16
 4155              		.type	mcpwm_get_duty_cycle_now, %function
 4156              	mcpwm_get_duty_cycle_now:
 4157              	.LFB273:
 4158              		.loc 1 710 0
 4159              		.cfi_startproc
 4160              		@ args = 0, pretend = 0, frame = 0
 4161              		@ frame_needed = 0, uses_anonymous_args = 0
ARM GAS  C:\Users\CHRIST~1\AppData\Local\Temp\ccBtEVpO.s 			page 74


 4162              		@ link register save eliminated.
 4163              		.loc 1 711 0
 4164 0000 014B     		ldr	r3, .L299
 4165 0002 93ED000A 		vldr.32	s0, [r3]
 4166              		.loc 1 712 0
 4167 0006 7047     		bx	lr
 4168              	.L300:
 4169              		.align	2
 4170              	.L299:
 4171 0008 00000000 		.word	.LANCHOR24
 4172              		.cfi_endproc
 4173              	.LFE273:
 4174              		.size	mcpwm_get_duty_cycle_now, .-mcpwm_get_duty_cycle_now
 4175              		.section	.text.mcpwm_get_switching_frequency_now,"ax",%progbits
 4176              		.align	1
 4177              		.p2align 4,,15
 4178              		.global	mcpwm_get_switching_frequency_now
 4179              		.syntax unified
 4180              		.thumb
 4181              		.thumb_func
 4182              		.fpu fpv4-sp-d16
 4183              		.type	mcpwm_get_switching_frequency_now, %function
 4184              	mcpwm_get_switching_frequency_now:
 4185              	.LFB274:
 4186              		.loc 1 720 0
 4187              		.cfi_startproc
 4188              		@ args = 0, pretend = 0, frame = 0
 4189              		@ frame_needed = 0, uses_anonymous_args = 0
 4190              		@ link register save eliminated.
 4191              		.loc 1 721 0
 4192 0000 014B     		ldr	r3, .L302
 4193 0002 93ED000A 		vldr.32	s0, [r3]
 4194              		.loc 1 722 0
 4195 0006 7047     		bx	lr
 4196              	.L303:
 4197              		.align	2
 4198              	.L302:
 4199 0008 00000000 		.word	.LANCHOR13
 4200              		.cfi_endproc
 4201              	.LFE274:
 4202              		.size	mcpwm_get_switching_frequency_now, .-mcpwm_get_switching_frequency_now
 4203              		.section	.text.mcpwm_get_rpm,"ax",%progbits
 4204              		.align	1
 4205              		.p2align 4,,15
 4206              		.global	mcpwm_get_rpm
 4207              		.syntax unified
 4208              		.thumb
 4209              		.thumb_func
 4210              		.fpu fpv4-sp-d16
 4211              		.type	mcpwm_get_rpm, %function
 4212              	mcpwm_get_rpm:
 4213              	.LFB275:
 4214              		.loc 1 732 0
 4215              		.cfi_startproc
 4216              		@ args = 0, pretend = 0, frame = 0
 4217              		@ frame_needed = 0, uses_anonymous_args = 0
 4218              		@ link register save eliminated.
ARM GAS  C:\Users\CHRIST~1\AppData\Local\Temp\ccBtEVpO.s 			page 75


 4219              		.loc 1 733 0
 4220 0000 064B     		ldr	r3, .L308
 4221 0002 1B68     		ldr	r3, [r3]
 4222 0004 1BB1     		cbz	r3, .L307
 4223              		.loc 1 733 0 is_stmt 0 discriminator 2
 4224 0006 064B     		ldr	r3, .L308+4
 4225 0008 93ED000A 		vldr.32	s0, [r3]
 4226              		.loc 1 734 0 is_stmt 1 discriminator 2
 4227 000c 7047     		bx	lr
 4228              	.L307:
 4229              		.loc 1 733 0 discriminator 1
 4230 000e 044B     		ldr	r3, .L308+4
 4231 0010 93ED000A 		vldr.32	s0, [r3]
 4232 0014 B1EE400A 		vneg.f32	s0, s0
 4233 0018 7047     		bx	lr
 4234              	.L309:
 4235 001a 00BF     		.align	2
 4236              	.L308:
 4237 001c 00000000 		.word	.LANCHOR4
 4238 0020 00000000 		.word	.LANCHOR10
 4239              		.cfi_endproc
 4240              	.LFE275:
 4241              		.size	mcpwm_get_rpm, .-mcpwm_get_rpm
 4242              		.section	.text.mcpwm_get_state,"ax",%progbits
 4243              		.align	1
 4244              		.p2align 4,,15
 4245              		.global	mcpwm_get_state
 4246              		.syntax unified
 4247              		.thumb
 4248              		.thumb_func
 4249              		.fpu fpv4-sp-d16
 4250              		.type	mcpwm_get_state, %function
 4251              	mcpwm_get_state:
 4252              	.LFB276:
 4253              		.loc 1 736 0
 4254              		.cfi_startproc
 4255              		@ args = 0, pretend = 0, frame = 0
 4256              		@ frame_needed = 0, uses_anonymous_args = 0
 4257              		@ link register save eliminated.
 4258              		.loc 1 737 0
 4259 0000 014B     		ldr	r3, .L311
 4260 0002 1878     		ldrb	r0, [r3]	@ zero_extendqisi2
 4261              		.loc 1 738 0
 4262 0004 7047     		bx	lr
 4263              	.L312:
 4264 0006 00BF     		.align	2
 4265              	.L311:
 4266 0008 00000000 		.word	.LANCHOR2
 4267              		.cfi_endproc
 4268              	.LFE276:
 4269              		.size	mcpwm_get_state, .-mcpwm_get_state
 4270              		.section	.text.mcpwm_get_kv,"ax",%progbits
 4271              		.align	1
 4272              		.p2align 4,,15
 4273              		.global	mcpwm_get_kv
 4274              		.syntax unified
 4275              		.thumb
ARM GAS  C:\Users\CHRIST~1\AppData\Local\Temp\ccBtEVpO.s 			page 76


 4276              		.thumb_func
 4277              		.fpu fpv4-sp-d16
 4278              		.type	mcpwm_get_kv, %function
 4279              	mcpwm_get_kv:
 4280              	.LFB277:
 4281              		.loc 1 748 0
 4282              		.cfi_startproc
 4283              		@ args = 0, pretend = 0, frame = 0
 4284              		@ frame_needed = 0, uses_anonymous_args = 0
 4285              		@ link register save eliminated.
 4286              		.loc 1 749 0
 4287 0000 0D4A     		ldr	r2, .L314
 4288 0002 0E4B     		ldr	r3, .L314+4
 4289 0004 92ED000A 		vldr.32	s0, [r2]
 4290 0008 1B8A     		ldrh	r3, [r3, #16]
 4291 000a 9FED0D6A 		vldr.32	s12, .L314+8
 4292 000e DFED0D6A 		vldr.32	s13, .L314+12
 4293 0012 07EE903A 		vmov	s15, r3	@ int
 4294 0016 F8EE677A 		vcvt.f32.u32	s15, s15
 4295 001a 0B4B     		ldr	r3, .L314+16
 4296 001c 67EE867A 		vmul.f32	s15, s15, s12
 4297 0020 93ED007A 		vldr.32	s14, [r3]
 4298 0024 67EEA67A 		vmul.f32	s15, s15, s13
 4299 0028 B0EEC77A 		vabs.f32	s14, s14
 4300 002c 67EE877A 		vmul.f32	s15, s15, s14
 4301              		.loc 1 750 0
 4302 0030 80EE270A 		vdiv.f32	s0, s0, s15
 4303 0034 7047     		bx	lr
 4304              	.L315:
 4305 0036 00BF     		.align	2
 4306              	.L314:
 4307 0038 00000000 		.word	.LANCHOR10
 4308 003c 00000000 		.word	ADC_Value
 4309 0040 6740533A 		.word	978534503
 4310 0044 74D19541 		.word	1100337524
 4311 0048 00000000 		.word	.LANCHOR24
 4312              		.cfi_endproc
 4313              	.LFE277:
 4314              		.size	mcpwm_get_kv, .-mcpwm_get_kv
 4315              		.section	.text.mcpwm_get_kv_filtered,"ax",%progbits
 4316              		.align	1
 4317              		.p2align 4,,15
 4318              		.global	mcpwm_get_kv_filtered
 4319              		.syntax unified
 4320              		.thumb
 4321              		.thumb_func
 4322              		.fpu fpv4-sp-d16
 4323              		.type	mcpwm_get_kv_filtered, %function
 4324              	mcpwm_get_kv_filtered:
 4325              	.LFB278:
 4326              		.loc 1 760 0
 4327              		.cfi_startproc
 4328              		@ args = 0, pretend = 0, frame = 0
 4329              		@ frame_needed = 0, uses_anonymous_args = 0
 4330              		@ link register save eliminated.
 4331              		.loc 1 761 0
 4332 0000 034B     		ldr	r3, .L317
ARM GAS  C:\Users\CHRIST~1\AppData\Local\Temp\ccBtEVpO.s 			page 77


 4333 0002 0449     		ldr	r1, .L317+4
 4334 0004 1B68     		ldr	r3, [r3]
 4335 0006 0448     		ldr	r0, .L317+8
 4336 0008 0722     		movs	r2, #7
 4337 000a FFF7FEBF 		b	filter_run_fir_iteration
 4338              	.LVL332:
 4339              	.L318:
 4340 000e 00BF     		.align	2
 4341              	.L317:
 4342 0010 00000000 		.word	.LANCHOR26
 4343 0014 00000000 		.word	.LANCHOR46
 4344 0018 00000000 		.word	.LANCHOR27
 4345              		.cfi_endproc
 4346              	.LFE278:
 4347              		.size	mcpwm_get_kv_filtered, .-mcpwm_get_kv_filtered
 4348              		.section	.text.mcpwm_get_tot_current,"ax",%progbits
 4349              		.align	1
 4350              		.p2align 4,,15
 4351              		.global	mcpwm_get_tot_current
 4352              		.syntax unified
 4353              		.thumb
 4354              		.thumb_func
 4355              		.fpu fpv4-sp-d16
 4356              		.type	mcpwm_get_tot_current, %function
 4357              	mcpwm_get_tot_current:
 4358              	.LFB279:
 4359              		.loc 1 775 0
 4360              		.cfi_startproc
 4361              		@ args = 0, pretend = 0, frame = 0
 4362              		@ frame_needed = 0, uses_anonymous_args = 0
 4363              		@ link register save eliminated.
 4364              		.loc 1 776 0
 4365 0000 014B     		ldr	r3, .L320
 4366 0002 93ED000A 		vldr.32	s0, [r3]
 4367              		.loc 1 777 0
 4368 0006 7047     		bx	lr
 4369              	.L321:
 4370              		.align	2
 4371              	.L320:
 4372 0008 00000000 		.word	.LANCHOR38
 4373              		.cfi_endproc
 4374              	.LFE279:
 4375              		.size	mcpwm_get_tot_current, .-mcpwm_get_tot_current
 4376              		.section	.text.mcpwm_get_tot_current_filtered,"ax",%progbits
 4377              		.align	1
 4378              		.p2align 4,,15
 4379              		.global	mcpwm_get_tot_current_filtered
 4380              		.syntax unified
 4381              		.thumb
 4382              		.thumb_func
 4383              		.fpu fpv4-sp-d16
 4384              		.type	mcpwm_get_tot_current_filtered, %function
 4385              	mcpwm_get_tot_current_filtered:
 4386              	.LFB280:
 4387              		.loc 1 787 0
 4388              		.cfi_startproc
 4389              		@ args = 0, pretend = 0, frame = 0
ARM GAS  C:\Users\CHRIST~1\AppData\Local\Temp\ccBtEVpO.s 			page 78


 4390              		@ frame_needed = 0, uses_anonymous_args = 0
 4391              		@ link register save eliminated.
 4392              		.loc 1 788 0
 4393 0000 014B     		ldr	r3, .L323
 4394 0002 93ED000A 		vldr.32	s0, [r3]
 4395              		.loc 1 789 0
 4396 0006 7047     		bx	lr
 4397              	.L324:
 4398              		.align	2
 4399              	.L323:
 4400 0008 00000000 		.word	.LANCHOR39
 4401              		.cfi_endproc
 4402              	.LFE280:
 4403              		.size	mcpwm_get_tot_current_filtered, .-mcpwm_get_tot_current_filtered
 4404              		.section	.text.mcpwm_get_tot_current_directional,"ax",%progbits
 4405              		.align	1
 4406              		.p2align 4,,15
 4407              		.global	mcpwm_get_tot_current_directional
 4408              		.syntax unified
 4409              		.thumb
 4410              		.thumb_func
 4411              		.fpu fpv4-sp-d16
 4412              		.type	mcpwm_get_tot_current_directional, %function
 4413              	mcpwm_get_tot_current_directional:
 4414              	.LFB281:
 4415              		.loc 1 798 0
 4416              		.cfi_startproc
 4417              		@ args = 0, pretend = 0, frame = 0
 4418              		@ frame_needed = 0, uses_anonymous_args = 0
 4419              		@ link register save eliminated.
 4420              	.LBB122:
 4421              	.LBB123:
 4422              		.loc 1 776 0
 4423 0000 064A     		ldr	r2, .L327
 4424              	.LBE123:
 4425              	.LBE122:
 4426              		.loc 1 800 0
 4427 0002 074B     		ldr	r3, .L327+4
 4428              	.LBB125:
 4429              	.LBB124:
 4430              		.loc 1 776 0
 4431 0004 92ED000A 		vldr.32	s0, [r2]
 4432              	.LBE124:
 4433              	.LBE125:
 4434              		.loc 1 800 0
 4435 0008 D3ED007A 		vldr.32	s15, [r3]
 4436 000c F5EEC07A 		vcmpe.f32	s15, #0
 4437 0010 F1EE10FA 		vmrs	APSR_nzcv, FPSCR
 4438 0014 D8BF     		it	le
 4439 0016 B1EE400A 		vnegle.f32	s0, s0
 4440              		.loc 1 801 0
 4441 001a 7047     		bx	lr
 4442              	.L328:
 4443              		.align	2
 4444              	.L327:
 4445 001c 00000000 		.word	.LANCHOR38
 4446 0020 00000000 		.word	.LANCHOR24
ARM GAS  C:\Users\CHRIST~1\AppData\Local\Temp\ccBtEVpO.s 			page 79


 4447              		.cfi_endproc
 4448              	.LFE281:
 4449              		.size	mcpwm_get_tot_current_directional, .-mcpwm_get_tot_current_directional
 4450              		.section	.text.mcpwm_get_tot_current_directional_filtered,"ax",%progbits
 4451              		.align	1
 4452              		.p2align 4,,15
 4453              		.global	mcpwm_get_tot_current_directional_filtered
 4454              		.syntax unified
 4455              		.thumb
 4456              		.thumb_func
 4457              		.fpu fpv4-sp-d16
 4458              		.type	mcpwm_get_tot_current_directional_filtered, %function
 4459              	mcpwm_get_tot_current_directional_filtered:
 4460              	.LFB282:
 4461              		.loc 1 810 0
 4462              		.cfi_startproc
 4463              		@ args = 0, pretend = 0, frame = 0
 4464              		@ frame_needed = 0, uses_anonymous_args = 0
 4465              		@ link register save eliminated.
 4466              	.LBB126:
 4467              	.LBB127:
 4468              		.loc 1 788 0
 4469 0000 064A     		ldr	r2, .L331
 4470              	.LBE127:
 4471              	.LBE126:
 4472              		.loc 1 812 0
 4473 0002 074B     		ldr	r3, .L331+4
 4474              	.LBB129:
 4475              	.LBB128:
 4476              		.loc 1 788 0
 4477 0004 92ED000A 		vldr.32	s0, [r2]
 4478              	.LBE128:
 4479              	.LBE129:
 4480              		.loc 1 812 0
 4481 0008 D3ED007A 		vldr.32	s15, [r3]
 4482 000c F5EEC07A 		vcmpe.f32	s15, #0
 4483 0010 F1EE10FA 		vmrs	APSR_nzcv, FPSCR
 4484 0014 D8BF     		it	le
 4485 0016 B1EE400A 		vnegle.f32	s0, s0
 4486              		.loc 1 813 0
 4487 001a 7047     		bx	lr
 4488              	.L332:
 4489              		.align	2
 4490              	.L331:
 4491 001c 00000000 		.word	.LANCHOR39
 4492 0020 00000000 		.word	.LANCHOR24
 4493              		.cfi_endproc
 4494              	.LFE282:
 4495              		.size	mcpwm_get_tot_current_directional_filtered, .-mcpwm_get_tot_current_directional_filtered
 4496              		.section	.text.mcpwm_get_tot_current_in,"ax",%progbits
 4497              		.align	1
 4498              		.p2align 4,,15
 4499              		.global	mcpwm_get_tot_current_in
 4500              		.syntax unified
 4501              		.thumb
 4502              		.thumb_func
 4503              		.fpu fpv4-sp-d16
ARM GAS  C:\Users\CHRIST~1\AppData\Local\Temp\ccBtEVpO.s 			page 80


 4504              		.type	mcpwm_get_tot_current_in, %function
 4505              	mcpwm_get_tot_current_in:
 4506              	.LFB283:
 4507              		.loc 1 821 0
 4508              		.cfi_startproc
 4509              		@ args = 0, pretend = 0, frame = 0
 4510              		@ frame_needed = 0, uses_anonymous_args = 0
 4511              		@ link register save eliminated.
 4512              	.LBB130:
 4513              	.LBB131:
 4514              		.loc 1 776 0
 4515 0000 054A     		ldr	r2, .L334
 4516              	.LBE131:
 4517              	.LBE130:
 4518              		.loc 1 822 0
 4519 0002 064B     		ldr	r3, .L334+4
 4520              	.LBB133:
 4521              	.LBB132:
 4522              		.loc 1 776 0
 4523 0004 92ED000A 		vldr.32	s0, [r2]
 4524              	.LBE132:
 4525              	.LBE133:
 4526              		.loc 1 822 0
 4527 0008 D3ED007A 		vldr.32	s15, [r3]
 4528 000c F0EEE77A 		vabs.f32	s15, s15
 4529              		.loc 1 823 0
 4530 0010 27EE800A 		vmul.f32	s0, s15, s0
 4531 0014 7047     		bx	lr
 4532              	.L335:
 4533 0016 00BF     		.align	2
 4534              	.L334:
 4535 0018 00000000 		.word	.LANCHOR38
 4536 001c 00000000 		.word	.LANCHOR24
 4537              		.cfi_endproc
 4538              	.LFE283:
 4539              		.size	mcpwm_get_tot_current_in, .-mcpwm_get_tot_current_in
 4540              		.section	.text.mcpwm_get_tot_current_in_filtered,"ax",%progbits
 4541              		.align	1
 4542              		.p2align 4,,15
 4543              		.global	mcpwm_get_tot_current_in_filtered
 4544              		.syntax unified
 4545              		.thumb
 4546              		.thumb_func
 4547              		.fpu fpv4-sp-d16
 4548              		.type	mcpwm_get_tot_current_in_filtered, %function
 4549              	mcpwm_get_tot_current_in_filtered:
 4550              	.LFB284:
 4551              		.loc 1 831 0
 4552              		.cfi_startproc
 4553              		@ args = 0, pretend = 0, frame = 0
 4554              		@ frame_needed = 0, uses_anonymous_args = 0
 4555              		@ link register save eliminated.
 4556              	.LBB134:
 4557              	.LBB135:
 4558              		.loc 1 788 0
 4559 0000 054A     		ldr	r2, .L337
 4560              	.LBE135:
ARM GAS  C:\Users\CHRIST~1\AppData\Local\Temp\ccBtEVpO.s 			page 81


 4561              	.LBE134:
 4562              		.loc 1 832 0
 4563 0002 064B     		ldr	r3, .L337+4
 4564              	.LBB137:
 4565              	.LBB136:
 4566              		.loc 1 788 0
 4567 0004 92ED000A 		vldr.32	s0, [r2]
 4568              	.LBE136:
 4569              	.LBE137:
 4570              		.loc 1 832 0
 4571 0008 D3ED007A 		vldr.32	s15, [r3]
 4572 000c F0EEE77A 		vabs.f32	s15, s15
 4573              		.loc 1 833 0
 4574 0010 27EE800A 		vmul.f32	s0, s15, s0
 4575 0014 7047     		bx	lr
 4576              	.L338:
 4577 0016 00BF     		.align	2
 4578              	.L337:
 4579 0018 00000000 		.word	.LANCHOR39
 4580 001c 00000000 		.word	.LANCHOR24
 4581              		.cfi_endproc
 4582              	.LFE284:
 4583              		.size	mcpwm_get_tot_current_in_filtered, .-mcpwm_get_tot_current_in_filtered
 4584              		.section	.text.mcpwm_get_tachometer_value,"ax",%progbits
 4585              		.align	1
 4586              		.p2align 4,,15
 4587              		.global	mcpwm_get_tachometer_value
 4588              		.syntax unified
 4589              		.thumb
 4590              		.thumb_func
 4591              		.fpu fpv4-sp-d16
 4592              		.type	mcpwm_get_tachometer_value, %function
 4593              	mcpwm_get_tachometer_value:
 4594              	.LFB285:
 4595              		.loc 1 846 0
 4596              		.cfi_startproc
 4597              		@ args = 0, pretend = 0, frame = 0
 4598              		@ frame_needed = 0, uses_anonymous_args = 0
 4599              		@ link register save eliminated.
 4600              	.LVL333:
 4601              		.loc 1 847 0
 4602 0000 034B     		ldr	r3, .L344
 4603 0002 1A68     		ldr	r2, [r3]
 4604              	.LVL334:
 4605              		.loc 1 849 0
 4606 0004 08B1     		cbz	r0, .L339
 4607              		.loc 1 850 0
 4608 0006 0021     		movs	r1, #0
 4609 0008 1960     		str	r1, [r3]
 4610              	.L339:
 4611              		.loc 1 854 0
 4612 000a 1046     		mov	r0, r2
 4613              	.LVL335:
 4614 000c 7047     		bx	lr
 4615              	.L345:
 4616 000e 00BF     		.align	2
 4617              	.L344:
ARM GAS  C:\Users\CHRIST~1\AppData\Local\Temp\ccBtEVpO.s 			page 82


 4618 0010 00000000 		.word	.LANCHOR9
 4619              		.cfi_endproc
 4620              	.LFE285:
 4621              		.size	mcpwm_get_tachometer_value, .-mcpwm_get_tachometer_value
 4622              		.section	.text.mcpwm_get_tachometer_abs_value,"ax",%progbits
 4623              		.align	1
 4624              		.p2align 4,,15
 4625              		.global	mcpwm_get_tachometer_abs_value
 4626              		.syntax unified
 4627              		.thumb
 4628              		.thumb_func
 4629              		.fpu fpv4-sp-d16
 4630              		.type	mcpwm_get_tachometer_abs_value, %function
 4631              	mcpwm_get_tachometer_abs_value:
 4632              	.LFB286:
 4633              		.loc 1 866 0
 4634              		.cfi_startproc
 4635              		@ args = 0, pretend = 0, frame = 0
 4636              		@ frame_needed = 0, uses_anonymous_args = 0
 4637              		@ link register save eliminated.
 4638              	.LVL336:
 4639              		.loc 1 867 0
 4640 0000 034B     		ldr	r3, .L351
 4641 0002 1A68     		ldr	r2, [r3]
 4642              	.LVL337:
 4643              		.loc 1 869 0
 4644 0004 08B1     		cbz	r0, .L346
 4645              		.loc 1 870 0
 4646 0006 0021     		movs	r1, #0
 4647 0008 1960     		str	r1, [r3]
 4648              	.L346:
 4649              		.loc 1 874 0
 4650 000a 1046     		mov	r0, r2
 4651              	.LVL338:
 4652 000c 7047     		bx	lr
 4653              	.L352:
 4654 000e 00BF     		.align	2
 4655              	.L351:
 4656 0010 00000000 		.word	.LANCHOR8
 4657              		.cfi_endproc
 4658              	.LFE286:
 4659              		.size	mcpwm_get_tachometer_abs_value, .-mcpwm_get_tachometer_abs_value
 4660              		.section	.text.mcpwm_stop_pwm,"ax",%progbits
 4661              		.align	1
 4662              		.p2align 4,,15
 4663              		.global	mcpwm_stop_pwm
 4664              		.syntax unified
 4665              		.thumb
 4666              		.thumb_func
 4667              		.fpu fpv4-sp-d16
 4668              		.type	mcpwm_stop_pwm, %function
 4669              	mcpwm_stop_pwm:
 4670              	.LFB287:
 4671              		.loc 1 879 0
 4672              		.cfi_startproc
 4673              		@ args = 0, pretend = 0, frame = 0
 4674              		@ frame_needed = 0, uses_anonymous_args = 0
ARM GAS  C:\Users\CHRIST~1\AppData\Local\Temp\ccBtEVpO.s 			page 83


 4675              		@ link register save eliminated.
 4676              		.loc 1 880 0
 4677 0000 0648     		ldr	r0, .L355
 4678              	.LBB138:
 4679              	.LBB139:
 4680              		.loc 1 885 0
 4681 0002 0749     		ldr	r1, .L355+4
 4682              		.loc 1 886 0
 4683 0004 074A     		ldr	r2, .L355+8
 4684              	.LBE139:
 4685              	.LBE138:
 4686              		.loc 1 879 0
 4687 0006 10B4     		push	{r4}
 4688              		.cfi_def_cfa_offset 4
 4689              		.cfi_offset 4, -4
 4690              		.loc 1 880 0
 4691 0008 0724     		movs	r4, #7
 4692 000a 0470     		strb	r4, [r0]
 4693              	.LBB142:
 4694              	.LBB140:
 4695              		.loc 1 885 0
 4696 000c 0023     		movs	r3, #0
 4697              	.LBE140:
 4698              	.LBE142:
 4699              		.loc 1 882 0
 4700 000e 5DF8044B 		ldr	r4, [sp], #4
 4701              		.cfi_restore 4
 4702              		.cfi_def_cfa_offset 0
 4703              	.LBB143:
 4704              	.LBB141:
 4705              		.loc 1 885 0
 4706 0012 0B70     		strb	r3, [r1]
 4707              		.loc 1 886 0
 4708 0014 1360     		str	r3, [r2]
 4709              		.loc 1 887 0
 4710 0016 FFF7FEBF 		b	stop_pwm_hw
 4711              	.LVL339:
 4712              	.L356:
 4713 001a 00BF     		.align	2
 4714              	.L355:
 4715 001c 00000000 		.word	.LANCHOR37
 4716 0020 00000000 		.word	.LANCHOR2
 4717 0024 00000000 		.word	.LANCHOR40
 4718              	.LBE141:
 4719              	.LBE143:
 4720              		.cfi_endproc
 4721              	.LFE287:
 4722              		.size	mcpwm_stop_pwm, .-mcpwm_stop_pwm
 4723              		.section	.text.mcpwm_adc_inj_int_handler,"ax",%progbits
 4724              		.align	1
 4725              		.p2align 4,,15
 4726              		.global	mcpwm_adc_inj_int_handler
 4727              		.syntax unified
 4728              		.thumb
 4729              		.thumb_func
 4730              		.fpu fpv4-sp-d16
 4731              		.type	mcpwm_adc_inj_int_handler, %function
ARM GAS  C:\Users\CHRIST~1\AppData\Local\Temp\ccBtEVpO.s 			page 84


 4732              	mcpwm_adc_inj_int_handler:
 4733              	.LFB299:
 4734              		.loc 1 1427 0
 4735              		.cfi_startproc
 4736              		@ args = 0, pretend = 0, frame = 0
 4737              		@ frame_needed = 0, uses_anonymous_args = 0
 4738 0000 F8B5     		push	{r3, r4, r5, r6, r7, lr}
 4739              		.cfi_def_cfa_offset 24
 4740              		.cfi_offset 3, -24
 4741              		.cfi_offset 4, -20
 4742              		.cfi_offset 5, -16
 4743              		.cfi_offset 6, -12
 4744              		.cfi_offset 7, -8
 4745              		.cfi_offset 14, -4
 4746              		.loc 1 1428 0
 4747 0002 A84B     		ldr	r3, .L430
 4748              		.loc 1 1430 0
 4749 0004 A848     		ldr	r0, .L430+4
 4750              		.loc 1 1428 0
 4751 0006 0022     		movs	r2, #0
 4752              		.loc 1 1427 0
 4753 0008 2DED028B 		vpush.64	{d8}
 4754              		.cfi_def_cfa_offset 32
 4755              		.cfi_offset 80, -32
 4756              		.cfi_offset 81, -28
 4757              		.loc 1 1430 0
 4758 000c 1421     		movs	r1, #20
 4759              		.loc 1 1428 0
 4760 000e 5A62     		str	r2, [r3, #36]
 4761              		.loc 1 1430 0
 4762 0010 FFF7FEFF 		bl	ADC_GetInjectedConversionValue
 4763              	.LVL340:
 4764              		.loc 1 1431 0
 4765 0014 1421     		movs	r1, #20
 4766              		.loc 1 1430 0
 4767 0016 0646     		mov	r6, r0
 4768              	.LVL341:
 4769              		.loc 1 1431 0
 4770 0018 A448     		ldr	r0, .L430+8
 4771              	.LVL342:
 4772 001a FFF7FEFF 		bl	ADC_GetInjectedConversionValue
 4773              	.LVL343:
 4774              		.loc 1 1433 0
 4775 001e 1821     		movs	r1, #24
 4776              		.loc 1 1431 0
 4777 0020 0546     		mov	r5, r0
 4778              	.LVL344:
 4779              		.loc 1 1433 0
 4780 0022 A248     		ldr	r0, .L430+8
 4781 0024 FFF7FEFF 		bl	ADC_GetInjectedConversionValue
 4782              	.LVL345:
 4783              		.loc 1 1434 0
 4784 0028 1821     		movs	r1, #24
 4785 002a 9F48     		ldr	r0, .L430+4
 4786 002c FFF7FEFF 		bl	ADC_GetInjectedConversionValue
 4787              	.LVL346:
 4788              		.loc 1 1446 0
ARM GAS  C:\Users\CHRIST~1\AppData\Local\Temp\ccBtEVpO.s 			page 85


 4789 0030 9F4B     		ldr	r3, .L430+12
 4790 0032 1A68     		ldr	r2, [r3]
 4791 0034 D207     		lsls	r2, r2, #31
 4792 0036 02D5     		bpl	.L358
 4793              		.loc 1 1447 0
 4794 0038 9E4A     		ldr	r2, .L430+16
 4795 003a 1689     		ldrh	r6, [r2, #8]
 4796              	.LVL347:
 4797 003c B6B2     		uxth	r6, r6
 4798              	.LVL348:
 4799              	.L358:
 4800              		.loc 1 1450 0
 4801 003e 1B68     		ldr	r3, [r3]
 4802 0040 9B07     		lsls	r3, r3, #30
 4803 0042 02D5     		bpl	.L359
 4804              		.loc 1 1451 0
 4805 0044 9B4B     		ldr	r3, .L430+16
 4806 0046 DD88     		ldrh	r5, [r3, #6]
 4807              	.LVL349:
 4808 0048 ADB2     		uxth	r5, r5
 4809              	.LVL350:
 4810              	.L359:
 4811              		.loc 1 1473 0
 4812 004a 9B48     		ldr	r0, .L430+20
 4813              		.loc 1 1474 0
 4814 004c 9B4C     		ldr	r4, .L430+24
 4815              		.loc 1 1473 0
 4816 004e 0368     		ldr	r3, [r0]
 4817              		.loc 1 1479 0
 4818 0050 9B4A     		ldr	r2, .L430+28
 4819              		.loc 1 1481 0
 4820 0052 9C49     		ldr	r1, .L430+32
 4821              		.loc 1 1473 0
 4822 0054 3344     		add	r3, r3, r6
 4823 0056 0360     		str	r3, [r0]
 4824              		.loc 1 1474 0
 4825 0058 2368     		ldr	r3, [r4]
 4826              		.loc 1 1482 0
 4827 005a 9B48     		ldr	r0, .L430+36
 4828              		.loc 1 1474 0
 4829 005c 2B44     		add	r3, r3, r5
 4830 005e 2360     		str	r3, [r4]
 4831              		.loc 1 1479 0
 4832 0060 1368     		ldr	r3, [r2]
 4833              		.loc 1 1511 0
 4834 0062 9A4C     		ldr	r4, .L430+40
 4835              		.loc 1 1479 0
 4836 0064 0133     		adds	r3, r3, #1
 4837 0066 1360     		str	r3, [r2]
 4838              		.loc 1 1481 0
 4839 0068 0B68     		ldr	r3, [r1]
 4840              	.LVL351:
 4841              		.loc 1 1482 0
 4842 006a 0368     		ldr	r3, [r0]
 4843              		.loc 1 1483 0
 4844 006c 0A68     		ldr	r2, [r1]
 4845              		.loc 1 1484 0
ARM GAS  C:\Users\CHRIST~1\AppData\Local\Temp\ccBtEVpO.s 			page 86


 4846 006e 0368     		ldr	r3, [r0]
 4847              		.loc 1 1485 0
 4848 0070 0F68     		ldr	r7, [r1]
 4849              		.loc 1 1486 0
 4850 0072 0768     		ldr	r7, [r0]
 4851              		.loc 1 1484 0
 4852 0074 ED1A     		subs	r5, r5, r3
 4853              	.LVL352:
 4854              		.loc 1 1483 0
 4855 0076 B61A     		subs	r6, r6, r2
 4856              	.LVL353:
 4857              		.loc 1 1511 0
 4858 0078 2660     		str	r6, [r4]
 4859              		.loc 1 1512 0
 4860 007a 6560     		str	r5, [r4, #4]
 4861              		.loc 1 1517 0
 4862 007c 2368     		ldr	r3, [r4]
 4863 007e 6268     		ldr	r2, [r4, #4]
 4864              		.loc 1 1521 0
 4865 0080 934D     		ldr	r5, .L430+44
 4866              	.LVL354:
 4867              		.loc 1 1517 0
 4868 0082 1344     		add	r3, r3, r2
 4869 0084 5B42     		negs	r3, r3
 4870              		.loc 1 1521 0
 4871 0086 2A68     		ldr	r2, [r5]
 4872              		.loc 1 1517 0
 4873 0088 A360     		str	r3, [r4, #8]
 4874              	.LVL355:
 4875              		.loc 1 1521 0
 4876 008a 9378     		ldrb	r3, [r2, #2]	@ zero_extendqisi2
 4877 008c 012B     		cmp	r3, #1
 4878 008e 23D0     		beq	.L426
 4879              	.LBB144:
 4880              		.loc 1 1554 0
 4881 0090 904E     		ldr	r6, .L430+48
 4882              	.LVL356:
 4883 0092 3378     		ldrb	r3, [r6]	@ zero_extendqisi2
 4884 0094 032B     		cmp	r3, #3
 4885 0096 00F09181 		beq	.L427
 4886              	.LBB145:
 4887              		.loc 1 1583 0
 4888 009a 8F4B     		ldr	r3, .L430+52
 4889 009c 1B68     		ldr	r3, [r3]
 4890 009e 6BB1     		cbz	r3, .L365
 4891              		.loc 1 1584 0
 4892 00a0 8E4B     		ldr	r3, .L430+56
 4893 00a2 1A68     		ldr	r2, [r3]
 4894 00a4 013A     		subs	r2, r2, #1
 4895 00a6 052A     		cmp	r2, #5
 4896 00a8 00F2BB81 		bhi	.L400
 4897 00ac DFE812F0 		tbh	[pc, r2, lsl #1]
 4898              	.L368:
 4899 00b0 7800     		.2byte	(.L378-.L368)/2
 4900 00b2 7800     		.2byte	(.L378-.L368)/2
 4901 00b4 EF00     		.2byte	(.L376-.L368)/2
 4902 00b6 F400     		.2byte	(.L374-.L368)/2
ARM GAS  C:\Users\CHRIST~1\AppData\Local\Temp\ccBtEVpO.s 			page 87


 4903 00b8 E800     		.2byte	(.L380-.L368)/2
 4904 00ba E800     		.2byte	(.L380-.L368)/2
 4905              		.p2align 1
 4906              	.L365:
 4907              		.loc 1 1594 0
 4908 00bc 874B     		ldr	r3, .L430+56
 4909 00be 1A68     		ldr	r2, [r3]
 4910 00c0 013A     		subs	r2, r2, #1
 4911 00c2 052A     		cmp	r2, #5
 4912 00c4 00F2AD81 		bhi	.L400
 4913 00c8 DFE812F0 		tbh	[pc, r2, lsl #1]
 4914              	.L375:
 4915 00cc E600     		.2byte	(.L374-.L375)/2
 4916 00ce E100     		.2byte	(.L376-.L375)/2
 4917 00d0 6A00     		.2byte	(.L378-.L375)/2
 4918 00d2 6A00     		.2byte	(.L378-.L375)/2
 4919 00d4 DA00     		.2byte	(.L380-.L375)/2
 4920 00d6 DA00     		.2byte	(.L380-.L375)/2
 4921              	.LVL357:
 4922              		.p2align 1
 4923              	.L426:
 4924              	.LBE145:
 4925              	.LBE144:
 4926              		.loc 1 1522 0
 4927 00d8 7F4B     		ldr	r3, .L430+52
 4928 00da 1B68     		ldr	r3, [r3]
 4929 00dc 002B     		cmp	r3, #0
 4930 00de 54D1     		bne	.L428
 4931              		.loc 1 1529 0
 4932 00e0 744B     		ldr	r3, .L430+16
 4933 00e2 1B89     		ldrh	r3, [r3, #8]
 4934 00e4 0968     		ldr	r1, [r1]
 4935 00e6 5B1A     		subs	r3, r3, r1
 4936 00e8 07EE903A 		vmov	s15, r3	@ int
 4937 00ec F8EEE77A 		vcvt.f32.s32	s15, s15
 4938 00f0 B1EE678A 		vneg.f32	s16, s15
 4939              	.LVL358:
 4940              	.L362:
 4941              		.loc 1 1684 0
 4942 00f4 DFED7A7A 		vldr.32	s15, .L430+60
 4943 00f8 7A4B     		ldr	r3, .L430+64
 4944              		.loc 1 1687 0
 4945 00fa DFED7B6A 		vldr.32	s13, .L430+68
 4946              		.loc 1 1684 0
 4947 00fe 68EE277A 		vmul.f32	s15, s16, s15
 4948 0102 C3ED007A 		vstr.32	s15, [r3]
 4949              		.loc 1 1687 0
 4950 0106 93ED007A 		vldr.32	s14, [r3]
 4951 010a D2ED057A 		vldr.32	s15, [r2, #20]
 4952 010e 67EEA67A 		vmul.f32	s15, s15, s13
 4953 0112 B0EEC77A 		vabs.f32	s14, s14
 4954 0116 B4EEE77A 		vcmpe.f32	s14, s15
 4955 011a F1EE10FA 		vmrs	APSR_nzcv, FPSCR
 4956 011e 14DD     		ble	.L395
 4957              		.loc 1 1688 0
 4958 0120 93ED007A 		vldr.32	s14, [r3]
 4959 0124 D2ED057A 		vldr.32	s15, [r2, #20]
ARM GAS  C:\Users\CHRIST~1\AppData\Local\Temp\ccBtEVpO.s 			page 88


 4960 0128 B5EEC07A 		vcmpe.f32	s14, #0
 4961 012c F1EE10FA 		vmrs	APSR_nzcv, FPSCR
 4962 0130 BFEE007A 		vmov.f32	s14, #-1.0e+0
 4963 0134 B7EE006A 		vmov.f32	s12, #1.0e+0
 4964 0138 58BF     		it	pl
 4965 013a B0EE467A 		vmovpl.f32	s14, s12
 4966 013e 67EE877A 		vmul.f32	s15, s15, s14
 4967 0142 67EEA67A 		vmul.f32	s15, s15, s13
 4968 0146 C3ED007A 		vstr.32	s15, [r3]
 4969              	.L395:
 4970              		.loc 1 1691 0
 4971 014a 684C     		ldr	r4, .L430+72
 4972 014c 93ED000A 		vldr.32	s0, [r3]
 4973 0150 6748     		ldr	r0, .L430+76
 4974 0152 2246     		mov	r2, r4
 4975 0154 0421     		movs	r1, #4
 4976 0156 FFF7FEFF 		bl	filter_add_sample
 4977              	.LVL359:
 4978              		.loc 1 1693 0
 4979 015a 2368     		ldr	r3, [r4]
 4980 015c 6549     		ldr	r1, .L430+80
 4981 015e 6448     		ldr	r0, .L430+76
 4982 0160 0422     		movs	r2, #4
 4983 0162 FFF7FEFF 		bl	filter_run_fir_iteration
 4984              	.LVL360:
 4985 0166 644A     		ldr	r2, .L430+84
 4986              		.loc 1 1697 0
 4987 0168 4E4B     		ldr	r3, .L430
 4988              		.loc 1 1693 0
 4989 016a 82ED000A 		vstr.32	s0, [r2]
 4990              		.loc 1 1697 0
 4991 016e D3ED097A 		vldr.32	s15, [r3, #36]	@ int
 4992 0172 DFED626A 		vldr.32	s13, .L430+88
 4993 0176 624B     		ldr	r3, .L430+92
 4994 0178 F8EE677A 		vcvt.f32.u32	s15, s15
 4995              		.loc 1 1698 0
 4996 017c BDEC028B 		vldm	sp!, {d8}
 4997              		.cfi_remember_state
 4998              		.cfi_restore 80
 4999              		.cfi_restore 81
 5000              		.cfi_def_cfa_offset 24
 5001              	.LVL361:
 5002              		.loc 1 1697 0
 5003 0180 87EEA67A 		vdiv.f32	s14, s15, s13
 5004 0184 83ED007A 		vstr.32	s14, [r3]
 5005              		.loc 1 1698 0
 5006 0188 F8BD     		pop	{r3, r4, r5, r6, r7, pc}
 5007              	.LVL362:
 5008              	.L428:
 5009              		.cfi_restore_state
 5010              		.loc 1 1526 0
 5011 018a 4A4B     		ldr	r3, .L430+16
 5012 018c DB88     		ldrh	r3, [r3, #6]
 5013 018e 0168     		ldr	r1, [r0]
 5014 0190 5B1A     		subs	r3, r3, r1
 5015 0192 07EE903A 		vmov	s15, r3	@ int
 5016 0196 F8EEE77A 		vcvt.f32.s32	s15, s15
ARM GAS  C:\Users\CHRIST~1\AppData\Local\Temp\ccBtEVpO.s 			page 89


 5017 019a B1EE678A 		vneg.f32	s16, s15
 5018              	.LVL363:
 5019 019e A9E7     		b	.L362
 5020              	.LVL364:
 5021              	.L378:
 5022              	.LBB152:
 5023              	.LBB146:
 5024              		.loc 1 1598 0
 5025 01a0 D4ED017A 		vldr.32	s15, [r4, #4]	@ int
 5026 01a4 F8EEE77A 		vcvt.f32.s32	s15, s15
 5027 01a8 F1EE677A 		vneg.f32	s15, s15
 5028              	.LVL365:
 5029              	.L366:
 5030              		.loc 1 1609 0
 5031 01ac 554A     		ldr	r2, .L430+96
 5032 01ae 1868     		ldr	r0, [r3]
 5033 01b0 1168     		ldr	r1, [r2]
 5034              		.loc 1 1612 0
 5035 01b2 1B68     		ldr	r3, [r3]
 5036 01b4 1360     		str	r3, [r2]
 5037              		.loc 1 1609 0
 5038 01b6 8842     		cmp	r0, r1
 5039              		.loc 1 1610 0
 5040 01b8 16BF     		itet	ne
 5041 01ba 5349     		ldrne	r1, .L430+100
 5042 01bc 5249     		ldreq	r1, .L430+100
 5043 01be 91ED008A 		vldrne.32	s16, [r1]
 5044              	.LVL366:
 5045              		.loc 1 1613 0
 5046 01c2 C1ED007A 		vstr.32	s15, [r1]
 5047 01c6 08BF     		it	eq
 5048 01c8 B0EE678A 		vmoveq.f32	s16, s15
 5049              	.LVL367:
 5050              	.L364:
 5051              	.LBE146:
 5052              		.loc 1 1616 0
 5053 01cc 4F4F     		ldr	r7, .L430+104
 5054 01ce 3B68     		ldr	r3, [r7]
 5055 01d0 042B     		cmp	r3, #4
 5056 01d2 0AD0     		beq	.L429
 5057              	.L382:
 5058              		.loc 1 1663 0
 5059 01d4 002B     		cmp	r3, #0
 5060 01d6 00F0A380 		beq	.L391
 5061              		.loc 1 1667 0
 5062 01da 3278     		ldrb	r2, [r6]	@ zero_extendqisi2
 5063              		.loc 1 1664 0
 5064 01dc 013B     		subs	r3, r3, #1
 5065              		.loc 1 1667 0
 5066 01de 012A     		cmp	r2, #1
 5067              		.loc 1 1664 0
 5068 01e0 3B60     		str	r3, [r7]
 5069              		.loc 1 1667 0
 5070 01e2 00F0E780 		beq	.L392
 5071              	.L425:
 5072 01e6 2A68     		ldr	r2, [r5]
 5073 01e8 84E7     		b	.L362
ARM GAS  C:\Users\CHRIST~1\AppData\Local\Temp\ccBtEVpO.s 			page 90


 5074              	.L429:
 5075              	.LBB147:
 5076              		.loc 1 1617 0
 5077 01ea 94ED007A 		vldr.32	s14, [r4]	@ int
 5078              		.loc 1 1618 0
 5079 01ee D4ED017A 		vldr.32	s15, [r4, #4]	@ int
 5080              		.loc 1 1621 0
 5081 01f2 474B     		ldr	r3, .L430+108
 5082 01f4 474A     		ldr	r2, .L430+112
 5083 01f6 1968     		ldr	r1, [r3]
 5084              		.loc 1 1617 0
 5085 01f8 B8EEC77A 		vcvt.f32.s32	s14, s14
 5086              		.loc 1 1618 0
 5087 01fc F8EEE77A 		vcvt.f32.s32	s15, s15
 5088              		.loc 1 1617 0
 5089 0200 B0EEC77A 		vabs.f32	s14, s14
 5090              	.LVL368:
 5091              		.loc 1 1618 0
 5092 0204 F0EEE77A 		vabs.f32	s15, s15
 5093              	.LVL369:
 5094              		.loc 1 1620 0
 5095 0208 B4EEE77A 		vcmpe.f32	s14, s15
 5096 020c F1EE10FA 		vmrs	APSR_nzcv, FPSCR
 5097              		.loc 1 1621 0
 5098 0210 02EB8101 		add	r1, r2, r1, lsl #2
 5099 0214 CCBF     		ite	gt
 5100 0216 81ED007A 		vstrgt.32	s14, [r1]
 5101              		.loc 1 1623 0
 5102 021a C1ED007A 		vstrle.32	s15, [r1]
 5103              		.loc 1 1626 0
 5104 021e 1968     		ldr	r1, [r3]
 5105 0220 0029     		cmp	r1, #0
 5106 0222 40F3EC80 		ble	.L386
 5107              		.loc 1 1628 0
 5108 0226 1968     		ldr	r1, [r3]
 5109              		.loc 1 1627 0
 5110 0228 3B48     		ldr	r0, .L430+116
 5111              		.loc 1 1628 0
 5112 022a 0139     		subs	r1, r1, #1
 5113 022c 02EB8101 		add	r1, r2, r1, lsl #2
 5114 0230 D1ED007A 		vldr.32	s15, [r1]
 5115              	.LVL370:
 5116 0234 1968     		ldr	r1, [r3]
 5117 0236 02EB8101 		add	r1, r2, r1, lsl #2
 5118 023a 91ED007A 		vldr.32	s14, [r1]
 5119              	.LVL371:
 5120              		.loc 1 1627 0
 5121 023e 1968     		ldr	r1, [r3]
 5122              		.loc 1 1628 0
 5123 0240 77EEC77A 		vsub.f32	s15, s15, s14
 5124              		.loc 1 1627 0
 5125 0244 00EB8101 		add	r1, r0, r1, lsl #2
 5126 0248 C1ED007A 		vstr.32	s15, [r1]
 5127              	.L387:
 5128              		.loc 1 1634 0
 5129 024c 194C     		ldr	r4, .L430+16
 5130              		.loc 1 1637 0
ARM GAS  C:\Users\CHRIST~1\AppData\Local\Temp\ccBtEVpO.s 			page 91


 5131 024e 2348     		ldr	r0, .L430+56
 5132              		.loc 1 1634 0
 5133 0250 218A     		ldrh	r1, [r4, #16]
 5134              		.loc 1 1637 0
 5135 0252 0068     		ldr	r0, [r0]
 5136 0254 0628     		cmp	r0, #6
 5137              		.loc 1 1634 0
 5138 0256 89B2     		uxth	r1, r1
 5139              	.LVL372:
 5140 0258 00F28D80 		bhi	.L388
 5141 025c 4FF0010C 		mov	ip, #1
 5142 0260 0CFA00F0 		lsl	r0, ip, r0
 5143 0264 10F0480F 		tst	r0, #72
 5144 0268 21FA0CF1 		lsr	r1, r1, ip
 5145              	.LVL373:
 5146 026c 77D1     		bne	.L389
 5147 026e 10F0240F 		tst	r0, #36
 5148 0272 40F0D480 		bne	.L390
 5149 0276 10F0120F 		tst	r0, #18
 5150 027a 7CD0     		beq	.L388
 5151              		.loc 1 1640 0
 5152 027c A088     		ldrh	r0, [r4, #4]
 5153 027e 6FE0     		b	.L424
 5154              	.LVL374:
 5155              	.L380:
 5156              	.LBE147:
 5157              	.LBB148:
 5158              		.loc 1 1600 0
 5159 0280 D4ED007A 		vldr.32	s15, [r4]	@ int
 5160 0284 F8EEE77A 		vcvt.f32.s32	s15, s15
 5161 0288 F1EE677A 		vneg.f32	s15, s15
 5162              	.LVL375:
 5163 028c 8EE7     		b	.L366
 5164              	.LVL376:
 5165              	.L376:
 5166              		.loc 1 1596 0
 5167 028e D4ED007A 		vldr.32	s15, [r4]	@ int
 5168 0292 F8EEE77A 		vcvt.f32.s32	s15, s15
 5169              	.LVL377:
 5170 0296 89E7     		b	.L366
 5171              	.LVL378:
 5172              	.L374:
 5173              		.loc 1 1595 0
 5174 0298 D4ED017A 		vldr.32	s15, [r4, #4]	@ int
 5175 029c F8EEE77A 		vcvt.f32.s32	s15, s15
 5176              	.LVL379:
 5177 02a0 84E7     		b	.L366
 5178              	.L431:
 5179 02a2 00BF     		.align	2
 5180              	.L430:
 5181 02a4 00180040 		.word	1073747968
 5182 02a8 00200140 		.word	1073815552
 5183 02ac 00210140 		.word	1073815808
 5184 02b0 00000000 		.word	.LANCHOR1
 5185 02b4 00000000 		.word	ADC_Value
 5186 02b8 00000000 		.word	.LANCHOR48
 5187 02bc 00000000 		.word	.LANCHOR49
ARM GAS  C:\Users\CHRIST~1\AppData\Local\Temp\ccBtEVpO.s 			page 92


 5188 02c0 00000000 		.word	.LANCHOR50
 5189 02c4 00000000 		.word	.LANCHOR51
 5190 02c8 00000000 		.word	.LANCHOR52
 5191 02cc 00000000 		.word	ADC_curr_norm_value
 5192 02d0 00000000 		.word	.LANCHOR0
 5193 02d4 00000000 		.word	.LANCHOR2
 5194 02d8 00000000 		.word	.LANCHOR4
 5195 02dc 00000000 		.word	.LANCHOR3
 5196 02e0 500AA53D 		.word	1034226256
 5197 02e4 00000000 		.word	.LANCHOR38
 5198 02e8 9A99993F 		.word	1067030938
 5199 02ec 00000000 		.word	.LANCHOR63
 5200 02f0 00000000 		.word	.LANCHOR64
 5201 02f4 00000000 		.word	.LANCHOR47
 5202 02f8 00000000 		.word	.LANCHOR39
 5203 02fc 8096184B 		.word	1259902592
 5204 0300 00000000 		.word	.LANCHOR65
 5205 0304 00000000 		.word	.LANCHOR55
 5206 0308 00000000 		.word	.LANCHOR56
 5207 030c 00000000 		.word	.LANCHOR57
 5208 0310 00000000 		.word	.LANCHOR32
 5209 0314 00000000 		.word	.LANCHOR58
 5210 0318 00000000 		.word	.LANCHOR59
 5211 031c CDCC4C3E 		.word	1045220557
 5212              	.LVL380:
 5213              	.L391:
 5214              	.LBE148:
 5215              		.loc 1 1667 0
 5216 0320 3378     		ldrb	r3, [r6]	@ zero_extendqisi2
 5217 0322 012B     		cmp	r3, #1
 5218 0324 7FF45FAF 		bne	.L425
 5219              	.L393:
 5220              		.loc 1 1668 0
 5221 0328 0523     		movs	r3, #5
 5222              		.loc 1 1670 0
 5223 032a 1FED040A 		vldr.32	s0, .L430+120
 5224              		.loc 1 1668 0
 5225 032e 3B60     		str	r3, [r7]
 5226              		.loc 1 1670 0
 5227 0330 FFF7FEFF 		bl	set_duty_cycle_hw
 5228              	.LVL381:
 5229              		.loc 1 1672 0
 5230 0334 3C4B     		ldr	r3, .L432
 5231 0336 1A68     		ldr	r2, [r3]
 5232 0338 0132     		adds	r2, r2, #1
 5233 033a 1A60     		str	r2, [r3]
 5234              		.loc 1 1673 0
 5235 033c 1A68     		ldr	r2, [r3]
 5236 033e 052A     		cmp	r2, #5
 5237              		.loc 1 1674 0
 5238 0340 C4BF     		itt	gt
 5239 0342 0022     		movgt	r2, #0
 5240 0344 1A60     		strgt	r2, [r3]
 5241              		.loc 1 1677 0
 5242 0346 1B68     		ldr	r3, [r3]
 5243 0348 384A     		ldr	r2, .L432+4
 5244 034a 0133     		adds	r3, r3, #1
ARM GAS  C:\Users\CHRIST~1\AppData\Local\Temp\ccBtEVpO.s 			page 93


 5245 034c 1360     		str	r3, [r2]
 5246              		.loc 1 1679 0
 5247 034e 1068     		ldr	r0, [r2]
 5248 0350 FFF7FEFF 		bl	set_next_comm_step
 5249              	.LVL382:
 5250              		.loc 1 1680 0
 5251 0354 2021     		movs	r1, #32
 5252 0356 3648     		ldr	r0, .L432+8
 5253 0358 FFF7FEFF 		bl	TIM_GenerateEvent
 5254              	.LVL383:
 5255 035c 43E7     		b	.L425
 5256              	.L389:
 5257              	.LBB149:
 5258              		.loc 1 1650 0
 5259 035e 2088     		ldrh	r0, [r4]
 5260              	.L424:
 5261 0360 344C     		ldr	r4, .L432+12
 5262 0362 411A     		subs	r1, r0, r1
 5263 0364 07EE901A 		vmov	s15, r1	@ int
 5264 0368 1868     		ldr	r0, [r3]
 5265 036a F8EEE77A 		vcvt.f32.s32	s15, s15
 5266 036e 04EB8001 		add	r1, r4, r0, lsl #2
 5267 0372 C1ED007A 		vstr.32	s15, [r1]
 5268              	.L388:
 5269              		.loc 1 1657 0
 5270 0376 1868     		ldr	r0, [r3]
 5271 0378 2F49     		ldr	r1, .L432+16
 5272 037a 02EB8002 		add	r2, r2, r0, lsl #2
 5273 037e D2ED007A 		vldr.32	s15, [r2]
 5274 0382 1868     		ldr	r0, [r3]
 5275              		.loc 1 1658 0
 5276 0384 2D4A     		ldr	r2, .L432+20
 5277              		.loc 1 1657 0
 5278 0386 01EB8001 		add	r1, r1, r0, lsl #2
 5279 038a 91ED007A 		vldr.32	s14, [r1]
 5280 038e 37EE277A 		vadd.f32	s14, s14, s15
 5281              		.loc 1 1658 0
 5282 0392 F7EE006A 		vmov.f32	s13, #1.0e+0
 5283              		.loc 1 1657 0
 5284 0396 81ED007A 		vstr.32	s14, [r1]
 5285              		.loc 1 1658 0
 5286 039a 1B68     		ldr	r3, [r3]
 5287 039c 02EB8303 		add	r3, r2, r3, lsl #2
 5288 03a0 D3ED007A 		vldr.32	s15, [r3]
 5289 03a4 77EEA67A 		vadd.f32	s15, s15, s13
 5290 03a8 C3ED007A 		vstr.32	s15, [r3]
 5291              		.loc 1 1660 0
 5292 03ac FFF7FEFF 		bl	stop_pwm_hw
 5293              	.LVL384:
 5294 03b0 3B68     		ldr	r3, [r7]
 5295 03b2 0FE7     		b	.L382
 5296              	.L392:
 5297              	.LBE149:
 5298              		.loc 1 1667 0 discriminator 1
 5299 03b4 002B     		cmp	r3, #0
 5300 03b6 7FF416AF 		bne	.L425
 5301 03ba B5E7     		b	.L393
ARM GAS  C:\Users\CHRIST~1\AppData\Local\Temp\ccBtEVpO.s 			page 94


 5302              	.LVL385:
 5303              	.L427:
 5304              	.LBB150:
 5305              		.loc 1 1555 0
 5306 03bc D4ED006A 		vldr.32	s13, [r4]	@ int
 5307              		.loc 1 1556 0
 5308 03c0 D4ED017A 		vldr.32	s15, [r4, #4]	@ int
 5309              		.loc 1 1557 0
 5310 03c4 94ED027A 		vldr.32	s14, [r4, #8]	@ int
 5311              		.loc 1 1556 0
 5312 03c8 F8EEE77A 		vcvt.f32.s32	s15, s15
 5313              		.loc 1 1555 0
 5314 03cc F8EEE66A 		vcvt.f32.s32	s13, s13
 5315              	.LVL386:
 5316              		.loc 1 1558 0
 5317 03d0 67EEA77A 		vmul.f32	s15, s15, s15
 5318              	.LVL387:
 5319              		.loc 1 1557 0
 5320 03d4 B8EEC77A 		vcvt.f32.s32	s14, s14
 5321              	.LVL388:
 5322              		.loc 1 1558 0
 5323 03d8 E6EEA67A 		vfma.f32	s15, s13, s13
 5324 03dc F7EE086A 		vmov.f32	s13, #1.5e+0
 5325              	.LVL389:
 5326 03e0 E7EE077A 		vfma.f32	s15, s14, s14
 5327 03e4 87EEA60A 		vdiv.f32	s0, s15, s13
 5328 03e8 B5EE400A 		vcmp.f32	s0, #0
 5329 03ec F1EE10FA 		vmrs	APSR_nzcv, FPSCR
 5330 03f0 B1EEC08A 		vsqrt.f32	s16, s0
 5331 03f4 7FF5EAAE 		bpl	.L364
 5332 03f8 FFF7FEFF 		bl	sqrtf
 5333              	.LVL390:
 5334 03fc E6E6     		b	.L364
 5335              	.LVL391:
 5336              	.L386:
 5337              	.LBE150:
 5338              	.LBB151:
 5339              		.loc 1 1631 0
 5340 03fe D2ED057A 		vldr.32	s15, [r2, #20]
 5341              	.LVL392:
 5342 0402 1868     		ldr	r0, [r3]
 5343              		.loc 1 1630 0
 5344 0404 0E49     		ldr	r1, .L432+24
 5345              		.loc 1 1631 0
 5346 0406 02EB8000 		add	r0, r2, r0, lsl #2
 5347 040a 90ED007A 		vldr.32	s14, [r0]
 5348              	.LVL393:
 5349              		.loc 1 1630 0
 5350 040e 1868     		ldr	r0, [r3]
 5351              		.loc 1 1631 0
 5352 0410 77EEC77A 		vsub.f32	s15, s15, s14
 5353              		.loc 1 1630 0
 5354 0414 01EB8001 		add	r1, r1, r0, lsl #2
 5355 0418 C1ED007A 		vstr.32	s15, [r1]
 5356 041c 16E7     		b	.L387
 5357              	.L390:
 5358              		.loc 1 1645 0
ARM GAS  C:\Users\CHRIST~1\AppData\Local\Temp\ccBtEVpO.s 			page 95


 5359 041e 6088     		ldrh	r0, [r4, #2]
 5360 0420 9EE7     		b	.L424
 5361              	.LVL394:
 5362              	.L400:
 5363              	.LBE151:
 5364              	.LBE152:
 5365              		.loc 1 1520 0
 5366 0422 DFED087A 		vldr.32	s15, .L432+28
 5367 0426 C1E6     		b	.L366
 5368              	.L433:
 5369              		.align	2
 5370              	.L432:
 5371 0428 00000000 		.word	.LANCHOR32
 5372 042c 00000000 		.word	.LANCHOR3
 5373 0430 00000140 		.word	1073807360
 5374 0434 00000000 		.word	.LANCHOR60
 5375 0438 00000000 		.word	.LANCHOR61
 5376 043c 00000000 		.word	.LANCHOR62
 5377 0440 00000000 		.word	.LANCHOR59
 5378 0444 00000000 		.word	0
 5379              		.cfi_endproc
 5380              	.LFE299:
 5381              		.size	mcpwm_adc_inj_int_handler, .-mcpwm_adc_inj_int_handler
 5382              		.section	.text.mcpwm_set_detect,"ax",%progbits
 5383              		.align	1
 5384              		.p2align 4,,15
 5385              		.global	mcpwm_set_detect
 5386              		.syntax unified
 5387              		.thumb
 5388              		.thumb_func
 5389              		.fpu fpv4-sp-d16
 5390              		.type	mcpwm_set_detect, %function
 5391              	mcpwm_set_detect:
 5392              	.LFB301:
 5393              		.loc 1 2074 0
 5394              		.cfi_startproc
 5395              		@ args = 0, pretend = 0, frame = 0
 5396              		@ frame_needed = 0, uses_anonymous_args = 0
 5397 0000 F8B5     		push	{r3, r4, r5, r6, r7, lr}
 5398              		.cfi_def_cfa_offset 24
 5399              		.cfi_offset 3, -24
 5400              		.cfi_offset 4, -20
 5401              		.cfi_offset 5, -16
 5402              		.cfi_offset 6, -12
 5403              		.cfi_offset 7, -8
 5404              		.cfi_offset 14, -4
 5405              		.loc 1 2075 0
 5406 0002 FFF7FEFF 		bl	mc_interface_try_input
 5407              	.LVL395:
 5408 0006 00B1     		cbz	r0, .L439
 5409              		.loc 1 2091 0
 5410 0008 F8BD     		pop	{r3, r4, r5, r6, r7, pc}
 5411              	.L439:
 5412              		.loc 1 2079 0
 5413 000a 0F4B     		ldr	r3, .L440
 5414 000c 0F4F     		ldr	r7, .L440+4
 5415 000e 104E     		ldr	r6, .L440+8
ARM GAS  C:\Users\CHRIST~1\AppData\Local\Temp\ccBtEVpO.s 			page 96


 5416 0010 104D     		ldr	r5, .L440+12
 5417 0012 0722     		movs	r2, #7
 5418 0014 1A70     		strb	r2, [r3]
 5419 0016 0446     		mov	r4, r0
 5420              		.loc 1 2080 0
 5421 0018 FFF7FEFF 		bl	stop_pwm_hw
 5422              	.LVL396:
 5423              		.loc 1 2082 0
 5424 001c 0E4B     		ldr	r3, .L440+16
 5425 001e 1B68     		ldr	r3, [r3]
 5426 0020 93ED5A0A 		vldr.32	s0, [r3, #360]
 5427 0024 FFF7FEFF 		bl	set_switching_frequency
 5428              	.LVL397:
 5429              	.LBB153:
 5430              		.loc 1 2085 0
 5431 0028 0022     		movs	r2, #0
 5432              	.LVL398:
 5433              	.L436:
 5434              		.loc 1 2085 0 is_stmt 0 discriminator 3
 5435 002a A300     		lsls	r3, r4, #2
 5436 002c F818     		adds	r0, r7, r3
 5437              		.loc 1 2086 0 is_stmt 1 discriminator 3
 5438 002e F118     		adds	r1, r6, r3
 5439              		.loc 1 2084 0 discriminator 3
 5440 0030 0134     		adds	r4, r4, #1
 5441              	.LVL399:
 5442              		.loc 1 2087 0 discriminator 3
 5443 0032 2B44     		add	r3, r3, r5
 5444              		.loc 1 2084 0 discriminator 3
 5445 0034 062C     		cmp	r4, #6
 5446              		.loc 1 2085 0 discriminator 3
 5447 0036 0260     		str	r2, [r0]	@ float
 5448              		.loc 1 2086 0 discriminator 3
 5449 0038 0A60     		str	r2, [r1]	@ float
 5450              		.loc 1 2087 0 discriminator 3
 5451 003a 1A60     		str	r2, [r3]	@ float
 5452              		.loc 1 2084 0 discriminator 3
 5453 003c F5D1     		bne	.L436
 5454              	.LBE153:
 5455              		.loc 1 2090 0
 5456 003e 074B     		ldr	r3, .L440+20
 5457 0040 0122     		movs	r2, #1
 5458 0042 1A70     		strb	r2, [r3]
 5459              		.loc 1 2091 0
 5460 0044 F8BD     		pop	{r3, r4, r5, r6, r7, pc}
 5461              	.LVL400:
 5462              	.L441:
 5463 0046 00BF     		.align	2
 5464              	.L440:
 5465 0048 00000000 		.word	.LANCHOR37
 5466 004c 00000000 		.word	.LANCHOR58
 5467 0050 00000000 		.word	.LANCHOR61
 5468 0054 00000000 		.word	.LANCHOR62
 5469 0058 00000000 		.word	.LANCHOR0
 5470 005c 00000000 		.word	.LANCHOR2
 5471              		.cfi_endproc
 5472              	.LFE301:
ARM GAS  C:\Users\CHRIST~1\AppData\Local\Temp\ccBtEVpO.s 			page 97


 5473              		.size	mcpwm_set_detect, .-mcpwm_set_detect
 5474              		.section	.text.mcpwm_get_detect_pos,"ax",%progbits
 5475              		.align	1
 5476              		.p2align 4,,15
 5477              		.global	mcpwm_get_detect_pos
 5478              		.syntax unified
 5479              		.thumb
 5480              		.thumb_func
 5481              		.fpu fpv4-sp-d16
 5482              		.type	mcpwm_get_detect_pos, %function
 5483              	mcpwm_get_detect_pos:
 5484              	.LFB302:
 5485              		.loc 1 2093 0
 5486              		.cfi_startproc
 5487              		@ args = 0, pretend = 0, frame = 8
 5488              		@ frame_needed = 0, uses_anonymous_args = 0
 5489 0000 30B5     		push	{r4, r5, lr}
 5490              		.cfi_def_cfa_offset 12
 5491              		.cfi_offset 4, -12
 5492              		.cfi_offset 5, -8
 5493              		.cfi_offset 14, -4
 5494              		.loc 1 2095 0
 5495 0002 3F48     		ldr	r0, .L450
 5496 0004 3F4C     		ldr	r4, .L450+4
 5497 0006 94ED002A 		vldr.32	s4, [r4]
 5498 000a D0ED002A 		vldr.32	s5, [r0]
 5499              		.loc 1 2096 0
 5500 000e 94ED013A 		vldr.32	s6, [r4, #4]
 5501 0012 D0ED013A 		vldr.32	s7, [r0, #4]
 5502              		.loc 1 2097 0
 5503 0016 94ED024A 		vldr.32	s8, [r4, #8]
 5504 001a D0ED026A 		vldr.32	s13, [r0, #8]
 5505              		.loc 1 2098 0
 5506 001e D4ED034A 		vldr.32	s9, [r4, #12]
 5507 0022 90ED037A 		vldr.32	s14, [r0, #12]
 5508              		.loc 1 2099 0
 5509 0026 94ED045A 		vldr.32	s10, [r4, #16]
 5510 002a D0ED047A 		vldr.32	s15, [r0, #16]
 5511              		.loc 1 2100 0
 5512 002e D4ED055A 		vldr.32	s11, [r4, #20]
 5513 0032 90ED056A 		vldr.32	s12, [r0, #20]
 5514              		.loc 1 2093 0
 5515 0036 2DED048B 		vpush.64	{d8, d9}
 5516              		.cfi_def_cfa_offset 28
 5517              		.cfi_offset 80, -28
 5518              		.cfi_offset 81, -24
 5519              		.cfi_offset 82, -20
 5520              		.cfi_offset 83, -16
 5521              		.loc 1 2097 0
 5522 003a 84EE268A 		vdiv.f32	s16, s8, s13
 5523              		.loc 1 2093 0
 5524 003e 83B0     		sub	sp, sp, #12
 5525              		.cfi_def_cfa_offset 40
 5526              	.LBB154:
 5527              		.loc 1 2103 0
 5528 0040 0021     		movs	r1, #0
 5529              		.loc 1 2102 0
ARM GAS  C:\Users\CHRIST~1\AppData\Local\Temp\ccBtEVpO.s 			page 98


 5530 0042 0022     		movs	r2, #0
 5531              	.LBE154:
 5532              		.loc 1 2098 0
 5533 0044 C4EE876A 		vdiv.f32	s13, s9, s14
 5534              		.loc 1 2095 0
 5535 0048 82EE229A 		vdiv.f32	s18, s4, s5
 5536              	.LVL401:
 5537              		.loc 1 2099 0
 5538 004c 85EE277A 		vdiv.f32	s14, s10, s15
 5539              		.loc 1 2096 0
 5540 0050 C3EE238A 		vdiv.f32	s17, s6, s7
 5541              	.LVL402:
 5542              		.loc 1 2100 0
 5543 0054 C5EE867A 		vdiv.f32	s15, s11, s12
 5544              	.LVL403:
 5545              	.L443:
 5546              	.LBB155:
 5547              		.loc 1 2103 0 discriminator 3
 5548 0058 9300     		lsls	r3, r2, #2
 5549 005a E518     		adds	r5, r4, r3
 5550              		.loc 1 2102 0 discriminator 3
 5551 005c 0132     		adds	r2, r2, #1
 5552              	.LVL404:
 5553              		.loc 1 2104 0 discriminator 3
 5554 005e 0344     		add	r3, r3, r0
 5555              		.loc 1 2102 0 discriminator 3
 5556 0060 062A     		cmp	r2, #6
 5557              		.loc 1 2103 0 discriminator 3
 5558 0062 2960     		str	r1, [r5]	@ float
 5559              		.loc 1 2104 0 discriminator 3
 5560 0064 1960     		str	r1, [r3]	@ float
 5561              		.loc 1 2102 0 discriminator 3
 5562 0066 F7D1     		bne	.L443
 5563              	.LBE155:
 5564              		.loc 1 2107 0
 5565 0068 39EE269A 		vadd.f32	s18, s18, s13
 5566              	.LVL405:
 5567              		.loc 1 2108 0
 5568 006c 78EE878A 		vadd.f32	s17, s17, s14
 5569              	.LVL406:
 5570              		.loc 1 2109 0
 5571 0070 38EE278A 		vadd.f32	s16, s16, s15
 5572              	.LVL407:
 5573              		.loc 1 2111 0
 5574 0074 79EE287A 		vadd.f32	s15, s18, s17
 5575              	.LVL408:
 5576 0078 B0EE086A 		vmov.f32	s12, #3.0e+0
 5577              	.LVL409:
 5578 007c 77EE887A 		vadd.f32	s15, s15, s16
 5579              		.loc 1 2116 0
 5580 0080 F7EE086A 		vmov.f32	s13, #1.5e+0
 5581              	.LVL410:
 5582              		.loc 1 2111 0
 5583 0084 87EE867A 		vdiv.f32	s14, s15, s12
 5584              	.LVL411:
 5585              		.loc 1 2113 0
 5586 0088 78EEC78A 		vsub.f32	s17, s17, s14
ARM GAS  C:\Users\CHRIST~1\AppData\Local\Temp\ccBtEVpO.s 			page 99


 5587              	.LVL412:
 5588              		.loc 1 2112 0
 5589 008c 39EE479A 		vsub.f32	s18, s18, s14
 5590              	.LVL413:
 5591              		.loc 1 2116 0
 5592 0090 68EEA87A 		vmul.f32	s15, s17, s17
 5593              		.loc 1 2114 0
 5594 0094 38EE478A 		vsub.f32	s16, s16, s14
 5595              	.LVL414:
 5596              		.loc 1 2116 0
 5597 0098 E9EE097A 		vfma.f32	s15, s18, s18
 5598 009c E8EE087A 		vfma.f32	s15, s16, s16
 5599 00a0 87EEA60A 		vdiv.f32	s0, s15, s13
 5600 00a4 B5EE400A 		vcmp.f32	s0, #0
 5601 00a8 F1EE10FA 		vmrs	APSR_nzcv, FPSCR
 5602 00ac F1EEC09A 		vsqrt.f32	s19, s0
 5603 00b0 23D4     		bmi	.L449
 5604              	.LVL415:
 5605              	.L444:
 5606              		.loc 1 2122 0
 5607 00b2 89EE290A 		vdiv.f32	s0, s18, s19
 5608              	.LVL416:
 5609 00b6 FFF7FEFF 		bl	asinf
 5610              	.LVL417:
 5611              		.loc 1 2129 0
 5612 00ba 01A8     		add	r0, sp, #4
 5613              		.loc 1 2122 0
 5614 00bc DFED127A 		vldr.32	s15, .L450+8
 5615 00c0 DFED125A 		vldr.32	s11, .L450+12
 5616 00c4 20EE270A 		vmul.f32	s0, s0, s15
 5617              		.loc 1 2118 0
 5618 00c8 88EEA96A 		vdiv.f32	s12, s17, s19
 5619              	.LVL418:
 5620              		.loc 1 2119 0
 5621 00cc C8EE296A 		vdiv.f32	s13, s16, s19
 5622              	.LVL419:
 5623              		.loc 1 2122 0
 5624 00d0 80EE257A 		vdiv.f32	s14, s0, s11
 5625              	.LVL420:
 5626              		.loc 1 2125 0
 5627 00d4 B4EEE66A 		vcmpe.f32	s12, s13
 5628 00d8 F1EE10FA 		vmrs	APSR_nzcv, FPSCR
 5629              		.loc 1 2126 0
 5630 00dc 4ABF     		itet	mi
 5631 00de 77EEC77A 		vsubmi.f32	s15, s15, s14
 5632              		.loc 1 2124 0
 5633 00e2 8DED017A 		vstrpl.32	s14, [sp, #4]
 5634              		.loc 1 2126 0
 5635 00e6 CDED017A 		vstrmi.32	s15, [sp, #4]
 5636              		.loc 1 2129 0
 5637 00ea FFF7FEFF 		bl	utils_norm_angle
 5638              	.LVL421:
 5639              		.loc 1 2132 0
 5640 00ee 9DED010A 		vldr.32	s0, [sp, #4]
 5641 00f2 03B0     		add	sp, sp, #12
 5642              		.cfi_remember_state
 5643              		.cfi_def_cfa_offset 28
ARM GAS  C:\Users\CHRIST~1\AppData\Local\Temp\ccBtEVpO.s 			page 100


 5644              		@ sp needed
 5645 00f4 BDEC048B 		vldm	sp!, {d8-d9}
 5646              		.cfi_restore 82
 5647              		.cfi_restore 83
 5648              		.cfi_restore 80
 5649              		.cfi_restore 81
 5650              		.cfi_def_cfa_offset 12
 5651              	.LVL422:
 5652 00f8 30BD     		pop	{r4, r5, pc}
 5653              	.LVL423:
 5654              	.L449:
 5655              		.cfi_restore_state
 5656              		.loc 1 2116 0
 5657 00fa FFF7FEFF 		bl	sqrtf
 5658              	.LVL424:
 5659 00fe D8E7     		b	.L444
 5660              	.L451:
 5661              		.align	2
 5662              	.L450:
 5663 0100 00000000 		.word	.LANCHOR62
 5664 0104 00000000 		.word	.LANCHOR61
 5665 0108 00003443 		.word	1127481344
 5666 010c DB0F4940 		.word	1078530011
 5667              		.cfi_endproc
 5668              	.LFE302:
 5669              		.size	mcpwm_get_detect_pos, .-mcpwm_get_detect_pos
 5670              		.section	.text.mcpwm_read_reset_avg_cycle_integrator,"ax",%progbits
 5671              		.align	1
 5672              		.p2align 4,,15
 5673              		.global	mcpwm_read_reset_avg_cycle_integrator
 5674              		.syntax unified
 5675              		.thumb
 5676              		.thumb_func
 5677              		.fpu fpv4-sp-d16
 5678              		.type	mcpwm_read_reset_avg_cycle_integrator, %function
 5679              	mcpwm_read_reset_avg_cycle_integrator:
 5680              	.LFB303:
 5681              		.loc 1 2134 0
 5682              		.cfi_startproc
 5683              		@ args = 0, pretend = 0, frame = 0
 5684              		@ frame_needed = 0, uses_anonymous_args = 0
 5685              		@ link register save eliminated.
 5686              		.loc 1 2135 0
 5687 0000 0549     		ldr	r1, .L453
 5688 0002 064B     		ldr	r3, .L453+4
 5689 0004 91ED000A 		vldr.32	s0, [r1]
 5690 0008 D3ED007A 		vldr.32	s15, [r3]
 5691              	.LVL425:
 5692              		.loc 1 2136 0
 5693 000c 0022     		movs	r2, #0
 5694 000e 0A60     		str	r2, [r1]	@ float
 5695              		.loc 1 2139 0
 5696 0010 80EE270A 		vdiv.f32	s0, s0, s15
 5697              	.LVL426:
 5698              		.loc 1 2137 0
 5699 0014 1A60     		str	r2, [r3]	@ float
 5700              		.loc 1 2139 0
ARM GAS  C:\Users\CHRIST~1\AppData\Local\Temp\ccBtEVpO.s 			page 101


 5701 0016 7047     		bx	lr
 5702              	.L454:
 5703              		.align	2
 5704              	.L453:
 5705 0018 00000000 		.word	.LANCHOR42
 5706 001c 00000000 		.word	.LANCHOR43
 5707              		.cfi_endproc
 5708              	.LFE303:
 5709              		.size	mcpwm_read_reset_avg_cycle_integrator, .-mcpwm_read_reset_avg_cycle_integrator
 5710              		.section	.text.mcpwm_set_comm_mode,"ax",%progbits
 5711              		.align	1
 5712              		.p2align 4,,15
 5713              		.global	mcpwm_set_comm_mode
 5714              		.syntax unified
 5715              		.thumb
 5716              		.thumb_func
 5717              		.fpu fpv4-sp-d16
 5718              		.type	mcpwm_set_comm_mode, %function
 5719              	mcpwm_set_comm_mode:
 5720              	.LFB304:
 5721              		.loc 1 2150 0
 5722              		.cfi_startproc
 5723              		@ args = 0, pretend = 0, frame = 0
 5724              		@ frame_needed = 0, uses_anonymous_args = 0
 5725              		@ link register save eliminated.
 5726              	.LVL427:
 5727              		.loc 1 2151 0
 5728 0000 014B     		ldr	r3, .L456
 5729 0002 1B68     		ldr	r3, [r3]
 5730 0004 5870     		strb	r0, [r3, #1]
 5731              		.loc 1 2152 0
 5732 0006 7047     		bx	lr
 5733              	.L457:
 5734              		.align	2
 5735              	.L456:
 5736 0008 00000000 		.word	.LANCHOR0
 5737              		.cfi_endproc
 5738              	.LFE304:
 5739              		.size	mcpwm_set_comm_mode, .-mcpwm_set_comm_mode
 5740              		.section	.text.mcpwm_get_comm_mode,"ax",%progbits
 5741              		.align	1
 5742              		.p2align 4,,15
 5743              		.global	mcpwm_get_comm_mode
 5744              		.syntax unified
 5745              		.thumb
 5746              		.thumb_func
 5747              		.fpu fpv4-sp-d16
 5748              		.type	mcpwm_get_comm_mode, %function
 5749              	mcpwm_get_comm_mode:
 5750              	.LFB305:
 5751              		.loc 1 2154 0
 5752              		.cfi_startproc
 5753              		@ args = 0, pretend = 0, frame = 0
 5754              		@ frame_needed = 0, uses_anonymous_args = 0
 5755              		@ link register save eliminated.
 5756              		.loc 1 2155 0
 5757 0000 014B     		ldr	r3, .L459
ARM GAS  C:\Users\CHRIST~1\AppData\Local\Temp\ccBtEVpO.s 			page 102


 5758 0002 1B68     		ldr	r3, [r3]
 5759 0004 5878     		ldrb	r0, [r3, #1]	@ zero_extendqisi2
 5760              		.loc 1 2156 0
 5761 0006 7047     		bx	lr
 5762              	.L460:
 5763              		.align	2
 5764              	.L459:
 5765 0008 00000000 		.word	.LANCHOR0
 5766              		.cfi_endproc
 5767              	.LFE305:
 5768              		.size	mcpwm_get_comm_mode, .-mcpwm_get_comm_mode
 5769              		.section	.text.mcpwm_get_last_adc_isr_duration,"ax",%progbits
 5770              		.align	1
 5771              		.p2align 4,,15
 5772              		.global	mcpwm_get_last_adc_isr_duration
 5773              		.syntax unified
 5774              		.thumb
 5775              		.thumb_func
 5776              		.fpu fpv4-sp-d16
 5777              		.type	mcpwm_get_last_adc_isr_duration, %function
 5778              	mcpwm_get_last_adc_isr_duration:
 5779              	.LFB306:
 5780              		.loc 1 2158 0
 5781              		.cfi_startproc
 5782              		@ args = 0, pretend = 0, frame = 0
 5783              		@ frame_needed = 0, uses_anonymous_args = 0
 5784              		@ link register save eliminated.
 5785              		.loc 1 2159 0
 5786 0000 014B     		ldr	r3, .L462
 5787 0002 93ED000A 		vldr.32	s0, [r3]
 5788              		.loc 1 2160 0
 5789 0006 7047     		bx	lr
 5790              	.L463:
 5791              		.align	2
 5792              	.L462:
 5793 0008 00000000 		.word	.LANCHOR66
 5794              		.cfi_endproc
 5795              	.LFE306:
 5796              		.size	mcpwm_get_last_adc_isr_duration, .-mcpwm_get_last_adc_isr_duration
 5797              		.section	.text.mcpwm_get_last_inj_adc_isr_duration,"ax",%progbits
 5798              		.align	1
 5799              		.p2align 4,,15
 5800              		.global	mcpwm_get_last_inj_adc_isr_duration
 5801              		.syntax unified
 5802              		.thumb
 5803              		.thumb_func
 5804              		.fpu fpv4-sp-d16
 5805              		.type	mcpwm_get_last_inj_adc_isr_duration, %function
 5806              	mcpwm_get_last_inj_adc_isr_duration:
 5807              	.LFB307:
 5808              		.loc 1 2162 0
 5809              		.cfi_startproc
 5810              		@ args = 0, pretend = 0, frame = 0
 5811              		@ frame_needed = 0, uses_anonymous_args = 0
 5812              		@ link register save eliminated.
 5813              		.loc 1 2163 0
 5814 0000 014B     		ldr	r3, .L465
ARM GAS  C:\Users\CHRIST~1\AppData\Local\Temp\ccBtEVpO.s 			page 103


 5815 0002 93ED000A 		vldr.32	s0, [r3]
 5816              		.loc 1 2164 0
 5817 0006 7047     		bx	lr
 5818              	.L466:
 5819              		.align	2
 5820              	.L465:
 5821 0008 00000000 		.word	.LANCHOR65
 5822              		.cfi_endproc
 5823              	.LFE307:
 5824              		.size	mcpwm_get_last_inj_adc_isr_duration, .-mcpwm_get_last_inj_adc_isr_duration
 5825              		.section	.text.mcpwm_get_rpm_dep,"ax",%progbits
 5826              		.align	1
 5827              		.p2align 4,,15
 5828              		.global	mcpwm_get_rpm_dep
 5829              		.syntax unified
 5830              		.thumb
 5831              		.thumb_func
 5832              		.fpu fpv4-sp-d16
 5833              		.type	mcpwm_get_rpm_dep, %function
 5834              	mcpwm_get_rpm_dep:
 5835              	.LFB308:
 5836              		.loc 1 2166 0
 5837              		.cfi_startproc
 5838              		@ args = 0, pretend = 0, frame = 0
 5839              		@ frame_needed = 0, uses_anonymous_args = 0
 5840              		@ link register save eliminated.
 5841              	.LVL428:
 5842 0000 70B4     		push	{r4, r5, r6}
 5843              		.cfi_def_cfa_offset 12
 5844              		.cfi_offset 4, -12
 5845              		.cfi_offset 5, -8
 5846              		.cfi_offset 6, -4
 5847              		.loc 1 2167 0
 5848 0002 064D     		ldr	r5, .L469
 5849              		.loc 1 2166 0
 5850 0004 0646     		mov	r6, r0
 5851              		.loc 1 2167 0
 5852 0006 0FCD     		ldmia	r5!, {r0, r1, r2, r3}
 5853              	.LVL429:
 5854 0008 3446     		mov	r4, r6
 5855 000a 0FC4     		stmia	r4!, {r0, r1, r2, r3}
 5856 000c 95E80700 		ldm	r5, {r0, r1, r2}
 5857 0010 84E80700 		stm	r4, {r0, r1, r2}
 5858              		.loc 1 2168 0
 5859 0014 3046     		mov	r0, r6
 5860 0016 70BC     		pop	{r4, r5, r6}
 5861              		.cfi_restore 6
 5862              		.cfi_restore 5
 5863              		.cfi_restore 4
 5864              		.cfi_def_cfa_offset 0
 5865              	.LVL430:
 5866 0018 7047     		bx	lr
 5867              	.L470:
 5868 001a 00BF     		.align	2
 5869              	.L469:
 5870 001c 00000000 		.word	.LANCHOR6
 5871              		.cfi_endproc
ARM GAS  C:\Users\CHRIST~1\AppData\Local\Temp\ccBtEVpO.s 			page 104


 5872              	.LFE308:
 5873              		.size	mcpwm_get_rpm_dep, .-mcpwm_get_rpm_dep
 5874              		.section	.text.mcpwm_is_dccal_done,"ax",%progbits
 5875              		.align	1
 5876              		.p2align 4,,15
 5877              		.global	mcpwm_is_dccal_done
 5878              		.syntax unified
 5879              		.thumb
 5880              		.thumb_func
 5881              		.fpu fpv4-sp-d16
 5882              		.type	mcpwm_is_dccal_done, %function
 5883              	mcpwm_is_dccal_done:
 5884              	.LFB309:
 5885              		.loc 1 2170 0
 5886              		.cfi_startproc
 5887              		@ args = 0, pretend = 0, frame = 0
 5888              		@ frame_needed = 0, uses_anonymous_args = 0
 5889              		@ link register save eliminated.
 5890              		.loc 1 2171 0
 5891 0000 014B     		ldr	r3, .L472
 5892 0002 1878     		ldrb	r0, [r3]	@ zero_extendqisi2
 5893              		.loc 1 2172 0
 5894 0004 7047     		bx	lr
 5895              	.L473:
 5896 0006 00BF     		.align	2
 5897              	.L472:
 5898 0008 00000000 		.word	.LANCHOR44
 5899              		.cfi_endproc
 5900              	.LFE309:
 5901              		.size	mcpwm_is_dccal_done, .-mcpwm_is_dccal_done
 5902              		.section	.text.mcpwm_switch_comm_mode,"ax",%progbits
 5903              		.align	1
 5904              		.p2align 4,,15
 5905              		.global	mcpwm_switch_comm_mode
 5906              		.syntax unified
 5907              		.thumb
 5908              		.thumb_func
 5909              		.fpu fpv4-sp-d16
 5910              		.type	mcpwm_switch_comm_mode, %function
 5911              	mcpwm_switch_comm_mode:
 5912              	.LFB310:
 5913              		.loc 1 2174 0
 5914              		.cfi_startproc
 5915              		@ args = 0, pretend = 0, frame = 0
 5916              		@ frame_needed = 0, uses_anonymous_args = 0
 5917              		@ link register save eliminated.
 5918              	.LVL431:
 5919              		.loc 1 2175 0
 5920 0000 014B     		ldr	r3, .L475
 5921 0002 1870     		strb	r0, [r3]
 5922              		.loc 1 2176 0
 5923 0004 7047     		bx	lr
 5924              	.L476:
 5925 0006 00BF     		.align	2
 5926              	.L475:
 5927 0008 00000000 		.word	.LANCHOR19
 5928              		.cfi_endproc
ARM GAS  C:\Users\CHRIST~1\AppData\Local\Temp\ccBtEVpO.s 			page 105


 5929              	.LFE310:
 5930              		.size	mcpwm_switch_comm_mode, .-mcpwm_switch_comm_mode
 5931              		.section	.text.mcpwm_reset_hall_detect_table,"ax",%progbits
 5932              		.align	1
 5933              		.p2align 4,,15
 5934              		.global	mcpwm_reset_hall_detect_table
 5935              		.syntax unified
 5936              		.thumb
 5937              		.thumb_func
 5938              		.fpu fpv4-sp-d16
 5939              		.type	mcpwm_reset_hall_detect_table, %function
 5940              	mcpwm_reset_hall_detect_table:
 5941              	.LFB311:
 5942              		.loc 1 2181 0
 5943              		.cfi_startproc
 5944              		@ args = 0, pretend = 0, frame = 0
 5945              		@ frame_needed = 0, uses_anonymous_args = 0
 5946              		@ link register save eliminated.
 5947              		.loc 1 2182 0
 5948 0000 E022     		movs	r2, #224
 5949 0002 0021     		movs	r1, #0
 5950 0004 0148     		ldr	r0, .L478
 5951 0006 FFF7FEBF 		b	memset
 5952              	.LVL432:
 5953              	.L479:
 5954 000a 00BF     		.align	2
 5955              	.L478:
 5956 000c 00000000 		.word	.LANCHOR45
 5957              		.cfi_endproc
 5958              	.LFE311:
 5959              		.size	mcpwm_reset_hall_detect_table, .-mcpwm_reset_hall_detect_table
 5960              		.section	.text.mcpwm_get_hall_detect_result,"ax",%progbits
 5961              		.align	1
 5962              		.p2align 4,,15
 5963              		.global	mcpwm_get_hall_detect_result
 5964              		.syntax unified
 5965              		.thumb
 5966              		.thumb_func
 5967              		.fpu fpv4-sp-d16
 5968              		.type	mcpwm_get_hall_detect_result, %function
 5969              	mcpwm_get_hall_detect_result:
 5970              	.LFB312:
 5971              		.loc 1 2197 0
 5972              		.cfi_startproc
 5973              		@ args = 0, pretend = 0, frame = 32
 5974              		@ frame_needed = 0, uses_anonymous_args = 0
 5975              	.LVL433:
 5976              		.loc 1 2200 0
 5977 0000 2B4B     		ldr	r3, .L499
 5978 0002 1B68     		ldr	r3, [r3]
 5979 0004 93F85C31 		ldrb	r3, [r3, #348]	@ zero_extendqisi2
 5980 0008 002B     		cmp	r3, #0
 5981 000a 4DD1     		bne	.L489
 5982              		.loc 1 2197 0
 5983 000c F0B5     		push	{r4, r5, r6, r7, lr}
 5984              		.cfi_def_cfa_offset 20
 5985              		.cfi_offset 4, -20
ARM GAS  C:\Users\CHRIST~1\AppData\Local\Temp\ccBtEVpO.s 			page 106


 5986              		.cfi_offset 5, -16
 5987              		.cfi_offset 6, -12
 5988              		.cfi_offset 7, -8
 5989              		.cfi_offset 14, -4
 5990 000e 294E     		ldr	r6, .L499+4
 5991 0010 89B0     		sub	sp, sp, #36
 5992              		.cfi_def_cfa_offset 56
 5993 0012 03F0FF0E 		and	lr, r3, #255
 5994              		.loc 1 2200 0
 5995 0016 0746     		mov	r7, r0
 5996              	.L482:
 5997              	.LVL434:
 5998              	.LBB156:
 5999              	.LBB157:
 6000              	.LBB158:
 6001              		.loc 1 2207 0
 6002 0018 0123     		movs	r3, #1
 6003              	.LBE158:
 6004              		.loc 1 2206 0
 6005 001a 4FF0FF34 		mov	r4, #-1
 6006              		.loc 1 2205 0
 6007 001e 0021     		movs	r1, #0
 6008              	.LBB159:
 6009              		.loc 1 2208 0
 6010 0020 CEEBCE0C 		rsb	ip, lr, lr, lsl #3
 6011              	.LVL435:
 6012              	.L484:
 6013 0024 0CEB0302 		add	r2, ip, r3
 6014 0028 56F82250 		ldr	r5, [r6, r2, lsl #2]
 6015 002c 8D42     		cmp	r5, r1
 6016 002e 04DD     		ble	.L483
 6017              		.loc 1 2209 0
 6018 0030 56F82210 		ldr	r1, [r6, r2, lsl #2]
 6019              	.LVL436:
 6020 0034 0F29     		cmp	r1, #15
 6021 0036 C8BF     		it	gt
 6022 0038 1C46     		movgt	r4, r3
 6023              	.LVL437:
 6024              	.L483:
 6025              		.loc 1 2207 0 discriminator 2
 6026 003a 0133     		adds	r3, r3, #1
 6027              	.LVL438:
 6028 003c 072B     		cmp	r3, #7
 6029              		.loc 1 2214 0 discriminator 2
 6030 003e 3C70     		strb	r4, [r7]
 6031              		.loc 1 2207 0 discriminator 2
 6032 0040 F0D1     		bne	.L484
 6033              	.LBE159:
 6034              	.LBE157:
 6035              		.loc 1 2204 0 discriminator 2
 6036 0042 0EF1010E 		add	lr, lr, #1
 6037              	.LVL439:
 6038 0046 BEF1080F 		cmp	lr, #8
 6039 004a 07F10107 		add	r7, r7, #1
 6040 004e E3D1     		bne	.L482
 6041              	.LVL440:
 6042              	.LBE156:
ARM GAS  C:\Users\CHRIST~1\AppData\Local\Temp\ccBtEVpO.s 			page 107


 6043              		.loc 1 2219 0
 6044 0050 0023     		movs	r3, #0
 6045              	.LVL441:
 6046              		.loc 1 2220 0
 6047 0052 1C46     		mov	r4, r3
 6048              	.LVL442:
 6049              		.loc 1 2219 0
 6050 0054 0193     		str	r3, [sp, #4]
 6051              		.loc 1 2218 0
 6052 0056 1D46     		mov	r5, r3
 6053              		.loc 1 2219 0
 6054 0058 CDE90233 		strd	r3, r3, [sp, #8]
 6055 005c CDE90433 		strd	r3, r3, [sp, #16]
 6056 0060 CDE90633 		strd	r3, r3, [sp, #24]
 6057              	.LVL443:
 6058              	.LBB160:
 6059              		.loc 1 2226 0
 6060 0064 0126     		movs	r6, #1
 6061 0066 431E     		subs	r3, r0, #1
 6062 0068 0730     		adds	r0, r0, #7
 6063              	.LVL444:
 6064 006a 07E0     		b	.L488
 6065              	.LVL445:
 6066              	.L486:
 6067              		.loc 1 2225 0
 6068 006c 51F81C2C 		ldr	r2, [r1, #-28]
 6069 0070 12B9     		cbnz	r2, .L487
 6070              		.loc 1 2226 0
 6071 0072 41F81C6C 		str	r6, [r1, #-28]
 6072              		.loc 1 2227 0
 6073 0076 0134     		adds	r4, r4, #1
 6074              	.LVL446:
 6075              	.L487:
 6076              		.loc 1 2221 0 discriminator 2
 6077 0078 9842     		cmp	r0, r3
 6078 007a 0AD0     		beq	.L498
 6079              	.LVL447:
 6080              	.L488:
 6081              		.loc 1 2222 0
 6082 007c 13F9012F 		ldrsb	r2, [r3, #1]!
 6083              	.LVL448:
 6084              		.loc 1 2225 0
 6085 0080 08A9     		add	r1, sp, #32
 6086 0082 01EB8201 		add	r1, r1, r2, lsl #2
 6087              		.loc 1 2222 0
 6088 0086 0132     		adds	r2, r2, #1
 6089 0088 F0D1     		bne	.L486
 6090              		.loc 1 2221 0
 6091 008a 9842     		cmp	r0, r3
 6092              		.loc 1 2223 0
 6093 008c 05F10105 		add	r5, r5, #1
 6094              	.LVL449:
 6095              		.loc 1 2221 0
 6096 0090 F4D1     		bne	.L488
 6097              	.LVL450:
 6098              	.L498:
 6099              	.LBE160:
ARM GAS  C:\Users\CHRIST~1\AppData\Local\Temp\ccBtEVpO.s 			page 108


 6100              		.loc 1 2232 0
 6101 0092 022D     		cmp	r5, #2
 6102 0094 05D1     		bne	.L491
 6103              		.loc 1 2232 0 is_stmt 0 discriminator 1
 6104 0096 A01F     		subs	r0, r4, #6
 6105              	.LVL451:
 6106 0098 18BF     		it	ne
 6107 009a 4FF0FF30 		movne	r0, #-1
 6108              	.L480:
 6109              		.loc 1 2237 0 is_stmt 1
 6110 009e 09B0     		add	sp, sp, #36
 6111              		.cfi_remember_state
 6112              		.cfi_def_cfa_offset 20
 6113              		@ sp needed
 6114 00a0 F0BD     		pop	{r4, r5, r6, r7, pc}
 6115              	.LVL452:
 6116              	.L491:
 6117              		.cfi_restore_state
 6118              		.loc 1 2235 0
 6119 00a2 4FF0FF30 		mov	r0, #-1
 6120 00a6 FAE7     		b	.L480
 6121              	.LVL453:
 6122              	.L489:
 6123              		.cfi_def_cfa_offset 0
 6124              		.cfi_restore 4
 6125              		.cfi_restore 5
 6126              		.cfi_restore 6
 6127              		.cfi_restore 7
 6128              		.cfi_restore 14
 6129              		.loc 1 2201 0
 6130 00a8 6FF00200 		mvn	r0, #2
 6131              	.LVL454:
 6132              		.loc 1 2237 0
 6133 00ac 7047     		bx	lr
 6134              	.L500:
 6135 00ae 00BF     		.align	2
 6136              	.L499:
 6137 00b0 00000000 		.word	.LANCHOR0
 6138 00b4 00000000 		.word	.LANCHOR45
 6139              		.cfi_endproc
 6140              	.LFE312:
 6141              		.size	mcpwm_get_hall_detect_result, .-mcpwm_get_hall_detect_result
 6142              		.section	.text.mcpwm_read_hall_phase,"ax",%progbits
 6143              		.align	1
 6144              		.p2align 4,,15
 6145              		.global	mcpwm_read_hall_phase
 6146              		.syntax unified
 6147              		.thumb
 6148              		.thumb_func
 6149              		.fpu fpv4-sp-d16
 6150              		.type	mcpwm_read_hall_phase, %function
 6151              	mcpwm_read_hall_phase:
 6152              	.LFB313:
 6153              		.loc 1 2244 0
 6154              		.cfi_startproc
 6155              		@ args = 0, pretend = 0, frame = 0
 6156              		@ frame_needed = 0, uses_anonymous_args = 0
ARM GAS  C:\Users\CHRIST~1\AppData\Local\Temp\ccBtEVpO.s 			page 109


 6157              		@ link register save eliminated.
 6158              	.LBB161:
 6159              	.LBB162:
 6160              		.loc 1 2249 0
 6161 0000 0B4B     		ldr	r3, .L506
 6162 0002 0C4A     		ldr	r2, .L506+4
 6163 0004 1969     		ldr	r1, [r3, #16]
 6164 0006 1B69     		ldr	r3, [r3, #16]
 6165 0008 1269     		ldr	r2, [r2, #16]
 6166              	.LBE162:
 6167              	.LBE161:
 6168              		.loc 1 2245 0
 6169 000a 0B48     		ldr	r0, .L506+8
 6170              	.LBB165:
 6171              	.LBB163:
 6172              		.loc 1 2249 0
 6173 000c 9B09     		lsrs	r3, r3, #6
 6174 000e 520A     		lsrs	r2, r2, #9
 6175 0010 03F00203 		and	r3, r3, #2
 6176 0014 02F00402 		and	r2, r2, #4
 6177              	.LBE163:
 6178              	.LBE165:
 6179              		.loc 1 2245 0
 6180 0018 0068     		ldr	r0, [r0]
 6181              	.LBB166:
 6182              	.LBB164:
 6183              		.loc 1 2249 0
 6184 001a C1F38011 		ubfx	r1, r1, #6, #1
 6185 001e 1343     		orrs	r3, r3, r2
 6186 0020 0B43     		orrs	r3, r3, r1
 6187              	.LBE164:
 6188              	.LBE166:
 6189              		.loc 1 2245 0
 6190 0022 00B1     		cbz	r0, .L502
 6191 0024 0833     		adds	r3, r3, #8
 6192              	.L502:
 6193              		.loc 1 2245 0 is_stmt 0 discriminator 4
 6194 0026 054A     		ldr	r2, .L506+12
 6195              		.loc 1 2246 0 is_stmt 1 discriminator 4
 6196 0028 52F82300 		ldr	r0, [r2, r3, lsl #2]
 6197 002c 7047     		bx	lr
 6198              	.L507:
 6199 002e 00BF     		.align	2
 6200              	.L506:
 6201 0030 00040240 		.word	1073873920
 6202 0034 00080240 		.word	1073874944
 6203 0038 00000000 		.word	.LANCHOR4
 6204 003c 00000000 		.word	.LANCHOR31
 6205              		.cfi_endproc
 6206              	.LFE313:
 6207              		.size	mcpwm_read_hall_phase, .-mcpwm_read_hall_phase
 6208              		.section	.text.set_duty_cycle_ll,"ax",%progbits
 6209              		.align	1
 6210              		.p2align 4,,15
 6211              		.syntax unified
 6212              		.thumb
 6213              		.thumb_func
ARM GAS  C:\Users\CHRIST~1\AppData\Local\Temp\ccBtEVpO.s 			page 110


 6214              		.fpu fpv4-sp-d16
 6215              		.type	set_duty_cycle_ll, %function
 6216              	set_duty_cycle_ll:
 6217              	.LFB293:
 6218              		.loc 1 1001 0
 6219              		.cfi_startproc
 6220              		@ args = 0, pretend = 0, frame = 0
 6221              		@ frame_needed = 0, uses_anonymous_args = 0
 6222              	.LVL455:
 6223 0000 38B5     		push	{r3, r4, r5, lr}
 6224              		.cfi_def_cfa_offset 16
 6225              		.cfi_offset 3, -16
 6226              		.cfi_offset 4, -12
 6227              		.cfi_offset 5, -8
 6228              		.cfi_offset 14, -4
 6229              		.loc 1 1002 0
 6230 0002 5F4D     		ldr	r5, .L560
 6231 0004 2B68     		ldr	r3, [r5]
 6232 0006 D3ED157A 		vldr.32	s15, [r3, #84]
 6233 000a F4EEC07A 		vcmpe.f32	s15, s0
 6234 000e F1EE10FA 		vmrs	APSR_nzcv, FPSCR
 6235 0012 22D8     		bhi	.L550
 6236              		.loc 1 1003 0
 6237 0014 5B4A     		ldr	r2, .L560+4
 6238 0016 0121     		movs	r1, #1
 6239 0018 1160     		str	r1, [r2]
 6240              	.L511:
 6241              		.loc 1 1009 0
 6242 001a D3ED157A 		vldr.32	s15, [r3, #84]
 6243 001e F4EEC07A 		vcmpe.f32	s15, s0
 6244 0022 F1EE10FA 		vmrs	APSR_nzcv, FPSCR
 6245 0026 2DDD     		ble	.L551
 6246              	.L558:
 6247              	.LBB167:
 6248              		.loc 1 1012 0
 6249 0028 574A     		ldr	r2, .L560+8
 6250 002a 1178     		ldrb	r1, [r2]	@ zero_extendqisi2
 6251 002c 0229     		cmp	r1, #2
 6252 002e 63D0     		beq	.L515
 6253              		.loc 1 1013 0 discriminator 1
 6254 0030 1178     		ldrb	r1, [r2]	@ zero_extendqisi2
 6255              		.loc 1 1012 0 discriminator 1
 6256 0032 0329     		cmp	r1, #3
 6257 0034 60D0     		beq	.L515
 6258              		.loc 1 1014 0
 6259 0036 1278     		ldrb	r2, [r2]	@ zero_extendqisi2
 6260              		.loc 1 1013 0
 6261 0038 012A     		cmp	r2, #1
 6262 003a 5DD0     		beq	.L515
 6263              		.loc 1 1023 0
 6264 003c 534C     		ldr	r4, .L560+12
 6265              		.loc 1 1020 0
 6266 003e D3ED097A 		vldr.32	s15, [r3, #36]
 6267              	.LVL456:
 6268              		.loc 1 1023 0
 6269 0042 2278     		ldrb	r2, [r4]	@ zero_extendqisi2
 6270 0044 D2B2     		uxtb	r2, r2
ARM GAS  C:\Users\CHRIST~1\AppData\Local\Temp\ccBtEVpO.s 			page 111


 6271 0046 012A     		cmp	r2, #1
 6272 0048 5DD1     		bne	.L557
 6273              	.L519:
 6274              	.LBB168:
 6275              	.LBB169:
 6276              		.loc 1 886 0
 6277 004a 514A     		ldr	r2, .L560+16
 6278              		.loc 1 885 0
 6279 004c 0023     		movs	r3, #0
 6280 004e 2370     		strb	r3, [r4]
 6281              		.loc 1 886 0
 6282 0050 1360     		str	r3, [r2]
 6283              	.LBE169:
 6284              	.LBE168:
 6285              	.LBE167:
 6286              		.loc 1 1077 0
 6287 0052 BDE83840 		pop	{r3, r4, r5, lr}
 6288              		.cfi_remember_state
 6289              		.cfi_restore 14
 6290              		.cfi_restore 5
 6291              		.cfi_restore 4
 6292              		.cfi_restore 3
 6293              		.cfi_def_cfa_offset 0
 6294              	.LBB176:
 6295              	.LBB171:
 6296              	.LBB170:
 6297              		.loc 1 887 0
 6298 0056 FFF7FEBF 		b	stop_pwm_hw
 6299              	.LVL457:
 6300              	.L550:
 6301              		.cfi_restore_state
 6302              	.LBE170:
 6303              	.LBE171:
 6304              	.LBE176:
 6305              		.loc 1 1004 0
 6306 005a D3ED157A 		vldr.32	s15, [r3, #84]
 6307 005e F1EE677A 		vneg.f32	s15, s15
 6308 0062 F4EEC07A 		vcmpe.f32	s15, s0
 6309 0066 F1EE10FA 		vmrs	APSR_nzcv, FPSCR
 6310 006a D6DB     		blt	.L511
 6311              		.loc 1 1006 0
 6312 006c 454A     		ldr	r2, .L560+4
 6313 006e 0021     		movs	r1, #0
 6314 0070 1160     		str	r1, [r2]
 6315              		.loc 1 1009 0
 6316 0072 D3ED157A 		vldr.32	s15, [r3, #84]
 6317              		.loc 1 1005 0
 6318 0076 B1EE400A 		vneg.f32	s0, s0
 6319              	.LVL458:
 6320              		.loc 1 1009 0
 6321 007a F4EEC07A 		vcmpe.f32	s15, s0
 6322 007e F1EE10FA 		vmrs	APSR_nzcv, FPSCR
 6323 0082 D1DC     		bgt	.L558
 6324              	.L551:
 6325              		.loc 1 1042 0
 6326 0084 D3ED167A 		vldr.32	s15, [r3, #88]
 6327 0088 404C     		ldr	r4, .L560+12
ARM GAS  C:\Users\CHRIST~1\AppData\Local\Temp\ccBtEVpO.s 			page 112


 6328 008a F4EEC07A 		vcmpe.f32	s15, s0
 6329 008e F1EE10FA 		vmrs	APSR_nzcv, FPSCR
 6330              		.loc 1 1043 0
 6331 0092 48BF     		it	mi
 6332 0094 93ED160A 		vldrmi.32	s0, [r3, #88]
 6333              	.LVL459:
 6334              	.L523:
 6335              		.loc 1 1046 0
 6336 0098 FFF7FEFF 		bl	set_duty_cycle_hw
 6337              	.LVL460:
 6338              		.loc 1 1048 0
 6339 009c 2B68     		ldr	r3, [r5]
 6340 009e 9D78     		ldrb	r5, [r3, #2]	@ zero_extendqisi2
 6341 00a0 EDB2     		uxtb	r5, r5
 6342 00a2 012D     		cmp	r5, #1
 6343 00a4 3ED0     		beq	.L559
 6344              		.loc 1 1053 0
 6345 00a6 3B4A     		ldr	r2, .L560+20
 6346 00a8 1278     		ldrb	r2, [r2]	@ zero_extendqisi2
 6347 00aa A2B1     		cbz	r2, .L526
 6348              		.loc 1 1054 0
 6349 00ac 2278     		ldrb	r2, [r4]	@ zero_extendqisi2
 6350 00ae 022A     		cmp	r2, #2
 6351 00b0 10D0     		beq	.L508
 6352              		.loc 1 1055 0
 6353 00b2 2278     		ldrb	r2, [r4]	@ zero_extendqisi2
 6354 00b4 002A     		cmp	r2, #0
 6355 00b6 39D1     		bne	.L528
 6356              		.loc 1 1056 0
 6357 00b8 0221     		movs	r1, #2
 6358              		.loc 1 1058 0
 6359 00ba 374A     		ldr	r2, .L560+24
 6360              		.loc 1 1056 0
 6361 00bc 2170     		strb	r1, [r4]
 6362              		.loc 1 1058 0
 6363 00be D2ED007A 		vldr.32	s15, [r2]
 6364 00c2 93ED1F7A 		vldr.32	s14, [r3, #124]
 6365 00c6 F0EEE77A 		vabs.f32	s15, s15
 6366 00ca F4EEC77A 		vcmpe.f32	s15, s14
 6367 00ce F1EE10FA 		vmrs	APSR_nzcv, FPSCR
 6368 00d2 0CD4     		bmi	.L556
 6369              	.L508:
 6370              		.loc 1 1077 0
 6371 00d4 38BD     		pop	{r3, r4, r5, pc}
 6372              	.L526:
 6373              		.loc 1 1069 0
 6374 00d6 2378     		ldrb	r3, [r4]	@ zero_extendqisi2
 6375 00d8 022B     		cmp	r3, #2
 6376 00da FBD0     		beq	.L508
 6377              		.loc 1 1070 0
 6378 00dc 0223     		movs	r3, #2
 6379 00de 2370     		strb	r3, [r4]
 6380              		.loc 1 1071 0
 6381 00e0 FFF7FEFF 		bl	mcpwm_read_hall_phase
 6382              	.LVL461:
 6383 00e4 2D4B     		ldr	r3, .L560+28
 6384 00e6 1860     		str	r0, [r3]
ARM GAS  C:\Users\CHRIST~1\AppData\Local\Temp\ccBtEVpO.s 			page 113


 6385              	.L555:
 6386              		.loc 1 1072 0
 6387 00e8 1868     		ldr	r0, [r3]
 6388 00ea FFF7FEFF 		bl	set_next_comm_step
 6389              	.LVL462:
 6390              	.L556:
 6391              		.loc 1 1073 0
 6392 00ee 0120     		movs	r0, #1
 6393              		.loc 1 1077 0
 6394 00f0 BDE83840 		pop	{r3, r4, r5, lr}
 6395              		.cfi_remember_state
 6396              		.cfi_restore 14
 6397              		.cfi_restore 5
 6398              		.cfi_restore 4
 6399              		.cfi_restore 3
 6400              		.cfi_def_cfa_offset 0
 6401              		.loc 1 1073 0
 6402 00f4 FFF7FEBF 		b	commutate
 6403              	.LVL463:
 6404              	.L515:
 6405              		.cfi_restore_state
 6406              	.LBB177:
 6407              		.loc 1 1023 0
 6408 00f8 244C     		ldr	r4, .L560+12
 6409              		.loc 1 1018 0
 6410 00fa D3ED0A7A 		vldr.32	s15, [r3, #40]
 6411              	.LVL464:
 6412              		.loc 1 1023 0
 6413 00fe 2278     		ldrb	r2, [r4]	@ zero_extendqisi2
 6414 0100 D2B2     		uxtb	r2, r2
 6415 0102 012A     		cmp	r2, #1
 6416 0104 A1D0     		beq	.L519
 6417              	.L557:
 6418 0106 022A     		cmp	r2, #2
 6419 0108 E4D1     		bne	.L508
 6420              		.loc 1 1026 0
 6421 010a 234A     		ldr	r2, .L560+24
 6422 010c 92ED007A 		vldr.32	s14, [r2]
 6423 0110 B0EEC77A 		vabs.f32	s14, s14
 6424 0114 B4EEE77A 		vcmpe.f32	s14, s15
 6425 0118 F1EE10FA 		vmrs	APSR_nzcv, FPSCR
 6426 011c 26DD     		ble	.L552
 6427              		.loc 1 1027 0
 6428 011e 93ED150A 		vldr.32	s0, [r3, #84]
 6429              	.LVL465:
 6430              		.loc 1 1032 0
 6431 0122 B9E7     		b	.L523
 6432              	.LVL466:
 6433              	.L559:
 6434              	.LBE177:
 6435              		.loc 1 1049 0
 6436 0124 0222     		movs	r2, #2
 6437              		.loc 1 1050 0
 6438 0126 1D4B     		ldr	r3, .L560+28
 6439              		.loc 1 1049 0
 6440 0128 2270     		strb	r2, [r4]
 6441 012a DDE7     		b	.L555
ARM GAS  C:\Users\CHRIST~1\AppData\Local\Temp\ccBtEVpO.s 			page 114


 6442              	.L528:
 6443              		.loc 1 1061 0
 6444 012c 2278     		ldrb	r2, [r4]	@ zero_extendqisi2
 6445 012e 032A     		cmp	r2, #3
 6446 0130 D0D1     		bne	.L508
 6447              		.loc 1 1062 0
 6448 0132 194A     		ldr	r2, .L560+24
 6449 0134 D2ED007A 		vldr.32	s15, [r2]
 6450 0138 93ED1F7A 		vldr.32	s14, [r3, #124]
 6451 013c F0EEE77A 		vabs.f32	s15, s15
 6452 0140 F4EEC77A 		vcmpe.f32	s15, s14
 6453 0144 F1EE10FA 		vmrs	APSR_nzcv, FPSCR
 6454 0148 C4D5     		bpl	.L508
 6455              	.LBB178:
 6456              	.LBB179:
 6457              		.loc 1 788 0
 6458 014a 154A     		ldr	r2, .L560+32
 6459 014c D2ED007A 		vldr.32	s15, [r2]
 6460              	.LBE179:
 6461              	.LBE178:
 6462              		.loc 1 1062 0
 6463 0150 93ED217A 		vldr.32	s14, [r3, #132]
 6464 0154 B4EEE77A 		vcmpe.f32	s14, s15
 6465 0158 F1EE10FA 		vmrs	APSR_nzcv, FPSCR
 6466 015c BADD     		ble	.L508
 6467              		.loc 1 1063 0
 6468 015e 0223     		movs	r3, #2
 6469 0160 2370     		strb	r3, [r4]
 6470              		.loc 1 1064 0
 6471 0162 0120     		movs	r0, #1
 6472              		.loc 1 1077 0
 6473 0164 BDE83840 		pop	{r3, r4, r5, lr}
 6474              		.cfi_remember_state
 6475              		.cfi_restore 14
 6476              		.cfi_restore 5
 6477              		.cfi_restore 4
 6478              		.cfi_restore 3
 6479              		.cfi_def_cfa_offset 0
 6480              		.loc 1 1064 0
 6481 0168 FFF7FEBF 		b	commutate
 6482              	.LVL467:
 6483              	.L552:
 6484              		.cfi_restore_state
 6485              	.LBB180:
 6486              	.LBB172:
 6487              	.LBB173:
 6488              		.loc 1 914 0
 6489 016c 084B     		ldr	r3, .L560+16
 6490              		.loc 1 913 0
 6491 016e 0321     		movs	r1, #3
 6492              		.loc 1 914 0
 6493 0170 0022     		movs	r2, #0
 6494              		.loc 1 913 0
 6495 0172 2170     		strb	r1, [r4]
 6496              		.loc 1 914 0
 6497 0174 1A60     		str	r2, [r3]
 6498              	.LBE173:
ARM GAS  C:\Users\CHRIST~1\AppData\Local\Temp\ccBtEVpO.s 			page 115


 6499              	.LBE172:
 6500              	.LBE180:
 6501              		.loc 1 1077 0
 6502 0176 BDE83840 		pop	{r3, r4, r5, lr}
 6503              		.cfi_restore 14
 6504              		.cfi_restore 5
 6505              		.cfi_restore 4
 6506              		.cfi_restore 3
 6507              		.cfi_def_cfa_offset 0
 6508              	.LBB181:
 6509              	.LBB175:
 6510              	.LBB174:
 6511              		.loc 1 915 0
 6512 017a FFF7FEBF 		b	full_brake_hw
 6513              	.LVL468:
 6514              	.L561:
 6515 017e 00BF     		.align	2
 6516              	.L560:
 6517 0180 00000000 		.word	.LANCHOR0
 6518 0184 00000000 		.word	.LANCHOR4
 6519 0188 00000000 		.word	.LANCHOR37
 6520 018c 00000000 		.word	.LANCHOR2
 6521 0190 00000000 		.word	.LANCHOR40
 6522 0194 00000000 		.word	.LANCHOR11
 6523 0198 00000000 		.word	.LANCHOR10
 6524 019c 00000000 		.word	.LANCHOR3
 6525 01a0 00000000 		.word	.LANCHOR39
 6526              	.LBE174:
 6527              	.LBE175:
 6528              	.LBE181:
 6529              		.cfi_endproc
 6530              	.LFE293:
 6531              		.size	set_duty_cycle_ll, .-set_duty_cycle_ll
 6532              		.section	.text.set_duty_cycle_hl,"ax",%progbits
 6533              		.align	1
 6534              		.p2align 4,,15
 6535              		.syntax unified
 6536              		.thumb
 6537              		.thumb_func
 6538              		.fpu fpv4-sp-d16
 6539              		.type	set_duty_cycle_hl, %function
 6540              	set_duty_cycle_hl:
 6541              	.LFB292:
 6542              		.loc 1 950 0
 6543              		.cfi_startproc
 6544              		@ args = 0, pretend = 0, frame = 8
 6545              		@ frame_needed = 0, uses_anonymous_args = 0
 6546              	.LVL469:
 6547 0000 10B5     		push	{r4, lr}
 6548              		.cfi_def_cfa_offset 8
 6549              		.cfi_offset 4, -8
 6550              		.cfi_offset 14, -4
 6551              		.loc 1 951 0
 6552 0002 3B4C     		ldr	r4, .L590
 6553 0004 2368     		ldr	r3, [r4]
 6554              		.loc 1 950 0
 6555 0006 82B0     		sub	sp, sp, #8
ARM GAS  C:\Users\CHRIST~1\AppData\Local\Temp\ccBtEVpO.s 			page 116


 6556              		.cfi_def_cfa_offset 16
 6557              		.loc 1 951 0
