ARM GAS  C:\Users\CHRIST~1\AppData\Local\Temp\ccGCVH4j.s 			page 1


   1              		.cpu cortex-m4
   2              		.eabi_attribute 27, 1
   3              		.eabi_attribute 28, 1
   4              		.eabi_attribute 20, 1
   5              		.eabi_attribute 21, 1
   6              		.eabi_attribute 23, 3
   7              		.eabi_attribute 24, 1
   8              		.eabi_attribute 25, 1
   9              		.eabi_attribute 26, 1
  10              		.eabi_attribute 30, 2
  11              		.eabi_attribute 34, 1
  12              		.eabi_attribute 18, 4
  13              		.file	"mcpwm_foc.c"
  14              		.text
  15              	.Ltext0:
  16              		.cfi_sections	.debug_frame
  17              		.section	.text.correct_encoder,"ax",%progbits
  18              		.align	1
  19              		.p2align 4,,15
  20              		.syntax unified
  21              		.thumb
  22              		.thumb_func
  23              		.fpu fpv4-sp-d16
  24              		.type	correct_encoder, %function
  25              	correct_encoder:
  26              	.LFB316:
  27              		.file 1 "mcpwm_foc.c"
  28              		.loc 1 2564 0
  29              		.cfi_startproc
  30              		@ args = 0, pretend = 0, frame = 0
  31              		@ frame_needed = 0, uses_anonymous_args = 0
  32              		@ link register save eliminated.
  33              	.LVL0:
  34              		.loc 1 2565 0
  35 0000 DFED146A 		vldr.32	s13, .L12
  36              		.loc 1 2569 0
  37 0004 144B     		ldr	r3, .L12+4
  38              		.loc 1 2570 0
  39 0006 154A     		ldr	r2, .L12+8
  40              		.loc 1 2569 0
  41 0008 1B68     		ldr	r3, [r3]
  42 000a 9FED157A 		vldr.32	s14, .L12+12
  43 000e D3ED417A 		vldr.32	s15, [r3, #260]
  44              		.loc 1 2570 0
  45 0012 1178     		ldrb	r1, [r2]	@ zero_extendqisi2
  46              		.loc 1 2565 0
  47 0014 81EE261A 		vdiv.f32	s2, s2, s13
  48              	.LVL1:
  49              		.loc 1 2569 0
  50 0018 67EE877A 		vmul.f32	s15, s15, s14
  51              		.loc 1 2565 0
  52 001c B0EEC11A 		vabs.f32	s2, s2
  53              	.LVL2:
  54              		.loc 1 2571 0
  55 0020 93ED417A 		vldr.32	s14, [r3, #260]
  56              		.loc 1 2570 0
  57 0024 49B1     		cbz	r1, .L2
ARM GAS  C:\Users\CHRIST~1\AppData\Local\Temp\ccGCVH4j.s 			page 2


  58              		.loc 1 2571 0
  59 0026 77EE277A 		vadd.f32	s15, s14, s15
  60              	.LVL3:
  61 002a F4EEC17A 		vcmpe.f32	s15, s2
  62 002e F1EE10FA 		vmrs	APSR_nzcv, FPSCR
  63 0032 0CD4     		bmi	.L11
  64              	.L3:
  65              		.loc 1 2580 0
  66 0034 B0EE600A 		vmov.f32	s0, s1
  67              	.LVL4:
  68              	.L1:
  69              		.loc 1 2581 0
  70 0038 7047     		bx	lr
  71              	.LVL5:
  72              	.L2:
  73              		.loc 1 2575 0
  74 003a 77EE677A 		vsub.f32	s15, s14, s15
  75              	.LVL6:
  76 003e F4EEC17A 		vcmpe.f32	s15, s2
  77 0042 F1EE10FA 		vmrs	APSR_nzcv, FPSCR
  78 0046 F7DD     		ble	.L1
  79              		.loc 1 2576 0
  80 0048 0123     		movs	r3, #1
  81 004a 1370     		strb	r3, [r2]
  82 004c F2E7     		b	.L3
  83              	.L11:
  84              		.loc 1 2572 0
  85 004e 0023     		movs	r3, #0
  86 0050 1370     		strb	r3, [r2]
  87 0052 7047     		bx	lr
  88              	.L13:
  89              		.align	2
  90              	.L12:
  91 0054 5077D63D 		.word	1037465424
  92 0058 00000000 		.word	.LANCHOR0
  93 005c 00000000 		.word	.LANCHOR1
  94 0060 CDCC4C3D 		.word	1028443341
  95              		.cfi_endproc
  96              	.LFE316:
  97              		.size	correct_encoder, .-correct_encoder
  98              		.section	.text.start_pwm_hw,"ax",%progbits
  99              		.align	1
 100              		.p2align 4,,15
 101              		.syntax unified
 102              		.thumb
 103              		.thumb_func
 104              		.fpu fpv4-sp-d16
 105              		.type	start_pwm_hw, %function
 106              	start_pwm_hw:
 107              	.LFB314:
 108              		.loc 1 2524 0
 109              		.cfi_startproc
 110              		@ args = 0, pretend = 0, frame = 0
 111              		@ frame_needed = 0, uses_anonymous_args = 0
 112 0000 10B5     		push	{r4, lr}
 113              		.cfi_def_cfa_offset 8
 114              		.cfi_offset 4, -8
ARM GAS  C:\Users\CHRIST~1\AppData\Local\Temp\ccGCVH4j.s 			page 3


 115              		.cfi_offset 14, -4
 116              		.loc 1 2525 0
 117 0002 194C     		ldr	r4, .L16
 118 0004 6022     		movs	r2, #96
 119 0006 2046     		mov	r0, r4
 120 0008 0021     		movs	r1, #0
 121 000a FFF7FEFF 		bl	TIM_SelectOCxM
 122              	.LVL7:
 123              		.loc 1 2526 0
 124 000e 2046     		mov	r0, r4
 125 0010 0122     		movs	r2, #1
 126 0012 0021     		movs	r1, #0
 127 0014 FFF7FEFF 		bl	TIM_CCxCmd
 128              	.LVL8:
 129              		.loc 1 2527 0
 130 0018 2046     		mov	r0, r4
 131 001a 0422     		movs	r2, #4
 132 001c 0021     		movs	r1, #0
 133 001e FFF7FEFF 		bl	TIM_CCxNCmd
 134              	.LVL9:
 135              		.loc 1 2529 0
 136 0022 2046     		mov	r0, r4
 137 0024 6022     		movs	r2, #96
 138 0026 0421     		movs	r1, #4
 139 0028 FFF7FEFF 		bl	TIM_SelectOCxM
 140              	.LVL10:
 141              		.loc 1 2530 0
 142 002c 2046     		mov	r0, r4
 143 002e 0122     		movs	r2, #1
 144 0030 0421     		movs	r1, #4
 145 0032 FFF7FEFF 		bl	TIM_CCxCmd
 146              	.LVL11:
 147              		.loc 1 2531 0
 148 0036 0422     		movs	r2, #4
 149 0038 1146     		mov	r1, r2
 150 003a 2046     		mov	r0, r4
 151 003c FFF7FEFF 		bl	TIM_CCxNCmd
 152              	.LVL12:
 153              		.loc 1 2533 0
 154 0040 2046     		mov	r0, r4
 155 0042 6022     		movs	r2, #96
 156 0044 0821     		movs	r1, #8
 157 0046 FFF7FEFF 		bl	TIM_SelectOCxM
 158              	.LVL13:
 159              		.loc 1 2534 0
 160 004a 2046     		mov	r0, r4
 161 004c 0122     		movs	r2, #1
 162 004e 0821     		movs	r1, #8
 163 0050 FFF7FEFF 		bl	TIM_CCxCmd
 164              	.LVL14:
 165              		.loc 1 2535 0
 166 0054 0422     		movs	r2, #4
 167 0056 2046     		mov	r0, r4
 168 0058 0821     		movs	r1, #8
 169 005a FFF7FEFF 		bl	TIM_CCxNCmd
 170              	.LVL15:
 171              		.loc 1 2543 0
ARM GAS  C:\Users\CHRIST~1\AppData\Local\Temp\ccGCVH4j.s 			page 4


 172 005e 034B     		ldr	r3, .L16+4
 173 0060 0122     		movs	r2, #1
 174 0062 1A70     		strb	r2, [r3]
 175              		.loc 1 2544 0
 176 0064 10BD     		pop	{r4, pc}
 177              	.L17:
 178 0066 00BF     		.align	2
 179              	.L16:
 180 0068 00000140 		.word	1073807360
 181 006c 00000000 		.word	.LANCHOR2
 182              		.cfi_endproc
 183              	.LFE314:
 184              		.size	start_pwm_hw, .-start_pwm_hw
 185              		.section	.text.stop_pwm_hw,"ax",%progbits
 186              		.align	1
 187              		.p2align 4,,15
 188              		.syntax unified
 189              		.thumb
 190              		.thumb_func
 191              		.fpu fpv4-sp-d16
 192              		.type	stop_pwm_hw, %function
 193              	stop_pwm_hw:
 194              	.LFB313:
 195              		.loc 1 2503 0
 196              		.cfi_startproc
 197              		@ args = 0, pretend = 0, frame = 0
 198              		@ frame_needed = 0, uses_anonymous_args = 0
 199 0000 10B5     		push	{r4, lr}
 200              		.cfi_def_cfa_offset 8
 201              		.cfi_offset 4, -8
 202              		.cfi_offset 14, -4
 203              		.loc 1 2504 0
 204 0002 1B4C     		ldr	r4, .L20
 205 0004 4022     		movs	r2, #64
 206 0006 2046     		mov	r0, r4
 207 0008 0021     		movs	r1, #0
 208 000a FFF7FEFF 		bl	TIM_SelectOCxM
 209              	.LVL16:
 210              		.loc 1 2505 0
 211 000e 2046     		mov	r0, r4
 212 0010 0122     		movs	r2, #1
 213 0012 0021     		movs	r1, #0
 214 0014 FFF7FEFF 		bl	TIM_CCxCmd
 215              	.LVL17:
 216              		.loc 1 2506 0
 217 0018 0022     		movs	r2, #0
 218 001a 1146     		mov	r1, r2
 219 001c 2046     		mov	r0, r4
 220 001e FFF7FEFF 		bl	TIM_CCxNCmd
 221              	.LVL18:
 222              		.loc 1 2508 0
 223 0022 2046     		mov	r0, r4
 224 0024 4022     		movs	r2, #64
 225 0026 0421     		movs	r1, #4
 226 0028 FFF7FEFF 		bl	TIM_SelectOCxM
 227              	.LVL19:
 228              		.loc 1 2509 0
ARM GAS  C:\Users\CHRIST~1\AppData\Local\Temp\ccGCVH4j.s 			page 5


 229 002c 2046     		mov	r0, r4
 230 002e 0122     		movs	r2, #1
 231 0030 0421     		movs	r1, #4
 232 0032 FFF7FEFF 		bl	TIM_CCxCmd
 233              	.LVL20:
 234              		.loc 1 2510 0
 235 0036 2046     		mov	r0, r4
 236 0038 0022     		movs	r2, #0
 237 003a 0421     		movs	r1, #4
 238 003c FFF7FEFF 		bl	TIM_CCxNCmd
 239              	.LVL21:
 240              		.loc 1 2512 0
 241 0040 2046     		mov	r0, r4
 242 0042 4022     		movs	r2, #64
 243 0044 0821     		movs	r1, #8
 244 0046 FFF7FEFF 		bl	TIM_SelectOCxM
 245              	.LVL22:
 246              		.loc 1 2513 0
 247 004a 2046     		mov	r0, r4
 248 004c 0122     		movs	r2, #1
 249 004e 0821     		movs	r1, #8
 250 0050 FFF7FEFF 		bl	TIM_CCxCmd
 251              	.LVL23:
 252              		.loc 1 2514 0
 253 0054 0022     		movs	r2, #0
 254 0056 2046     		mov	r0, r4
 255 0058 0821     		movs	r1, #8
 256 005a FFF7FEFF 		bl	TIM_CCxNCmd
 257              	.LVL24:
 258              		.loc 1 2516 0
 259 005e 2046     		mov	r0, r4
 260 0060 2021     		movs	r1, #32
 261 0062 FFF7FEFF 		bl	TIM_GenerateEvent
 262              	.LVL25:
 263              		.loc 1 2521 0
 264 0066 034B     		ldr	r3, .L20+4
 265 0068 0022     		movs	r2, #0
 266 006a 1A70     		strb	r2, [r3]
 267              		.loc 1 2522 0
 268 006c 10BD     		pop	{r4, pc}
 269              	.L21:
 270 006e 00BF     		.align	2
 271              	.L20:
 272 0070 00000140 		.word	1073807360
 273 0074 00000000 		.word	.LANCHOR2
 274              		.cfi_endproc
 275              	.LFE313:
 276              		.size	stop_pwm_hw, .-stop_pwm_hw
 277              		.section	.text.read_hall,"ax",%progbits
 278              		.align	1
 279              		.p2align 4,,15
 280              		.syntax unified
 281              		.thumb
 282              		.thumb_func
 283              		.fpu fpv4-sp-d16
 284              		.type	read_hall, %function
 285              	read_hall:
ARM GAS  C:\Users\CHRIST~1\AppData\Local\Temp\ccGCVH4j.s 			page 6


 286              	.LFB315:
 287              		.loc 1 2546 0
 288              		.cfi_startproc
 289              		@ args = 0, pretend = 0, frame = 0
 290              		@ frame_needed = 0, uses_anonymous_args = 0
 291 0000 2DE9F047 		push	{r4, r5, r6, r7, r8, r9, r10, lr}
 292              		.cfi_def_cfa_offset 32
 293              		.cfi_offset 4, -32
 294              		.cfi_offset 5, -28
 295              		.cfi_offset 6, -24
 296              		.cfi_offset 7, -20
 297              		.cfi_offset 8, -16
 298              		.cfi_offset 9, -12
 299              		.cfi_offset 10, -8
 300              		.cfi_offset 14, -4
 301              		.loc 1 2547 0
 302 0004 164B     		ldr	r3, .L24
 303              		.loc 1 2549 0
 304 0006 174C     		ldr	r4, .L24+4
 305              		.loc 1 2547 0
 306 0008 1869     		ldr	r0, [r3, #16]
 307              	.LVL26:
 308              		.loc 1 2548 0
 309 000a 1D69     		ldr	r5, [r3, #16]
 310              	.LVL27:
 311              		.loc 1 2549 0
 312 000c 2669     		ldr	r6, [r4, #16]
 313              	.LVL28:
 314              		.loc 1 2551 0
 315 000e 1969     		ldr	r1, [r3, #16]
 316              	.LVL29:
 317              		.loc 1 2552 0
 318 0010 D3F81090 		ldr	r9, [r3, #16]
 319              	.LVL30:
 320              		.loc 1 2553 0
 321 0014 2769     		ldr	r7, [r4, #16]
 322              	.LVL31:
 323              		.loc 1 2555 0
 324 0016 1A69     		ldr	r2, [r3, #16]
 325              	.LVL32:
 326              		.loc 1 2556 0
 327 0018 D3F810A0 		ldr	r10, [r3, #16]
 328              	.LVL33:
 329              		.loc 1 2557 0
 330 001c D4F81080 		ldr	r8, [r4, #16]
 331              	.LVL34:
 332              		.loc 1 2559 0
 333 0020 C1F38011 		ubfx	r1, r1, #6, #1
 334              	.LVL35:
 335 0024 C2F38012 		ubfx	r2, r2, #6, #1
 336              	.LVL36:
 337 0028 C0F38010 		ubfx	r0, r0, #6, #1
 338              	.LVL37:
 339 002c FFF7FEFF 		bl	utils_middle_of_3_int
 340              	.LVL38:
 341              		.loc 1 2560 0
 342 0030 CAF3C012 		ubfx	r2, r10, #7, #1
ARM GAS  C:\Users\CHRIST~1\AppData\Local\Temp\ccGCVH4j.s 			page 7


 343              		.loc 1 2559 0
 344 0034 0446     		mov	r4, r0
 345              		.loc 1 2560 0
 346 0036 C9F3C011 		ubfx	r1, r9, #7, #1
 347 003a C5F3C010 		ubfx	r0, r5, #7, #1
 348 003e FFF7FEFF 		bl	utils_middle_of_3_int
 349              	.LVL39:
 350              		.loc 1 2561 0
 351 0042 C8F3C022 		ubfx	r2, r8, #11, #1
 352              		.loc 1 2560 0
 353 0046 0546     		mov	r5, r0
 354              	.LVL40:
 355              		.loc 1 2561 0
 356 0048 C7F3C021 		ubfx	r1, r7, #11, #1
 357 004c C6F3C020 		ubfx	r0, r6, #11, #1
 358 0050 FFF7FEFF 		bl	utils_middle_of_3_int
 359              	.LVL41:
 360 0054 8000     		lsls	r0, r0, #2
 361              		.loc 1 2560 0
 362 0056 40EA4500 		orr	r0, r0, r5, lsl #1
 363              		.loc 1 2562 0
 364 005a 2043     		orrs	r0, r0, r4
 365 005c BDE8F087 		pop	{r4, r5, r6, r7, r8, r9, r10, pc}
 366              	.LVL42:
 367              	.L25:
 368              		.align	2
 369              	.L24:
 370 0060 00040240 		.word	1073873920
 371 0064 00080240 		.word	1073874944
 372              		.cfi_endproc
 373              	.LFE315:
 374              		.size	read_hall, .-read_hall
 375              		.section	.text.correct_hall,"ax",%progbits
 376              		.align	1
 377              		.p2align 4,,15
 378              		.syntax unified
 379              		.thumb
 380              		.thumb_func
 381              		.fpu fpv4-sp-d16
 382              		.type	correct_hall, %function
 383              	correct_hall:
 384              	.LFB317:
 385              		.loc 1 2583 0
 386              		.cfi_startproc
 387              		@ args = 0, pretend = 0, frame = 0
 388              		@ frame_needed = 0, uses_anonymous_args = 0
 389              	.LVL43:
 390 0000 F8B5     		push	{r3, r4, r5, r6, r7, lr}
 391              		.cfi_def_cfa_offset 24
 392              		.cfi_offset 3, -24
 393              		.cfi_offset 4, -20
 394              		.cfi_offset 5, -16
 395              		.cfi_offset 6, -12
 396              		.cfi_offset 7, -8
 397              		.cfi_offset 14, -4
 398              		.loc 1 2585 0
 399 0002 DFED6B6A 		vldr.32	s13, .L63
ARM GAS  C:\Users\CHRIST~1\AppData\Local\Temp\ccGCVH4j.s 			page 8


 400              		.loc 1 2589 0
 401 0006 6B4A     		ldr	r2, .L63+4
 402              		.loc 1 2590 0
 403 0008 6B4B     		ldr	r3, .L63+8
 404              		.loc 1 2589 0
 405 000a 1568     		ldr	r5, [r2]
 406 000c 9FED6B7A 		vldr.32	s14, .L63+12
 407 0010 D5ED417A 		vldr.32	s15, [r5, #260]
 408              		.loc 1 2590 0
 409 0014 1A78     		ldrb	r2, [r3]	@ zero_extendqisi2
 410              		.loc 1 2583 0
 411 0016 2DED028B 		vpush.64	{d8}
 412              		.cfi_def_cfa_offset 32
 413              		.cfi_offset 80, -32
 414              		.cfi_offset 81, -28
 415              		.loc 1 2585 0
 416 001a 80EEA68A 		vdiv.f32	s16, s1, s13
 417              		.loc 1 2589 0
 418 001e 67EE877A 		vmul.f32	s15, s15, s14
 419              		.loc 1 2585 0
 420 0022 B0EEC88A 		vabs.f32	s16, s16
 421              	.LVL44:
 422              		.loc 1 2591 0
 423 0026 95ED417A 		vldr.32	s14, [r5, #260]
 424              		.loc 1 2590 0
 425 002a 7AB1     		cbz	r2, .L27
 426              		.loc 1 2591 0
 427 002c 77EE277A 		vadd.f32	s15, s14, s15
 428              	.LVL45:
 429 0030 F4EEC87A 		vcmpe.f32	s15, s16
 430 0034 F1EE10FA 		vmrs	APSR_nzcv, FPSCR
 431 0038 11D5     		bpl	.L28
 432              		.loc 1 2592 0
 433 003a 0022     		movs	r2, #0
 434 003c 1A70     		strb	r2, [r3]
 435              	.L30:
 436              		.loc 1 2663 0
 437 003e 604B     		ldr	r3, .L63+16
 438 0040 6FF00102 		mvn	r2, #1
 439 0044 1A60     		str	r2, [r3]
 440              	.LVL46:
 441              	.L26:
 442              		.loc 1 2667 0
 443 0046 BDEC028B 		vldm	sp!, {d8}
 444              		.cfi_remember_state
 445              		.cfi_restore 80
 446              		.cfi_restore 81
 447              		.cfi_def_cfa_offset 24
 448              	.LVL47:
 449 004a F8BD     		pop	{r3, r4, r5, r6, r7, pc}
 450              	.LVL48:
 451              	.L27:
 452              		.cfi_restore_state
 453              		.loc 1 2595 0
 454 004c 77EE677A 		vsub.f32	s15, s14, s15
 455              	.LVL49:
 456 0050 F4EEC87A 		vcmpe.f32	s15, s16
ARM GAS  C:\Users\CHRIST~1\AppData\Local\Temp\ccGCVH4j.s 			page 9


 457 0054 F1EE10FA 		vmrs	APSR_nzcv, FPSCR
 458 0058 F1DD     		ble	.L30
 459              		.loc 1 2596 0
 460 005a 0122     		movs	r2, #1
 461 005c 1A70     		strb	r2, [r3]
 462              	.L28:
 463 005e 11EE107A 		vmov	r7, s2
 464 0062 10EE104A 		vmov	r4, s0
 465 0066 10EE906A 		vmov	r6, s1
 466              	.LBB12:
 467              		.loc 1 2601 0
 468 006a FFF7FEFF 		bl	read_hall
 469              	.LVL50:
 470 006e 2844     		add	r0, r0, r5
 471 0070 90F8F930 		ldrb	r3, [r0, #249]	@ zero_extendqisi2
 472 0074 DBB2     		uxtb	r3, r3
 473              	.LVL51:
 474              		.loc 1 2604 0
 475 0076 C82B     		cmp	r3, #200
 476 0078 3FDC     		bgt	.L58
 477              	.LBB13:
 478              		.loc 1 2606 0
 479 007a 07EE903A 		vmov	s15, r3	@ int
 480 007e DFED515A 		vldr.32	s11, .L63+20
 481 0082 9FED516A 		vldr.32	s12, .L63+24
 482              		.loc 1 2608 0
 483 0086 4E49     		ldr	r1, .L63+16
 484              		.loc 1 2606 0
 485 0088 9FED507A 		vldr.32	s14, .L63+28
 486              		.loc 1 2608 0
 487 008c 0A68     		ldr	r2, [r1]
 488              		.loc 1 2606 0
 489 008e DFED506A 		vldr.32	s13, .L63+32
 490 0092 B8EEE75A 		vcvt.f32.s32	s10, s15
 491              		.loc 1 2608 0
 492 0096 002A     		cmp	r2, #0
 493              		.loc 1 2606 0
 494 0098 C5EE257A 		vdiv.f32	s15, s10, s11
 495 009c 67EE867A 		vmul.f32	s15, s15, s12
 496 00a0 67EE877A 		vmul.f32	s15, s15, s14
 497 00a4 C7EEA60A 		vdiv.f32	s1, s15, s13
 498              	.LVL52:
 499              		.loc 1 2608 0
 500 00a8 37DB     		blt	.L59
 501              		.loc 1 2619 0
 502 00aa 9A42     		cmp	r2, r3
 503 00ac 79D0     		beq	.L60
 504              	.LBB14:
 505              		.loc 1 2621 0
 506 00ae 981A     		subs	r0, r3, r2
 507 00b0 0028     		cmp	r0, #0
 508 00b2 B8BF     		it	lt
 509 00b4 4042     		rsblt	r0, r0, #0
 510              	.LVL53:
 511              		.loc 1 2622 0
 512 00b6 6328     		cmp	r0, #99
 513 00b8 5CDD     		ble	.L61
ARM GAS  C:\Users\CHRIST~1\AppData\Local\Temp\ccGCVH4j.s 			page 10


 514              		.loc 1 2624 0
 515 00ba 6428     		cmp	r0, #100
 516 00bc 19D0     		beq	.L35
 517              	.LVL54:
 518              		.loc 1 2625 0
 519 00be 1A44     		add	r2, r2, r3
 520              	.LVL55:
 521 00c0 02EBD272 		add	r2, r2, r2, lsr #31
 522 00c4 5210     		asrs	r2, r2, #1
 523 00c6 434C     		ldr	r4, .L63+36
 524              	.LVL56:
 525 00c8 6432     		adds	r2, r2, #100
 526 00ca 84FB0204 		smull	r0, r4, r4, r2
 527 00ce D017     		asrs	r0, r2, #31
 528 00d0 C0EBA410 		rsb	r0, r0, r4, asr #6
 529 00d4 C824     		movs	r4, #200
 530 00d6 04FB1022 		mls	r2, r4, r0, r2
 531              	.LVL57:
 532              	.L57:
 533 00da 07EE902A 		vmov	s15, r2	@ int
 534 00de F8EEE77A 		vcvt.f32.s32	s15, s15
 535 00e2 87EEA55A 		vdiv.f32	s10, s15, s11
 536 00e6 25EE066A 		vmul.f32	s12, s10, s12
 537 00ea 26EE076A 		vmul.f32	s12, s12, s14
 538 00ee 86EE267A 		vdiv.f32	s14, s12, s13
 539              	.L35:
 540              		.loc 1 2628 0
 541 00f2 394C     		ldr	r4, .L63+40
 542 00f4 84ED007A 		vstr.32	s14, [r4]
 543 00f8 12E0     		b	.L33
 544              	.LVL58:
 545              	.L58:
 546              	.LBE14:
 547              	.LBE13:
 548              		.loc 1 2657 0
 549 00fa 384B     		ldr	r3, .L63+44
 550              	.LVL59:
 551              		.loc 1 2652 0
 552 00fc 304A     		ldr	r2, .L63+16
 553              		.loc 1 2657 0
 554 00fe 1B78     		ldrb	r3, [r3]	@ zero_extendqisi2
 555              		.loc 1 2652 0
 556 0100 4FF0FF31 		mov	r1, #-1
 557 0104 1160     		str	r1, [r2]
 558              		.loc 1 2657 0
 559 0106 1BB1     		cbz	r3, .L46
 560              		.loc 1 2657 0 is_stmt 0 discriminator 1
 561 0108 354B     		ldr	r3, .L63+48
 562 010a 1B78     		ldrb	r3, [r3]	@ zero_extendqisi2
 563 010c 022B     		cmp	r3, #2
 564 010e 4AD0     		beq	.L62
 565              	.L46:
 566              	.LBE12:
 567              		.loc 1 2667 0 is_stmt 1
 568 0110 BDEC028B 		vldm	sp!, {d8}
 569              		.cfi_remember_state
 570              		.cfi_restore 80
ARM GAS  C:\Users\CHRIST~1\AppData\Local\Temp\ccGCVH4j.s 			page 11


 571              		.cfi_restore 81
 572              		.cfi_def_cfa_offset 24
 573              	.LVL60:
 574              	.LBB21:
 575 0114 00EE104A 		vmov	s0, r4
 576              	.LBE21:
 577 0118 F8BD     		pop	{r3, r4, r5, r6, r7, pc}
 578              	.LVL61:
 579              	.L59:
 580              		.cfi_restore_state
 581              	.LBB22:
 582              	.LBB18:
 583              		.loc 1 2617 0
 584 011a 2F4C     		ldr	r4, .L63+40
 585              	.LVL62:
 586 011c C4ED000A 		vstr.32	s1, [r4]
 587              	.L33:
 588              		.loc 1 2633 0
 589 0120 DFED308A 		vldr.32	s17, .L63+52
 590              		.loc 1 2631 0
 591 0124 0B60     		str	r3, [r1]
 592              		.loc 1 2633 0
 593 0126 B4EEE88A 		vcmpe.f32	s16, s17
 594 012a F1EE10FA 		vmrs	APSR_nzcv, FPSCR
 595 012e 09D5     		bpl	.L53
 596              		.loc 1 2635 0
 597 0130 C4ED000A 		vstr.32	s1, [r4]
 598              	.LVL63:
 599              	.L38:
 600              		.loc 1 2648 0
 601 0134 2848     		ldr	r0, .L63+40
 602 0136 FFF7FEFF 		bl	utils_norm_angle_rad
 603              	.LVL64:
 604              	.LBE18:
 605              	.LBE22:
 606              		.loc 1 2667 0
 607 013a BDEC028B 		vldm	sp!, {d8}
 608              		.cfi_remember_state
 609              		.cfi_restore 80
 610              		.cfi_restore 81
 611              		.cfi_def_cfa_offset 24
 612              	.LVL65:
 613              	.LBB23:
 614              	.LBB19:
 615              		.loc 1 2649 0
 616 013e 94ED000A 		vldr.32	s0, [r4]
 617              	.LVL66:
 618              	.LBE19:
 619              	.LBE23:
 620              		.loc 1 2667 0
 621 0142 F8BD     		pop	{r3, r4, r5, r6, r7, pc}
 622              	.LVL67:
 623              	.L53:
 624              		.cfi_restore_state
 625              	.LBB24:
 626              	.LBB20:
 627              	.LBB15:
ARM GAS  C:\Users\CHRIST~1\AppData\Local\Temp\ccGCVH4j.s 			page 12


 628              		.loc 1 2638 0
 629 0144 94ED000A 		vldr.32	s0, [r4]
 630 0148 FFF7FEFF 		bl	utils_angle_difference_rad
 631              	.LVL68:
 632              		.loc 1 2639 0
 633 014c DFED267A 		vldr.32	s15, .L63+56
 634 0150 B0EEC07A 		vabs.f32	s14, s0
 635 0154 B4EEE77A 		vcmpe.f32	s14, s15
 636 0158 F1EE10FA 		vmrs	APSR_nzcv, FPSCR
 637 015c 18D5     		bpl	.L54
 638              		.loc 1 2641 0
 639 015e D4ED007A 		vldr.32	s15, [r4]
 640 0162 07EE106A 		vmov	s14, r6
 641 0166 06EE907A 		vmov	s13, r7
 642 016a E7EE267A 		vfma.f32	s15, s14, s13
 643 016e C4ED007A 		vstr.32	s15, [r4]
 644 0172 DFE7     		b	.L38
 645              	.LVL69:
 646              	.L61:
 647              	.LBE15:
 648              	.LBB16:
 649              		.loc 1 2623 0
 650 0174 1A44     		add	r2, r2, r3
 651              	.LVL70:
 652 0176 02EBD272 		add	r2, r2, r2, lsr #31
 653 017a 1648     		ldr	r0, .L63+36
 654 017c 5410     		asrs	r4, r2, #1
 655              	.LVL71:
 656 017e 80FB0450 		smull	r5, r0, r0, r4
 657 0182 D217     		asrs	r2, r2, #31
 658 0184 C2EBA012 		rsb	r2, r2, r0, asr #6
 659 0188 C820     		movs	r0, #200
 660 018a 00FB1242 		mls	r2, r0, r2, r4
 661 018e A4E7     		b	.L57
 662              	.LVL72:
 663              	.L54:
 664              	.LBE16:
 665              	.LBB17:
 666              		.loc 1 2644 0
 667 0190 80EE287A 		vdiv.f32	s14, s0, s17
 668 0194 D4ED007A 		vldr.32	s15, [r4]
 669 0198 77EEC77A 		vsub.f32	s15, s15, s14
 670 019c C4ED007A 		vstr.32	s15, [r4]
 671 01a0 C8E7     		b	.L38
 672              	.LVL73:
 673              	.L60:
 674 01a2 0D4C     		ldr	r4, .L63+40
 675              	.LVL74:
 676 01a4 BCE7     		b	.L33
 677              	.LVL75:
 678              	.L62:
 679              	.LBE17:
 680              	.LBE20:
 681              		.loc 1 2658 0
 682 01a6 114B     		ldr	r3, .L63+60
 683 01a8 93ED000A 		vldr.32	s0, [r3]
 684              	.LVL76:
ARM GAS  C:\Users\CHRIST~1\AppData\Local\Temp\ccGCVH4j.s 			page 13


 685 01ac 4BE7     		b	.L26
 686              	.L64:
 687 01ae 00BF     		.align	2
 688              	.L63:
 689 01b0 5077D63D 		.word	1037465424
 690 01b4 00000000 		.word	.LANCHOR0
 691 01b8 00000000 		.word	.LANCHOR3
 692 01bc CDCCCC3D 		.word	1036831949
 693 01c0 00000000 		.word	.LANCHOR4
 694 01c4 00004843 		.word	1128792064
 695 01c8 0000B443 		.word	1135869952
 696 01cc DB0F4940 		.word	1078530011
 697 01d0 00003443 		.word	1127481344
 698 01d4 1F85EB51 		.word	1374389535
 699 01d8 00000000 		.word	.LANCHOR5
 700 01dc 00000000 		.word	.LANCHOR6
 701 01e0 00000000 		.word	.LANCHOR7
 702 01e4 0000C842 		.word	1120403456
 703 01e8 920A063F 		.word	1057360530
 704 01ec 00000000 		.word	.LANCHOR8
 705              	.LBE24:
 706              		.cfi_endproc
 707              	.LFE317:
 708              		.size	correct_hall, .-correct_hall
 709              		.section	.text.timer_thread,"ax",%progbits
 710              		.align	1
 711              		.p2align 4,,15
 712              		.syntax unified
 713              		.thumb
 714              		.thumb_func
 715              		.fpu fpv4-sp-d16
 716              		.type	timer_thread, %function
 717              	timer_thread:
 718              	.LFB305:
 719              		.loc 1 1949 0
 720              		.cfi_startproc
 721              		@ args = 0, pretend = 0, frame = 32
 722              		@ frame_needed = 0, uses_anonymous_args = 0
 723              	.LVL77:
 724              	.LBB33:
 725              	.LBB34:
 726              		.file 2 "ChibiOS_3.0.2/os/rt/include/chregistry.h"
 727              		.loc 2 135 0
 728 0000 C34B     		ldr	r3, .L137
 729 0002 C449     		ldr	r1, .L137+4
 730 0004 9A69     		ldr	r2, [r3, #24]
 731              	.LBE34:
 732              	.LBE33:
 733              	.LBB36:
 734              		.loc 1 1955 0
 735 0006 C44B     		ldr	r3, .L137+8
 736              	.LBE36:
 737              	.LBB49:
 738              	.LBB35:
 739              		.loc 2 135 0
 740 0008 9161     		str	r1, [r2, #24]
 741              	.LBE35:
ARM GAS  C:\Users\CHRIST~1\AppData\Local\Temp\ccGCVH4j.s 			page 14


 742              	.LBE49:
 743              	.LBB50:
 744              		.loc 1 1955 0
 745 000a 1B78     		ldrb	r3, [r3]	@ zero_extendqisi2
 746 000c 002B     		cmp	r3, #0
 747 000e 40F01782 		bne	.L124
 748              	.LBE50:
 749              		.loc 1 1949 0
 750 0012 2DE9F04F 		push	{r4, r5, r6, r7, r8, r9, r10, fp, lr}
 751              		.cfi_def_cfa_offset 36
 752              		.cfi_offset 4, -36
 753              		.cfi_offset 5, -32
 754              		.cfi_offset 6, -28
 755              		.cfi_offset 7, -24
 756              		.cfi_offset 8, -20
 757              		.cfi_offset 9, -16
 758              		.cfi_offset 10, -12
 759              		.cfi_offset 11, -8
 760              		.cfi_offset 14, -4
 761 0016 2DED0A8B 		vpush.64	{d8, d9, d10, d11, d12}
 762              		.cfi_def_cfa_offset 76
 763              		.cfi_offset 80, -76
 764              		.cfi_offset 81, -72
 765              		.cfi_offset 82, -68
 766              		.cfi_offset 83, -64
 767              		.cfi_offset 84, -60
 768              		.cfi_offset 85, -56
 769              		.cfi_offset 86, -52
 770              		.cfi_offset 87, -48
 771              		.cfi_offset 88, -44
 772              		.cfi_offset 89, -40
 773 001a C04C     		ldr	r4, .L137+12
 774 001c C04D     		ldr	r5, .L137+16
 775 001e DFF834A3 		ldr	r10, .L137+68
 776 0022 C04E     		ldr	r6, .L137+20
 777 0024 DFF84493 		ldr	r9, .L137+92
 778 0028 DFF844B3 		ldr	fp, .L137+96
 779 002c DFF84483 		ldr	r8, .L137+100
 780 0030 BD4F     		ldr	r7, .L137+24
 781              	.LBB51:
 782              		.loc 1 1960 0
 783 0032 DFEDBE8A 		vldr.32	s17, .L137+28
 784              		.loc 1 1967 0
 785 0036 9FEDBEAA 		vldr.32	s20, .L137+32
 786 003a DFEDBE9A 		vldr.32	s19, .L137+36
 787              		.loc 1 1975 0
 788 003e 9FEDBE9A 		vldr.32	s18, .L137+40
 789              		.loc 1 1996 0
 790 0042 DFEDBEAA 		vldr.32	s21, .L137+44
 791              	.LBE51:
 792              		.loc 1 1949 0
 793 0046 89B0     		sub	sp, sp, #36
 794              		.cfi_def_cfa_offset 112
 795 0048 81E0     		b	.L66
 796              	.LVL78:
 797              	.L132:
 798              	.LBB52:
ARM GAS  C:\Users\CHRIST~1\AppData\Local\Temp\ccGCVH4j.s 			page 15


 799              		.loc 1 1990 0
 800 004a 99F80030 		ldrb	r3, [r9]	@ zero_extendqisi2
 801              		.loc 1 1984 0
 802 004e 77EE897A 		vadd.f32	s15, s15, s18
 803              		.loc 1 1990 0
 804 0052 032B     		cmp	r3, #3
 805              		.loc 1 1984 0
 806 0054 C6ED007A 		vstr.32	s15, [r6]
 807              		.loc 1 1990 0
 808 0058 00F0CA80 		beq	.L74
 809              	.L133:
 810              		.loc 1 1990 0 is_stmt 0 discriminator 1
 811 005c D4ED037A 		vldr.32	s15, [r4, #12]
 812 0060 F0EEE77A 		vabs.f32	s15, s15
 813 0064 F4EEC97A 		vcmpe.f32	s15, s18
 814 0068 F1EE10FA 		vmrs	APSR_nzcv, FPSCR
 815 006c 00F1C080 		bmi	.L74
 816 0070 D6ED006A 		vldr.32	s13, [r6]
 817              	.L75:
 818              	.LVL79:
 819              		.loc 1 1996 0 is_stmt 1
 820 0074 2B68     		ldr	r3, [r5]
 821 0076 D8ED007A 		vldr.32	s15, [r8]
 822 007a 93ED3A7A 		vldr.32	s14, [r3, #232]
 823 007e B4EEE67A 		vcmpe.f32	s14, s13
 824 0082 F1EE10FA 		vmrs	APSR_nzcv, FPSCR
 825 0086 40F1BB80 		bpl	.L120
 826              		.loc 1 1996 0 is_stmt 0 discriminator 1
 827 008a F4EEEA7A 		vcmpe.f32	s15, s21
 828 008e F1EE10FA 		vmrs	APSR_nzcv, FPSCR
 829 0092 00F2B580 		bhi	.L120
 830              		.loc 1 1997 0 is_stmt 1
 831 0096 D3ED3B7A 		vldr.32	s15, [r3, #236]
 832              		.loc 1 2001 0
 833 009a F5EEC07A 		vcmpe.f32	s15, #0
 834 009e F1EE10FA 		vmrs	APSR_nzcv, FPSCR
 835              		.loc 1 1997 0
 836 00a2 C8ED007A 		vstr.32	s15, [r8]
 837              	.LVL80:
 838              		.loc 1 2001 0
 839 00a6 40F3B780 		ble	.L77
 840              		.loc 1 2002 0
 841 00aa D7ED007A 		vldr.32	s15, [r7]
 842 00ae 38EE278A 		vadd.f32	s16, s16, s15
 843              	.LVL81:
 844 00b2 87ED008A 		vstr.32	s16, [r7]
 845              		.loc 1 2007 0
 846 00b6 D4ED037A 		vldr.32	s15, [r4, #12]
 847 00ba F5EEC07A 		vcmpe.f32	s15, #0
 848 00be F1EE10FA 		vmrs	APSR_nzcv, FPSCR
 849 00c2 40F31C81 		ble	.L129
 850              		.loc 1 2008 0
 851 00c6 97ED007A 		vldr.32	s14, [r7]
 852 00ca DFED9D7A 		vldr.32	s15, .L137+48
 853 00ce 77EE277A 		vadd.f32	s15, s14, s15
 854 00d2 C7ED007A 		vstr.32	s15, [r7]
 855              	.LVL82:
ARM GAS  C:\Users\CHRIST~1\AppData\Local\Temp\ccGCVH4j.s 			page 16


 856              	.L79:
 857              		.loc 1 2014 0
 858 00d6 9448     		ldr	r0, .L137+24
 859 00d8 FFF7FEFF 		bl	utils_norm_angle_rad
 860              	.LVL83:
 861              		.loc 1 2015 0
 862 00dc 0123     		movs	r3, #1
 863              		.loc 1 2024 0
 864 00de 994A     		ldr	r2, .L137+52
 865              		.loc 1 2016 0
 866 00e0 D8ED007A 		vldr.32	s15, [r8]
 867              		.loc 1 2015 0
 868 00e4 8BF80030 		strb	r3, [fp]
 869              		.loc 1 2024 0
 870 00e8 1278     		ldrb	r2, [r2]	@ zero_extendqisi2
 871              		.loc 1 2017 0
 872 00ea C6ED008A 		vstr.32	s17, [r6]
 873              		.loc 1 2016 0
 874 00ee 77EEC97A 		vsub.f32	s15, s15, s18
 875              		.loc 1 2024 0
 876 00f2 022A     		cmp	r2, #2
 877              		.loc 1 2016 0
 878 00f4 C8ED007A 		vstr.32	s15, [r8]
 879 00f8 2B68     		ldr	r3, [r5]
 880              		.loc 1 2024 0
 881 00fa 00F09880 		beq	.L130
 882              	.L87:
 883              		.loc 1 2036 0
 884 00fe 94ED030A 		vldr.32	s0, [r4, #12]
 885              		.loc 1 2037 0
 886 0102 D3ED331A 		vldr.32	s3, [r3, #204]
 887 0106 D3ED347A 		vldr.32	s15, [r3, #208]
 888              		.loc 1 2036 0
 889 010a 93ED332A 		vldr.32	s4, [r3, #204]
 890 010e B0EEC00A 		vabs.f32	s0, s0
 891 0112 61EEA71A 		vmul.f32	s3, s3, s15
 892 0116 B7EE001A 		vmov.f32	s2, #1.0e+0
 893 011a F0EE680A 		vmov.f32	s1, s17
 894 011e FFF7FEFF 		bl	utils_map
 895              	.LVL84:
 896 0122 894B     		ldr	r3, .L137+56
 897 0124 83ED000A 		vstr.32	s0, [r3]
 898              	.LVL85:
 899              	.LBB37:
 900              	.LBB38:
 901              		.loc 1 2458 0
 902 0128 99F80030 		ldrb	r3, [r9]	@ zero_extendqisi2
 903 012c 012B     		cmp	r3, #1
 904 012e 00F0BF80 		beq	.L90
 905              		.loc 1 2459 0
 906 0132 864B     		ldr	r3, .L137+60
 907 0134 C3ED008A 		vstr.32	s17, [r3]
 908              		.loc 1 2460 0
 909 0138 854B     		ldr	r3, .L137+64
 910 013a C3ED008A 		vstr.32	s17, [r3]
 911              	.LVL86:
 912              	.L99:
ARM GAS  C:\Users\CHRIST~1\AppData\Local\Temp\ccGCVH4j.s 			page 17


 913              	.LBE38:
 914              	.LBE37:
 915              		.loc 1 2040 0
 916 013e 0A20     		movs	r0, #10
 917 0140 FFF7FEFF 		bl	chThdSleep
 918              	.LVL87:
 919              		.loc 1 1955 0
 920 0144 744B     		ldr	r3, .L137+8
 921 0146 1B78     		ldrb	r3, [r3]	@ zero_extendqisi2
 922 0148 002B     		cmp	r3, #0
 923 014a 40F0D080 		bne	.L131
 924              	.LVL88:
 925              	.L66:
 926              		.loc 1 1961 0
 927 014e 2B68     		ldr	r3, [r5]
 928              		.loc 1 1960 0
 929 0150 94ED010A 		vldr.32	s0, [r4, #4]
 930 0154 DFED750A 		vldr.32	s1, .L137+28
 931 0158 93ED011A 		vldr.32	s2, [r3, #4]
 932 015c 93ED392A 		vldr.32	s4, [r3, #228]
 933 0160 F0EE681A 		vmov.f32	s3, s17
 934 0164 B0EEC00A 		vabs.f32	s0, s0
 935 0168 FFF7FEFF 		bl	utils_map
 936              	.LVL89:
 937              		.loc 1 1964 0
 938 016c 2B68     		ldr	r3, [r5]
 939              		.loc 1 1960 0
 940 016e 8DED020A 		vstr.32	s0, [sp, #8]
 941              		.loc 1 1964 0
 942 0172 D3ED397A 		vldr.32	s15, [r3, #228]
 943 0176 02A8     		add	r0, sp, #8
 944 0178 B0EE670A 		vmov.f32	s0, s15
 945 017c FFF7FEFF 		bl	utils_truncate_number_abs
 946              	.LVL90:
 947              		.loc 1 1967 0
 948 0180 DDED027A 		vldr.32	s15, [sp, #8]
 949              		.loc 1 1972 0
 950 0184 94ED037A 		vldr.32	s14, [r4, #12]
 951              		.loc 1 1980 0
 952 0188 7248     		ldr	r0, .L137+68
 953              		.loc 1 1967 0
 954 018a 77EEA77A 		vadd.f32	s15, s15, s15
 955              		.loc 1 1972 0
 956 018e B5EEC07A 		vcmpe.f32	s14, #0
 957              		.loc 1 1967 0
 958 0192 67EE8A7A 		vmul.f32	s15, s15, s20
 959              		.loc 1 1972 0
 960 0196 F1EE10FA 		vmrs	APSR_nzcv, FPSCR
 961              		.loc 1 1967 0
 962 019a 87EEA9BA 		vdiv.f32	s22, s15, s19
 963              	.LVL91:
 964              		.loc 1 1979 0
 965 019e DAED007A 		vldr.32	s15, [r10]
 966              		.loc 1 1973 0
 967 01a2 CCBF     		ite	gt
 968 01a4 2BEE098A 		vmulgt.f32	s16, s22, s18
 969              	.LVL92:
ARM GAS  C:\Users\CHRIST~1\AppData\Local\Temp\ccGCVH4j.s 			page 18


 970              		.loc 1 1975 0
 971 01a8 2BEE498A 		vnmulle.f32	s16, s22, s18
 972              	.LVL93:
 973              		.loc 1 1979 0
 974 01ac 77EE887A 		vadd.f32	s15, s15, s16
 975 01b0 CAED007A 		vstr.32	s15, [r10]
 976              		.loc 1 1980 0
 977 01b4 FFF7FEFF 		bl	utils_norm_angle_rad
 978              	.LVL94:
 979              		.loc 1 1983 0
 980 01b8 674B     		ldr	r3, .L137+72
 981 01ba D3ED007A 		vldr.32	s15, [r3]
 982 01be F0EEE77A 		vabs.f32	s15, s15
 983 01c2 F4EECB7A 		vcmpe.f32	s15, s22
 984 01c6 F1EE10FA 		vmrs	APSR_nzcv, FPSCR
 985              		.loc 1 1984 0
 986 01ca D6ED007A 		vldr.32	s15, [r6]
 987              		.loc 1 1983 0
 988 01ce 3FF53CAF 		bmi	.L132
 989              		.loc 1 1985 0
 990 01d2 F5EEC07A 		vcmpe.f32	s15, #0
 991 01d6 F1EE10FA 		vmrs	APSR_nzcv, FPSCR
 992              		.loc 1 1986 0
 993 01da C8BF     		it	gt
 994 01dc 77EEC97A 		vsubgt.f32	s15, s15, s18
 995              		.loc 1 1990 0
 996 01e0 99F80030 		ldrb	r3, [r9]	@ zero_extendqisi2
 997              		.loc 1 1986 0
 998 01e4 C8BF     		it	gt
 999 01e6 C6ED007A 		vstrgt.32	s15, [r6]
 1000              		.loc 1 1990 0
 1001 01ea 032B     		cmp	r3, #3
 1002 01ec 7FF436AF 		bne	.L133
 1003              	.L74:
 1004              		.loc 1 1992 0
 1005 01f0 0023     		movs	r3, #0
 1006 01f2 F0EE686A 		vmov.f32	s13, s17
 1007              		.loc 1 1991 0
 1008 01f6 C6ED008A 		vstr.32	s17, [r6]
 1009              		.loc 1 1992 0
 1010 01fa 8BF80030 		strb	r3, [fp]
 1011 01fe 39E7     		b	.L75
 1012              	.LVL95:
 1013              	.L120:
 1014              		.loc 1 2001 0
 1015 0200 F5EEC07A 		vcmpe.f32	s15, #0
 1016 0204 F1EE10FA 		vmrs	APSR_nzcv, FPSCR
 1017 0208 06DD     		ble	.L77
 1018              		.loc 1 2002 0
 1019 020a D7ED007A 		vldr.32	s15, [r7]
 1020 020e 38EE278A 		vadd.f32	s16, s16, s15
 1021              	.LVL96:
 1022 0212 87ED008A 		vstr.32	s16, [r7]
 1023 0216 5EE7     		b	.L79
 1024              	.LVL97:
 1025              	.L77:
 1026              		.loc 1 2019 0
ARM GAS  C:\Users\CHRIST~1\AppData\Local\Temp\ccGCVH4j.s 			page 19


 1027 0218 504A     		ldr	r2, .L137+76
 1028 021a 1168     		ldr	r1, [r2]	@ float
 1029 021c 3960     		str	r1, [r7]	@ float
 1030              		.loc 1 2020 0
 1031 021e 0022     		movs	r2, #0
 1032 0220 8BF80020 		strb	r2, [fp]
 1033              		.loc 1 2024 0
 1034 0224 474A     		ldr	r2, .L137+52
 1035 0226 1278     		ldrb	r2, [r2]	@ zero_extendqisi2
 1036 0228 022A     		cmp	r2, #2
 1037 022a 7FF468AF 		bne	.L87
 1038              	.LVL98:
 1039              	.L130:
 1040              	.LBB45:
 1041              		.loc 1 2025 0
 1042 022e E26C     		ldr	r2, [r4, #76]	@ float
 1043 0230 0392     		str	r2, [sp, #12]	@ float
 1044              		.loc 1 2026 0
 1045 0232 226D     		ldr	r2, [r4, #80]	@ float
 1046 0234 0492     		str	r2, [sp, #16]	@ float
 1047              		.loc 1 2027 0
 1048 0236 E26B     		ldr	r2, [r4, #60]	@ float
 1049 0238 0592     		str	r2, [sp, #20]	@ float
 1050              		.loc 1 2028 0
 1051 023a 226C     		ldr	r2, [r4, #64]	@ float
 1052 023c 0692     		str	r2, [sp, #24]	@ float
 1053              		.loc 1 2030 0
 1054 023e DDED056A 		vldr.32	s13, [sp, #20]
 1055 0242 9DED057A 		vldr.32	s14, [sp, #20]
 1056 0246 DDED067A 		vldr.32	s15, [sp, #24]
 1057 024a 9DED060A 		vldr.32	s0, [sp, #24]
 1058 024e 27EE800A 		vmul.f32	s0, s15, s0
 1059 0252 A6EE870A 		vfma.f32	s0, s13, s14
 1060 0256 B5EE400A 		vcmp.f32	s0, #0
 1061 025a F1EE10FA 		vmrs	APSR_nzcv, FPSCR
 1062 025e B1EEC08A 		vsqrt.f32	s16, s0
 1063 0262 00F1F180 		bmi	.L134
 1064              	.L88:
 1065 0266 3E4A     		ldr	r2, .L137+80
 1066 0268 D2ED017A 		vldr.32	s15, [r2, #4]
 1067 026c 37EE888A 		vadd.f32	s16, s15, s16
 1068 0270 82ED018A 		vstr.32	s16, [r2, #4]
 1069              		.loc 1 2031 0
 1070 0274 DDED036A 		vldr.32	s13, [sp, #12]
 1071 0278 9DED037A 		vldr.32	s14, [sp, #12]
 1072 027c DDED047A 		vldr.32	s15, [sp, #16]
 1073 0280 9DED040A 		vldr.32	s0, [sp, #16]
 1074 0284 27EE800A 		vmul.f32	s0, s15, s0
 1075 0288 A6EE870A 		vfma.f32	s0, s13, s14
 1076 028c B5EE400A 		vcmp.f32	s0, #0
 1077 0290 F1EE10FA 		vmrs	APSR_nzcv, FPSCR
 1078 0294 B1EEC08A 		vsqrt.f32	s16, s0
 1079 0298 00F1DB80 		bmi	.L135
 1080              	.L89:
 1081 029c D2ED027A 		vldr.32	s15, [r2, #8]
 1082 02a0 37EE888A 		vadd.f32	s16, s15, s16
 1083 02a4 82ED028A 		vstr.32	s16, [r2, #8]
ARM GAS  C:\Users\CHRIST~1\AppData\Local\Temp\ccGCVH4j.s 			page 20


 1084              		.loc 1 2032 0
 1085 02a8 1168     		ldr	r1, [r2]
 1086 02aa 0131     		adds	r1, r1, #1
 1087 02ac 1160     		str	r1, [r2]
 1088 02ae 26E7     		b	.L87
 1089              	.LVL99:
 1090              	.L90:
 1091              	.LBE45:
 1092              	.LBB46:
 1093              	.LBB43:
 1094              	.LBB39:
 1095              	.LBB40:
 1096              		.loc 1 720 0
 1097 02b0 294B     		ldr	r3, .L137+72
 1098 02b2 DFED2C6A 		vldr.32	s13, .L137+84
 1099 02b6 93ED006A 		vldr.32	s12, [r3]
 1100              	.LBE40:
 1101              	.LBE39:
 1102              		.loc 1 2465 0
 1103 02ba 2B4B     		ldr	r3, .L137+88
 1104              		.loc 1 2468 0
 1105 02bc 2A68     		ldr	r2, [r5]
 1106              		.loc 1 2465 0
 1107 02be 93ED008A 		vldr.32	s16, [r3]
 1108              		.loc 1 2468 0
 1109 02c2 D3ED007A 		vldr.32	s15, [r3]
 1110 02c6 92ED497A 		vldr.32	s14, [r2, #292]
 1111              	.LBB42:
 1112              	.LBB41:
 1113              		.loc 1 720 0
 1114 02ca C6EE26BA 		vdiv.f32	s23, s12, s13
 1115              	.LBE41:
 1116              	.LBE42:
 1117              		.loc 1 2468 0
 1118 02ce F0EEE77A 		vabs.f32	s15, s15
 1119 02d2 F4EEC77A 		vcmpe.f32	s15, s14
 1120 02d6 F1EE10FA 		vmrs	APSR_nzcv, FPSCR
 1121              		.loc 1 2465 0
 1122 02da 38EE6B8A 		vsub.f32	s16, s16, s23
 1123              	.LVL100:
 1124              		.loc 1 2468 0
 1125 02de 4BD5     		bpl	.L122
 1126              		.loc 1 2469 0
 1127 02e0 1A4B     		ldr	r3, .L137+60
 1128 02e2 C3ED008A 		vstr.32	s17, [r3]
 1129              		.loc 1 2470 0
 1130 02e6 1A4B     		ldr	r3, .L137+64
 1131 02e8 83ED008A 		vstr.32	s16, [r3]
 1132 02ec 27E7     		b	.L99
 1133              	.LVL101:
 1134              	.L131:
 1135              	.LBE43:
 1136              	.LBE46:
 1137              		.loc 1 1956 0
 1138 02ee 0A4A     		ldr	r2, .L137+8
 1139 02f0 0023     		movs	r3, #0
 1140 02f2 1370     		strb	r3, [r2]
ARM GAS  C:\Users\CHRIST~1\AppData\Local\Temp\ccGCVH4j.s 			page 21


 1141              	.LBE52:
 1142              		.loc 1 2043 0
 1143 02f4 09B0     		add	sp, sp, #36
 1144              		.cfi_remember_state
 1145              		.cfi_def_cfa_offset 76
 1146              		@ sp needed
 1147 02f6 BDEC0A8B 		vldm	sp!, {d8-d12}
 1148              		.cfi_restore 88
 1149              		.cfi_restore 89
 1150              		.cfi_restore 86
 1151              		.cfi_restore 87
 1152              		.cfi_restore 84
 1153              		.cfi_restore 85
 1154              		.cfi_restore 82
 1155              		.cfi_restore 83
 1156              		.cfi_restore 80
 1157              		.cfi_restore 81
 1158              		.cfi_def_cfa_offset 36
 1159 02fa BDE8F08F 		pop	{r4, r5, r6, r7, r8, r9, r10, fp, pc}
 1160              	.LVL102:
 1161              	.L129:
 1162              		.cfi_restore_state
 1163              	.LBB53:
 1164              		.loc 1 2010 0
 1165 02fe 97ED007A 		vldr.32	s14, [r7]
 1166 0302 DFED0F7A 		vldr.32	s15, .L137+48
 1167 0306 77EE677A 		vsub.f32	s15, s14, s15
 1168 030a C7ED007A 		vstr.32	s15, [r7]
 1169 030e E2E6     		b	.L79
 1170              	.L138:
 1171              		.align	2
 1172              	.L137:
 1173 0310 00000000 		.word	ch
 1174 0314 00000000 		.word	.LC0
 1175 0318 00000000 		.word	.LANCHOR9
 1176 031c 00000000 		.word	.LANCHOR10
 1177 0320 00000000 		.word	.LANCHOR0
 1178 0324 00000000 		.word	.LANCHOR13
 1179 0328 00000000 		.word	.LANCHOR8
 1180 032c 00000000 		.word	0
 1181 0330 DB0F4940 		.word	1078530011
 1182 0334 00007042 		.word	1114636288
 1183 0338 6F12833A 		.word	981668463
 1184 033c 17B7D138 		.word	953267991
 1185 0340 DB0FC93F 		.word	1070141403
 1186 0344 00000000 		.word	.LANCHOR7
 1187 0348 00000000 		.word	.LANCHOR18
 1188 034c 00000000 		.word	.LANCHOR19
 1189 0350 00000000 		.word	.LANCHOR20
 1190 0354 00000000 		.word	.LANCHOR11
 1191 0358 00000000 		.word	.LANCHOR12
 1192 035c 00000000 		.word	.LANCHOR16
 1193 0360 00000000 		.word	.LANCHOR17
 1194 0364 5077D63D 		.word	1037465424
 1195 0368 00000000 		.word	.LANCHOR21
 1196 036c 00000000 		.word	.LANCHOR14
 1197 0370 00000000 		.word	.LANCHOR6
ARM GAS  C:\Users\CHRIST~1\AppData\Local\Temp\ccGCVH4j.s 			page 22


 1198 0374 00000000 		.word	.LANCHOR15
 1199              	.LVL103:
 1200              	.L122:
 1201              	.LBB47:
 1202              	.LBB44:
 1203              		.loc 1 2475 0
 1204 0378 D2ED46CA 		vldr.32	s25, [r2, #280]
 1205              		.loc 1 2476 0
 1206 037c 92ED477A 		vldr.32	s14, [r2, #284]
 1207              		.loc 1 2477 0
 1208 0380 92ED486A 		vldr.32	s12, [r2, #288]
 1209              		.loc 1 2476 0
 1210 0384 364B     		ldr	r3, .L139
 1211 0386 9FED37CA 		vldr.32	s24, .L139+4
 1212 038a D3ED006A 		vldr.32	s13, [r3]
 1213              		.loc 1 2477 0
 1214 038e 364A     		ldr	r2, .L139+8
 1215 0390 C6EE097A 		vdiv.f32	s15, s12, s18
 1216              		.loc 1 2480 0
 1217 0394 1846     		mov	r0, r3
 1218              		.loc 1 2476 0
 1219 0396 27EE097A 		vmul.f32	s14, s14, s18
 1220              		.loc 1 2477 0
 1221 039a 92ED00BA 		vldr.32	s22, [r2]
 1222              	.LVL104:
 1223              		.loc 1 2476 0
 1224 039e 27EE087A 		vmul.f32	s14, s14, s16
 1225              		.loc 1 2477 0
 1226 03a2 38EE4BBA 		vsub.f32	s22, s16, s22
 1227              		.loc 1 2476 0
 1228 03a6 E7EE0C6A 		vfma.f32	s13, s14, s24
 1229              		.loc 1 2480 0
 1230 03aa F7EE000A 		vmov.f32	s1, #1.0e+0
 1231 03ae BFEE000A 		vmov.f32	s0, #-1.0e+0
 1232              		.loc 1 2476 0
 1233 03b2 C3ED006A 		vstr.32	s13, [r3]
 1234              		.loc 1 2477 0
 1235 03b6 2BEE27BA 		vmul.f32	s22, s22, s15
 1236              		.loc 1 2480 0
 1237 03ba FFF7FEFF 		bl	utils_truncate_number
 1238              	.LVL105:
 1239              		.loc 1 2486 0
 1240 03be 284B     		ldr	r3, .L139
 1241              		.loc 1 2483 0
 1242 03c0 294A     		ldr	r2, .L139+8
 1243              		.loc 1 2486 0
 1244 03c2 D3ED007A 		vldr.32	s15, [r3]
 1245              		.loc 1 2483 0
 1246 03c6 82ED008A 		vstr.32	s16, [r2]
 1247              		.loc 1 2475 0
 1248 03ca 68EE2CCA 		vmul.f32	s25, s16, s25
 1249              	.LVL106:
 1250              		.loc 1 2486 0
 1251 03ce 08A8     		add	r0, sp, #32
 1252 03d0 ECEE8C7A 		vfma.f32	s15, s25, s24
 1253              		.loc 1 2487 0
 1254 03d4 F7EE000A 		vmov.f32	s1, #1.0e+0
ARM GAS  C:\Users\CHRIST~1\AppData\Local\Temp\ccGCVH4j.s 			page 23


 1255              		.loc 1 2486 0
 1256 03d8 EBEE0C7A 		vfma.f32	s15, s22, s24
 1257              		.loc 1 2487 0
 1258 03dc BFEE000A 		vmov.f32	s0, #-1.0e+0
 1259              		.loc 1 2486 0
 1260 03e0 60ED017A 		vstmdb.32	r0!, {s15}
 1261              		.loc 1 2487 0
 1262 03e4 FFF7FEFF 		bl	utils_truncate_number
 1263              	.LVL107:
 1264              		.loc 1 2490 0
 1265 03e8 2B68     		ldr	r3, [r5]
 1266 03ea DDED077A 		vldr.32	s15, [sp, #28]
 1267 03ee 93F82821 		ldrb	r2, [r3, #296]	@ zero_extendqisi2
 1268 03f2 72B9     		cbnz	r2, .L95
 1269              		.loc 1 2491 0
 1270 03f4 F5EEC0BA 		vcmpe.f32	s23, #0
 1271 03f8 F1EE10FA 		vmrs	APSR_nzcv, FPSCR
 1272 03fc 04DD     		ble	.L96
 1273 03fe F5EEC07A 		vcmpe.f32	s15, #0
 1274 0402 F1EE10FA 		vmrs	APSR_nzcv, FPSCR
 1275 0406 11D4     		bmi	.L102
 1276              	.L96:
 1277              		.loc 1 2495 0
 1278 0408 F5EEC0BA 		vcmpe.f32	s23, #0
 1279 040c F1EE10FA 		vmrs	APSR_nzcv, FPSCR
 1280 0410 07D4     		bmi	.L136
 1281              	.L95:
 1282              		.loc 1 2500 0
 1283 0412 93ED197A 		vldr.32	s14, [r3, #100]
 1284 0416 154B     		ldr	r3, .L139+12
 1285 0418 67EE877A 		vmul.f32	s15, s15, s14
 1286 041c C3ED007A 		vstr.32	s15, [r3]
 1287 0420 8DE6     		b	.L99
 1288              	.L136:
 1289              		.loc 1 2495 0
 1290 0422 F5EEC07A 		vcmpe.f32	s15, #0
 1291 0426 F1EE10FA 		vmrs	APSR_nzcv, FPSCR
 1292 042a F2DD     		ble	.L95
 1293              	.L102:
 1294              		.loc 1 2500 0
 1295 042c 93ED197A 		vldr.32	s14, [r3, #100]
 1296 0430 0E4B     		ldr	r3, .L139+12
 1297              		.loc 1 2495 0
 1298 0432 F0EE687A 		vmov.f32	s15, s17
 1299              		.loc 1 2500 0
 1300 0436 67EE877A 		vmul.f32	s15, s15, s14
 1301 043a C3ED007A 		vstr.32	s15, [r3]
 1302 043e 7EE6     		b	.L99
 1303              	.LVL108:
 1304              	.L124:
 1305              		.cfi_def_cfa_offset 0
 1306              		.cfi_restore 4
 1307              		.cfi_restore 5
 1308              		.cfi_restore 6
 1309              		.cfi_restore 7
 1310              		.cfi_restore 8
 1311              		.cfi_restore 9
ARM GAS  C:\Users\CHRIST~1\AppData\Local\Temp\ccGCVH4j.s 			page 24


 1312              		.cfi_restore 10
 1313              		.cfi_restore 11
 1314              		.cfi_restore 14
 1315              		.cfi_restore 80
 1316              		.cfi_restore 81
 1317              		.cfi_restore 82
 1318              		.cfi_restore 83
 1319              		.cfi_restore 84
 1320              		.cfi_restore 85
 1321              		.cfi_restore 86
 1322              		.cfi_restore 87
 1323              		.cfi_restore 88
 1324              		.cfi_restore 89
 1325              	.LBE44:
 1326              	.LBE47:
 1327              		.loc 1 1956 0
 1328 0440 0B4A     		ldr	r2, .L139+16
 1329 0442 0023     		movs	r3, #0
 1330 0444 1370     		strb	r3, [r2]
 1331 0446 7047     		bx	lr
 1332              	.LVL109:
 1333              	.L134:
 1334              		.cfi_def_cfa_offset 112
 1335              		.cfi_offset 4, -36
 1336              		.cfi_offset 5, -32
 1337              		.cfi_offset 6, -28
 1338              		.cfi_offset 7, -24
 1339              		.cfi_offset 8, -20
 1340              		.cfi_offset 9, -16
 1341              		.cfi_offset 10, -12
 1342              		.cfi_offset 11, -8
 1343              		.cfi_offset 14, -4
 1344              		.cfi_offset 80, -76
 1345              		.cfi_offset 81, -72
 1346              		.cfi_offset 82, -68
 1347              		.cfi_offset 83, -64
 1348              		.cfi_offset 84, -60
 1349              		.cfi_offset 85, -56
 1350              		.cfi_offset 86, -52
 1351              		.cfi_offset 87, -48
 1352              		.cfi_offset 88, -44
 1353              		.cfi_offset 89, -40
 1354 0448 0093     		str	r3, [sp]
 1355              	.LBB48:
 1356              		.loc 1 2030 0
 1357 044a FFF7FEFF 		bl	sqrtf
 1358              	.LVL110:
 1359 044e 009B     		ldr	r3, [sp]
 1360 0450 09E7     		b	.L88
 1361              	.L135:
 1362 0452 CDE90032 		strd	r3, r2, [sp]
 1363              		.loc 1 2031 0
 1364 0456 FFF7FEFF 		bl	sqrtf
 1365              	.LVL111:
 1366 045a DDE90032 		ldrd	r3, r2, [sp]
 1367 045e 1DE7     		b	.L89
 1368              	.L140:
ARM GAS  C:\Users\CHRIST~1\AppData\Local\Temp\ccGCVH4j.s 			page 25


 1369              		.align	2
 1370              	.L139:
 1371 0460 00000000 		.word	.LANCHOR19
 1372 0464 CDCC4C3D 		.word	1028443341
 1373 0468 00000000 		.word	.LANCHOR20
 1374 046c 00000000 		.word	.LANCHOR22
 1375 0470 00000000 		.word	.LANCHOR9
 1376              	.LBE48:
 1377              	.LBE53:
 1378              		.cfi_endproc
 1379              	.LFE305:
 1380              		.size	timer_thread, .-timer_thread
 1381              		.section	.text.mcpwm_foc_init,"ax",%progbits
 1382              		.align	1
 1383              		.p2align 4,,15
 1384              		.global	mcpwm_foc_init
 1385              		.syntax unified
 1386              		.thumb
 1387              		.thumb_func
 1388              		.fpu fpv4-sp-d16
 1389              		.type	mcpwm_foc_init, %function
 1390              	mcpwm_foc_init:
 1391              	.LFB256:
 1392              		.loc 1 190 0
 1393              		.cfi_startproc
 1394              		@ args = 0, pretend = 0, frame = 160
 1395              		@ frame_needed = 0, uses_anonymous_args = 0
 1396              	.LVL112:
 1397 0000 2DE9F04F 		push	{r4, r5, r6, r7, r8, r9, r10, fp, lr}
 1398              		.cfi_def_cfa_offset 36
 1399              		.cfi_offset 4, -36
 1400              		.cfi_offset 5, -32
 1401              		.cfi_offset 6, -28
 1402              		.cfi_offset 7, -24
 1403              		.cfi_offset 8, -20
 1404              		.cfi_offset 9, -16
 1405              		.cfi_offset 10, -12
 1406              		.cfi_offset 11, -8
 1407              		.cfi_offset 14, -4
 1408 0004 ABB0     		sub	sp, sp, #172
 1409              		.cfi_def_cfa_offset 208
 1410              		.loc 1 190 0
 1411 0006 8146     		mov	r9, r0
 1412              		.loc 1 191 0
 1413 0008 FFF7FEFF 		bl	utils_sys_lock_cnt
 1414              	.LVL113:
 1415              		.loc 1 193 0
 1416 000c D04B     		ldr	r3, .L149
 1417              		.loc 1 203 0
 1418 000e DFF8CCE3 		ldr	lr, .L149+140
 1419              		.loc 1 204 0
 1420 0012 DFF8CCC3 		ldr	ip, .L149+144
 1421              		.loc 1 205 0
 1422 0016 DFF8CCB3 		ldr	fp, .L149+148
 1423              		.loc 1 207 0
 1424 001a CE4F     		ldr	r7, .L149+4
 1425              		.loc 1 210 0
ARM GAS  C:\Users\CHRIST~1\AppData\Local\Temp\ccGCVH4j.s 			page 26


 1426 001c DFEDCE7A 		vldr.32	s15, .L149+8
 1427              		.loc 1 199 0
 1428 0020 DFF8C483 		ldr	r8, .L149+152
 1429              		.loc 1 209 0
 1430 0024 DFF8C4A3 		ldr	r10, .L149+156
 1431              		.loc 1 211 0
 1432 0028 CC49     		ldr	r1, .L149+12
 1433              		.loc 1 212 0
 1434 002a CD4A     		ldr	r2, .L149+16
 1435              		.loc 1 213 0
 1436 002c CD48     		ldr	r0, .L149+20
 1437              		.loc 1 199 0
 1438 002e C8F80090 		str	r9, [r8]
 1439              		.loc 1 193 0
 1440 0032 0024     		movs	r4, #0
 1441 0034 1C70     		strb	r4, [r3]
 1442              		.loc 1 206 0
 1443 0036 CC4B     		ldr	r3, .L149+24
 1444              		.loc 1 203 0
 1445 0038 8EF80040 		strb	r4, [lr]
 1446              		.loc 1 204 0
 1447 003c 4FF0070E 		mov	lr, #7
 1448 0040 8CF800E0 		strb	lr, [ip]
 1449              		.loc 1 205 0
 1450 0044 CBF80040 		str	r4, [fp]
 1451              		.loc 1 206 0
 1452 0048 1C60     		str	r4, [r3]
 1453              		.loc 1 208 0
 1454 004a C84B     		ldr	r3, .L149+28
 1455              		.loc 1 207 0
 1456 004c 3C60     		str	r4, [r7]
 1457              		.loc 1 208 0
 1458 004e 1C70     		strb	r4, [r3]
 1459              		.loc 1 210 0
 1460 0050 C74B     		ldr	r3, .L149+32
 1461              		.loc 1 209 0
 1462 0052 8AF80040 		strb	r4, [r10]
 1463              		.loc 1 214 0
 1464 0056 DFF89893 		ldr	r9, .L149+160
 1465              	.LVL114:
 1466              		.loc 1 210 0
 1467 005a C3ED007A 		vstr.32	s15, [r3]
 1468              		.loc 1 215 0
 1469 005e DFF894E3 		ldr	lr, .L149+164
 1470              		.loc 1 216 0
 1471 0062 DFF894C3 		ldr	ip, .L149+168
 1472              		.loc 1 217 0
 1473 0066 C34B     		ldr	r3, .L149+36
 1474              		.loc 1 211 0
 1475 0068 C1ED007A 		vstr.32	s15, [r1]
 1476              		.loc 1 212 0
 1477 006c C2ED007A 		vstr.32	s15, [r2]
 1478              		.loc 1 218 0
 1479 0070 C149     		ldr	r1, .L149+40
 1480              		.loc 1 213 0
 1481 0072 C0ED007A 		vstr.32	s15, [r0]
 1482              		.loc 1 219 0
ARM GAS  C:\Users\CHRIST~1\AppData\Local\Temp\ccGCVH4j.s 			page 27


 1483 0076 C14A     		ldr	r2, .L149+44
 1484              		.loc 1 220 0
 1485 0078 C148     		ldr	r0, .L149+48
 1486              		.loc 1 214 0
 1487 007a C9ED007A 		vstr.32	s15, [r9]
 1488              		.loc 1 215 0
 1489 007e 8EF80040 		strb	r4, [lr]
 1490              		.loc 1 221 0
 1491 0082 DFF87893 		ldr	r9, .L149+172
 1492              		.loc 1 216 0
 1493 0086 CCED007A 		vstr.32	s15, [ip]
 1494              		.loc 1 222 0
 1495 008a DFF874E3 		ldr	lr, .L149+176
 1496              		.loc 1 217 0
 1497 008e C3ED007A 		vstr.32	s15, [r3]
 1498              		.loc 1 223 0
 1499 0092 DFF870C3 		ldr	ip, .L149+180
 1500              		.loc 1 224 0
 1501 0096 BB4B     		ldr	r3, .L149+52
 1502              		.loc 1 218 0
 1503 0098 C1ED007A 		vstr.32	s15, [r1]
 1504              		.loc 1 219 0
 1505 009c C2ED007A 		vstr.32	s15, [r2]
 1506              		.loc 1 225 0
 1507 00a0 B949     		ldr	r1, .L149+56
 1508              		.loc 1 220 0
 1509 00a2 0470     		strb	r4, [r0]
 1510              		.loc 1 226 0
 1511 00a4 B94A     		ldr	r2, .L149+60
 1512              		.loc 1 227 0
 1513 00a6 BA48     		ldr	r0, .L149+64
 1514              		.loc 1 221 0
 1515 00a8 C9ED007A 		vstr.32	s15, [r9]
 1516              		.loc 1 222 0
 1517 00ac CEED007A 		vstr.32	s15, [lr]
 1518              		.loc 1 228 0
 1519 00b0 DFF85493 		ldr	r9, .L149+184
 1520              		.loc 1 229 0
 1521 00b4 DFF854E3 		ldr	lr, .L149+188
 1522              		.loc 1 223 0
 1523 00b8 CCED007A 		vstr.32	s15, [ip]
 1524              		.loc 1 224 0
 1525 00bc C3ED007A 		vstr.32	s15, [r3]
 1526              		.loc 1 230 0
 1527 00c0 DFF84CC3 		ldr	ip, .L149+192
 1528              		.loc 1 231 0
 1529 00c4 B34B     		ldr	r3, .L149+68
 1530              		.loc 1 225 0
 1531 00c6 C1ED007A 		vstr.32	s15, [r1]
 1532              		.loc 1 226 0
 1533 00ca C2ED007A 		vstr.32	s15, [r2]
 1534              		.loc 1 232 0
 1535 00ce 2146     		mov	r1, r4
 1536              		.loc 1 227 0
 1537 00d0 0460     		str	r4, [r0]
 1538              		.loc 1 232 0
 1539 00d2 6022     		movs	r2, #96
ARM GAS  C:\Users\CHRIST~1\AppData\Local\Temp\ccGCVH4j.s 			page 28


 1540 00d4 B048     		ldr	r0, .L149+72
 1541              		.loc 1 239 0
 1542 00d6 B14D     		ldr	r5, .L149+76
 1543              		.loc 1 228 0
 1544 00d8 C9F80040 		str	r4, [r9]
 1545              		.loc 1 229 0
 1546 00dc CEED007A 		vstr.32	s15, [lr]
 1547              		.loc 1 230 0
 1548 00e0 CCED007A 		vstr.32	s15, [ip]
 1549              		.loc 1 231 0
 1550 00e4 C3ED007A 		vstr.32	s15, [r3]
 1551              		.loc 1 232 0
 1552 00e8 FFF7FEFF 		bl	memset
 1553              	.LVL115:
 1554              		.loc 1 233 0
 1555 00ec AC4B     		ldr	r3, .L149+80
 1556              		.loc 1 240 0
 1557 00ee AD4E     		ldr	r6, .L149+84
 1558              		.loc 1 233 0
 1559 00f0 1C60     		str	r4, [r3]
 1560              		.loc 1 239 0
 1561 00f2 2846     		mov	r0, r5
 1562              		.loc 1 233 0
 1563 00f4 5C60     		str	r4, [r3, #4]
 1564 00f6 9C60     		str	r4, [r3, #8]
 1565 00f8 DC60     		str	r4, [r3, #12]
 1566 00fa 1C61     		str	r4, [r3, #16]
 1567              		.loc 1 239 0
 1568 00fc FFF7FEFF 		bl	TIM_DeInit
 1569              	.LVL116:
 1570              		.loc 1 240 0
 1571 0100 3046     		mov	r0, r6
 1572 0102 FFF7FEFF 		bl	TIM_DeInit
 1573              	.LVL117:
 1574              		.loc 1 245 0
 1575 0106 0121     		movs	r1, #1
 1576              		.loc 1 241 0
 1577 0108 6C62     		str	r4, [r5, #36]
 1578              		.loc 1 245 0
 1579 010a 0846     		mov	r0, r1
 1580              		.loc 1 242 0
 1581 010c 7462     		str	r4, [r6, #36]
 1582              		.loc 1 245 0
 1583 010e FFF7FEFF 		bl	RCC_APB2PeriphClockCmd
 1584              	.LVL118:
 1585              		.loc 1 250 0
 1586 0112 D8F80030 		ldr	r3, [r8]
 1587 0116 A44A     		ldr	r2, .L149+88
 1588 0118 D3ED2B7A 		vldr.32	s15, [r3, #172]
 1589              		.loc 1 251 0
 1590 011c ADF81C40 		strh	r4, [sp, #28]	@ movhi
 1591              		.loc 1 250 0
 1592 0120 FDEEE77A 		vcvt.s32.f32	s15, s15
 1593              		.loc 1 248 0
 1594 0124 4FF4001C 		mov	ip, #2097152
 1595              		.loc 1 250 0
 1596 0128 17EE903A 		vmov	r3, s15	@ int
ARM GAS  C:\Users\CHRIST~1\AppData\Local\Temp\ccGCVH4j.s 			page 29


 1597              		.loc 1 254 0
 1598 012c 2846     		mov	r0, r5
 1599 012e 05A9     		add	r1, sp, #20
 1600              		.loc 1 248 0
 1601 0130 CDF814C0 		str	ip, [sp, #20]
 1602              		.loc 1 250 0
 1603 0134 92FBF3F3 		sdiv	r3, r2, r3
 1604              		.loc 1 252 0
 1605 0138 8DF81E40 		strb	r4, [sp, #30]
 1606              		.loc 1 250 0
 1607 013c 0693     		str	r3, [sp, #24]
 1608              		.loc 1 254 0
 1609 013e FFF7FEFF 		bl	TIM_TimeBaseInit
 1610              	.LVL119:
 1611              		.loc 1 260 0
 1612 0142 EB6A     		ldr	r3, [r5, #44]
 1613              		.loc 1 257 0
 1614 0144 994A     		ldr	r2, .L149+92
 1615 0146 1092     		str	r2, [sp, #64]
 1616              		.loc 1 260 0
 1617 0148 5B08     		lsrs	r3, r3, #1
 1618              		.loc 1 266 0
 1619 014a 2846     		mov	r0, r5
 1620              		.loc 1 258 0
 1621 014c 4FF00409 		mov	r9, #4
 1622              		.loc 1 261 0
 1623 0150 CDE91234 		strd	r3, r4, [sp, #72]
 1624              		.loc 1 266 0
 1625 0154 10A9     		add	r1, sp, #64
 1626              		.loc 1 262 0
 1627 0156 964B     		ldr	r3, .L149+96
 1628 0158 1493     		str	r3, [sp, #80]
 1629              		.loc 1 258 0
 1630 015a ADF84490 		strh	r9, [sp, #68]	@ movhi
 1631              		.loc 1 266 0
 1632 015e FFF7FEFF 		bl	TIM_OC1Init
 1633              	.LVL120:
 1634              		.loc 1 267 0
 1635 0162 2846     		mov	r0, r5
 1636 0164 10A9     		add	r1, sp, #64
 1637 0166 FFF7FEFF 		bl	TIM_OC2Init
 1638              	.LVL121:
 1639              		.loc 1 268 0
 1640 016a 2846     		mov	r0, r5
 1641 016c 10A9     		add	r1, sp, #64
 1642 016e FFF7FEFF 		bl	TIM_OC3Init
 1643              	.LVL122:
 1644              		.loc 1 269 0
 1645 0172 2846     		mov	r0, r5
 1646 0174 10A9     		add	r1, sp, #64
 1647 0176 FFF7FEFF 		bl	TIM_OC4Init
 1648              	.LVL123:
 1649              		.loc 1 271 0
 1650 017a 2846     		mov	r0, r5
 1651 017c 0821     		movs	r1, #8
 1652 017e FFF7FEFF 		bl	TIM_OC1PreloadConfig
 1653              	.LVL124:
ARM GAS  C:\Users\CHRIST~1\AppData\Local\Temp\ccGCVH4j.s 			page 30


 1654              		.loc 1 272 0
 1655 0182 2846     		mov	r0, r5
 1656 0184 0821     		movs	r1, #8
 1657 0186 FFF7FEFF 		bl	TIM_OC2PreloadConfig
 1658              	.LVL125:
 1659              		.loc 1 273 0
 1660 018a 2846     		mov	r0, r5
 1661 018c 0821     		movs	r1, #8
 1662 018e FFF7FEFF 		bl	TIM_OC3PreloadConfig
 1663              	.LVL126:
 1664              		.loc 1 274 0
 1665 0192 2846     		mov	r0, r5
 1666 0194 0821     		movs	r1, #8
 1667 0196 FFF7FEFF 		bl	TIM_OC4PreloadConfig
 1668              	.LVL127:
 1669              		.loc 1 277 0
 1670 019a 864A     		ldr	r2, .L149+100
 1671              		.loc 1 282 0
 1672 019c ADF82C40 		strh	r4, [sp, #44]	@ movhi
 1673              		.loc 1 278 0
 1674 01a0 4FF47013 		mov	r3, #3932160
 1675              		.loc 1 285 0
 1676 01a4 2846     		mov	r0, r5
 1677              		.loc 1 280 0
 1678 01a6 4FF0005A 		mov	r10, #536870912
 1679              		.loc 1 285 0
 1680 01aa 08A9     		add	r1, sp, #32
 1681              		.loc 1 278 0
 1682 01ac CDE90823 		strd	r2, r3, [sp, #32]
 1683              		.loc 1 280 0
 1684 01b0 CDF828A0 		str	r10, [sp, #40]
 1685              		.loc 1 285 0
 1686 01b4 FFF7FEFF 		bl	TIM_BDTRConfig
 1687              	.LVL128:
 1688              		.loc 1 286 0
 1689 01b8 2846     		mov	r0, r5
 1690 01ba 0121     		movs	r1, #1
 1691 01bc FFF7FEFF 		bl	TIM_CCPreloadControl
 1692              	.LVL129:
 1693              		.loc 1 287 0
 1694 01c0 2846     		mov	r0, r5
 1695 01c2 0121     		movs	r1, #1
 1696 01c4 FFF7FEFF 		bl	TIM_ARRPreloadConfig
 1697              	.LVL130:
 1698              		.loc 1 297 0
 1699 01c8 0121     		movs	r1, #1
 1700 01ca 7B48     		ldr	r0, .L149+104
 1701 01cc FFF7FEFF 		bl	RCC_AHB1PeriphClockCmd
 1702              	.LVL131:
 1703              		.loc 1 298 0
 1704 01d0 0121     		movs	r1, #1
 1705 01d2 4FF4E060 		mov	r0, #1792
 1706 01d6 FFF7FEFF 		bl	RCC_APB2PeriphClockCmd
 1707              	.LVL132:
 1708              		.loc 1 300 0
 1709 01da 2346     		mov	r3, r4
 1710 01dc 774A     		ldr	r2, .L149+108
ARM GAS  C:\Users\CHRIST~1\AppData\Local\Temp\ccGCVH4j.s 			page 31


 1711 01de 7848     		ldr	r0, .L149+112
 1712 01e0 0321     		movs	r1, #3
 1713 01e2 FFF7FEFF 		bl	dmaStreamAllocate
 1714              	.LVL133:
 1715              		.loc 1 307 0
 1716 01e6 774A     		ldr	r2, .L149+116
 1717              		.loc 1 308 0
 1718 01e8 7749     		ldr	r1, .L149+120
 1719              		.loc 1 307 0
 1720 01ea 1D92     		str	r2, [sp, #116]
 1721              		.loc 1 310 0
 1722 01ec 4FF00C0C 		mov	ip, #12
 1723              		.loc 1 313 0
 1724 01f0 4FF40062 		mov	r2, #2048
 1725              		.loc 1 308 0
 1726 01f4 1C91     		str	r1, [sp, #112]
 1727              		.loc 1 314 0
 1728 01f6 4FF40051 		mov	r1, #8192
 1729              		.loc 1 312 0
 1730 01fa 4FF48063 		mov	r3, #1024
 1731              		.loc 1 321 0
 1732 01fe 7348     		ldr	r0, .L149+124
 1733              		.loc 1 310 0
 1734 0200 CDF87CC0 		str	ip, [sp, #124]
 1735              		.loc 1 313 0
 1736 0204 2292     		str	r2, [sp, #136]
 1737              		.loc 1 315 0
 1738 0206 4FF4807C 		mov	ip, #256
 1739              		.loc 1 316 0
 1740 020a 4FF40032 		mov	r2, #131072
 1741              		.loc 1 314 0
 1742 020e 2391     		str	r1, [sp, #140]
 1743              		.loc 1 321 0
 1744 0210 1BA9     		add	r1, sp, #108
 1745              		.loc 1 316 0
 1746 0212 CDE924C2 		strd	ip, r2, [sp, #144]
 1747              		.loc 1 312 0
 1748 0216 2193     		str	r3, [sp, #132]
 1749 0218 0393     		str	r3, [sp, #12]
 1750              		.loc 1 306 0
 1751 021a 1B94     		str	r4, [sp, #108]
 1752              		.loc 1 309 0
 1753 021c 1E94     		str	r4, [sp, #120]
 1754              		.loc 1 311 0
 1755 021e 2094     		str	r4, [sp, #128]
 1756              		.loc 1 318 0
 1757 0220 CDE92644 		strd	r4, r4, [sp, #152]
 1758              		.loc 1 320 0
 1759 0224 CDE92844 		strd	r4, r4, [sp, #160]
 1760              		.loc 1 321 0
 1761 0228 FFF7FEFF 		bl	DMA_Init
 1762              	.LVL134:
 1763              		.loc 1 324 0
 1764 022c 0121     		movs	r1, #1
 1765 022e 6748     		ldr	r0, .L149+124
 1766 0230 FFF7FEFF 		bl	DMA_Cmd
 1767              	.LVL135:
ARM GAS  C:\Users\CHRIST~1\AppData\Local\Temp\ccGCVH4j.s 			page 32


 1768              		.loc 1 327 0
 1769 0234 0122     		movs	r2, #1
 1770 0236 1021     		movs	r1, #16
 1771 0238 6448     		ldr	r0, .L149+124
 1772 023a FFF7FEFF 		bl	DMA_ITConfig
 1773              	.LVL136:
 1774              		.loc 1 332 0
 1775 023e 1621     		movs	r1, #22
 1776              		.loc 1 334 0
 1777 0240 4FF48042 		mov	r2, #16384
 1778              		.loc 1 336 0
 1779 0244 0CA8     		add	r0, sp, #48
 1780              		.loc 1 340 0
 1781 0246 4FF00108 		mov	r8, #1
 1782              		.loc 1 333 0
 1783 024a 0D94     		str	r4, [sp, #52]
 1784              		.loc 1 335 0
 1785 024c 0F94     		str	r4, [sp, #60]
 1786              		.loc 1 332 0
 1787 024e 0C91     		str	r1, [sp, #48]
 1788              		.loc 1 334 0
 1789 0250 0E92     		str	r2, [sp, #56]
 1790              		.loc 1 336 0
 1791 0252 FFF7FEFF 		bl	ADC_CommonInit
 1792              	.LVL137:
 1793              		.loc 1 343 0
 1794 0256 4FF05062 		mov	r2, #218103808
 1795              		.loc 1 347 0
 1796 025a 15A9     		add	r1, sp, #84
 1797 025c 5C48     		ldr	r0, .L149+128
 1798              		.loc 1 343 0
 1799 025e 1892     		str	r2, [sp, #96]
 1800              		.loc 1 339 0
 1801 0260 1594     		str	r4, [sp, #84]
 1802              		.loc 1 341 0
 1803 0262 8DF85940 		strb	r4, [sp, #89]
 1804              		.loc 1 344 0
 1805 0266 1994     		str	r4, [sp, #100]
 1806              		.loc 1 342 0
 1807 0268 CDF85CA0 		str	r10, [sp, #92]
 1808              		.loc 1 345 0
 1809 026c 8DF86890 		strb	r9, [sp, #104]
 1810              		.loc 1 340 0
 1811 0270 8DF85880 		strb	r8, [sp, #88]
 1812              		.loc 1 347 0
 1813 0274 FFF7FEFF 		bl	ADC_Init
 1814              	.LVL138:
 1815              		.loc 1 350 0
 1816 0278 15A9     		add	r1, sp, #84
 1817 027a 5648     		ldr	r0, .L149+132
 1818              		.loc 1 349 0
 1819 027c CDE91744 		strd	r4, r4, [sp, #92]
 1820              		.loc 1 350 0
 1821 0280 FFF7FEFF 		bl	ADC_Init
 1822              	.LVL139:
 1823              		.loc 1 351 0
 1824 0284 15A9     		add	r1, sp, #84
ARM GAS  C:\Users\CHRIST~1\AppData\Local\Temp\ccGCVH4j.s 			page 33


 1825 0286 5448     		ldr	r0, .L149+136
 1826 0288 FFF7FEFF 		bl	ADC_Init
 1827              	.LVL140:
 1828              		.loc 1 354 0
 1829 028c 4046     		mov	r0, r8
 1830 028e FFF7FEFF 		bl	ADC_TempSensorVrefintCmd
 1831              	.LVL141:
 1832              		.loc 1 357 0
 1833 0292 4046     		mov	r0, r8
 1834 0294 FFF7FEFF 		bl	ADC_MultiModeDMARequestAfterLastTransferCmd
 1835              	.LVL142:
 1836              		.loc 1 359 0
 1837 0298 FFF7FEFF 		bl	hw_setup_adc_channels
 1838              	.LVL143:
 1839              		.loc 1 362 0
 1840 029c 4146     		mov	r1, r8
 1841 029e 4C48     		ldr	r0, .L149+128
 1842 02a0 FFF7FEFF 		bl	ADC_Cmd
 1843              	.LVL144:
 1844              		.loc 1 365 0
 1845 02a4 4146     		mov	r1, r8
 1846 02a6 4B48     		ldr	r0, .L149+132
 1847 02a8 FFF7FEFF 		bl	ADC_Cmd
 1848              	.LVL145:
 1849              		.loc 1 368 0
 1850 02ac 4146     		mov	r1, r8
 1851 02ae 4A48     		ldr	r0, .L149+136
 1852 02b0 FFF7FEFF 		bl	ADC_Cmd
 1853              	.LVL146:
 1854              		.loc 1 372 0
 1855 02b4 4146     		mov	r1, r8
 1856 02b6 0220     		movs	r0, #2
 1857 02b8 FFF7FEFF 		bl	RCC_APB2PeriphClockCmd
 1858              	.LVL147:
 1859              		.loc 1 375 0
 1860 02bc 4FF6FF72 		movw	r2, #65535
 1861              		.loc 1 379 0
 1862 02c0 05A9     		add	r1, sp, #20
 1863 02c2 3046     		mov	r0, r6
 1864              		.loc 1 374 0
 1865 02c4 0594     		str	r4, [sp, #20]
 1866              		.loc 1 376 0
 1867 02c6 ADF81C40 		strh	r4, [sp, #28]	@ movhi
 1868              		.loc 1 377 0
 1869 02ca 8DF81E40 		strb	r4, [sp, #30]
 1870              		.loc 1 375 0
 1871 02ce 0692     		str	r2, [sp, #24]
 1872              		.loc 1 379 0
 1873 02d0 FFF7FEFF 		bl	TIM_TimeBaseInit
 1874              	.LVL148:
 1875              		.loc 1 381 0
 1876 02d4 354B     		ldr	r3, .L149+92
 1877 02d6 1093     		str	r3, [sp, #64]
 1878              		.loc 1 383 0
 1879 02d8 4FF4FA72 		mov	r2, #500
 1880              		.loc 1 385 0
 1881 02dc 344B     		ldr	r3, .L149+96
ARM GAS  C:\Users\CHRIST~1\AppData\Local\Temp\ccGCVH4j.s 			page 34


 1882 02de 1493     		str	r3, [sp, #80]
 1883              		.loc 1 388 0
 1884 02e0 10A9     		add	r1, sp, #64
 1885 02e2 3046     		mov	r0, r6
 1886              		.loc 1 383 0
 1887 02e4 1292     		str	r2, [sp, #72]
 1888 02e6 1394     		str	r4, [sp, #76]
 1889              		.loc 1 388 0
 1890 02e8 FFF7FEFF 		bl	TIM_OC1Init
 1891              	.LVL149:
 1892              		.loc 1 389 0
 1893 02ec 3046     		mov	r0, r6
 1894 02ee 0821     		movs	r1, #8
 1895 02f0 FFF7FEFF 		bl	TIM_OC1PreloadConfig
 1896              	.LVL150:
 1897              		.loc 1 390 0
 1898 02f4 10A9     		add	r1, sp, #64
 1899 02f6 3046     		mov	r0, r6
 1900 02f8 FFF7FEFF 		bl	TIM_OC2Init
 1901              	.LVL151:
 1902              		.loc 1 391 0
 1903 02fc 3046     		mov	r0, r6
 1904 02fe 0821     		movs	r1, #8
 1905 0300 FFF7FEFF 		bl	TIM_OC2PreloadConfig
 1906              	.LVL152:
 1907              		.loc 1 392 0
 1908 0304 10A9     		add	r1, sp, #64
 1909 0306 3046     		mov	r0, r6
 1910 0308 FFF7FEFF 		bl	TIM_OC3Init
 1911              	.LVL153:
 1912              		.loc 1 393 0
 1913 030c 3046     		mov	r0, r6
 1914 030e 0821     		movs	r1, #8
 1915 0310 FFF7FEFF 		bl	TIM_OC3PreloadConfig
 1916              	.LVL154:
 1917              		.loc 1 395 0
 1918 0314 4146     		mov	r1, r8
 1919 0316 3046     		mov	r0, r6
 1920 0318 FFF7FEFF 		bl	TIM_ARRPreloadConfig
 1921              	.LVL155:
 1922              		.loc 1 396 0
 1923 031c 4146     		mov	r1, r8
 1924 031e 3046     		mov	r0, r6
 1925 0320 FFF7FEFF 		bl	TIM_CCPreloadControl
 1926              	.LVL156:
 1927              		.loc 1 399 0
 1928 0324 4146     		mov	r1, r8
 1929 0326 3046     		mov	r0, r6
 1930 0328 FFF7FEFF 		bl	TIM_CtrlPWMOutputs
 1931              	.LVL157:
 1932              		.loc 1 402 0
 1933 032c 2846     		mov	r0, r5
 1934 032e 2021     		movs	r1, #32
 1935 0330 FFF7FEFF 		bl	TIM_SelectOutputTrigger
 1936              	.LVL158:
 1937              		.loc 1 403 0
 1938 0334 2846     		mov	r0, r5
ARM GAS  C:\Users\CHRIST~1\AppData\Local\Temp\ccGCVH4j.s 			page 35


 1939 0336 8021     		movs	r1, #128
 1940 0338 FFF7FEFF 		bl	TIM_SelectMasterSlaveMode
 1941              	.LVL159:
 1942              		.loc 1 404 0
 1943 033c 2146     		mov	r1, r4
 1944 033e 3046     		mov	r0, r6
 1945 0340 FFF7FEFF 		bl	TIM_SelectInputTrigger
 1946              	.LVL160:
 1947              		.loc 1 405 0
 1948 0344 4946     		mov	r1, r9
 1949 0346 3046     		mov	r0, r6
 1950 0348 FFF7FEFF 		bl	TIM_SelectSlaveMode
 1951              	.LVL161:
 1952 034c 62E0     		b	.L150
 1953              	.L151:
 1954 034e 00BF     		.align	2
 1955              	.L149:
 1956 0350 00000000 		.word	.LANCHOR23
 1957 0354 00000000 		.word	.LANCHOR26
 1958 0358 00000000 		.word	0
 1959 035c 00000000 		.word	.LANCHOR30
 1960 0360 00000000 		.word	.LANCHOR31
 1961 0364 00000000 		.word	.LANCHOR22
 1962 0368 00000000 		.word	.LANCHOR25
 1963 036c 00000000 		.word	.LANCHOR27
 1964 0370 00000000 		.word	.LANCHOR29
 1965 0374 00000000 		.word	.LANCHOR21
 1966 0378 00000000 		.word	.LANCHOR16
 1967 037c 00000000 		.word	.LANCHOR8
 1968 0380 00000000 		.word	.LANCHOR6
 1969 0384 00000000 		.word	.LANCHOR36
 1970 0388 00000000 		.word	.LANCHOR37
 1971 038c 00000000 		.word	.LANCHOR12
 1972 0390 00000000 		.word	.LANCHOR38
 1973 0394 00000000 		.word	.LANCHOR18
 1974 0398 00000000 		.word	.LANCHOR10
 1975 039c 00000140 		.word	1073807360
 1976 03a0 00000000 		.word	.LANCHOR17
 1977 03a4 00040140 		.word	1073808384
 1978 03a8 007A030A 		.word	168000000
 1979 03ac 60000100 		.word	65632
 1980 03b0 00010002 		.word	33554688
 1981 03b4 00080004 		.word	67110912
 1982 03b8 05004000 		.word	4194309
 1983 03bc 00000000 		.word	mcpwm_foc_adc_int_handler
 1984 03c0 90000000 		.word	_stm32_dma_streams+144
 1985 03c4 00000000 		.word	ADC_Value
 1986 03c8 08230140 		.word	1073816328
 1987 03cc 70640240 		.word	1073898608
 1988 03d0 00200140 		.word	1073815552
 1989 03d4 00210140 		.word	1073815808
 1990 03d8 00220140 		.word	1073816064
 1991 03dc 00000000 		.word	.LANCHOR7
 1992 03e0 00000000 		.word	.LANCHOR14
 1993 03e4 00000000 		.word	.LANCHOR24
 1994 03e8 00000000 		.word	.LANCHOR0
 1995 03ec 00000000 		.word	.LANCHOR28
ARM GAS  C:\Users\CHRIST~1\AppData\Local\Temp\ccGCVH4j.s 			page 36


 1996 03f0 00000000 		.word	.LANCHOR32
 1997 03f4 00000000 		.word	.LANCHOR2
 1998 03f8 00000000 		.word	.LANCHOR33
 1999 03fc 00000000 		.word	.LANCHOR34
 2000 0400 00000000 		.word	.LANCHOR11
 2001 0404 00000000 		.word	.LANCHOR35
 2002 0408 00000000 		.word	.LANCHOR39
 2003 040c 00000000 		.word	.LANCHOR40
 2004 0410 00000000 		.word	.LANCHOR41
 2005              	.L150:
 2006              		.loc 1 408 0
 2007 0414 2846     		mov	r0, r5
 2008 0416 4146     		mov	r1, r8
 2009 0418 FFF7FEFF 		bl	TIM_Cmd
 2010              	.LVL162:
 2011              		.loc 1 409 0
 2012 041c 4146     		mov	r1, r8
 2013 041e 3046     		mov	r0, r6
 2014 0420 FFF7FEFF 		bl	TIM_Cmd
 2015              	.LVL163:
 2016              		.loc 1 412 0
 2017 0424 2846     		mov	r0, r5
 2018 0426 4146     		mov	r1, r8
 2019 0428 FFF7FEFF 		bl	TIM_CtrlPWMOutputs
 2020              	.LVL164:
 2021              		.loc 1 415 0
 2022 042c FFF7FEFF 		bl	stop_pwm_hw
 2023              	.LVL165:
 2024              		.loc 1 419 0
 2025 0430 0221     		movs	r1, #2
 2026              		.loc 1 422 0
 2027 0432 4246     		mov	r2, r8
 2028              		.loc 1 419 0
 2029 0434 7163     		str	r1, [r6, #52]
 2030              		.loc 1 422 0
 2031 0436 3046     		mov	r0, r6
 2032 0438 FFF7FEFF 		bl	TIM_ITConfig
 2033              	.LVL166:
 2034              		.loc 1 428 0
 2035 043c 05F58435 		add	r5, r5, #67584
 2036              		.loc 1 423 0
 2037 0440 0621     		movs	r1, #6
 2038 0442 2E20     		movs	r0, #46
 2039 0444 FFF7FEFF 		bl	nvicEnableVector
 2040              	.LVL167:
 2041              		.loc 1 425 0
 2042 0448 FFF7FEFF 		bl	utils_sys_unlock_cnt
 2043              	.LVL168:
 2044              		.loc 1 428 0
 2045 044c 039B     		ldr	r3, [sp, #12]
 2046              		.loc 1 429 0
 2047 044e 334A     		ldr	r2, .L152
 2048              		.loc 1 428 0
 2049 0450 2B83     		strh	r3, [r5, #24]	@ movhi
 2050              		.loc 1 429 0
 2051 0452 4FF48053 		mov	r3, #4096
 2052 0456 5383     		strh	r3, [r2, #26]	@ movhi
ARM GAS  C:\Users\CHRIST~1\AppData\Local\Temp\ccGCVH4j.s 			page 37


 2053              	.LBB56:
 2054              	.LBB57:
 2055              		.loc 1 2046 0
 2056 0458 41F28934 		movw	r4, #5001
 2057 045c 1383     		strh	r3, [r2, #24]	@ movhi
 2058              	.LVL169:
 2059 045e 03E0     		b	.L142
 2060              	.LVL170:
 2061              	.L144:
 2062              		.loc 1 2051 0
 2063 0460 FFF7FEFF 		bl	chThdSleep
 2064              	.LVL171:
 2065              		.loc 1 2053 0
 2066 0464 013C     		subs	r4, r4, #1
 2067              	.LVL172:
 2068 0466 04D0     		beq	.L145
 2069              	.LVL173:
 2070              	.L142:
 2071              		.loc 1 2050 0
 2072 0468 2B69     		ldr	r3, [r5, #16]
 2073 046a DB04     		lsls	r3, r3, #19
 2074              		.loc 1 2051 0
 2075 046c 4FF00A00 		mov	r0, #10
 2076              		.loc 1 2050 0
 2077 0470 F6D5     		bpl	.L144
 2078              	.LVL174:
 2079              	.L145:
 2080              		.loc 1 2058 0
 2081 0472 42F21070 		movw	r0, #10000
 2082 0476 FFF7FEFF 		bl	chThdSleep
 2083              	.LVL175:
 2084              		.loc 1 2060 0
 2085 047a 294A     		ldr	r2, .L152+4
 2086              		.loc 1 2059 0
 2087 047c 0023     		movs	r3, #0
 2088 047e CBF80030 		str	r3, [fp]
 2089              		.loc 1 2060 0
 2090 0482 1360     		str	r3, [r2]
 2091              		.loc 1 2064 0
 2092 0484 3B60     		str	r3, [r7]
 2093              	.L143:
 2094              		.loc 1 2065 0
 2095 0486 3B68     		ldr	r3, [r7]
 2096 0488 B3F57A6F 		cmp	r3, #4000
 2097 048c FBDB     		blt	.L143
 2098              		.loc 1 2066 0
 2099 048e 254A     		ldr	r2, .L152+8
 2100 0490 DBF80030 		ldr	r3, [fp]
 2101 0494 3968     		ldr	r1, [r7]
 2102 0496 93FBF1F3 		sdiv	r3, r3, r1
 2103              		.loc 1 2067 0
 2104 049a 2349     		ldr	r1, .L152+12
 2105              		.loc 1 2066 0
 2106 049c 1360     		str	r3, [r2]
 2107              		.loc 1 2067 0
 2108 049e 204B     		ldr	r3, .L152+4
 2109              		.loc 1 2071 0
ARM GAS  C:\Users\CHRIST~1\AppData\Local\Temp\ccGCVH4j.s 			page 38


 2110 04a0 1E4A     		ldr	r2, .L152
 2111              		.loc 1 2067 0
 2112 04a2 1B68     		ldr	r3, [r3]
 2113 04a4 3868     		ldr	r0, [r7]
 2114 04a6 93FBF0F3 		sdiv	r3, r3, r0
 2115              		.loc 1 2072 0
 2116 04aa 0124     		movs	r4, #1
 2117              		.loc 1 2067 0
 2118 04ac 0B60     		str	r3, [r1]
 2119              		.loc 1 2071 0
 2120 04ae 4FF48050 		mov	r0, #4096
 2121              		.loc 1 2072 0
 2122 04b2 1E4B     		ldr	r3, .L152+16
 2123              		.loc 1 2071 0
 2124 04b4 5083     		strh	r0, [r2, #26]	@ movhi
 2125              	.LBE57:
 2126              	.LBE56:
 2127              		.loc 1 433 0
 2128 04b6 2146     		mov	r1, r4
 2129 04b8 4020     		movs	r0, #64
 2130              		.loc 1 436 0
 2131 04ba 0025     		movs	r5, #0
 2132              	.LBB59:
 2133              	.LBB58:
 2134              		.loc 1 2072 0
 2135 04bc 1C70     		strb	r4, [r3]
 2136              	.LBE58:
 2137              	.LBE59:
 2138              		.loc 1 433 0
 2139 04be FFF7FEFF 		bl	RCC_APB1PeriphClockCmd
 2140              	.LVL176:
 2141              		.loc 1 437 0
 2142 04c2 0722     		movs	r2, #7
 2143              		.loc 1 439 0
 2144 04c4 4FF0FF33 		mov	r3, #-1
 2145              		.loc 1 440 0
 2146 04c8 05A9     		add	r1, sp, #20
 2147 04ca 1948     		ldr	r0, .L152+20
 2148              		.loc 1 436 0
 2149 04cc ADF81C50 		strh	r5, [sp, #28]	@ movhi
 2150              		.loc 1 439 0
 2151 04d0 CDE90523 		strd	r2, r3, [sp, #20]
 2152              		.loc 1 440 0
 2153 04d4 FFF7FEFF 		bl	TIM_TimeBaseInit
 2154              	.LVL177:
 2155              		.loc 1 442 0
 2156 04d8 2146     		mov	r1, r4
 2157 04da 1548     		ldr	r0, .L152+20
 2158 04dc FFF7FEFF 		bl	TIM_Cmd
 2159              	.LVL178:
 2160              		.loc 1 445 0
 2161 04e0 144A     		ldr	r2, .L152+24
 2162              		.loc 1 446 0
 2163 04e2 154B     		ldr	r3, .L152+28
 2164 04e4 0095     		str	r5, [sp]
 2165 04e6 40F69811 		movw	r1, #2456
 2166              		.loc 1 445 0
ARM GAS  C:\Users\CHRIST~1\AppData\Local\Temp\ccGCVH4j.s 			page 39


 2167 04ea 1570     		strb	r5, [r2]
 2168              		.loc 1 446 0
 2169 04ec 1348     		ldr	r0, .L152+32
 2170 04ee 4022     		movs	r2, #64
 2171 04f0 FFF7FEFF 		bl	chThdCreateStatic
 2172              	.LVL179:
 2173              		.loc 1 449 0
 2174 04f4 2146     		mov	r1, r4
 2175 04f6 4FF40060 		mov	r0, #2048
 2176 04fa FFF7FEFF 		bl	RCC_APB1PeriphClockCmd
 2177              	.LVL180:
 2178              		.loc 1 450 0
 2179 04fe 2846     		mov	r0, r5
 2180 0500 FFF7FEFF 		bl	WWDG_SetPrescaler
 2181              	.LVL181:
 2182              		.loc 1 451 0
 2183 0504 FF20     		movs	r0, #255
 2184 0506 FFF7FEFF 		bl	WWDG_SetWindowValue
 2185              	.LVL182:
 2186              		.loc 1 452 0
 2187 050a 6420     		movs	r0, #100
 2188 050c FFF7FEFF 		bl	WWDG_Enable
 2189              	.LVL183:
 2190              		.loc 1 454 0
 2191 0510 0B4B     		ldr	r3, .L152+36
 2192 0512 1C70     		strb	r4, [r3]
 2193              		.loc 1 455 0
 2194 0514 2BB0     		add	sp, sp, #172
 2195              		.cfi_def_cfa_offset 36
 2196              		@ sp needed
 2197 0516 BDE8F08F 		pop	{r4, r5, r6, r7, r8, r9, r10, fp, pc}
 2198              	.L153:
 2199 051a 00BF     		.align	2
 2200              	.L152:
 2201 051c 00040240 		.word	1073873920
 2202 0520 00000000 		.word	.LANCHOR25
 2203 0524 00000000 		.word	.LANCHOR42
 2204 0528 00000000 		.word	.LANCHOR43
 2205 052c 00000000 		.word	.LANCHOR27
 2206 0530 00180040 		.word	1073747968
 2207 0534 00000000 		.word	.LANCHOR9
 2208 0538 00000000 		.word	timer_thread
 2209 053c 00000000 		.word	.LANCHOR44
 2210 0540 00000000 		.word	.LANCHOR23
 2211              		.cfi_endproc
 2212              	.LFE256:
 2213              		.size	mcpwm_foc_init, .-mcpwm_foc_init
 2214              		.section	.text.mcpwm_foc_deinit,"ax",%progbits
 2215              		.align	1
 2216              		.p2align 4,,15
 2217              		.global	mcpwm_foc_deinit
 2218              		.syntax unified
 2219              		.thumb
 2220              		.thumb_func
 2221              		.fpu fpv4-sp-d16
 2222              		.type	mcpwm_foc_deinit, %function
 2223              	mcpwm_foc_deinit:
ARM GAS  C:\Users\CHRIST~1\AppData\Local\Temp\ccGCVH4j.s 			page 40


 2224              	.LFB257:
 2225              		.loc 1 457 0
 2226              		.cfi_startproc
 2227              		@ args = 0, pretend = 0, frame = 0
 2228              		@ frame_needed = 0, uses_anonymous_args = 0
 2229              		.loc 1 458 0
 2230 0000 134B     		ldr	r3, .L162
 2231              		.loc 1 457 0
 2232 0002 10B5     		push	{r4, lr}
 2233              		.cfi_def_cfa_offset 8
 2234              		.cfi_offset 4, -8
 2235              		.cfi_offset 14, -4
 2236              		.loc 1 458 0
 2237 0004 0022     		movs	r2, #0
 2238              		.loc 1 462 0
 2239 0006 134C     		ldr	r4, .L162+4
 2240              		.loc 1 458 0
 2241 0008 1A70     		strb	r2, [r3]
 2242              		.loc 1 460 0
 2243 000a FFF7FEFF 		bl	WWDG_DeInit
 2244              	.LVL184:
 2245              		.loc 1 462 0
 2246 000e 0123     		movs	r3, #1
 2247 0010 2370     		strb	r3, [r4]
 2248              		.loc 1 464 0
 2249 0012 2378     		ldrb	r3, [r4]	@ zero_extendqisi2
 2250 0014 2BB1     		cbz	r3, .L155
 2251              	.L156:
 2252              		.loc 1 465 0
 2253 0016 0A20     		movs	r0, #10
 2254 0018 FFF7FEFF 		bl	chThdSleep
 2255              	.LVL185:
 2256              		.loc 1 464 0
 2257 001c 2378     		ldrb	r3, [r4]	@ zero_extendqisi2
 2258 001e 002B     		cmp	r3, #0
 2259 0020 F9D1     		bne	.L156
 2260              	.L155:
 2261              		.loc 1 468 0
 2262 0022 0D48     		ldr	r0, .L162+8
 2263 0024 FFF7FEFF 		bl	TIM_DeInit
 2264              	.LVL186:
 2265              		.loc 1 469 0
 2266 0028 0C48     		ldr	r0, .L162+12
 2267 002a FFF7FEFF 		bl	TIM_DeInit
 2268              	.LVL187:
 2269              		.loc 1 470 0
 2270 002e 0C48     		ldr	r0, .L162+16
 2271 0030 FFF7FEFF 		bl	TIM_DeInit
 2272              	.LVL188:
 2273              		.loc 1 471 0
 2274 0034 FFF7FEFF 		bl	ADC_DeInit
 2275              	.LVL189:
 2276              		.loc 1 472 0
 2277 0038 0A48     		ldr	r0, .L162+20
 2278 003a FFF7FEFF 		bl	DMA_DeInit
 2279              	.LVL190:
 2280              		.loc 1 473 0
ARM GAS  C:\Users\CHRIST~1\AppData\Local\Temp\ccGCVH4j.s 			page 41


 2281 003e 1220     		movs	r0, #18
 2282 0040 FFF7FEFF 		bl	nvicDisableVector
 2283              	.LVL191:
 2284              		.loc 1 474 0
 2285 0044 0848     		ldr	r0, .L162+24
 2286              		.loc 1 475 0
 2287 0046 BDE81040 		pop	{r4, lr}
 2288              		.cfi_restore 14
 2289              		.cfi_restore 4
 2290              		.cfi_def_cfa_offset 0
 2291              		.loc 1 474 0
 2292 004a FFF7FEBF 		b	dmaStreamRelease
 2293              	.LVL192:
 2294              	.L163:
 2295 004e 00BF     		.align	2
 2296              	.L162:
 2297 0050 00000000 		.word	.LANCHOR23
 2298 0054 00000000 		.word	.LANCHOR9
 2299 0058 00000140 		.word	1073807360
 2300 005c 00040140 		.word	1073808384
 2301 0060 00180040 		.word	1073747968
 2302 0064 70640240 		.word	1073898608
 2303 0068 90000000 		.word	_stm32_dma_streams+144
 2304              		.cfi_endproc
 2305              	.LFE257:
 2306              		.size	mcpwm_foc_deinit, .-mcpwm_foc_deinit
 2307              		.section	.text.mcpwm_foc_init_done,"ax",%progbits
 2308              		.align	1
 2309              		.p2align 4,,15
 2310              		.global	mcpwm_foc_init_done
 2311              		.syntax unified
 2312              		.thumb
 2313              		.thumb_func
 2314              		.fpu fpv4-sp-d16
 2315              		.type	mcpwm_foc_init_done, %function
 2316              	mcpwm_foc_init_done:
 2317              	.LFB258:
 2318              		.loc 1 477 0
 2319              		.cfi_startproc
 2320              		@ args = 0, pretend = 0, frame = 0
 2321              		@ frame_needed = 0, uses_anonymous_args = 0
 2322              		@ link register save eliminated.
 2323              		.loc 1 478 0
 2324 0000 014B     		ldr	r3, .L165
 2325 0002 1878     		ldrb	r0, [r3]	@ zero_extendqisi2
 2326              		.loc 1 479 0
 2327 0004 7047     		bx	lr
 2328              	.L166:
 2329 0006 00BF     		.align	2
 2330              	.L165:
 2331 0008 00000000 		.word	.LANCHOR23
 2332              		.cfi_endproc
 2333              	.LFE258:
 2334              		.size	mcpwm_foc_init_done, .-mcpwm_foc_init_done
 2335              		.section	.text.mcpwm_foc_set_configuration,"ax",%progbits
 2336              		.align	1
 2337              		.p2align 4,,15
ARM GAS  C:\Users\CHRIST~1\AppData\Local\Temp\ccGCVH4j.s 			page 42


 2338              		.global	mcpwm_foc_set_configuration
 2339              		.syntax unified
 2340              		.thumb
 2341              		.thumb_func
 2342              		.fpu fpv4-sp-d16
 2343              		.type	mcpwm_foc_set_configuration, %function
 2344              	mcpwm_foc_set_configuration:
 2345              	.LFB259:
 2346              		.loc 1 481 0
 2347              		.cfi_startproc
 2348              		@ args = 0, pretend = 0, frame = 0
 2349              		@ frame_needed = 0, uses_anonymous_args = 0
 2350              	.LVL193:
 2351 0000 10B5     		push	{r4, lr}
 2352              		.cfi_def_cfa_offset 8
 2353              		.cfi_offset 4, -8
 2354              		.cfi_offset 14, -4
 2355              		.loc 1 482 0
 2356 0002 144C     		ldr	r4, .L169
 2357              		.loc 1 484 0
 2358 0004 1449     		ldr	r1, .L169+4
 2359              		.loc 1 485 0
 2360 0006 154B     		ldr	r3, .L169+8
 2361              		.loc 1 482 0
 2362 0008 2060     		str	r0, [r4]
 2363              		.loc 1 485 0
 2364 000a 0022     		movs	r2, #0
 2365              		.loc 1 484 0
 2366 000c 0720     		movs	r0, #7
 2367              	.LVL194:
 2368 000e 0870     		strb	r0, [r1]
 2369              		.loc 1 485 0
 2370 0010 1A70     		strb	r2, [r3]
 2371              		.loc 1 486 0
 2372 0012 FFF7FEFF 		bl	stop_pwm_hw
 2373              	.LVL195:
 2374              		.loc 1 487 0
 2375 0016 2368     		ldr	r3, [r4]
 2376              		.loc 1 488 0
 2377 0018 114A     		ldr	r2, .L169+12
 2378              		.loc 1 487 0
 2379 001a D3ED2B7A 		vldr.32	s15, [r3, #172]
 2380              		.loc 1 488 0
 2381 001e 1168     		ldr	r1, [r2]
 2382 0020 104B     		ldr	r3, .L169+16
 2383              		.loc 1 487 0
 2384 0022 1148     		ldr	r0, .L169+20
 2385              		.loc 1 488 0
 2386 0024 41F00201 		orr	r1, r1, #2
 2387 0028 1160     		str	r1, [r2]
 2388 002a 1968     		ldr	r1, [r3]
 2389 002c 0224     		movs	r4, #2
 2390              		.loc 1 487 0
 2391 002e FDEEE77A 		vcvt.s32.f32	s15, s15
 2392              		.loc 1 488 0
 2393 0032 2143     		orrs	r1, r1, r4
 2394 0034 1960     		str	r1, [r3]
ARM GAS  C:\Users\CHRIST~1\AppData\Local\Temp\ccGCVH4j.s 			page 43


 2395              		.loc 1 487 0
 2396 0036 17EE901A 		vmov	r1, s15	@ int
 2397 003a 90FBF1F1 		sdiv	r1, r0, r1
 2398              	.LVL196:
 2399              		.loc 1 488 0
 2400 003e D162     		str	r1, [r2, #44]
 2401 0040 5C63     		str	r4, [r3, #52]
 2402 0042 1168     		ldr	r1, [r2]
 2403              	.LVL197:
 2404 0044 21F00201 		bic	r1, r1, #2
 2405 0048 1160     		str	r1, [r2]
 2406 004a 1A68     		ldr	r2, [r3]
 2407 004c 22F00202 		bic	r2, r2, #2
 2408 0050 1A60     		str	r2, [r3]
 2409              		.loc 1 489 0
 2410 0052 10BD     		pop	{r4, pc}
 2411              	.L170:
 2412              		.align	2
 2413              	.L169:
 2414 0054 00000000 		.word	.LANCHOR0
 2415 0058 00000000 		.word	.LANCHOR14
 2416 005c 00000000 		.word	.LANCHOR7
 2417 0060 00000140 		.word	1073807360
 2418 0064 00040140 		.word	1073808384
 2419 0068 007A030A 		.word	168000000
 2420              		.cfi_endproc
 2421              	.LFE259:
 2422              		.size	mcpwm_foc_set_configuration, .-mcpwm_foc_set_configuration
 2423              		.section	.text.mcpwm_foc_get_state,"ax",%progbits
 2424              		.align	1
 2425              		.p2align 4,,15
 2426              		.global	mcpwm_foc_get_state
 2427              		.syntax unified
 2428              		.thumb
 2429              		.thumb_func
 2430              		.fpu fpv4-sp-d16
 2431              		.type	mcpwm_foc_get_state, %function
 2432              	mcpwm_foc_get_state:
 2433              	.LFB260:
 2434              		.loc 1 491 0
 2435              		.cfi_startproc
 2436              		@ args = 0, pretend = 0, frame = 0
 2437              		@ frame_needed = 0, uses_anonymous_args = 0
 2438              		@ link register save eliminated.
 2439              		.loc 1 492 0
 2440 0000 014B     		ldr	r3, .L172
 2441 0002 1878     		ldrb	r0, [r3]	@ zero_extendqisi2
 2442              		.loc 1 493 0
 2443 0004 7047     		bx	lr
 2444              	.L173:
 2445 0006 00BF     		.align	2
 2446              	.L172:
 2447 0008 00000000 		.word	.LANCHOR7
 2448              		.cfi_endproc
 2449              	.LFE260:
 2450              		.size	mcpwm_foc_get_state, .-mcpwm_foc_get_state
 2451              		.section	.text.mcpwm_foc_is_dccal_done,"ax",%progbits
ARM GAS  C:\Users\CHRIST~1\AppData\Local\Temp\ccGCVH4j.s 			page 44


 2452              		.align	1
 2453              		.p2align 4,,15
 2454              		.global	mcpwm_foc_is_dccal_done
 2455              		.syntax unified
 2456              		.thumb
 2457              		.thumb_func
 2458              		.fpu fpv4-sp-d16
 2459              		.type	mcpwm_foc_is_dccal_done, %function
 2460              	mcpwm_foc_is_dccal_done:
 2461              	.LFB261:
 2462              		.loc 1 495 0
 2463              		.cfi_startproc
 2464              		@ args = 0, pretend = 0, frame = 0
 2465              		@ frame_needed = 0, uses_anonymous_args = 0
 2466              		@ link register save eliminated.
 2467              		.loc 1 496 0
 2468 0000 014B     		ldr	r3, .L175
 2469 0002 1878     		ldrb	r0, [r3]	@ zero_extendqisi2
 2470              		.loc 1 497 0
 2471 0004 7047     		bx	lr
 2472              	.L176:
 2473 0006 00BF     		.align	2
 2474              	.L175:
 2475 0008 00000000 		.word	.LANCHOR27
 2476              		.cfi_endproc
 2477              	.LFE261:
 2478              		.size	mcpwm_foc_is_dccal_done, .-mcpwm_foc_is_dccal_done
 2479              		.section	.text.mcpwm_foc_set_duty,"ax",%progbits
 2480              		.align	1
 2481              		.p2align 4,,15
 2482              		.global	mcpwm_foc_set_duty
 2483              		.syntax unified
 2484              		.thumb
 2485              		.thumb_func
 2486              		.fpu fpv4-sp-d16
 2487              		.type	mcpwm_foc_set_duty, %function
 2488              	mcpwm_foc_set_duty:
 2489              	.LFB263:
 2490              		.loc 1 513 0
 2491              		.cfi_startproc
 2492              		@ args = 0, pretend = 0, frame = 0
 2493              		@ frame_needed = 0, uses_anonymous_args = 0
 2494              		@ link register save eliminated.
 2495              	.LVL198:
 2496              		.loc 1 515 0
 2497 0000 064A     		ldr	r2, .L182
 2498              		.loc 1 514 0
 2499 0002 0749     		ldr	r1, .L182+4
 2500              		.loc 1 517 0
 2501 0004 074B     		ldr	r3, .L182+8
 2502              		.loc 1 514 0
 2503 0006 0020     		movs	r0, #0
 2504 0008 0870     		strb	r0, [r1]
 2505              		.loc 1 515 0
 2506 000a 82ED000A 		vstr.32	s0, [r2]
 2507              		.loc 1 517 0
 2508 000e 1A78     		ldrb	r2, [r3]	@ zero_extendqisi2
ARM GAS  C:\Users\CHRIST~1\AppData\Local\Temp\ccGCVH4j.s 			page 45


 2509 0010 022A     		cmp	r2, #2
 2510              		.loc 1 518 0
 2511 0012 1CBF     		itt	ne
 2512 0014 0222     		movne	r2, #2
 2513 0016 1A70     		strbne	r2, [r3]
 2514              		.loc 1 520 0
 2515 0018 7047     		bx	lr
 2516              	.L183:
 2517 001a 00BF     		.align	2
 2518              	.L182:
 2519 001c 00000000 		.word	.LANCHOR30
 2520 0020 00000000 		.word	.LANCHOR14
 2521 0024 00000000 		.word	.LANCHOR7
 2522              		.cfi_endproc
 2523              	.LFE263:
 2524              		.size	mcpwm_foc_set_duty, .-mcpwm_foc_set_duty
 2525              		.section	.text.mcpwm_foc_set_duty_noramp,"ax",%progbits
 2526              		.align	1
 2527              		.p2align 4,,15
 2528              		.global	mcpwm_foc_set_duty_noramp
 2529              		.syntax unified
 2530              		.thumb
 2531              		.thumb_func
 2532              		.fpu fpv4-sp-d16
 2533              		.type	mcpwm_foc_set_duty_noramp, %function
 2534              	mcpwm_foc_set_duty_noramp:
 2535              	.LFB264:
 2536              		.loc 1 532 0
 2537              		.cfi_startproc
 2538              		@ args = 0, pretend = 0, frame = 0
 2539              		@ frame_needed = 0, uses_anonymous_args = 0
 2540              		@ link register save eliminated.
 2541              	.LVL199:
 2542              	.LBB60:
 2543              	.LBB61:
 2544              		.loc 1 515 0
 2545 0000 064A     		ldr	r2, .L189
 2546              		.loc 1 514 0
 2547 0002 0749     		ldr	r1, .L189+4
 2548              		.loc 1 517 0
 2549 0004 074B     		ldr	r3, .L189+8
 2550              		.loc 1 514 0
 2551 0006 0020     		movs	r0, #0
 2552 0008 0870     		strb	r0, [r1]
 2553              		.loc 1 515 0
 2554 000a 82ED000A 		vstr.32	s0, [r2]
 2555              		.loc 1 517 0
 2556 000e 1A78     		ldrb	r2, [r3]	@ zero_extendqisi2
 2557 0010 022A     		cmp	r2, #2
 2558              		.loc 1 518 0
 2559 0012 1CBF     		itt	ne
 2560 0014 0222     		movne	r2, #2
 2561 0016 1A70     		strbne	r2, [r3]
 2562              	.LVL200:
 2563              	.LBE61:
 2564              	.LBE60:
 2565              		.loc 1 535 0
ARM GAS  C:\Users\CHRIST~1\AppData\Local\Temp\ccGCVH4j.s 			page 46


 2566 0018 7047     		bx	lr
 2567              	.L190:
 2568 001a 00BF     		.align	2
 2569              	.L189:
 2570 001c 00000000 		.word	.LANCHOR30
 2571 0020 00000000 		.word	.LANCHOR14
 2572 0024 00000000 		.word	.LANCHOR7
 2573              		.cfi_endproc
 2574              	.LFE264:
 2575              		.size	mcpwm_foc_set_duty_noramp, .-mcpwm_foc_set_duty_noramp
 2576              		.section	.text.mcpwm_foc_set_pid_speed,"ax",%progbits
 2577              		.align	1
 2578              		.p2align 4,,15
 2579              		.global	mcpwm_foc_set_pid_speed
 2580              		.syntax unified
 2581              		.thumb
 2582              		.thumb_func
 2583              		.fpu fpv4-sp-d16
 2584              		.type	mcpwm_foc_set_pid_speed, %function
 2585              	mcpwm_foc_set_pid_speed:
 2586              	.LFB265:
 2587              		.loc 1 544 0
 2588              		.cfi_startproc
 2589              		@ args = 0, pretend = 0, frame = 0
 2590              		@ frame_needed = 0, uses_anonymous_args = 0
 2591              		@ link register save eliminated.
 2592              	.LVL201:
 2593              		.loc 1 546 0
 2594 0000 064A     		ldr	r2, .L196
 2595              		.loc 1 545 0
 2596 0002 0749     		ldr	r1, .L196+4
 2597              		.loc 1 548 0
 2598 0004 074B     		ldr	r3, .L196+8
 2599              		.loc 1 545 0
 2600 0006 0120     		movs	r0, #1
 2601 0008 0870     		strb	r0, [r1]
 2602              		.loc 1 546 0
 2603 000a 82ED000A 		vstr.32	s0, [r2]
 2604              		.loc 1 548 0
 2605 000e 1A78     		ldrb	r2, [r3]	@ zero_extendqisi2
 2606 0010 022A     		cmp	r2, #2
 2607              		.loc 1 549 0
 2608 0012 1CBF     		itt	ne
 2609 0014 0222     		movne	r2, #2
 2610 0016 1A70     		strbne	r2, [r3]
 2611              		.loc 1 551 0
 2612 0018 7047     		bx	lr
 2613              	.L197:
 2614 001a 00BF     		.align	2
 2615              	.L196:
 2616 001c 00000000 		.word	.LANCHOR21
 2617 0020 00000000 		.word	.LANCHOR14
 2618 0024 00000000 		.word	.LANCHOR7
 2619              		.cfi_endproc
 2620              	.LFE265:
 2621              		.size	mcpwm_foc_set_pid_speed, .-mcpwm_foc_set_pid_speed
 2622              		.section	.text.mcpwm_foc_set_pid_pos,"ax",%progbits
ARM GAS  C:\Users\CHRIST~1\AppData\Local\Temp\ccGCVH4j.s 			page 47


 2623              		.align	1
 2624              		.p2align 4,,15
 2625              		.global	mcpwm_foc_set_pid_pos
 2626              		.syntax unified
 2627              		.thumb
 2628              		.thumb_func
 2629              		.fpu fpv4-sp-d16
 2630              		.type	mcpwm_foc_set_pid_pos, %function
 2631              	mcpwm_foc_set_pid_pos:
 2632              	.LFB266:
 2633              		.loc 1 560 0
 2634              		.cfi_startproc
 2635              		@ args = 0, pretend = 0, frame = 0
 2636              		@ frame_needed = 0, uses_anonymous_args = 0
 2637              		@ link register save eliminated.
 2638              	.LVL202:
 2639              		.loc 1 562 0
 2640 0000 064A     		ldr	r2, .L203
 2641              		.loc 1 561 0
 2642 0002 0749     		ldr	r1, .L203+4
 2643              		.loc 1 564 0
 2644 0004 074B     		ldr	r3, .L203+8
 2645              		.loc 1 561 0
 2646 0006 0420     		movs	r0, #4
 2647 0008 0870     		strb	r0, [r1]
 2648              		.loc 1 562 0
 2649 000a 82ED000A 		vstr.32	s0, [r2]
 2650              		.loc 1 564 0
 2651 000e 1A78     		ldrb	r2, [r3]	@ zero_extendqisi2
 2652 0010 022A     		cmp	r2, #2
 2653              		.loc 1 565 0
 2654 0012 1CBF     		itt	ne
 2655 0014 0222     		movne	r2, #2
 2656 0016 1A70     		strbne	r2, [r3]
 2657              		.loc 1 567 0
 2658 0018 7047     		bx	lr
 2659              	.L204:
 2660 001a 00BF     		.align	2
 2661              	.L203:
 2662 001c 00000000 		.word	.LANCHOR33
 2663 0020 00000000 		.word	.LANCHOR14
 2664 0024 00000000 		.word	.LANCHOR7
 2665              		.cfi_endproc
 2666              	.LFE266:
 2667              		.size	mcpwm_foc_set_pid_pos, .-mcpwm_foc_set_pid_pos
 2668              		.section	.text.mcpwm_foc_set_current,"ax",%progbits
 2669              		.align	1
 2670              		.p2align 4,,15
 2671              		.global	mcpwm_foc_set_current
 2672              		.syntax unified
 2673              		.thumb
 2674              		.thumb_func
 2675              		.fpu fpv4-sp-d16
 2676              		.type	mcpwm_foc_set_current, %function
 2677              	mcpwm_foc_set_current:
 2678              	.LFB267:
 2679              		.loc 1 577 0
ARM GAS  C:\Users\CHRIST~1\AppData\Local\Temp\ccGCVH4j.s 			page 48


 2680              		.cfi_startproc
 2681              		@ args = 0, pretend = 0, frame = 0
 2682              		@ frame_needed = 0, uses_anonymous_args = 0
 2683              		@ link register save eliminated.
 2684              	.LVL203:
 2685              		.loc 1 578 0
 2686 0000 0F4B     		ldr	r3, .L215
 2687 0002 1B68     		ldr	r3, [r3]
 2688 0004 D3ED507A 		vldr.32	s15, [r3, #320]
 2689 0008 B0EEC07A 		vabs.f32	s14, s0
 2690 000c B4EEE77A 		vcmpe.f32	s14, s15
 2691 0010 F1EE10FA 		vmrs	APSR_nzcv, FPSCR
 2692 0014 0BD4     		bmi	.L214
 2693              		.loc 1 586 0
 2694 0016 0B49     		ldr	r1, .L215+4
 2695              		.loc 1 585 0
 2696 0018 0B48     		ldr	r0, .L215+8
 2697              		.loc 1 588 0
 2698 001a 0C4B     		ldr	r3, .L215+12
 2699              		.loc 1 585 0
 2700 001c 0222     		movs	r2, #2
 2701 001e 0270     		strb	r2, [r0]
 2702              		.loc 1 586 0
 2703 0020 81ED000A 		vstr.32	s0, [r1]
 2704              		.loc 1 588 0
 2705 0024 1978     		ldrb	r1, [r3]	@ zero_extendqisi2
 2706 0026 9142     		cmp	r1, r2
 2707              		.loc 1 589 0
 2708 0028 18BF     		it	ne
 2709 002a 1A70     		strbne	r2, [r3]
 2710              		.loc 1 591 0
 2711 002c 7047     		bx	lr
 2712              	.L214:
 2713              	.LVL204:
 2714              	.LBB64:
 2715              	.LBB65:
 2716              		.loc 1 579 0
 2717 002e 0649     		ldr	r1, .L215+8
 2718              		.loc 1 580 0
 2719 0030 064B     		ldr	r3, .L215+12
 2720              		.loc 1 579 0
 2721 0032 0720     		movs	r0, #7
 2722              		.loc 1 580 0
 2723 0034 0022     		movs	r2, #0
 2724              		.loc 1 579 0
 2725 0036 0870     		strb	r0, [r1]
 2726              		.loc 1 580 0
 2727 0038 1A70     		strb	r2, [r3]
 2728              		.loc 1 581 0
 2729 003a FFF7FEBF 		b	stop_pwm_hw
 2730              	.LVL205:
 2731              	.L216:
 2732 003e 00BF     		.align	2
 2733              	.L215:
 2734 0040 00000000 		.word	.LANCHOR0
 2735 0044 00000000 		.word	.LANCHOR22
 2736 0048 00000000 		.word	.LANCHOR14
ARM GAS  C:\Users\CHRIST~1\AppData\Local\Temp\ccGCVH4j.s 			page 49


 2737 004c 00000000 		.word	.LANCHOR7
 2738              	.LBE65:
 2739              	.LBE64:
 2740              		.cfi_endproc
 2741              	.LFE267:
 2742              		.size	mcpwm_foc_set_current, .-mcpwm_foc_set_current
 2743              		.section	.text.mcpwm_foc_stop_pwm,"ax",%progbits
 2744              		.align	1
 2745              		.p2align 4,,15
 2746              		.global	mcpwm_foc_stop_pwm
 2747              		.syntax unified
 2748              		.thumb
 2749              		.thumb_func
 2750              		.fpu fpv4-sp-d16
 2751              		.type	mcpwm_foc_stop_pwm, %function
 2752              	mcpwm_foc_stop_pwm:
 2753              	.LFB262:
 2754              		.loc 1 502 0
 2755              		.cfi_startproc
 2756              		@ args = 0, pretend = 0, frame = 0
 2757              		@ frame_needed = 0, uses_anonymous_args = 0
 2758              		@ link register save eliminated.
 2759              		.loc 1 503 0
 2760 0000 9FED010A 		vldr.32	s0, .L218
 2761 0004 FFF7FEBF 		b	mcpwm_foc_set_current
 2762              	.LVL206:
 2763              	.L219:
 2764              		.align	2
 2765              	.L218:
 2766 0008 00000000 		.word	0
 2767              		.cfi_endproc
 2768              	.LFE262:
 2769              		.size	mcpwm_foc_stop_pwm, .-mcpwm_foc_stop_pwm
 2770              		.section	.text.mcpwm_foc_set_brake_current,"ax",%progbits
 2771              		.align	1
 2772              		.p2align 4,,15
 2773              		.global	mcpwm_foc_set_brake_current
 2774              		.syntax unified
 2775              		.thumb
 2776              		.thumb_func
 2777              		.fpu fpv4-sp-d16
 2778              		.type	mcpwm_foc_set_brake_current, %function
 2779              	mcpwm_foc_set_brake_current:
 2780              	.LFB268:
 2781              		.loc 1 600 0
 2782              		.cfi_startproc
 2783              		@ args = 0, pretend = 0, frame = 0
 2784              		@ frame_needed = 0, uses_anonymous_args = 0
 2785              		@ link register save eliminated.
 2786              	.LVL207:
 2787              		.loc 1 601 0
 2788 0000 0F4B     		ldr	r3, .L230
 2789              		.loc 1 602 0
 2790 0002 1049     		ldr	r1, .L230+4
 2791              		.loc 1 601 0
 2792 0004 1B68     		ldr	r3, [r3]
 2793 0006 D3ED507A 		vldr.32	s15, [r3, #320]
ARM GAS  C:\Users\CHRIST~1\AppData\Local\Temp\ccGCVH4j.s 			page 50


 2794 000a B0EEC07A 		vabs.f32	s14, s0
 2795 000e B4EEE77A 		vcmpe.f32	s14, s15
 2796 0012 F1EE10FA 		vmrs	APSR_nzcv, FPSCR
 2797 0016 0BD4     		bmi	.L229
 2798              		.loc 1 609 0
 2799 0018 0B4A     		ldr	r2, .L230+8
 2800              		.loc 1 611 0
 2801 001a 0C4B     		ldr	r3, .L230+12
 2802              		.loc 1 608 0
 2803 001c 0320     		movs	r0, #3
 2804 001e 0870     		strb	r0, [r1]
 2805              		.loc 1 609 0
 2806 0020 82ED000A 		vstr.32	s0, [r2]
 2807              		.loc 1 611 0
 2808 0024 1A78     		ldrb	r2, [r3]	@ zero_extendqisi2
 2809 0026 022A     		cmp	r2, #2
 2810              		.loc 1 612 0
 2811 0028 1CBF     		itt	ne
 2812 002a 0222     		movne	r2, #2
 2813 002c 1A70     		strbne	r2, [r3]
 2814              		.loc 1 614 0
 2815 002e 7047     		bx	lr
 2816              	.L229:
 2817              		.loc 1 603 0
 2818 0030 064B     		ldr	r3, .L230+12
 2819              		.loc 1 602 0
 2820 0032 0720     		movs	r0, #7
 2821              		.loc 1 603 0
 2822 0034 0022     		movs	r2, #0
 2823              		.loc 1 602 0
 2824 0036 0870     		strb	r0, [r1]
 2825              		.loc 1 603 0
 2826 0038 1A70     		strb	r2, [r3]
 2827              		.loc 1 604 0
 2828 003a FFF7FEBF 		b	stop_pwm_hw
 2829              	.LVL208:
 2830              	.L231:
 2831 003e 00BF     		.align	2
 2832              	.L230:
 2833 0040 00000000 		.word	.LANCHOR0
 2834 0044 00000000 		.word	.LANCHOR14
 2835 0048 00000000 		.word	.LANCHOR22
 2836 004c 00000000 		.word	.LANCHOR7
 2837              		.cfi_endproc
 2838              	.LFE268:
 2839              		.size	mcpwm_foc_set_brake_current, .-mcpwm_foc_set_brake_current
 2840              		.section	.text.mcpwm_foc_set_handbrake,"ax",%progbits
 2841              		.align	1
 2842              		.p2align 4,,15
 2843              		.global	mcpwm_foc_set_handbrake
 2844              		.syntax unified
 2845              		.thumb
 2846              		.thumb_func
 2847              		.fpu fpv4-sp-d16
 2848              		.type	mcpwm_foc_set_handbrake, %function
 2849              	mcpwm_foc_set_handbrake:
 2850              	.LFB269:
ARM GAS  C:\Users\CHRIST~1\AppData\Local\Temp\ccGCVH4j.s 			page 51


 2851              		.loc 1 623 0
 2852              		.cfi_startproc
 2853              		@ args = 0, pretend = 0, frame = 0
 2854              		@ frame_needed = 0, uses_anonymous_args = 0
 2855              		@ link register save eliminated.
 2856              	.LVL209:
 2857              		.loc 1 624 0
 2858 0000 0F4B     		ldr	r3, .L242
 2859              		.loc 1 625 0
 2860 0002 1049     		ldr	r1, .L242+4
 2861              		.loc 1 624 0
 2862 0004 1B68     		ldr	r3, [r3]
 2863 0006 D3ED507A 		vldr.32	s15, [r3, #320]
 2864 000a B0EEC07A 		vabs.f32	s14, s0
 2865 000e B4EEE77A 		vcmpe.f32	s14, s15
 2866 0012 F1EE10FA 		vmrs	APSR_nzcv, FPSCR
 2867 0016 0BD4     		bmi	.L241
 2868              		.loc 1 632 0
 2869 0018 0B4A     		ldr	r2, .L242+8
 2870              		.loc 1 634 0
 2871 001a 0C4B     		ldr	r3, .L242+12
 2872              		.loc 1 631 0
 2873 001c 0520     		movs	r0, #5
 2874 001e 0870     		strb	r0, [r1]
 2875              		.loc 1 632 0
 2876 0020 82ED000A 		vstr.32	s0, [r2]
 2877              		.loc 1 634 0
 2878 0024 1A78     		ldrb	r2, [r3]	@ zero_extendqisi2
 2879 0026 022A     		cmp	r2, #2
 2880              		.loc 1 635 0
 2881 0028 1CBF     		itt	ne
 2882 002a 0222     		movne	r2, #2
 2883 002c 1A70     		strbne	r2, [r3]
 2884              		.loc 1 637 0
 2885 002e 7047     		bx	lr
 2886              	.L241:
 2887              		.loc 1 626 0
 2888 0030 064B     		ldr	r3, .L242+12
 2889              		.loc 1 625 0
 2890 0032 0720     		movs	r0, #7
 2891              		.loc 1 626 0
 2892 0034 0022     		movs	r2, #0
 2893              		.loc 1 625 0
 2894 0036 0870     		strb	r0, [r1]
 2895              		.loc 1 626 0
 2896 0038 1A70     		strb	r2, [r3]
 2897              		.loc 1 627 0
 2898 003a FFF7FEBF 		b	stop_pwm_hw
 2899              	.LVL210:
 2900              	.L243:
 2901 003e 00BF     		.align	2
 2902              	.L242:
 2903 0040 00000000 		.word	.LANCHOR0
 2904 0044 00000000 		.word	.LANCHOR14
 2905 0048 00000000 		.word	.LANCHOR22
 2906 004c 00000000 		.word	.LANCHOR7
 2907              		.cfi_endproc
ARM GAS  C:\Users\CHRIST~1\AppData\Local\Temp\ccGCVH4j.s 			page 52


 2908              	.LFE269:
 2909              		.size	mcpwm_foc_set_handbrake, .-mcpwm_foc_set_handbrake
 2910              		.section	.text.mcpwm_foc_set_openloop,"ax",%progbits
 2911              		.align	1
 2912              		.p2align 4,,15
 2913              		.global	mcpwm_foc_set_openloop
 2914              		.syntax unified
 2915              		.thumb
 2916              		.thumb_func
 2917              		.fpu fpv4-sp-d16
 2918              		.type	mcpwm_foc_set_openloop, %function
 2919              	mcpwm_foc_set_openloop:
 2920              	.LFB270:
 2921              		.loc 1 648 0
 2922              		.cfi_startproc
 2923              		@ args = 0, pretend = 0, frame = 8
 2924              		@ frame_needed = 0, uses_anonymous_args = 0
 2925              	.LVL211:
 2926 0000 30B5     		push	{r4, r5, lr}
 2927              		.cfi_def_cfa_offset 12
 2928              		.cfi_offset 4, -12
 2929              		.cfi_offset 5, -8
 2930              		.cfi_offset 14, -4
 2931              		.loc 1 649 0
 2932 0002 1F4B     		ldr	r3, .L255
 2933 0004 1B68     		ldr	r3, [r3]
 2934              		.loc 1 648 0
 2935 0006 2DED028B 		vpush.64	{d8}
 2936              		.cfi_def_cfa_offset 20
 2937              		.cfi_offset 80, -20
 2938              		.cfi_offset 81, -16
 2939              		.loc 1 649 0
 2940 000a D3ED507A 		vldr.32	s15, [r3, #320]
 2941 000e B0EEC07A 		vabs.f32	s14, s0
 2942 0012 B4EEE77A 		vcmpe.f32	s14, s15
 2943              		.loc 1 648 0
 2944 0016 83B0     		sub	sp, sp, #12
 2945              		.cfi_def_cfa_offset 32
 2946              		.loc 1 649 0
 2947 0018 F1EE10FA 		vmrs	APSR_nzcv, FPSCR
 2948              		.loc 1 648 0
 2949 001c 8DED010A 		vstr.32	s0, [sp, #4]
 2950              		.loc 1 649 0
 2951 0020 21D4     		bmi	.L254
 2952              		.loc 1 656 0
 2953 0022 93ED010A 		vldr.32	s0, [r3, #4]
 2954              	.LVL212:
 2955              		.loc 1 658 0
 2956 0026 174C     		ldr	r4, .L255+4
 2957 0028 B0EE608A 		vmov.f32	s16, s1
 2958              		.loc 1 656 0
 2959 002c B1EE400A 		vneg.f32	s0, s0
 2960 0030 D3ED010A 		vldr.32	s1, [r3, #4]
 2961              	.LVL213:
 2962 0034 01A8     		add	r0, sp, #4
 2963              	.LVL214:
 2964 0036 FFF7FEFF 		bl	utils_truncate_number
ARM GAS  C:\Users\CHRIST~1\AppData\Local\Temp\ccGCVH4j.s 			page 53


 2965              	.LVL215:
 2966              		.loc 1 660 0
 2967 003a DFED137A 		vldr.32	s15, .L255+8
 2968              		.loc 1 659 0
 2969 003e 1349     		ldr	r1, .L255+12
 2970              		.loc 1 660 0
 2971 0040 134A     		ldr	r2, .L255+16
 2972              		.loc 1 662 0
 2973 0042 144B     		ldr	r3, .L255+20
 2974              		.loc 1 659 0
 2975 0044 0198     		ldr	r0, [sp, #4]	@ float
 2976              		.loc 1 660 0
 2977 0046 28EE278A 		vmul.f32	s16, s16, s15
 2978              	.LVL216:
 2979              		.loc 1 658 0
 2980 004a 0625     		movs	r5, #6
 2981 004c 2570     		strb	r5, [r4]
 2982              		.loc 1 659 0
 2983 004e 0860     		str	r0, [r1]	@ float
 2984              		.loc 1 660 0
 2985 0050 82ED008A 		vstr.32	s16, [r2]
 2986              		.loc 1 662 0
 2987 0054 1A78     		ldrb	r2, [r3]	@ zero_extendqisi2
 2988 0056 022A     		cmp	r2, #2
 2989              		.loc 1 663 0
 2990 0058 1CBF     		itt	ne
 2991 005a 0222     		movne	r2, #2
 2992 005c 1A70     		strbne	r2, [r3]
 2993              		.loc 1 665 0
 2994 005e 03B0     		add	sp, sp, #12
 2995              		.cfi_remember_state
 2996              		.cfi_def_cfa_offset 20
 2997              		@ sp needed
 2998 0060 BDEC028B 		vldm	sp!, {d8}
 2999              		.cfi_restore 80
 3000              		.cfi_restore 81
 3001              		.cfi_def_cfa_offset 12
 3002 0064 30BD     		pop	{r4, r5, pc}
 3003              	.LVL217:
 3004              	.L254:
 3005              		.cfi_restore_state
 3006              		.loc 1 650 0
 3007 0066 0749     		ldr	r1, .L255+4
 3008              		.loc 1 651 0
 3009 0068 0A4B     		ldr	r3, .L255+20
 3010              		.loc 1 650 0
 3011 006a 0720     		movs	r0, #7
 3012              		.loc 1 651 0
 3013 006c 0022     		movs	r2, #0
 3014              		.loc 1 650 0
 3015 006e 0870     		strb	r0, [r1]
 3016              		.loc 1 651 0
 3017 0070 1A70     		strb	r2, [r3]
 3018              		.loc 1 652 0
 3019 0072 FFF7FEFF 		bl	stop_pwm_hw
 3020              	.LVL218:
 3021              		.loc 1 665 0
ARM GAS  C:\Users\CHRIST~1\AppData\Local\Temp\ccGCVH4j.s 			page 54


 3022 0076 03B0     		add	sp, sp, #12
 3023              		.cfi_def_cfa_offset 20
 3024              		@ sp needed
 3025 0078 BDEC028B 		vldm	sp!, {d8}
 3026              		.cfi_restore 80
 3027              		.cfi_restore 81
 3028              		.cfi_def_cfa_offset 12
 3029 007c 30BD     		pop	{r4, r5, pc}
 3030              	.L256:
 3031 007e 00BF     		.align	2
 3032              	.L255:
 3033 0080 00000000 		.word	.LANCHOR0
 3034 0084 00000000 		.word	.LANCHOR14
 3035 0088 5077D63D 		.word	1037465424
 3036 008c 00000000 		.word	.LANCHOR22
 3037 0090 00000000 		.word	.LANCHOR32
 3038 0094 00000000 		.word	.LANCHOR7
 3039              		.cfi_endproc
 3040              	.LFE270:
 3041              		.size	mcpwm_foc_set_openloop, .-mcpwm_foc_set_openloop
 3042              		.section	.text.mcpwm_foc_get_duty_cycle_set,"ax",%progbits
 3043              		.align	1
 3044              		.p2align 4,,15
 3045              		.global	mcpwm_foc_get_duty_cycle_set
 3046              		.syntax unified
 3047              		.thumb
 3048              		.thumb_func
 3049              		.fpu fpv4-sp-d16
 3050              		.type	mcpwm_foc_get_duty_cycle_set, %function
 3051              	mcpwm_foc_get_duty_cycle_set:
 3052              	.LFB271:
 3053              		.loc 1 667 0
 3054              		.cfi_startproc
 3055              		@ args = 0, pretend = 0, frame = 0
 3056              		@ frame_needed = 0, uses_anonymous_args = 0
 3057              		@ link register save eliminated.
 3058              		.loc 1 668 0
 3059 0000 014B     		ldr	r3, .L258
 3060 0002 93ED000A 		vldr.32	s0, [r3]
 3061              		.loc 1 669 0
 3062 0006 7047     		bx	lr
 3063              	.L259:
 3064              		.align	2
 3065              	.L258:
 3066 0008 00000000 		.word	.LANCHOR30
 3067              		.cfi_endproc
 3068              	.LFE271:
 3069              		.size	mcpwm_foc_get_duty_cycle_set, .-mcpwm_foc_get_duty_cycle_set
 3070              		.section	.text.mcpwm_foc_get_duty_cycle_now,"ax",%progbits
 3071              		.align	1
 3072              		.p2align 4,,15
 3073              		.global	mcpwm_foc_get_duty_cycle_now
 3074              		.syntax unified
 3075              		.thumb
 3076              		.thumb_func
 3077              		.fpu fpv4-sp-d16
 3078              		.type	mcpwm_foc_get_duty_cycle_now, %function
ARM GAS  C:\Users\CHRIST~1\AppData\Local\Temp\ccGCVH4j.s 			page 55


 3079              	mcpwm_foc_get_duty_cycle_now:
 3080              	.LFB272:
 3081              		.loc 1 671 0
 3082              		.cfi_startproc
 3083              		@ args = 0, pretend = 0, frame = 0
 3084              		@ frame_needed = 0, uses_anonymous_args = 0
 3085              		@ link register save eliminated.
 3086              		.loc 1 672 0
 3087 0000 014B     		ldr	r3, .L261
 3088 0002 93ED030A 		vldr.32	s0, [r3, #12]
 3089              		.loc 1 673 0
 3090 0006 7047     		bx	lr
 3091              	.L262:
 3092              		.align	2
 3093              	.L261:
 3094 0008 00000000 		.word	.LANCHOR10
 3095              		.cfi_endproc
 3096              	.LFE272:
 3097              		.size	mcpwm_foc_get_duty_cycle_now, .-mcpwm_foc_get_duty_cycle_now
 3098              		.section	.text.mcpwm_foc_get_pid_pos_set,"ax",%progbits
 3099              		.align	1
 3100              		.p2align 4,,15
 3101              		.global	mcpwm_foc_get_pid_pos_set
 3102              		.syntax unified
 3103              		.thumb
 3104              		.thumb_func
 3105              		.fpu fpv4-sp-d16
 3106              		.type	mcpwm_foc_get_pid_pos_set, %function
 3107              	mcpwm_foc_get_pid_pos_set:
 3108              	.LFB273:
 3109              		.loc 1 675 0
 3110              		.cfi_startproc
 3111              		@ args = 0, pretend = 0, frame = 0
 3112              		@ frame_needed = 0, uses_anonymous_args = 0
 3113              		@ link register save eliminated.
 3114              		.loc 1 676 0
 3115 0000 014B     		ldr	r3, .L264
 3116 0002 93ED000A 		vldr.32	s0, [r3]
 3117              		.loc 1 677 0
 3118 0006 7047     		bx	lr
 3119              	.L265:
 3120              		.align	2
 3121              	.L264:
 3122 0008 00000000 		.word	.LANCHOR33
 3123              		.cfi_endproc
 3124              	.LFE273:
 3125              		.size	mcpwm_foc_get_pid_pos_set, .-mcpwm_foc_get_pid_pos_set
 3126              		.section	.text.mcpwm_foc_get_pid_pos_now,"ax",%progbits
 3127              		.align	1
 3128              		.p2align 4,,15
 3129              		.global	mcpwm_foc_get_pid_pos_now
 3130              		.syntax unified
 3131              		.thumb
 3132              		.thumb_func
 3133              		.fpu fpv4-sp-d16
 3134              		.type	mcpwm_foc_get_pid_pos_now, %function
 3135              	mcpwm_foc_get_pid_pos_now:
ARM GAS  C:\Users\CHRIST~1\AppData\Local\Temp\ccGCVH4j.s 			page 56


 3136              	.LFB274:
 3137              		.loc 1 679 0
 3138              		.cfi_startproc
 3139              		@ args = 0, pretend = 0, frame = 0
 3140              		@ frame_needed = 0, uses_anonymous_args = 0
 3141              		@ link register save eliminated.
 3142              		.loc 1 680 0
 3143 0000 014B     		ldr	r3, .L267
 3144 0002 93ED000A 		vldr.32	s0, [r3]
 3145              		.loc 1 681 0
 3146 0006 7047     		bx	lr
 3147              	.L268:
 3148              		.align	2
 3149              	.L267:
 3150 0008 00000000 		.word	.LANCHOR41
 3151              		.cfi_endproc
 3152              	.LFE274:
 3153              		.size	mcpwm_foc_get_pid_pos_now, .-mcpwm_foc_get_pid_pos_now
 3154              		.section	.text.mcpwm_foc_get_switching_frequency_now,"ax",%progbits
 3155              		.align	1
 3156              		.p2align 4,,15
 3157              		.global	mcpwm_foc_get_switching_frequency_now
 3158              		.syntax unified
 3159              		.thumb
 3160              		.thumb_func
 3161              		.fpu fpv4-sp-d16
 3162              		.type	mcpwm_foc_get_switching_frequency_now, %function
 3163              	mcpwm_foc_get_switching_frequency_now:
 3164              	.LFB275:
 3165              		.loc 1 689 0
 3166              		.cfi_startproc
 3167              		@ args = 0, pretend = 0, frame = 0
 3168              		@ frame_needed = 0, uses_anonymous_args = 0
 3169              		@ link register save eliminated.
 3170              		.loc 1 690 0
 3171 0000 024B     		ldr	r3, .L270
 3172 0002 1B68     		ldr	r3, [r3]
 3173 0004 93ED2B0A 		vldr.32	s0, [r3, #172]
 3174              		.loc 1 691 0
 3175 0008 7047     		bx	lr
 3176              	.L271:
 3177 000a 00BF     		.align	2
 3178              	.L270:
 3179 000c 00000000 		.word	.LANCHOR0
 3180              		.cfi_endproc
 3181              	.LFE275:
 3182              		.size	mcpwm_foc_get_switching_frequency_now, .-mcpwm_foc_get_switching_frequency_now
 3183              		.section	.text.mcpwm_foc_get_sampling_frequency_now,"ax",%progbits
 3184              		.align	1
 3185              		.p2align 4,,15
 3186              		.global	mcpwm_foc_get_sampling_frequency_now
 3187              		.syntax unified
 3188              		.thumb
 3189              		.thumb_func
 3190              		.fpu fpv4-sp-d16
 3191              		.type	mcpwm_foc_get_sampling_frequency_now, %function
 3192              	mcpwm_foc_get_sampling_frequency_now:
ARM GAS  C:\Users\CHRIST~1\AppData\Local\Temp\ccGCVH4j.s 			page 57


 3193              	.LFB276:
 3194              		.loc 1 699 0
 3195              		.cfi_startproc
 3196              		@ args = 0, pretend = 0, frame = 0
 3197              		@ frame_needed = 0, uses_anonymous_args = 0
 3198              		@ link register save eliminated.
 3199              		.loc 1 707 0
 3200 0000 044B     		ldr	r3, .L273
 3201 0002 1B68     		ldr	r3, [r3]
 3202 0004 93ED2B0A 		vldr.32	s0, [r3, #172]
 3203 0008 F6EE007A 		vmov.f32	s15, #5.0e-1
 3204              		.loc 1 709 0
 3205 000c 20EE270A 		vmul.f32	s0, s0, s15
 3206 0010 7047     		bx	lr
 3207              	.L274:
 3208 0012 00BF     		.align	2
 3209              	.L273:
 3210 0014 00000000 		.word	.LANCHOR0
 3211              		.cfi_endproc
 3212              	.LFE276:
 3213              		.size	mcpwm_foc_get_sampling_frequency_now, .-mcpwm_foc_get_sampling_frequency_now
 3214              		.section	.text.mcpwm_foc_get_rpm,"ax",%progbits
 3215              		.align	1
 3216              		.p2align 4,,15
 3217              		.global	mcpwm_foc_get_rpm
 3218              		.syntax unified
 3219              		.thumb
 3220              		.thumb_func
 3221              		.fpu fpv4-sp-d16
 3222              		.type	mcpwm_foc_get_rpm, %function
 3223              	mcpwm_foc_get_rpm:
 3224              	.LFB277:
 3225              		.loc 1 719 0
 3226              		.cfi_startproc
 3227              		@ args = 0, pretend = 0, frame = 0
 3228              		@ frame_needed = 0, uses_anonymous_args = 0
 3229              		@ link register save eliminated.
 3230              		.loc 1 720 0
 3231 0000 034B     		ldr	r3, .L276
 3232 0002 DFED047A 		vldr.32	s15, .L276+4
 3233 0006 93ED000A 		vldr.32	s0, [r3]
 3234              		.loc 1 721 0
 3235 000a 80EE270A 		vdiv.f32	s0, s0, s15
 3236 000e 7047     		bx	lr
 3237              	.L277:
 3238              		.align	2
 3239              	.L276:
 3240 0010 00000000 		.word	.LANCHOR12
 3241 0014 5077D63D 		.word	1037465424
 3242              		.cfi_endproc
 3243              	.LFE277:
 3244              		.size	mcpwm_foc_get_rpm, .-mcpwm_foc_get_rpm
 3245              		.section	.text.mcpwm_foc_get_tot_current,"ax",%progbits
 3246              		.align	1
 3247              		.p2align 4,,15
 3248              		.global	mcpwm_foc_get_tot_current
 3249              		.syntax unified
ARM GAS  C:\Users\CHRIST~1\AppData\Local\Temp\ccGCVH4j.s 			page 58


 3250              		.thumb
 3251              		.thumb_func
 3252              		.fpu fpv4-sp-d16
 3253              		.type	mcpwm_foc_get_tot_current, %function
 3254              	mcpwm_foc_get_tot_current:
 3255              	.LFB278:
 3256              		.loc 1 731 0
 3257              		.cfi_startproc
 3258              		@ args = 0, pretend = 0, frame = 0
 3259              		@ frame_needed = 0, uses_anonymous_args = 0
 3260              		@ link register save eliminated.
 3261              		.loc 1 732 0
 3262 0000 094B     		ldr	r3, .L281
 3263 0002 D3ED147A 		vldr.32	s15, [r3, #80]
 3264 0006 93ED100A 		vldr.32	s0, [r3, #64]
 3265 000a F5EEC07A 		vcmpe.f32	s15, #0
 3266 000e F1EE10FA 		vmrs	APSR_nzcv, FPSCR
 3267 0012 B7EE007A 		vmov.f32	s14, #1.0e+0
 3268 0016 FFEE007A 		vmov.f32	s15, #-1.0e+0
 3269 001a 58BF     		it	pl
 3270 001c F0EE477A 		vmovpl.f32	s15, s14
 3271              		.loc 1 733 0
 3272 0020 20EE270A 		vmul.f32	s0, s0, s15
 3273 0024 7047     		bx	lr
 3274              	.L282:
 3275 0026 00BF     		.align	2
 3276              	.L281:
 3277 0028 00000000 		.word	.LANCHOR10
 3278              		.cfi_endproc
 3279              	.LFE278:
 3280              		.size	mcpwm_foc_get_tot_current, .-mcpwm_foc_get_tot_current
 3281              		.section	.text.mcpwm_foc_get_tot_current_filtered,"ax",%progbits
 3282              		.align	1
 3283              		.p2align 4,,15
 3284              		.global	mcpwm_foc_get_tot_current_filtered
 3285              		.syntax unified
 3286              		.thumb
 3287              		.thumb_func
 3288              		.fpu fpv4-sp-d16
 3289              		.type	mcpwm_foc_get_tot_current_filtered, %function
 3290              	mcpwm_foc_get_tot_current_filtered:
 3291              	.LFB279:
 3292              		.loc 1 743 0
 3293              		.cfi_startproc
 3294              		@ args = 0, pretend = 0, frame = 0
 3295              		@ frame_needed = 0, uses_anonymous_args = 0
 3296              		@ link register save eliminated.
 3297              		.loc 1 744 0
 3298 0000 094B     		ldr	r3, .L286
 3299 0002 D3ED147A 		vldr.32	s15, [r3, #80]
 3300 0006 93ED120A 		vldr.32	s0, [r3, #72]
 3301 000a F5EEC07A 		vcmpe.f32	s15, #0
 3302 000e F1EE10FA 		vmrs	APSR_nzcv, FPSCR
 3303 0012 B7EE007A 		vmov.f32	s14, #1.0e+0
 3304 0016 FFEE007A 		vmov.f32	s15, #-1.0e+0
 3305 001a 58BF     		it	pl
 3306 001c F0EE477A 		vmovpl.f32	s15, s14
ARM GAS  C:\Users\CHRIST~1\AppData\Local\Temp\ccGCVH4j.s 			page 59


 3307              		.loc 1 745 0
 3308 0020 20EE270A 		vmul.f32	s0, s0, s15
 3309 0024 7047     		bx	lr
 3310              	.L287:
 3311 0026 00BF     		.align	2
 3312              	.L286:
 3313 0028 00000000 		.word	.LANCHOR10
 3314              		.cfi_endproc
 3315              	.LFE279:
 3316              		.size	mcpwm_foc_get_tot_current_filtered, .-mcpwm_foc_get_tot_current_filtered
 3317              		.section	.text.mcpwm_foc_get_abs_motor_current,"ax",%progbits
 3318              		.align	1
 3319              		.p2align 4,,15
 3320              		.global	mcpwm_foc_get_abs_motor_current
 3321              		.syntax unified
 3322              		.thumb
 3323              		.thumb_func
 3324              		.fpu fpv4-sp-d16
 3325              		.type	mcpwm_foc_get_abs_motor_current, %function
 3326              	mcpwm_foc_get_abs_motor_current:
 3327              	.LFB280:
 3328              		.loc 1 754 0
 3329              		.cfi_startproc
 3330              		@ args = 0, pretend = 0, frame = 0
 3331              		@ frame_needed = 0, uses_anonymous_args = 0
 3332              		@ link register save eliminated.
 3333              		.loc 1 755 0
 3334 0000 014B     		ldr	r3, .L289
 3335 0002 93ED070A 		vldr.32	s0, [r3, #28]
 3336              		.loc 1 756 0
 3337 0006 7047     		bx	lr
 3338              	.L290:
 3339              		.align	2
 3340              	.L289:
 3341 0008 00000000 		.word	.LANCHOR10
 3342              		.cfi_endproc
 3343              	.LFE280:
 3344              		.size	mcpwm_foc_get_abs_motor_current, .-mcpwm_foc_get_abs_motor_current
 3345              		.section	.text.mcpwm_foc_get_abs_motor_voltage,"ax",%progbits
 3346              		.align	1
 3347              		.p2align 4,,15
 3348              		.global	mcpwm_foc_get_abs_motor_voltage
 3349              		.syntax unified
 3350              		.thumb
 3351              		.thumb_func
 3352              		.fpu fpv4-sp-d16
 3353              		.type	mcpwm_foc_get_abs_motor_voltage, %function
 3354              	mcpwm_foc_get_abs_motor_voltage:
 3355              	.LFB281:
 3356              		.loc 1 764 0
 3357              		.cfi_startproc
 3358              		@ args = 0, pretend = 0, frame = 0
 3359              		@ frame_needed = 0, uses_anonymous_args = 0
 3360 0000 08B5     		push	{r3, lr}
 3361              		.cfi_def_cfa_offset 8
 3362              		.cfi_offset 3, -8
 3363              		.cfi_offset 14, -4
ARM GAS  C:\Users\CHRIST~1\AppData\Local\Temp\ccGCVH4j.s 			page 60


 3364              		.loc 1 765 0
 3365 0002 0D4B     		ldr	r3, .L295
 3366 0004 D3ED137A 		vldr.32	s15, [r3, #76]
 3367              	.LVL219:
 3368              		.loc 1 766 0
 3369 0008 93ED140A 		vldr.32	s0, [r3, #80]
 3370              	.LVL220:
 3371              		.loc 1 767 0
 3372 000c 20EE000A 		vmul.f32	s0, s0, s0
 3373              	.LVL221:
 3374              		.loc 1 764 0
 3375 0010 2DED028B 		vpush.64	{d8}
 3376              		.cfi_def_cfa_offset 16
 3377              		.cfi_offset 80, -16
 3378              		.cfi_offset 81, -12
 3379              		.loc 1 767 0
 3380 0014 A7EEA70A 		vfma.f32	s0, s15, s15
 3381 0018 B5EE400A 		vcmp.f32	s0, #0
 3382 001c F1EE10FA 		vmrs	APSR_nzcv, FPSCR
 3383 0020 B1EEC08A 		vsqrt.f32	s16, s0
 3384 0024 04D4     		bmi	.L294
 3385              	.LVL222:
 3386              	.L291:
 3387              		.loc 1 768 0
 3388 0026 B0EE480A 		vmov.f32	s0, s16
 3389 002a BDEC028B 		vldm	sp!, {d8}
 3390              		.cfi_remember_state
 3391              		.cfi_restore 80
 3392              		.cfi_restore 81
 3393              		.cfi_def_cfa_offset 8
 3394 002e 08BD     		pop	{r3, pc}
 3395              	.LVL223:
 3396              	.L294:
 3397              		.cfi_restore_state
 3398              		.loc 1 767 0
 3399 0030 FFF7FEFF 		bl	sqrtf
 3400              	.LVL224:
 3401 0034 F7E7     		b	.L291
 3402              	.L296:
 3403 0036 00BF     		.align	2
 3404              	.L295:
 3405 0038 00000000 		.word	.LANCHOR10
 3406              		.cfi_endproc
 3407              	.LFE281:
 3408              		.size	mcpwm_foc_get_abs_motor_voltage, .-mcpwm_foc_get_abs_motor_voltage
 3409              		.section	.text.mcpwm_foc_get_abs_motor_current_filtered,"ax",%progbits
 3410              		.align	1
 3411              		.p2align 4,,15
 3412              		.global	mcpwm_foc_get_abs_motor_current_filtered
 3413              		.syntax unified
 3414              		.thumb
 3415              		.thumb_func
 3416              		.fpu fpv4-sp-d16
 3417              		.type	mcpwm_foc_get_abs_motor_current_filtered, %function
 3418              	mcpwm_foc_get_abs_motor_current_filtered:
 3419              	.LFB282:
 3420              		.loc 1 777 0
ARM GAS  C:\Users\CHRIST~1\AppData\Local\Temp\ccGCVH4j.s 			page 61


 3421              		.cfi_startproc
 3422              		@ args = 0, pretend = 0, frame = 0
 3423              		@ frame_needed = 0, uses_anonymous_args = 0
 3424              		@ link register save eliminated.
 3425              		.loc 1 778 0
 3426 0000 014B     		ldr	r3, .L298
 3427 0002 93ED080A 		vldr.32	s0, [r3, #32]
 3428              		.loc 1 779 0
 3429 0006 7047     		bx	lr
 3430              	.L299:
 3431              		.align	2
 3432              	.L298:
 3433 0008 00000000 		.word	.LANCHOR10
 3434              		.cfi_endproc
 3435              	.LFE282:
 3436              		.size	mcpwm_foc_get_abs_motor_current_filtered, .-mcpwm_foc_get_abs_motor_current_filtered
 3437              		.section	.text.mcpwm_foc_get_tot_current_directional,"ax",%progbits
 3438              		.align	1
 3439              		.p2align 4,,15
 3440              		.global	mcpwm_foc_get_tot_current_directional
 3441              		.syntax unified
 3442              		.thumb
 3443              		.thumb_func
 3444              		.fpu fpv4-sp-d16
 3445              		.type	mcpwm_foc_get_tot_current_directional, %function
 3446              	mcpwm_foc_get_tot_current_directional:
 3447              	.LFB283:
 3448              		.loc 1 788 0
 3449              		.cfi_startproc
 3450              		@ args = 0, pretend = 0, frame = 0
 3451              		@ frame_needed = 0, uses_anonymous_args = 0
 3452              		@ link register save eliminated.
 3453              		.loc 1 789 0
 3454 0000 014B     		ldr	r3, .L301
 3455 0002 93ED100A 		vldr.32	s0, [r3, #64]
 3456              		.loc 1 790 0
 3457 0006 7047     		bx	lr
 3458              	.L302:
 3459              		.align	2
 3460              	.L301:
 3461 0008 00000000 		.word	.LANCHOR10
 3462              		.cfi_endproc
 3463              	.LFE283:
 3464              		.size	mcpwm_foc_get_tot_current_directional, .-mcpwm_foc_get_tot_current_directional
 3465              		.section	.text.mcpwm_foc_get_tot_current_directional_filtered,"ax",%progbits
 3466              		.align	1
 3467              		.p2align 4,,15
 3468              		.global	mcpwm_foc_get_tot_current_directional_filtered
 3469              		.syntax unified
 3470              		.thumb
 3471              		.thumb_func
 3472              		.fpu fpv4-sp-d16
 3473              		.type	mcpwm_foc_get_tot_current_directional_filtered, %function
 3474              	mcpwm_foc_get_tot_current_directional_filtered:
 3475              	.LFB284:
 3476              		.loc 1 799 0
 3477              		.cfi_startproc
ARM GAS  C:\Users\CHRIST~1\AppData\Local\Temp\ccGCVH4j.s 			page 62


 3478              		@ args = 0, pretend = 0, frame = 0
 3479              		@ frame_needed = 0, uses_anonymous_args = 0
 3480              		@ link register save eliminated.
 3481              		.loc 1 800 0
 3482 0000 014B     		ldr	r3, .L304
 3483 0002 93ED120A 		vldr.32	s0, [r3, #72]
 3484              		.loc 1 801 0
 3485 0006 7047     		bx	lr
 3486              	.L305:
 3487              		.align	2
 3488              	.L304:
 3489 0008 00000000 		.word	.LANCHOR10
 3490              		.cfi_endproc
 3491              	.LFE284:
 3492              		.size	mcpwm_foc_get_tot_current_directional_filtered, .-mcpwm_foc_get_tot_current_directional_filt
 3493              		.section	.text.mcpwm_foc_get_id,"ax",%progbits
 3494              		.align	1
 3495              		.p2align 4,,15
 3496              		.global	mcpwm_foc_get_id
 3497              		.syntax unified
 3498              		.thumb
 3499              		.thumb_func
 3500              		.fpu fpv4-sp-d16
 3501              		.type	mcpwm_foc_get_id, %function
 3502              	mcpwm_foc_get_id:
 3503              	.LFB285:
 3504              		.loc 1 809 0
 3505              		.cfi_startproc
 3506              		@ args = 0, pretend = 0, frame = 0
 3507              		@ frame_needed = 0, uses_anonymous_args = 0
 3508              		@ link register save eliminated.
 3509              		.loc 1 810 0
 3510 0000 014B     		ldr	r3, .L307
 3511 0002 93ED0F0A 		vldr.32	s0, [r3, #60]
 3512              		.loc 1 811 0
 3513 0006 7047     		bx	lr
 3514              	.L308:
 3515              		.align	2
 3516              	.L307:
 3517 0008 00000000 		.word	.LANCHOR10
 3518              		.cfi_endproc
 3519              	.LFE285:
 3520              		.size	mcpwm_foc_get_id, .-mcpwm_foc_get_id
 3521              		.section	.text.mcpwm_foc_get_iq,"ax",%progbits
 3522              		.align	1
 3523              		.p2align 4,,15
 3524              		.global	mcpwm_foc_get_iq
 3525              		.syntax unified
 3526              		.thumb
 3527              		.thumb_func
 3528              		.fpu fpv4-sp-d16
 3529              		.type	mcpwm_foc_get_iq, %function
 3530              	mcpwm_foc_get_iq:
 3531              	.LFB320:
 3532              		.cfi_startproc
 3533              		@ args = 0, pretend = 0, frame = 0
 3534              		@ frame_needed = 0, uses_anonymous_args = 0
ARM GAS  C:\Users\CHRIST~1\AppData\Local\Temp\ccGCVH4j.s 			page 63


 3535              		@ link register save eliminated.
 3536 0000 014B     		ldr	r3, .L310
 3537 0002 93ED100A 		vldr.32	s0, [r3, #64]
 3538 0006 7047     		bx	lr
 3539              	.L311:
 3540              		.align	2
 3541              	.L310:
 3542 0008 00000000 		.word	.LANCHOR10
 3543              		.cfi_endproc
 3544              	.LFE320:
 3545              		.size	mcpwm_foc_get_iq, .-mcpwm_foc_get_iq
 3546              		.section	.text.mcpwm_foc_get_tot_current_in,"ax",%progbits
 3547              		.align	1
 3548              		.p2align 4,,15
 3549              		.global	mcpwm_foc_get_tot_current_in
 3550              		.syntax unified
 3551              		.thumb
 3552              		.thumb_func
 3553              		.fpu fpv4-sp-d16
 3554              		.type	mcpwm_foc_get_tot_current_in, %function
 3555              	mcpwm_foc_get_tot_current_in:
 3556              	.LFB287:
 3557              		.loc 1 829 0
 3558              		.cfi_startproc
 3559              		@ args = 0, pretend = 0, frame = 0
 3560              		@ frame_needed = 0, uses_anonymous_args = 0
 3561              		@ link register save eliminated.
 3562              		.loc 1 830 0
 3563 0000 014B     		ldr	r3, .L313
 3564 0002 93ED090A 		vldr.32	s0, [r3, #36]
 3565              		.loc 1 831 0
 3566 0006 7047     		bx	lr
 3567              	.L314:
 3568              		.align	2
 3569              	.L313:
 3570 0008 00000000 		.word	.LANCHOR10
 3571              		.cfi_endproc
 3572              	.LFE287:
 3573              		.size	mcpwm_foc_get_tot_current_in, .-mcpwm_foc_get_tot_current_in
 3574              		.section	.text.mcpwm_foc_get_tot_current_in_filtered,"ax",%progbits
 3575              		.align	1
 3576              		.p2align 4,,15
 3577              		.global	mcpwm_foc_get_tot_current_in_filtered
 3578              		.syntax unified
 3579              		.thumb
 3580              		.thumb_func
 3581              		.fpu fpv4-sp-d16
 3582              		.type	mcpwm_foc_get_tot_current_in_filtered, %function
 3583              	mcpwm_foc_get_tot_current_in_filtered:
 3584              	.LFB322:
 3585              		.cfi_startproc
 3586              		@ args = 0, pretend = 0, frame = 0
 3587              		@ frame_needed = 0, uses_anonymous_args = 0
 3588              		@ link register save eliminated.
 3589 0000 014B     		ldr	r3, .L316
 3590 0002 93ED090A 		vldr.32	s0, [r3, #36]
 3591 0006 7047     		bx	lr
ARM GAS  C:\Users\CHRIST~1\AppData\Local\Temp\ccGCVH4j.s 			page 64


 3592              	.L317:
 3593              		.align	2
 3594              	.L316:
 3595 0008 00000000 		.word	.LANCHOR10
 3596              		.cfi_endproc
 3597              	.LFE322:
 3598              		.size	mcpwm_foc_get_tot_current_in_filtered, .-mcpwm_foc_get_tot_current_in_filtered
 3599              		.section	.text.mcpwm_foc_get_tachometer_value,"ax",%progbits
 3600              		.align	1
 3601              		.p2align 4,,15
 3602              		.global	mcpwm_foc_get_tachometer_value
 3603              		.syntax unified
 3604              		.thumb
 3605              		.thumb_func
 3606              		.fpu fpv4-sp-d16
 3607              		.type	mcpwm_foc_get_tachometer_value, %function
 3608              	mcpwm_foc_get_tachometer_value:
 3609              	.LFB289:
 3610              		.loc 1 854 0
 3611              		.cfi_startproc
 3612              		@ args = 0, pretend = 0, frame = 0
 3613              		@ frame_needed = 0, uses_anonymous_args = 0
 3614              		@ link register save eliminated.
 3615              	.LVL225:
 3616              		.loc 1 855 0
 3617 0000 034B     		ldr	r3, .L323
 3618 0002 1A68     		ldr	r2, [r3]
 3619              	.LVL226:
 3620              		.loc 1 857 0
 3621 0004 08B1     		cbz	r0, .L318
 3622              		.loc 1 858 0
 3623 0006 0021     		movs	r1, #0
 3624 0008 1960     		str	r1, [r3]
 3625              	.L318:
 3626              		.loc 1 862 0
 3627 000a 1046     		mov	r0, r2
 3628              	.LVL227:
 3629 000c 7047     		bx	lr
 3630              	.L324:
 3631 000e 00BF     		.align	2
 3632              	.L323:
 3633 0010 00000000 		.word	.LANCHOR38
 3634              		.cfi_endproc
 3635              	.LFE289:
 3636              		.size	mcpwm_foc_get_tachometer_value, .-mcpwm_foc_get_tachometer_value
 3637              		.section	.text.mcpwm_foc_get_tachometer_abs_value,"ax",%progbits
 3638              		.align	1
 3639              		.p2align 4,,15
 3640              		.global	mcpwm_foc_get_tachometer_abs_value
 3641              		.syntax unified
 3642              		.thumb
 3643              		.thumb_func
 3644              		.fpu fpv4-sp-d16
 3645              		.type	mcpwm_foc_get_tachometer_abs_value, %function
 3646              	mcpwm_foc_get_tachometer_abs_value:
 3647              	.LFB290:
 3648              		.loc 1 874 0
ARM GAS  C:\Users\CHRIST~1\AppData\Local\Temp\ccGCVH4j.s 			page 65


 3649              		.cfi_startproc
 3650              		@ args = 0, pretend = 0, frame = 0
 3651              		@ frame_needed = 0, uses_anonymous_args = 0
 3652              		@ link register save eliminated.
 3653              	.LVL228:
 3654              		.loc 1 875 0
 3655 0000 034B     		ldr	r3, .L330
 3656 0002 1A68     		ldr	r2, [r3]
 3657              	.LVL229:
 3658              		.loc 1 877 0
 3659 0004 08B1     		cbz	r0, .L325
 3660              		.loc 1 878 0
 3661 0006 0021     		movs	r1, #0
 3662 0008 1960     		str	r1, [r3]
 3663              	.L325:
 3664              		.loc 1 882 0
 3665 000a 1046     		mov	r0, r2
 3666              	.LVL230:
 3667 000c 7047     		bx	lr
 3668              	.L331:
 3669 000e 00BF     		.align	2
 3670              	.L330:
 3671 0010 00000000 		.word	.LANCHOR39
 3672              		.cfi_endproc
 3673              	.LFE290:
 3674              		.size	mcpwm_foc_get_tachometer_abs_value, .-mcpwm_foc_get_tachometer_abs_value
 3675              		.section	.text.mcpwm_foc_get_phase,"ax",%progbits
 3676              		.align	1
 3677              		.p2align 4,,15
 3678              		.global	mcpwm_foc_get_phase
 3679              		.syntax unified
 3680              		.thumb
 3681              		.thumb_func
 3682              		.fpu fpv4-sp-d16
 3683              		.type	mcpwm_foc_get_phase, %function
 3684              	mcpwm_foc_get_phase:
 3685              	.LFB291:
 3686              		.loc 1 890 0
 3687              		.cfi_startproc
 3688              		@ args = 0, pretend = 0, frame = 8
 3689              		@ frame_needed = 0, uses_anonymous_args = 0
 3690 0000 00B5     		push	{lr}
 3691              		.cfi_def_cfa_offset 4
 3692              		.cfi_offset 14, -4
 3693              		.loc 1 891 0
 3694 0002 094B     		ldr	r3, .L334
 3695 0004 9FED097A 		vldr.32	s14, .L334+4
 3696 0008 D3ED047A 		vldr.32	s15, [r3, #16]
 3697              		.loc 1 890 0
 3698 000c 83B0     		sub	sp, sp, #12
 3699              		.cfi_def_cfa_offset 16
 3700              		.loc 1 891 0
 3701 000e 67EE877A 		vmul.f32	s15, s15, s14
 3702 0012 02A8     		add	r0, sp, #8
 3703 0014 60ED017A 		vstmdb.32	r0!, {s15}
 3704              		.loc 1 892 0
 3705 0018 FFF7FEFF 		bl	utils_norm_angle
ARM GAS  C:\Users\CHRIST~1\AppData\Local\Temp\ccGCVH4j.s 			page 66


 3706              	.LVL231:
 3707              		.loc 1 894 0
 3708 001c 9DED010A 		vldr.32	s0, [sp, #4]
 3709 0020 03B0     		add	sp, sp, #12
 3710              		.cfi_def_cfa_offset 4
 3711              		@ sp needed
 3712 0022 5DF804FB 		ldr	pc, [sp], #4
 3713              	.L335:
 3714 0026 00BF     		.align	2
 3715              	.L334:
 3716 0028 00000000 		.word	.LANCHOR10
 3717 002c E02E6542 		.word	1113927392
 3718              		.cfi_endproc
 3719              	.LFE291:
 3720              		.size	mcpwm_foc_get_phase, .-mcpwm_foc_get_phase
 3721              		.section	.text.mcpwm_foc_get_phase_observer,"ax",%progbits
 3722              		.align	1
 3723              		.p2align 4,,15
 3724              		.global	mcpwm_foc_get_phase_observer
 3725              		.syntax unified
 3726              		.thumb
 3727              		.thumb_func
 3728              		.fpu fpv4-sp-d16
 3729              		.type	mcpwm_foc_get_phase_observer, %function
 3730              	mcpwm_foc_get_phase_observer:
 3731              	.LFB292:
 3732              		.loc 1 902 0
 3733              		.cfi_startproc
 3734              		@ args = 0, pretend = 0, frame = 8
 3735              		@ frame_needed = 0, uses_anonymous_args = 0
 3736 0000 00B5     		push	{lr}
 3737              		.cfi_def_cfa_offset 4
 3738              		.cfi_offset 14, -4
 3739              		.loc 1 903 0
 3740 0002 094B     		ldr	r3, .L338
 3741 0004 9FED097A 		vldr.32	s14, .L338+4
 3742 0008 D3ED007A 		vldr.32	s15, [r3]
 3743              		.loc 1 902 0
 3744 000c 83B0     		sub	sp, sp, #12
 3745              		.cfi_def_cfa_offset 16
 3746              		.loc 1 903 0
 3747 000e 67EE877A 		vmul.f32	s15, s15, s14
 3748 0012 02A8     		add	r0, sp, #8
 3749 0014 60ED017A 		vstmdb.32	r0!, {s15}
 3750              		.loc 1 904 0
 3751 0018 FFF7FEFF 		bl	utils_norm_angle
 3752              	.LVL232:
 3753              		.loc 1 906 0
 3754 001c 9DED010A 		vldr.32	s0, [sp, #4]
 3755 0020 03B0     		add	sp, sp, #12
 3756              		.cfi_def_cfa_offset 4
 3757              		@ sp needed
 3758 0022 5DF804FB 		ldr	pc, [sp], #4
 3759              	.L339:
 3760 0026 00BF     		.align	2
 3761              	.L338:
 3762 0028 00000000 		.word	.LANCHOR16
ARM GAS  C:\Users\CHRIST~1\AppData\Local\Temp\ccGCVH4j.s 			page 67


 3763 002c E02E6542 		.word	1113927392
 3764              		.cfi_endproc
 3765              	.LFE292:
 3766              		.size	mcpwm_foc_get_phase_observer, .-mcpwm_foc_get_phase_observer
 3767              		.section	.text.mcpwm_foc_get_phase_encoder,"ax",%progbits
 3768              		.align	1
 3769              		.p2align 4,,15
 3770              		.global	mcpwm_foc_get_phase_encoder
 3771              		.syntax unified
 3772              		.thumb
 3773              		.thumb_func
 3774              		.fpu fpv4-sp-d16
 3775              		.type	mcpwm_foc_get_phase_encoder, %function
 3776              	mcpwm_foc_get_phase_encoder:
 3777              	.LFB293:
 3778              		.loc 1 914 0
 3779              		.cfi_startproc
 3780              		@ args = 0, pretend = 0, frame = 8
 3781              		@ frame_needed = 0, uses_anonymous_args = 0
 3782 0000 00B5     		push	{lr}
 3783              		.cfi_def_cfa_offset 4
 3784              		.cfi_offset 14, -4
 3785              		.loc 1 915 0
 3786 0002 094B     		ldr	r3, .L342
 3787 0004 9FED097A 		vldr.32	s14, .L342+4
 3788 0008 D3ED007A 		vldr.32	s15, [r3]
 3789              		.loc 1 914 0
 3790 000c 83B0     		sub	sp, sp, #12
 3791              		.cfi_def_cfa_offset 16
 3792              		.loc 1 915 0
 3793 000e 67EE877A 		vmul.f32	s15, s15, s14
 3794 0012 02A8     		add	r0, sp, #8
 3795 0014 60ED017A 		vstmdb.32	r0!, {s15}
 3796              		.loc 1 916 0
 3797 0018 FFF7FEFF 		bl	utils_norm_angle
 3798              	.LVL233:
 3799              		.loc 1 918 0
 3800 001c 9DED010A 		vldr.32	s0, [sp, #4]
 3801 0020 03B0     		add	sp, sp, #12
 3802              		.cfi_def_cfa_offset 4
 3803              		@ sp needed
 3804 0022 5DF804FB 		ldr	pc, [sp], #4
 3805              	.L343:
 3806 0026 00BF     		.align	2
 3807              	.L342:
 3808 0028 00000000 		.word	.LANCHOR34
 3809 002c E02E6542 		.word	1113927392
 3810              		.cfi_endproc
 3811              	.LFE293:
 3812              		.size	mcpwm_foc_get_phase_encoder, .-mcpwm_foc_get_phase_encoder
 3813              		.section	.text.mcpwm_foc_get_vd,"ax",%progbits
 3814              		.align	1
 3815              		.p2align 4,,15
 3816              		.global	mcpwm_foc_get_vd
 3817              		.syntax unified
 3818              		.thumb
 3819              		.thumb_func
ARM GAS  C:\Users\CHRIST~1\AppData\Local\Temp\ccGCVH4j.s 			page 68


 3820              		.fpu fpv4-sp-d16
 3821              		.type	mcpwm_foc_get_vd, %function
 3822              	mcpwm_foc_get_vd:
 3823              	.LFB294:
 3824              		.loc 1 920 0
 3825              		.cfi_startproc
 3826              		@ args = 0, pretend = 0, frame = 0
 3827              		@ frame_needed = 0, uses_anonymous_args = 0
 3828              		@ link register save eliminated.
 3829              		.loc 1 921 0
 3830 0000 014B     		ldr	r3, .L345
 3831 0002 93ED130A 		vldr.32	s0, [r3, #76]
 3832              		.loc 1 922 0
 3833 0006 7047     		bx	lr
 3834              	.L346:
 3835              		.align	2
 3836              	.L345:
 3837 0008 00000000 		.word	.LANCHOR10
 3838              		.cfi_endproc
 3839              	.LFE294:
 3840              		.size	mcpwm_foc_get_vd, .-mcpwm_foc_get_vd
 3841              		.section	.text.mcpwm_foc_get_vq,"ax",%progbits
 3842              		.align	1
 3843              		.p2align 4,,15
 3844              		.global	mcpwm_foc_get_vq
 3845              		.syntax unified
 3846              		.thumb
 3847              		.thumb_func
 3848              		.fpu fpv4-sp-d16
 3849              		.type	mcpwm_foc_get_vq, %function
 3850              	mcpwm_foc_get_vq:
 3851              	.LFB295:
 3852              		.loc 1 924 0
 3853              		.cfi_startproc
 3854              		@ args = 0, pretend = 0, frame = 0
 3855              		@ frame_needed = 0, uses_anonymous_args = 0
 3856              		@ link register save eliminated.
 3857              		.loc 1 925 0
 3858 0000 014B     		ldr	r3, .L348
 3859 0002 93ED140A 		vldr.32	s0, [r3, #80]
 3860              		.loc 1 926 0
 3861 0006 7047     		bx	lr
 3862              	.L349:
 3863              		.align	2
 3864              	.L348:
 3865 0008 00000000 		.word	.LANCHOR10
 3866              		.cfi_endproc
 3867              	.LFE295:
 3868              		.size	mcpwm_foc_get_vq, .-mcpwm_foc_get_vq
 3869              		.global	__aeabi_f2d
 3870              		.section	.text.mcpwm_foc_encoder_detect,"ax",%progbits
 3871              		.align	1
 3872              		.p2align 4,,15
 3873              		.global	mcpwm_foc_encoder_detect
 3874              		.syntax unified
 3875              		.thumb
 3876              		.thumb_func
ARM GAS  C:\Users\CHRIST~1\AppData\Local\Temp\ccGCVH4j.s 			page 69


 3877              		.fpu fpv4-sp-d16
 3878              		.type	mcpwm_foc_encoder_detect, %function
 3879              	mcpwm_foc_encoder_detect:
 3880              	.LFB296:
 3881              		.loc 1 943 0
 3882              		.cfi_startproc
 3883              		@ args = 0, pretend = 0, frame = 24
 3884              		@ frame_needed = 0, uses_anonymous_args = 0
 3885              	.LVL234:
 3886 0000 2DE9F04F 		push	{r4, r5, r6, r7, r8, r9, r10, fp, lr}
 3887              		.cfi_def_cfa_offset 36
 3888              		.cfi_offset 4, -36
 3889              		.cfi_offset 5, -32
 3890              		.cfi_offset 6, -28
 3891              		.cfi_offset 7, -24
 3892              		.cfi_offset 8, -20
 3893              		.cfi_offset 9, -16
 3894              		.cfi_offset 10, -12
 3895              		.cfi_offset 11, -8
 3896              		.cfi_offset 14, -4
 3897 0004 2DED0E8B 		vpush.64	{d8, d9, d10, d11, d12, d13, d14}
 3898              		.cfi_def_cfa_offset 92
 3899              		.cfi_offset 80, -92
 3900              		.cfi_offset 81, -88
 3901              		.cfi_offset 82, -84
 3902              		.cfi_offset 83, -80
 3903              		.cfi_offset 84, -76
 3904              		.cfi_offset 85, -72
 3905              		.cfi_offset 86, -68
 3906              		.cfi_offset 87, -64
 3907              		.cfi_offset 88, -60
 3908              		.cfi_offset 89, -56
 3909              		.cfi_offset 90, -52
 3910              		.cfi_offset 91, -48
 3911              		.cfi_offset 92, -44
 3912              		.cfi_offset 93, -40
 3913 0008 87B0     		sub	sp, sp, #28
 3914              		.cfi_def_cfa_offset 120
 3915              		.loc 1 943 0
 3916 000a B0EE409A 		vmov.f32	s18, s0
 3917 000e CDE90223 		strd	r2, r3, [sp, #8]
 3918 0012 0746     		mov	r7, r0
 3919 0014 8946     		mov	r9, r1
 3920              		.loc 1 944 0
 3921 0016 FFF7FEFF 		bl	mc_interface_lock
 3922              	.LVL235:
 3923              		.loc 1 946 0
 3924 001a C549     		ldr	r1, .L430
 3925              		.loc 1 948 0
 3926 001c 9FEDC58A 		vldr.32	s16, .L430+4
 3927              		.loc 1 959 0
 3928 0020 DFF84883 		ldr	r8, .L430+60
 3929              	.LBB66:
 3930              		.loc 1 970 0
 3931 0024 DFEDC48A 		vldr.32	s17, .L430+8
 3932 0028 C44C     		ldr	r4, .L430+12
 3933              	.LBE66:
ARM GAS  C:\Users\CHRIST~1\AppData\Local\Temp\ccGCVH4j.s 			page 70


 3934              		.loc 1 946 0
 3935 002a 0122     		movs	r2, #1
 3936 002c 0A70     		strb	r2, [r1]
 3937              		.loc 1 947 0
 3938 002e C44A     		ldr	r2, .L430+16
 3939 0030 82ED009A 		vstr.32	s18, [r2]
 3940              		.loc 1 948 0
 3941 0034 C34A     		ldr	r2, .L430+20
 3942 0036 82ED008A 		vstr.32	s16, [r2]
 3943              		.loc 1 949 0
 3944 003a C34A     		ldr	r2, .L430+24
 3945 003c 0223     		movs	r3, #2
 3946 003e 1370     		strb	r3, [r2]
 3947              		.loc 1 950 0
 3948 0040 C24A     		ldr	r2, .L430+28
 3949 0042 1370     		strb	r3, [r2]
 3950              		.loc 1 953 0
 3951 0044 FFF7FEFF 		bl	timeout_get_timeout_msec
 3952              	.LVL236:
 3953 0048 0190     		str	r0, [sp, #4]
 3954              	.LVL237:
 3955              		.loc 1 954 0
 3956 004a FFF7FEFF 		bl	timeout_get_brake_current
 3957              	.LVL238:
 3958 004e F0EE409A 		vmov.f32	s19, s0
 3959              	.LVL239:
 3960              		.loc 1 955 0
 3961 0052 FFF7FEFF 		bl	timeout_reset
 3962              	.LVL240:
 3963              		.loc 1 956 0
 3964 0056 B0EE480A 		vmov.f32	s0, s16
 3965 005a BD48     		ldr	r0, .L430+32
 3966 005c FFF7FEFF 		bl	timeout_configure
 3967              	.LVL241:
 3968              		.loc 1 959 0
 3969 0060 D8F80030 		ldr	r3, [r8]
 3970 0064 93ED2DAA 		vldr.32	s20, [r3, #180]
 3971              	.LVL242:
 3972              		.loc 1 960 0
 3973 0068 93F8B820 		ldrb	r2, [r3, #184]	@ zero_extendqisi2
 3974              		.loc 1 961 0
 3975 006c D3ED2FAA 		vldr.32	s21, [r3, #188]
 3976              		.loc 1 963 0
 3977 0070 83ED2D8A 		vstr.32	s16, [r3, #180]
 3978              		.loc 1 960 0
 3979 0074 09EE102A 		vmov	s18, r2	@ int
 3980              	.LVL243:
 3981              		.loc 1 964 0
 3982 0078 0022     		movs	r2, #0
 3983 007a 83F8B820 		strb	r2, [r3, #184]
 3984              		.loc 1 960 0
 3985 007e B8EE499A 		vcvt.f32.u32	s18, s18
 3986              	.LVL244:
 3987              		.loc 1 965 0
 3988 0082 4FF07E52 		mov	r2, #1065353216
 3989 0086 C3F8BC20 		str	r2, [r3, #188]	@ float
 3990              		.loc 1 969 0
ARM GAS  C:\Users\CHRIST~1\AppData\Local\Temp\ccGCVH4j.s 			page 71


 3991 008a 1F25     		movs	r5, #31
 3992              	.LVL245:
 3993              	.L351:
 3994 008c FFF7FEFF 		bl	encoder_index_found
 3995              	.LVL246:
 3996 0090 70B9     		cbnz	r0, .L355
 3997              	.LBB67:
 3998              		.loc 1 970 0
 3999 0092 9FEDA88A 		vldr.32	s16, .L430+4
 4000              	.LBE67:
 4001 0096 4FF4FA76 		mov	r6, #500
 4002              	.L352:
 4003              	.LVL247:
 4004              	.LBB68:
 4005              		.loc 1 972 0 discriminator 3
 4006 009a 0A20     		movs	r0, #10
 4007              		.loc 1 971 0 discriminator 3
 4008 009c 84ED008A 		vstr.32	s16, [r4]
 4009              		.loc 1 972 0 discriminator 3
 4010 00a0 FFF7FEFF 		bl	chThdSleep
 4011              	.LVL248:
 4012              		.loc 1 970 0 discriminator 3
 4013 00a4 013E     		subs	r6, r6, #1
 4014 00a6 38EE288A 		vadd.f32	s16, s16, s17
 4015              	.LVL249:
 4016 00aa F6D1     		bne	.L352
 4017              	.LVL250:
 4018              	.LBE68:
 4019              		.loc 1 976 0
 4020 00ac 013D     		subs	r5, r5, #1
 4021              	.LVL251:
 4022 00ae EDD1     		bne	.L351
 4023              	.LVL252:
 4024              	.L355:
 4025              		.loc 1 982 0
 4026 00b0 17B1     		cbz	r7, .L354
 4027              		.loc 1 983 0
 4028 00b2 A848     		ldr	r0, .L430+36
 4029 00b4 FFF7FEFF 		bl	commands_printf
 4030              	.LVL253:
 4031              	.L354:
 4032              		.loc 1 969 0 discriminator 1
 4033 00b8 9FED9E8A 		vldr.32	s16, .L430+4
 4034              	.LBB69:
 4035              		.loc 1 987 0 discriminator 1
 4036 00bc DFED9E8A 		vldr.32	s17, .L430+8
 4037              	.LBE69:
 4038              		.loc 1 969 0 discriminator 1
 4039 00c0 4FF4FA75 		mov	r5, #500
 4040              	.LVL254:
 4041              	.L356:
 4042              	.LBB70:
 4043              		.loc 1 989 0 discriminator 3
 4044 00c4 0A20     		movs	r0, #10
 4045              		.loc 1 988 0 discriminator 3
 4046 00c6 84ED008A 		vstr.32	s16, [r4]
 4047              		.loc 1 989 0 discriminator 3
ARM GAS  C:\Users\CHRIST~1\AppData\Local\Temp\ccGCVH4j.s 			page 72


 4048 00ca FFF7FEFF 		bl	chThdSleep
 4049              	.LVL255:
 4050              		.loc 1 987 0 discriminator 3
 4051 00ce 013D     		subs	r5, r5, #1
 4052 00d0 38EE288A 		vadd.f32	s16, s16, s17
 4053              	.LVL256:
 4054 00d4 F6D1     		bne	.L356
 4055              	.LBE70:
 4056              		.loc 1 992 0
 4057 00d6 17B1     		cbz	r7, .L357
 4058              		.loc 1 993 0
 4059 00d8 9F48     		ldr	r0, .L430+40
 4060 00da FFF7FEFF 		bl	commands_printf
 4061              	.LVL257:
 4062              	.L357:
 4063              		.loc 1 1002 0
 4064 00de 9F4D     		ldr	r5, .L430+44
 4065              		.loc 1 1001 0
 4066 00e0 DFED94BA 		vldr.32	s23, .L430+4
 4067              	.LBB71:
 4068              	.LBB72:
 4069              	.LBB73:
 4070              		.loc 1 1007 0
 4071 00e4 DFED9ECA 		vldr.32	s25, .L430+48
 4072              		.loc 1 1008 0
 4073 00e8 9FED93BA 		vldr.32	s22, .L430+8
 4074              	.LBE73:
 4075              		.loc 1 1012 0
 4076 00ec DFF84CA2 		ldr	r10, .L430+12
 4077              		.loc 1 1022 0
 4078 00f0 9FEDA1EA 		vldr.32	s28, .L430+72
 4079 00f4 DFED9FDA 		vldr.32	s27, .L430+68
 4080 00f8 DFF874B2 		ldr	fp, .L430+64
 4081              	.LBE72:
 4082              	.LBE71:
 4083              		.loc 1 997 0
 4084 00fc 42F21070 		movw	r0, #10000
 4085 0100 FFF7FEFF 		bl	chThdSleep
 4086              	.LVL258:
 4087              		.loc 1 1002 0
 4088 0104 95ED00DA 		vldr.32	s26, [r5]
 4089              	.LVL259:
 4090              		.loc 1 1000 0
 4091 0108 B0EE6BCA 		vmov.f32	s24, s23
 4092              	.LBB77:
 4093              		.loc 1 1004 0
 4094 010c 0026     		movs	r6, #0
 4095              	.LVL260:
 4096              	.L363:
 4097              	.LBB75:
 4098              		.loc 1 1005 0
 4099 010e D5ED00EA 		vldr.32	s29, [r5]
 4100              	.LVL261:
 4101              		.loc 1 1006 0
 4102 0112 94ED008A 		vldr.32	s16, [r4]
 4103              	.LVL262:
 4104              	.LBB74:
ARM GAS  C:\Users\CHRIST~1\AppData\Local\Temp\ccGCVH4j.s 			page 73


 4105              		.loc 1 1007 0
 4106 0116 78EE2C8A 		vadd.f32	s17, s16, s25
 4107 011a F4EEC88A 		vcmpe.f32	s17, s16
 4108 011e F1EE10FA 		vmrs	APSR_nzcv, FPSCR
 4109 0122 0BDD     		ble	.L358
 4110              	.LVL263:
 4111              	.L360:
 4112              		.loc 1 1010 0
 4113 0124 0A20     		movs	r0, #10
 4114              		.loc 1 1009 0
 4115 0126 84ED008A 		vstr.32	s16, [r4]
 4116              		.loc 1 1010 0
 4117 012a FFF7FEFF 		bl	chThdSleep
 4118              	.LVL264:
 4119              		.loc 1 1008 0
 4120 012e 38EE0B8A 		vadd.f32	s16, s16, s22
 4121              	.LVL265:
 4122              		.loc 1 1007 0
 4123 0132 F4EEC88A 		vcmpe.f32	s17, s16
 4124 0136 F1EE10FA 		vmrs	APSR_nzcv, FPSCR
 4125 013a F3DC     		bgt	.L360
 4126              	.L358:
 4127              	.LBE74:
 4128              		.loc 1 1012 0
 4129 013c 5046     		mov	r0, r10
 4130 013e FFF7FEFF 		bl	utils_norm_angle_rad
 4131              	.LVL266:
 4132              		.loc 1 1013 0
 4133 0142 40F6B830 		movw	r0, #3000
 4134 0146 FFF7FEFF 		bl	chThdSleep
 4135              	.LVL267:
 4136              		.loc 1 1014 0
 4137 014a F0EE6E0A 		vmov.f32	s1, s29
 4138 014e 95ED000A 		vldr.32	s0, [r5]
 4139 0152 FFF7FEFF 		bl	utils_angle_difference_rad
 4140              	.LVL268:
 4141              		.loc 1 1017 0
 4142 0156 05A9     		add	r1, sp, #20
 4143 0158 04A8     		add	r0, sp, #16
 4144              		.loc 1 1014 0
 4145 015a B0EE408A 		vmov.f32	s16, s0
 4146              	.LVL269:
 4147              		.loc 1 1017 0
 4148 015e FFF7FEFF 		bl	sincosf
 4149              	.LVL270:
 4150              		.loc 1 1018 0
 4151 0162 9DED047A 		vldr.32	s14, [sp, #16]
 4152              		.loc 1 1019 0
 4153 0166 DDED057A 		vldr.32	s15, [sp, #20]
 4154              		.loc 1 1018 0
 4155 016a 3CEE07CA 		vadd.f32	s24, s24, s14
 4156              	.LVL271:
 4157              		.loc 1 1019 0
 4158 016e 7BEEA7BA 		vadd.f32	s23, s23, s15
 4159              	.LVL272:
 4160              		.loc 1 1021 0
 4161 0172 002F     		cmp	r7, #0
ARM GAS  C:\Users\CHRIST~1\AppData\Local\Temp\ccGCVH4j.s 			page 74


 4162 0174 40F0C581 		bne	.L423
 4163              	.L361:
 4164              		.loc 1 1025 0
 4165 0178 032E     		cmp	r6, #3
 4166 017a 12DD     		ble	.L365
 4167              		.loc 1 1025 0 is_stmt 0 discriminator 1
 4168 017c 95ED000A 		vldr.32	s0, [r5]
 4169 0180 F0EE4D0A 		vmov.f32	s1, s26
 4170 0184 FFF7FEFF 		bl	utils_angle_difference_rad
 4171              	.LVL273:
 4172 0188 F6EE007A 		vmov.f32	s15, #5.0e-1
 4173 018c 28EE278A 		vmul.f32	s16, s16, s15
 4174              	.LVL274:
 4175 0190 B0EEC00A 		vabs.f32	s0, s0
 4176 0194 B0EEC88A 		vabs.f32	s16, s16
 4177 0198 B4EEC80A 		vcmpe.f32	s0, s16
 4178 019c F1EE10FA 		vmrs	APSR_nzcv, FPSCR
 4179 01a0 02D4     		bmi	.L364
 4180              	.L365:
 4181              	.LBE75:
 4182              		.loc 1 1004 0 is_stmt 1
 4183 01a2 0136     		adds	r6, r6, #1
 4184              	.LVL275:
 4185 01a4 142E     		cmp	r6, #20
 4186 01a6 B2D1     		bne	.L363
 4187              	.L364:
 4188              	.LBE77:
 4189              		.loc 1 1030 0
 4190 01a8 95ED00DA 		vldr.32	s26, [r5]
 4191              	.LVL276:
 4192              	.LBB78:
 4193              	.LBB79:
 4194              	.LBB80:
 4195              		.loc 1 1035 0
 4196 01ac DFED6CCA 		vldr.32	s25, .L430+48
 4197              		.loc 1 1036 0
 4198 01b0 9FED61BA 		vldr.32	s22, .L430+8
 4199              	.LBE80:
 4200              		.loc 1 1040 0
 4201 01b4 DFF884A1 		ldr	r10, .L430+12
 4202              		.loc 1 1050 0
 4203 01b8 9FED6FEA 		vldr.32	s28, .L430+72
 4204 01bc DFED6DDA 		vldr.32	s27, .L430+68
 4205 01c0 DFF8ACB1 		ldr	fp, .L430+64
 4206              	.LBE79:
 4207              		.loc 1 1032 0
 4208 01c4 0026     		movs	r6, #0
 4209              	.LVL277:
 4210              	.L372:
 4211              	.LBB82:
 4212              		.loc 1 1033 0
 4213 01c6 D5ED00EA 		vldr.32	s29, [r5]
 4214              	.LVL278:
 4215              		.loc 1 1034 0
 4216 01ca 94ED008A 		vldr.32	s16, [r4]
 4217              	.LVL279:
 4218              	.LBB81:
ARM GAS  C:\Users\CHRIST~1\AppData\Local\Temp\ccGCVH4j.s 			page 75


 4219              		.loc 1 1035 0
 4220 01ce 78EE6C8A 		vsub.f32	s17, s16, s25
 4221 01d2 F4EEC88A 		vcmpe.f32	s17, s16
 4222 01d6 F1EE10FA 		vmrs	APSR_nzcv, FPSCR
 4223 01da 0BD5     		bpl	.L367
 4224              	.LVL280:
 4225              	.L369:
 4226              		.loc 1 1038 0
 4227 01dc 0A20     		movs	r0, #10
 4228              		.loc 1 1037 0
 4229 01de 84ED008A 		vstr.32	s16, [r4]
 4230              		.loc 1 1038 0
 4231 01e2 FFF7FEFF 		bl	chThdSleep
 4232              	.LVL281:
 4233              		.loc 1 1036 0
 4234 01e6 38EE4B8A 		vsub.f32	s16, s16, s22
 4235              	.LVL282:
 4236              		.loc 1 1035 0
 4237 01ea F4EEC88A 		vcmpe.f32	s17, s16
 4238 01ee F1EE10FA 		vmrs	APSR_nzcv, FPSCR
 4239 01f2 F3D4     		bmi	.L369
 4240              	.L367:
 4241              	.LBE81:
 4242              		.loc 1 1040 0
 4243 01f4 5046     		mov	r0, r10
 4244 01f6 FFF7FEFF 		bl	utils_norm_angle_rad
 4245              	.LVL283:
 4246              		.loc 1 1041 0
 4247 01fa 40F6B830 		movw	r0, #3000
 4248 01fe FFF7FEFF 		bl	chThdSleep
 4249              	.LVL284:
 4250              		.loc 1 1042 0
 4251 0202 D5ED000A 		vldr.32	s1, [r5]
 4252 0206 B0EE6E0A 		vmov.f32	s0, s29
 4253 020a FFF7FEFF 		bl	utils_angle_difference_rad
 4254              	.LVL285:
 4255              		.loc 1 1045 0
 4256 020e 05A9     		add	r1, sp, #20
 4257 0210 04A8     		add	r0, sp, #16
 4258              		.loc 1 1042 0
 4259 0212 B0EE408A 		vmov.f32	s16, s0
 4260              	.LVL286:
 4261              		.loc 1 1045 0
 4262 0216 FFF7FEFF 		bl	sincosf
 4263              	.LVL287:
 4264              		.loc 1 1046 0
 4265 021a 9DED047A 		vldr.32	s14, [sp, #16]
 4266              		.loc 1 1047 0
 4267 021e DDED057A 		vldr.32	s15, [sp, #20]
 4268              		.loc 1 1046 0
 4269 0222 3CEE07CA 		vadd.f32	s24, s24, s14
 4270              	.LVL288:
 4271              		.loc 1 1047 0
 4272 0226 7BEEA7BA 		vadd.f32	s23, s23, s15
 4273              	.LVL289:
 4274              		.loc 1 1049 0
 4275 022a 002F     		cmp	r7, #0
ARM GAS  C:\Users\CHRIST~1\AppData\Local\Temp\ccGCVH4j.s 			page 76


 4276 022c 40F07781 		bne	.L424
 4277              	.L370:
 4278              		.loc 1 1053 0
 4279 0230 032E     		cmp	r6, #3
 4280 0232 12DD     		ble	.L374
 4281              		.loc 1 1053 0 is_stmt 0 discriminator 1
 4282 0234 95ED000A 		vldr.32	s0, [r5]
 4283 0238 F0EE4D0A 		vmov.f32	s1, s26
 4284 023c FFF7FEFF 		bl	utils_angle_difference_rad
 4285              	.LVL290:
 4286 0240 F6EE007A 		vmov.f32	s15, #5.0e-1
 4287 0244 28EE278A 		vmul.f32	s16, s16, s15
 4288              	.LVL291:
 4289 0248 B0EEC00A 		vabs.f32	s0, s0
 4290 024c B0EEC88A 		vabs.f32	s16, s16
 4291 0250 B4EEC80A 		vcmpe.f32	s0, s16
 4292 0254 F1EE10FA 		vmrs	APSR_nzcv, FPSCR
 4293 0258 02D4     		bmi	.L373
 4294              	.L374:
 4295              	.LBE82:
 4296              		.loc 1 1032 0 is_stmt 1
 4297 025a 0136     		adds	r6, r6, #1
 4298              	.LVL292:
 4299 025c 142E     		cmp	r6, #20
 4300 025e B2D1     		bne	.L372
 4301              	.L373:
 4302              	.LBE78:
 4303              		.loc 1 1058 0
 4304 0260 F0EE6B0A 		vmov.f32	s1, s23
 4305 0264 B0EE4C0A 		vmov.f32	s0, s24
 4306 0268 FFF7FEFF 		bl	atan2f
 4307              	.LVL293:
 4308 026c DFED427A 		vldr.32	s15, .L430+72
 4309 0270 DFED406A 		vldr.32	s13, .L430+68
 4310              		.loc 1 1059 0
 4311 0274 039B     		ldr	r3, [sp, #12]
 4312              		.loc 1 1060 0
 4313 0276 9FED3B7A 		vldr.32	s14, .L430+52
 4314              		.loc 1 1058 0
 4315 027a 20EE270A 		vmul.f32	s0, s0, s15
 4316 027e C0EE267A 		vdiv.f32	s15, s0, s13
 4317              	.LVL294:
 4318              		.loc 1 1059 0
 4319 0282 F5EEC07A 		vcmpe.f32	s15, #0
 4320 0286 F1EE10FA 		vmrs	APSR_nzcv, FPSCR
 4321 028a 4CBF     		ite	mi
 4322 028c 0126     		movmi	r6, #1
 4323              	.LVL295:
 4324 028e 0026     		movpl	r6, #0
 4325              		.loc 1 1061 0
 4326 0290 F0EEE77A 		vabs.f32	s15, s15
 4327              	.LVL296:
 4328              		.loc 1 1059 0
 4329 0294 1E70     		strb	r6, [r3]
 4330              		.loc 1 1060 0
 4331 0296 87EE270A 		vdiv.f32	s0, s14, s15
 4332              	.LVL297:
ARM GAS  C:\Users\CHRIST~1\AppData\Local\Temp\ccGCVH4j.s 			page 77


 4333 029a FFF7FEFF 		bl	roundf
 4334              	.LVL298:
 4335              		.loc 1 1063 0
 4336 029e D8F80030 		ldr	r3, [r8]
 4337              		.loc 1 1060 0
 4338 02a2 029A     		ldr	r2, [sp, #8]
 4339 02a4 82ED000A 		vstr.32	s0, [r2]
 4340              		.loc 1 1063 0
 4341 02a8 83F8B860 		strb	r6, [r3, #184]
 4342              		.loc 1 1064 0
 4343 02ac 83ED2F0A 		vstr.32	s0, [r3, #188]
 4344              		.loc 1 1066 0
 4345 02b0 002F     		cmp	r7, #0
 4346 02b2 40F04281 		bne	.L425
 4347              	.LBB84:
 4348              		.loc 1 1071 0
 4349 02b6 94ED008A 		vldr.32	s16, [r4]
 4350              	.LVL299:
 4351 02ba DFED2B7A 		vldr.32	s15, .L430+56
 4352 02be B4EEE78A 		vcmpe.f32	s16, s15
 4353 02c2 F1EE10FA 		vmrs	APSR_nzcv, FPSCR
 4354 02c6 14D5     		bpl	.L382
 4355              	.L377:
 4356              		.loc 1 1071 0 is_stmt 0 discriminator 3
 4357 02c8 9FED1BBA 		vldr.32	s22, .L430+8
 4358 02cc DFED268A 		vldr.32	s17, .L430+56
 4359              	.L380:
 4360              		.loc 1 1072 0 is_stmt 1 discriminator 3
 4361 02d0 84ED008A 		vstr.32	s16, [r4]
 4362              		.loc 1 1073 0 discriminator 3
 4363 02d4 1420     		movs	r0, #20
 4364 02d6 FFF7FEFF 		bl	chThdSleep
 4365              	.LVL300:
 4366              		.loc 1 1071 0 discriminator 3
 4367 02da 38EE0B8A 		vadd.f32	s16, s16, s22
 4368              	.LVL301:
 4369 02de B4EEE88A 		vcmpe.f32	s16, s17
 4370 02e2 F1EE10FA 		vmrs	APSR_nzcv, FPSCR
 4371 02e6 F3D4     		bmi	.L380
 4372              	.LBE84:
 4373              		.loc 1 1076 0
 4374 02e8 002F     		cmp	r7, #0
 4375 02ea 40F03381 		bne	.L381
 4376 02ee D8F80030 		ldr	r3, [r8]
 4377              	.L382:
 4378              		.loc 1 1081 0
 4379 02f2 D3ED2F7A 		vldr.32	s15, [r3, #188]
 4380 02f6 B0EE087A 		vmov.f32	s14, #3.0e+0
 4381 02fa 67EE877A 		vmul.f32	s15, s15, s14
 4382 02fe FDEEE77A 		vcvt.s32.f32	s15, s15
 4383 0302 17EE90AA 		vmov	r10, s15	@ int
 4384              	.LVL302:
 4385              	.LBB85:
 4386              		.loc 1 1085 0
 4387 0306 BAF1000F 		cmp	r10, #0
 4388 030a 40F35681 		ble	.L426
 4389              	.L378:
ARM GAS  C:\Users\CHRIST~1\AppData\Local\Temp\ccGCVH4j.s 			page 78


 4390              	.LBE85:
 4391              		.loc 1 1083 0
 4392 030e 9FED098A 		vldr.32	s16, .L430+4
 4393              	.LVL303:
 4394              	.LBB89:
 4395              	.LBB86:
 4396              		.loc 1 1086 0
 4397 0312 9FED18CA 		vldr.32	s24, .L430+68
 4398              		.loc 1 1096 0
 4399 0316 DFED18CA 		vldr.32	s25, .L430+72
 4400 031a DFF854B0 		ldr	fp, .L430+64
 4401 031e 07EE90AA 		vmov	s15, r10	@ int
 4402              	.LBE86:
 4403              	.LBE89:
 4404              		.loc 1 1082 0
 4405 0322 F0EE488A 		vmov.f32	s17, s16
 4406 0326 B8EEE7BA 		vcvt.f32.s32	s22, s15
 4407              	.LBB90:
 4408              		.loc 1 1085 0
 4409 032a 0026     		movs	r6, #0
 4410 032c 2AE0     		b	.L384
 4411              	.L431:
 4412 032e 00BF     		.align	2
 4413              	.L430:
 4414 0330 00000000 		.word	.LANCHOR28
 4415 0334 00000000 		.word	0
 4416 0338 2EE34D3C 		.word	1011737390
 4417 033c 00000000 		.word	.LANCHOR29
 4418 0340 00000000 		.word	.LANCHOR31
 4419 0344 00000000 		.word	.LANCHOR22
 4420 0348 00000000 		.word	.LANCHOR14
 4421 034c 00000000 		.word	.LANCHOR7
 4422 0350 C0270900 		.word	600000
 4423 0354 00000000 		.word	.LC1
 4424 0358 0C000000 		.word	.LC2
 4425 035c 00000000 		.word	.LANCHOR34
 4426 0360 920A0640 		.word	1074137746
 4427 0364 0000F042 		.word	1123024896
 4428 0368 DB0FC940 		.word	1086918619
 4429 036c 00000000 		.word	.LANCHOR0
 4430 0370 20000000 		.word	.LC3
 4431 0374 DB0F4940 		.word	1078530011
 4432 0378 00003443 		.word	1127481344
 4433              	.LVL304:
 4434              	.L383:
 4435              		.loc 1 1085 0 is_stmt 0 discriminator 2
 4436 037c 5645     		cmp	r6, r10
 4437 037e D8F80030 		ldr	r3, [r8]
 4438 0382 3BD0     		beq	.L427
 4439              	.LVL305:
 4440              	.L384:
 4441              	.LBB87:
 4442              		.loc 1 1086 0 is_stmt 1
 4443 0384 07EE906A 		vmov	s15, r6	@ int
 4444 0388 F8EEE77A 		vcvt.f32.s32	s15, s15
 4445 038c 93ED2F7A 		vldr.32	s14, [r3, #188]
 4446 0390 77EEA77A 		vadd.f32	s15, s15, s15
ARM GAS  C:\Users\CHRIST~1\AppData\Local\Temp\ccGCVH4j.s 			page 79


 4447              		.loc 1 1087 0
 4448 0394 41F28830 		movw	r0, #5000
 4449              		.loc 1 1086 0
 4450 0398 67EE8C7A 		vmul.f32	s15, s15, s24
 4451              	.LBE87:
 4452              		.loc 1 1085 0
 4453 039c 0136     		adds	r6, r6, #1
 4454              	.LVL306:
 4455              	.LBB88:
 4456              		.loc 1 1086 0
 4457 039e 67EE877A 		vmul.f32	s15, s15, s14
 4458 03a2 87EE8B7A 		vdiv.f32	s14, s15, s22
 4459 03a6 84ED007A 		vstr.32	s14, [r4]
 4460              		.loc 1 1087 0
 4461 03aa FFF7FEFF 		bl	chThdSleep
 4462              	.LVL307:
 4463              		.loc 1 1089 0
 4464 03ae 95ED000A 		vldr.32	s0, [r5]
 4465 03b2 D4ED000A 		vldr.32	s1, [r4]
 4466 03b6 FFF7FEFF 		bl	utils_angle_difference_rad
 4467              	.LVL308:
 4468              		.loc 1 1091 0
 4469 03ba 05A9     		add	r1, sp, #20
 4470 03bc 04A8     		add	r0, sp, #16
 4471              		.loc 1 1089 0
 4472 03be F0EE40BA 		vmov.f32	s23, s0
 4473              	.LVL309:
 4474              		.loc 1 1091 0
 4475 03c2 FFF7FEFF 		bl	sincosf
 4476              	.LVL310:
 4477              		.loc 1 1092 0
 4478 03c6 9DED047A 		vldr.32	s14, [sp, #16]
 4479              		.loc 1 1093 0
 4480 03ca DDED057A 		vldr.32	s15, [sp, #20]
 4481              		.loc 1 1092 0
 4482 03ce 78EE878A 		vadd.f32	s17, s17, s14
 4483              	.LVL311:
 4484              		.loc 1 1093 0
 4485 03d2 38EE278A 		vadd.f32	s16, s16, s15
 4486              	.LVL312:
 4487              		.loc 1 1095 0
 4488 03d6 002F     		cmp	r7, #0
 4489 03d8 D0D0     		beq	.L383
 4490              		.loc 1 1096 0
 4491 03da 6BEEACBA 		vmul.f32	s23, s23, s25
 4492              	.LVL313:
 4493 03de CBEE8C7A 		vdiv.f32	s15, s23, s24
 4494 03e2 17EE900A 		vmov	r0, s15
 4495 03e6 FFF7FEFF 		bl	__aeabi_f2d
 4496              	.LVL314:
 4497 03ea 0246     		mov	r2, r0
 4498 03ec 0B46     		mov	r3, r1
 4499 03ee 5846     		mov	r0, fp
 4500 03f0 FFF7FEFF 		bl	commands_printf
 4501              	.LVL315:
 4502              	.LBE88:
 4503              		.loc 1 1085 0
ARM GAS  C:\Users\CHRIST~1\AppData\Local\Temp\ccGCVH4j.s 			page 80


 4504 03f4 5645     		cmp	r6, r10
 4505 03f6 D8F80030 		ldr	r3, [r8]
 4506 03fa C3D1     		bne	.L384
 4507              	.L427:
 4508              	.LBE90:
 4509              	.LBB91:
 4510              	.LBB92:
 4511              		.loc 1 1101 0
 4512 03fc 1FED23CA 		vldr.32	s24, .L430+68
 4513              		.loc 1 1111 0
 4514 0400 5FED23CA 		vldr.32	s25, .L430+72
 4515 0404 DFF8F4A1 		ldr	r10, .L432+56
 4516              	.LVL316:
 4517 0408 03E0     		b	.L386
 4518              	.LVL317:
 4519              	.L385:
 4520              	.LBE92:
 4521              		.loc 1 1100 0 discriminator 2
 4522 040a 013E     		subs	r6, r6, #1
 4523              	.LVL318:
 4524 040c 3AD0     		beq	.L379
 4525              	.LVL319:
 4526              	.L428:
 4527 040e D8F80030 		ldr	r3, [r8]
 4528              	.LVL320:
 4529              	.L386:
 4530              	.LBB93:
 4531              		.loc 1 1101 0
 4532 0412 93ED2F7A 		vldr.32	s14, [r3, #188]
 4533 0416 07EE906A 		vmov	s15, r6	@ int
 4534 041a F8EEE77A 		vcvt.f32.s32	s15, s15
 4535              		.loc 1 1102 0
 4536 041e 41F28830 		movw	r0, #5000
 4537              		.loc 1 1101 0
 4538 0422 77EEA77A 		vadd.f32	s15, s15, s15
 4539 0426 67EE8C7A 		vmul.f32	s15, s15, s24
 4540 042a 67EE877A 		vmul.f32	s15, s15, s14
 4541 042e 87EE8B7A 		vdiv.f32	s14, s15, s22
 4542 0432 84ED007A 		vstr.32	s14, [r4]
 4543              		.loc 1 1102 0
 4544 0436 FFF7FEFF 		bl	chThdSleep
 4545              	.LVL321:
 4546              		.loc 1 1104 0
 4547 043a 95ED000A 		vldr.32	s0, [r5]
 4548 043e D4ED000A 		vldr.32	s1, [r4]
 4549 0442 FFF7FEFF 		bl	utils_angle_difference_rad
 4550              	.LVL322:
 4551              		.loc 1 1106 0
 4552 0446 05A9     		add	r1, sp, #20
 4553 0448 04A8     		add	r0, sp, #16
 4554              		.loc 1 1104 0
 4555 044a F0EE40BA 		vmov.f32	s23, s0
 4556              	.LVL323:
 4557              		.loc 1 1106 0
 4558 044e FFF7FEFF 		bl	sincosf
 4559              	.LVL324:
 4560              		.loc 1 1107 0
ARM GAS  C:\Users\CHRIST~1\AppData\Local\Temp\ccGCVH4j.s 			page 81


 4561 0452 9DED047A 		vldr.32	s14, [sp, #16]
 4562              		.loc 1 1108 0
 4563 0456 DDED057A 		vldr.32	s15, [sp, #20]
 4564              		.loc 1 1107 0
 4565 045a 78EE878A 		vadd.f32	s17, s17, s14
 4566              	.LVL325:
 4567              		.loc 1 1108 0
 4568 045e 38EE278A 		vadd.f32	s16, s16, s15
 4569              	.LVL326:
 4570              		.loc 1 1110 0
 4571 0462 002F     		cmp	r7, #0
 4572 0464 D1D0     		beq	.L385
 4573              		.loc 1 1111 0
 4574 0466 6BEEACBA 		vmul.f32	s23, s23, s25
 4575              	.LVL327:
 4576 046a CBEE8C7A 		vdiv.f32	s15, s23, s24
 4577 046e 17EE900A 		vmov	r0, s15
 4578 0472 FFF7FEFF 		bl	__aeabi_f2d
 4579              	.LVL328:
 4580 0476 0246     		mov	r2, r0
 4581 0478 0B46     		mov	r3, r1
 4582 047a 5046     		mov	r0, r10
 4583 047c FFF7FEFF 		bl	commands_printf
 4584              	.LVL329:
 4585              	.LBE93:
 4586              		.loc 1 1100 0
 4587 0480 013E     		subs	r6, r6, #1
 4588              	.LVL330:
 4589 0482 C4D1     		bne	.L428
 4590              	.LVL331:
 4591              	.L379:
 4592              	.LBE91:
 4593              		.loc 1 1115 0
 4594 0484 F0EE480A 		vmov.f32	s1, s16
 4595 0488 B0EE680A 		vmov.f32	s0, s17
 4596 048c FFF7FEFF 		bl	atan2f
 4597              	.LVL332:
 4598 0490 DFED4C7A 		vldr.32	s15, .L432
 4599 0494 DFED4C6A 		vldr.32	s13, .L432+4
 4600 0498 60EE277A 		vmul.f32	s15, s0, s15
 4601 049c 87EEA67A 		vdiv.f32	s14, s15, s13
 4602 04a0 89ED007A 		vstr.32	s14, [r9]
 4603              		.loc 1 1117 0
 4604 04a4 002F     		cmp	r7, #0
 4605 04a6 78D1     		bne	.L429
 4606              	.L387:
 4607              		.loc 1 1121 0
 4608 04a8 4846     		mov	r0, r9
 4609 04aa FFF7FEFF 		bl	utils_norm_angle
 4610              	.LVL333:
 4611              	.L388:
 4612              		.loc 1 1128 0
 4613 04ae 4748     		ldr	r0, .L432+8
 4614              		.loc 1 1127 0
 4615 04b0 4749     		ldr	r1, .L432+12
 4616 04b2 0022     		movs	r2, #0
 4617 04b4 0A60     		str	r2, [r1]	@ float
ARM GAS  C:\Users\CHRIST~1\AppData\Local\Temp\ccGCVH4j.s 			page 82


 4618              		.loc 1 1128 0
 4619 04b6 0260     		str	r2, [r0]	@ float
 4620              		.loc 1 1129 0
 4621 04b8 464A     		ldr	r2, .L432+16
 4622 04ba 0023     		movs	r3, #0
 4623 04bc 1370     		strb	r3, [r2]
 4624              		.loc 1 1130 0
 4625 04be 464A     		ldr	r2, .L432+20
 4626 04c0 0721     		movs	r1, #7
 4627 04c2 1170     		strb	r1, [r2]
 4628              		.loc 1 1131 0
 4629 04c4 454A     		ldr	r2, .L432+24
 4630 04c6 1370     		strb	r3, [r2]
 4631              		.loc 1 1132 0
 4632 04c8 FFF7FEFF 		bl	stop_pwm_hw
 4633              	.LVL334:
 4634              		.loc 1 1135 0
 4635 04cc B5EE409A 		vcmp.f32	s18, #0
 4636 04d0 D8F80030 		ldr	r3, [r8]
 4637              		.loc 1 1140 0
 4638 04d4 0198     		ldr	r0, [sp, #4]
 4639              		.loc 1 1135 0
 4640 04d6 F1EE10FA 		vmrs	APSR_nzcv, FPSCR
 4641 04da 14BF     		ite	ne
 4642 04dc 0122     		movne	r2, #1
 4643 04de 0022     		moveq	r2, #0
 4644 04e0 83F8B820 		strb	r2, [r3, #184]
 4645              		.loc 1 1140 0
 4646 04e4 B0EE690A 		vmov.f32	s0, s19
 4647              		.loc 1 1136 0
 4648 04e8 83ED2DAA 		vstr.32	s20, [r3, #180]
 4649              		.loc 1 1137 0
 4650 04ec C3ED2FAA 		vstr.32	s21, [r3, #188]
 4651              		.loc 1 1140 0
 4652 04f0 FFF7FEFF 		bl	timeout_configure
 4653              	.LVL335:
 4654              		.loc 1 1143 0
 4655 04f4 07B0     		add	sp, sp, #28
 4656              		.cfi_remember_state
 4657              		.cfi_def_cfa_offset 92
 4658              		@ sp needed
 4659 04f6 BDEC0E8B 		vldm	sp!, {d8-d14}
 4660              		.cfi_restore 92
 4661              		.cfi_restore 93
 4662              		.cfi_restore 90
 4663              		.cfi_restore 91
 4664              		.cfi_restore 88
 4665              		.cfi_restore 89
 4666              		.cfi_restore 86
 4667              		.cfi_restore 87
 4668              		.cfi_restore 84
 4669              		.cfi_restore 85
 4670              		.cfi_restore 82
 4671              		.cfi_restore 83
 4672              		.cfi_restore 80
 4673              		.cfi_restore 81
 4674              		.cfi_def_cfa_offset 36
ARM GAS  C:\Users\CHRIST~1\AppData\Local\Temp\ccGCVH4j.s 			page 83


 4675              	.LVL336:
 4676 04fa BDE8F04F 		pop	{r4, r5, r6, r7, r8, r9, r10, fp, lr}
 4677              		.cfi_restore 14
 4678              		.cfi_restore 11
 4679              		.cfi_restore 10
 4680              		.cfi_restore 9
 4681              		.cfi_restore 8
 4682              		.cfi_restore 7
 4683              		.cfi_restore 6
 4684              		.cfi_restore 5
 4685              		.cfi_restore 4
 4686              		.cfi_def_cfa_offset 0
 4687              	.LVL337:
 4688              		.loc 1 1142 0
 4689 04fe FFF7FEBF 		b	mc_interface_unlock
 4690              	.LVL338:
 4691              	.L423:
 4692              		.cfi_restore_state
 4693              	.LBB94:
 4694              	.LBB76:
 4695              		.loc 1 1022 0
 4696 0502 68EE0E7A 		vmul.f32	s15, s16, s28
 4697 0506 C7EEAD7A 		vdiv.f32	s15, s15, s27
 4698 050a 17EE900A 		vmov	r0, s15
 4699 050e FFF7FEFF 		bl	__aeabi_f2d
 4700              	.LVL339:
 4701 0512 0246     		mov	r2, r0
 4702 0514 0B46     		mov	r3, r1
 4703 0516 5846     		mov	r0, fp
 4704 0518 FFF7FEFF 		bl	commands_printf
 4705              	.LVL340:
 4706 051c 2CE6     		b	.L361
 4707              	.LVL341:
 4708              	.L424:
 4709              	.LBE76:
 4710              	.LBE94:
 4711              	.LBB95:
 4712              	.LBB83:
 4713              		.loc 1 1050 0
 4714 051e 68EE0E7A 		vmul.f32	s15, s16, s28
 4715 0522 C7EEAD7A 		vdiv.f32	s15, s15, s27
 4716 0526 17EE900A 		vmov	r0, s15
 4717 052a FFF7FEFF 		bl	__aeabi_f2d
 4718              	.LVL342:
 4719 052e 0246     		mov	r2, r0
 4720 0530 0B46     		mov	r3, r1
 4721 0532 5846     		mov	r0, fp
 4722 0534 FFF7FEFF 		bl	commands_printf
 4723              	.LVL343:
 4724 0538 7AE6     		b	.L370
 4725              	.LVL344:
 4726              	.L425:
 4727              	.LBE83:
 4728              	.LBE95:
 4729              		.loc 1 1067 0
 4730 053a 2948     		ldr	r0, .L432+28
 4731 053c FFF7FEFF 		bl	commands_printf
ARM GAS  C:\Users\CHRIST~1\AppData\Local\Temp\ccGCVH4j.s 			page 84


 4732              	.LVL345:
 4733              	.LBB96:
 4734              		.loc 1 1071 0
 4735 0540 94ED008A 		vldr.32	s16, [r4]
 4736              	.LVL346:
 4737 0544 DFED277A 		vldr.32	s15, .L432+32
 4738 0548 B4EEE78A 		vcmpe.f32	s16, s15
 4739 054c F1EE10FA 		vmrs	APSR_nzcv, FPSCR
 4740 0550 3FF5BAAE 		bmi	.L377
 4741              	.L381:
 4742              	.LBE96:
 4743              		.loc 1 1077 0
 4744 0554 2448     		ldr	r0, .L432+36
 4745 0556 FFF7FEFF 		bl	commands_printf
 4746              	.LVL347:
 4747              		.loc 1 1078 0
 4748 055a FFF7FEFF 		bl	encoder_read_deg
 4749              	.LVL348:
 4750 055e 10EE100A 		vmov	r0, s0
 4751 0562 FFF7FEFF 		bl	__aeabi_f2d
 4752              	.LVL349:
 4753 0566 0246     		mov	r2, r0
 4754 0568 0B46     		mov	r3, r1
 4755 056a 2048     		ldr	r0, .L432+40
 4756 056c FFF7FEFF 		bl	commands_printf
 4757              	.LVL350:
 4758 0570 D8F80030 		ldr	r3, [r8]
 4759              		.loc 1 1081 0
 4760 0574 D3ED2F7A 		vldr.32	s15, [r3, #188]
 4761 0578 B0EE087A 		vmov.f32	s14, #3.0e+0
 4762 057c 67EE877A 		vmul.f32	s15, s15, s14
 4763 0580 FDEEE77A 		vcvt.s32.f32	s15, s15
 4764 0584 17EE90AA 		vmov	r10, s15	@ int
 4765              	.LVL351:
 4766              	.LBB97:
 4767              		.loc 1 1085 0
 4768 0588 BAF1000F 		cmp	r10, #0
 4769 058c 3FF7BFAE 		bgt	.L378
 4770              	.LBE97:
 4771              		.loc 1 1083 0
 4772 0590 9FED178A 		vldr.32	s16, .L432+44
 4773              	.LVL352:
 4774              		.loc 1 1082 0
 4775 0594 F0EE488A 		vmov.f32	s17, s16
 4776 0598 74E7     		b	.L379
 4777              	.LVL353:
 4778              	.L429:
 4779              		.loc 1 1118 0
 4780 059a 17EE100A 		vmov	r0, s14
 4781 059e FFF7FEFF 		bl	__aeabi_f2d
 4782              	.LVL354:
 4783 05a2 0246     		mov	r2, r0
 4784 05a4 0B46     		mov	r3, r1
 4785 05a6 1348     		ldr	r0, .L432+48
 4786 05a8 FFF7FEFF 		bl	commands_printf
 4787              	.LVL355:
 4788              		.loc 1 1121 0
ARM GAS  C:\Users\CHRIST~1\AppData\Local\Temp\ccGCVH4j.s 			page 85


 4789 05ac 4846     		mov	r0, r9
 4790 05ae FFF7FEFF 		bl	utils_norm_angle
 4791              	.LVL356:
 4792              		.loc 1 1124 0
 4793 05b2 1148     		ldr	r0, .L432+52
 4794 05b4 FFF7FEFF 		bl	commands_printf
 4795              	.LVL357:
 4796 05b8 79E7     		b	.L388
 4797              	.LVL358:
 4798              	.L426:
 4799              		.loc 1 1115 0
 4800 05ba 0023     		movs	r3, #0
 4801 05bc C9F80030 		str	r3, [r9]	@ float
 4802 05c0 72E7     		b	.L387
 4803              	.L433:
 4804 05c2 00BF     		.align	2
 4805              	.L432:
 4806 05c4 00003443 		.word	1127481344
 4807 05c8 DB0F4940 		.word	1078530011
 4808 05cc 00000000 		.word	.LANCHOR22
 4809 05d0 00000000 		.word	.LANCHOR31
 4810 05d4 00000000 		.word	.LANCHOR28
 4811 05d8 00000000 		.word	.LANCHOR14
 4812 05dc 00000000 		.word	.LANCHOR7
 4813 05e0 28000000 		.word	.LC4
 4814 05e4 DB0FC940 		.word	1086918619
 4815 05e8 0C000000 		.word	.LC2
 4816 05ec 48000000 		.word	.LC5
 4817 05f0 00000000 		.word	0
 4818 05f4 54000000 		.word	.LC6
 4819 05f8 60000000 		.word	.LC7
 4820 05fc 20000000 		.word	.LC3
 4821              		.cfi_endproc
 4822              	.LFE296:
 4823              		.size	mcpwm_foc_encoder_detect, .-mcpwm_foc_encoder_detect
 4824              		.section	.text.mcpwm_foc_measure_resistance,"ax",%progbits
 4825              		.align	1
 4826              		.p2align 4,,15
 4827              		.global	mcpwm_foc_measure_resistance
 4828              		.syntax unified
 4829              		.thumb
 4830              		.thumb_func
 4831              		.fpu fpv4-sp-d16
 4832              		.type	mcpwm_foc_measure_resistance, %function
 4833              	mcpwm_foc_measure_resistance:
 4834              	.LFB297:
 4835              		.loc 1 1158 0
 4836              		.cfi_startproc
 4837              		@ args = 0, pretend = 0, frame = 8
 4838              		@ frame_needed = 0, uses_anonymous_args = 0
 4839              	.LVL359:
 4840 0000 2DE9F04F 		push	{r4, r5, r6, r7, r8, r9, r10, fp, lr}
 4841              		.cfi_def_cfa_offset 36
 4842              		.cfi_offset 4, -36
 4843              		.cfi_offset 5, -32
 4844              		.cfi_offset 6, -28
 4845              		.cfi_offset 7, -24
ARM GAS  C:\Users\CHRIST~1\AppData\Local\Temp\ccGCVH4j.s 			page 86


 4846              		.cfi_offset 8, -20
 4847              		.cfi_offset 9, -16
 4848              		.cfi_offset 10, -12
 4849              		.cfi_offset 11, -8
 4850              		.cfi_offset 14, -4
 4851 0004 2DED048B 		vpush.64	{d8, d9}
 4852              		.cfi_def_cfa_offset 52
 4853              		.cfi_offset 80, -52
 4854              		.cfi_offset 81, -48
 4855              		.cfi_offset 82, -44
 4856              		.cfi_offset 83, -40
 4857 0008 83B0     		sub	sp, sp, #12
 4858              		.cfi_def_cfa_offset 64
 4859              		.loc 1 1158 0
 4860 000a F0EE408A 		vmov.f32	s17, s0
 4861              		.loc 1 1162 0
 4862 000e 9FED388A 		vldr.32	s16, .L441
 4863              		.loc 1 1161 0
 4864 0012 DFF8F490 		ldr	r9, .L441+24
 4865              		.loc 1 1163 0
 4866 0016 DFF8F4A0 		ldr	r10, .L441+28
 4867              		.loc 1 1164 0
 4868 001a DFF8F480 		ldr	r8, .L441+32
 4869              		.loc 1 1165 0
 4870 001e 354E     		ldr	r6, .L441+4
 4871              		.loc 1 1166 0
 4872 0020 354F     		ldr	r7, .L441+8
 4873              		.loc 1 1178 0
 4874 0022 364C     		ldr	r4, .L441+12
 4875              		.loc 1 1158 0
 4876 0024 0546     		mov	r5, r0
 4877              		.loc 1 1159 0
 4878 0026 FFF7FEFF 		bl	mc_interface_lock
 4879              	.LVL360:
 4880              		.loc 1 1162 0
 4881 002a 354A     		ldr	r2, .L441+16
 4882              		.loc 1 1165 0
 4883 002c 0223     		movs	r3, #2
 4884              		.loc 1 1161 0
 4885 002e 0121     		movs	r1, #1
 4886 0030 89F80010 		strb	r1, [r9]
 4887              		.loc 1 1162 0
 4888 0034 82ED008A 		vstr.32	s16, [r2]
 4889              		.loc 1 1163 0
 4890 0038 8AED008A 		vstr.32	s16, [r10]
 4891              		.loc 1 1164 0
 4892 003c C8ED008A 		vstr.32	s17, [r8]
 4893              		.loc 1 1165 0
 4894 0040 3370     		strb	r3, [r6]
 4895              		.loc 1 1166 0
 4896 0042 3B70     		strb	r3, [r7]
 4897              		.loc 1 1169 0
 4898 0044 FFF7FEFF 		bl	timeout_get_timeout_msec
 4899              	.LVL361:
 4900 0048 0190     		str	r0, [sp, #4]
 4901              	.LVL362:
 4902              		.loc 1 1170 0
ARM GAS  C:\Users\CHRIST~1\AppData\Local\Temp\ccGCVH4j.s 			page 87


 4903 004a FFF7FEFF 		bl	timeout_get_brake_current
 4904              	.LVL363:
 4905 004e F0EE408A 		vmov.f32	s17, s0
 4906              	.LVL364:
 4907              		.loc 1 1171 0
 4908 0052 FFF7FEFF 		bl	timeout_reset
 4909              	.LVL365:
 4910              		.loc 1 1172 0
 4911 0056 B0EE480A 		vmov.f32	s0, s16
 4912 005a 4EF66020 		movw	r0, #60000
 4913 005e FFF7FEFF 		bl	timeout_configure
 4914              	.LVL366:
 4915              		.loc 1 1175 0
 4916 0062 41F28830 		movw	r0, #5000
 4917 0066 FFF7FEFF 		bl	chThdSleep
 4918              	.LVL367:
 4919              		.loc 1 1180 0
 4920 006a 0023     		movs	r3, #0
 4921              		.loc 1 1178 0
 4922 006c 84ED018A 		vstr.32	s16, [r4, #4]
 4923              		.loc 1 1183 0
 4924 0070 42F2117B 		movw	fp, #10001
 4925              		.loc 1 1179 0
 4926 0074 84ED028A 		vstr.32	s16, [r4, #8]
 4927              		.loc 1 1180 0
 4928 0078 2360     		str	r3, [r4]
 4929              	.LVL368:
 4930              		.loc 1 1183 0
 4931 007a 04E0     		b	.L435
 4932              	.LVL369:
 4933              	.L436:
 4934              		.loc 1 1184 0
 4935 007c FFF7FEFF 		bl	chThdSleep
 4936              	.LVL370:
 4937              		.loc 1 1187 0
 4938 0080 BBF1010B 		subs	fp, fp, #1
 4939              	.LVL371:
 4940 0084 04D0     		beq	.L437
 4941              	.LVL372:
 4942              	.L435:
 4943              		.loc 1 1183 0
 4944 0086 2268     		ldr	r2, [r4]
 4945 0088 AA42     		cmp	r2, r5
 4946              		.loc 1 1184 0
 4947 008a 4FF00A00 		mov	r0, #10
 4948              		.loc 1 1183 0
 4949 008e F5DB     		blt	.L436
 4950              	.LVL373:
 4951              	.L437:
 4952              		.loc 1 1192 0
 4953 0090 94ED016A 		vldr.32	s12, [r4, #4]
 4954 0094 94ED007A 		vldr.32	s14, [r4]	@ int
 4955              		.loc 1 1193 0
 4956 0098 D4ED026A 		vldr.32	s13, [r4, #8]
 4957 009c D4ED007A 		vldr.32	s15, [r4]	@ int
 4958              		.loc 1 1192 0
 4959 00a0 B8EEC77A 		vcvt.f32.s32	s14, s14
ARM GAS  C:\Users\CHRIST~1\AppData\Local\Temp\ccGCVH4j.s 			page 88


 4960              		.loc 1 1193 0
 4961 00a4 F8EEE77A 		vcvt.f32.s32	s15, s15
 4962              		.loc 1 1192 0
 4963 00a8 86EE078A 		vdiv.f32	s16, s12, s14
 4964              	.LVL374:
 4965              		.loc 1 1196 0
 4966 00ac 0022     		movs	r2, #0
 4967              		.loc 1 1198 0
 4968 00ae 0023     		movs	r3, #0
 4969              		.loc 1 1199 0
 4970 00b0 0721     		movs	r1, #7
 4971              		.loc 1 1196 0
 4972 00b2 CAF80020 		str	r2, [r10]	@ float
 4973              		.loc 1 1197 0
 4974 00b6 C8F80020 		str	r2, [r8]	@ float
 4975              		.loc 1 1198 0
 4976 00ba 89F80030 		strb	r3, [r9]
 4977              		.loc 1 1199 0
 4978 00be 3170     		strb	r1, [r6]
 4979              		.loc 1 1200 0
 4980 00c0 3B70     		strb	r3, [r7]
 4981              		.loc 1 1193 0
 4982 00c2 86EEA79A 		vdiv.f32	s18, s13, s15
 4983              	.LVL375:
 4984              		.loc 1 1201 0
 4985 00c6 FFF7FEFF 		bl	stop_pwm_hw
 4986              	.LVL376:
 4987              		.loc 1 1204 0
 4988 00ca 0198     		ldr	r0, [sp, #4]
 4989 00cc B0EE680A 		vmov.f32	s0, s17
 4990 00d0 FFF7FEFF 		bl	timeout_configure
 4991              	.LVL377:
 4992              		.loc 1 1206 0
 4993 00d4 FFF7FEFF 		bl	mc_interface_unlock
 4994              	.LVL378:
 4995              		.loc 1 1208 0
 4996 00d8 89EE080A 		vdiv.f32	s0, s18, s16
 4997 00dc DFED097A 		vldr.32	s15, .L441+20
 4998 00e0 20EE270A 		vmul.f32	s0, s0, s15
 4999              		.loc 1 1209 0
 5000 00e4 03B0     		add	sp, sp, #12
 5001              		.cfi_def_cfa_offset 52
 5002              		@ sp needed
 5003 00e6 BDEC048B 		vldm	sp!, {d8-d9}
 5004              		.cfi_restore 82
 5005              		.cfi_restore 83
 5006              		.cfi_restore 80
 5007              		.cfi_restore 81
 5008              		.cfi_def_cfa_offset 36
 5009              	.LVL379:
 5010 00ea BDE8F08F 		pop	{r4, r5, r6, r7, r8, r9, r10, fp, pc}
 5011              	.LVL380:
 5012              	.L442:
 5013 00ee 00BF     		.align	2
 5014              	.L441:
 5015 00f0 00000000 		.word	0
 5016 00f4 00000000 		.word	.LANCHOR14
ARM GAS  C:\Users\CHRIST~1\AppData\Local\Temp\ccGCVH4j.s 			page 89


 5017 00f8 00000000 		.word	.LANCHOR7
 5018 00fc 00000000 		.word	.LANCHOR17
 5019 0100 00000000 		.word	.LANCHOR29
 5020 0104 ABAA2A3F 		.word	1059760811
 5021 0108 00000000 		.word	.LANCHOR28
 5022 010c 00000000 		.word	.LANCHOR31
 5023 0110 00000000 		.word	.LANCHOR22
 5024              		.cfi_endproc
 5025              	.LFE297:
 5026              		.size	mcpwm_foc_measure_resistance, .-mcpwm_foc_measure_resistance
 5027              		.section	.text.mcpwm_foc_measure_inductance,"ax",%progbits
 5028              		.align	1
 5029              		.p2align 4,,15
 5030              		.global	mcpwm_foc_measure_inductance
 5031              		.syntax unified
 5032              		.thumb
 5033              		.thumb_func
 5034              		.fpu fpv4-sp-d16
 5035              		.type	mcpwm_foc_measure_inductance, %function
 5036              	mcpwm_foc_measure_inductance:
 5037              	.LFB298:
 5038              		.loc 1 1226 0
 5039              		.cfi_startproc
 5040              		@ args = 0, pretend = 0, frame = 0
 5041              		@ frame_needed = 0, uses_anonymous_args = 0
 5042              	.LVL381:
 5043 0000 2DE9F84F 		push	{r3, r4, r5, r6, r7, r8, r9, r10, fp, lr}
 5044              		.cfi_def_cfa_offset 40
 5045              		.cfi_offset 3, -40
 5046              		.cfi_offset 4, -36
 5047              		.cfi_offset 5, -32
 5048              		.cfi_offset 6, -28
 5049              		.cfi_offset 7, -24
 5050              		.cfi_offset 8, -20
 5051              		.cfi_offset 9, -16
 5052              		.cfi_offset 10, -12
 5053              		.cfi_offset 11, -8
 5054              		.cfi_offset 14, -4
 5055              		.loc 1 1227 0
 5056 0004 394D     		ldr	r5, .L459
 5057              		.loc 1 1226 0
 5058 0006 2DED028B 		vpush.64	{d8}
 5059              		.cfi_def_cfa_offset 48
 5060              		.cfi_offset 80, -48
 5061              		.cfi_offset 81, -44
 5062              		.loc 1 1227 0
 5063 000a DFED398A 		vldr.32	s17, .L459+4
 5064              		.loc 1 1229 0
 5065 000e 0027     		movs	r7, #0
 5066              		.loc 1 1226 0
 5067 0010 8A46     		mov	r10, r1
 5068              		.loc 1 1227 0
 5069 0012 C5ED018A 		vstr.32	s17, [r5, #4]
 5070              		.loc 1 1226 0
 5071 0016 8046     		mov	r8, r0
 5072              		.loc 1 1228 0
 5073 0018 C5ED028A 		vstr.32	s17, [r5, #8]
ARM GAS  C:\Users\CHRIST~1\AppData\Local\Temp\ccGCVH4j.s 			page 90


 5074              		.loc 1 1229 0
 5075 001c 2F60     		str	r7, [r5]
 5076              		.loc 1 1230 0
 5077 001e 85ED040A 		vstr.32	s0, [r5, #16]
 5078              		.loc 1 1233 0
 5079 0022 FFF7FEFF 		bl	timeout_get_timeout_msec
 5080              	.LVL382:
 5081 0026 8346     		mov	fp, r0
 5082              	.LVL383:
 5083              		.loc 1 1234 0
 5084 0028 FFF7FEFF 		bl	timeout_get_brake_current
 5085              	.LVL384:
 5086 002c B0EE408A 		vmov.f32	s16, s0
 5087              	.LVL385:
 5088              		.loc 1 1235 0
 5089 0030 FFF7FEFF 		bl	timeout_reset
 5090              	.LVL386:
 5091              		.loc 1 1236 0
 5092 0034 B0EE680A 		vmov.f32	s0, s17
 5093 0038 4EF66020 		movw	r0, #60000
 5094 003c FFF7FEFF 		bl	timeout_configure
 5095              	.LVL387:
 5096              		.loc 1 1238 0
 5097 0040 FFF7FEFF 		bl	mc_interface_lock
 5098              	.LVL388:
 5099              	.LBB98:
 5100              		.loc 1 1241 0
 5101 0044 B845     		cmp	r8, r7
 5102 0046 10DD     		ble	.L444
 5103              	.LBE98:
 5104              		.loc 1 1240 0
 5105 0048 3C46     		mov	r4, r7
 5106              	.LBB99:
 5107              		.loc 1 1242 0
 5108 004a 4FF00109 		mov	r9, #1
 5109              		.loc 1 1247 0
 5110 004e 4CF25036 		movw	r6, #50000
 5111              	.LVL389:
 5112              	.L448:
 5113              		.loc 1 1242 0
 5114 0052 85F80C90 		strb	r9, [r5, #12]
 5115 0056 02E0     		b	.L445
 5116              	.L458:
 5117              		.loc 1 1250 0
 5118 0058 2B7B     		ldrb	r3, [r5, #12]	@ zero_extendqisi2
 5119 005a 002B     		cmp	r3, #0
 5120 005c 42D0     		beq	.L457
 5121              	.L445:
 5122              		.loc 1 1246 0
 5123 005e 0134     		adds	r4, r4, #1
 5124              	.LVL390:
 5125              		.loc 1 1245 0
 5126 0060 0120     		movs	r0, #1
 5127 0062 FFF7FEFF 		bl	chThdSleep
 5128              	.LVL391:
 5129              		.loc 1 1247 0
 5130 0066 B442     		cmp	r4, r6
ARM GAS  C:\Users\CHRIST~1\AppData\Local\Temp\ccGCVH4j.s 			page 91


 5131 0068 F6DD     		ble	.L458
 5132              	.LVL392:
 5133              	.L444:
 5134              	.LBE99:
 5135              		.loc 1 1258 0
 5136 006a B0EE480A 		vmov.f32	s0, s16
 5137 006e 5846     		mov	r0, fp
 5138 0070 FFF7FEFF 		bl	timeout_configure
 5139              	.LVL393:
 5140              		.loc 1 1260 0
 5141 0074 FFF7FEFF 		bl	mc_interface_unlock
 5142              	.LVL394:
 5143              		.loc 1 1264 0
 5144 0078 1E4B     		ldr	r3, .L459+8
 5145              		.loc 1 1262 0
 5146 007a D5ED014A 		vldr.32	s9, [r5, #4]
 5147 007e D5ED006A 		vldr.32	s13, [r5]	@ int
 5148              		.loc 1 1263 0
 5149 0082 95ED025A 		vldr.32	s10, [r5, #8]
 5150 0086 95ED007A 		vldr.32	s14, [r5]	@ int
 5151              		.loc 1 1264 0
 5152 008a D3ED0B7A 		vldr.32	s15, [r3, #44]	@ int
 5153 008e 95ED046A 		vldr.32	s12, [r5, #16]
 5154 0092 9FED194A 		vldr.32	s8, .L459+12
 5155 0096 DFED195A 		vldr.32	s11, .L459+16
 5156 009a F8EE677A 		vcvt.f32.u32	s15, s15
 5157              		.loc 1 1262 0
 5158 009e F8EEE66A 		vcvt.f32.s32	s13, s13
 5159              		.loc 1 1264 0
 5160 00a2 67EE867A 		vmul.f32	s15, s15, s12
 5161              		.loc 1 1263 0
 5162 00a6 B8EEC77A 		vcvt.f32.s32	s14, s14
 5163              		.loc 1 1264 0
 5164 00aa 87EE846A 		vdiv.f32	s12, s15, s8
 5165              		.loc 1 1262 0
 5166 00ae 84EEA64A 		vdiv.f32	s8, s9, s13
 5167              	.LVL395:
 5168              		.loc 1 1263 0
 5169 00b2 C5EE077A 		vdiv.f32	s15, s10, s14
 5170              	.LVL396:
 5171              		.loc 1 1264 0
 5172 00b6 36EE656A 		vsub.f32	s12, s12, s11
 5173              	.LVL397:
 5174              		.loc 1 1267 0
 5175 00ba BAF1000F 		cmp	r10, #0
 5176 00be 01D0     		beq	.L447
 5177              		.loc 1 1268 0
 5178 00c0 8AED004A 		vstr.32	s8, [r10]
 5179              	.L447:
 5180              		.loc 1 1271 0
 5181 00c4 27EE866A 		vmul.f32	s12, s15, s12
 5182              	.LVL398:
 5183              		.loc 1 1272 0
 5184 00c8 BDEC028B 		vldm	sp!, {d8}
 5185              		.cfi_remember_state
 5186              		.cfi_restore 80
 5187              		.cfi_restore 81
ARM GAS  C:\Users\CHRIST~1\AppData\Local\Temp\ccGCVH4j.s 			page 92


 5188              		.cfi_def_cfa_offset 40
 5189              	.LVL399:
 5190              		.loc 1 1271 0
 5191 00cc 86EE040A 		vdiv.f32	s0, s12, s8
 5192 00d0 9FED0B7A 		vldr.32	s14, .L459+20
 5193 00d4 DFED0B7A 		vldr.32	s15, .L459+24
 5194              	.LVL400:
 5195 00d8 20EE070A 		vmul.f32	s0, s0, s14
 5196 00dc 20EE270A 		vmul.f32	s0, s0, s15
 5197              		.loc 1 1272 0
 5198 00e0 BDE8F88F 		pop	{r3, r4, r5, r6, r7, r8, r9, r10, fp, pc}
 5199              	.LVL401:
 5200              	.L457:
 5201              		.cfi_restore_state
 5202              	.LBB100:
 5203              		.loc 1 1241 0
 5204 00e4 0137     		adds	r7, r7, #1
 5205              	.LVL402:
 5206 00e6 B845     		cmp	r8, r7
 5207 00e8 B3D1     		bne	.L448
 5208 00ea BEE7     		b	.L444
 5209              	.L460:
 5210              		.align	2
 5211              	.L459:
 5212 00ec 00000000 		.word	.LANCHOR17
 5213 00f0 00000000 		.word	0
 5214 00f4 00000140 		.word	1073807360
 5215 00f8 A037204D 		.word	1293957024
 5216 00fc 57BDBF34 		.word	884981079
 5217 0100 00247449 		.word	1232348160
 5218 0104 ABAA2A3F 		.word	1059760811
 5219              	.LBE100:
 5220              		.cfi_endproc
 5221              	.LFE298:
 5222              		.size	mcpwm_foc_measure_inductance, .-mcpwm_foc_measure_inductance
 5223              		.section	.text.mcpwm_foc_measure_res_ind,"ax",%progbits
 5224              		.align	1
 5225              		.p2align 4,,15
 5226              		.global	mcpwm_foc_measure_res_ind
 5227              		.syntax unified
 5228              		.thumb
 5229              		.thumb_func
 5230              		.fpu fpv4-sp-d16
 5231              		.type	mcpwm_foc_measure_res_ind, %function
 5232              	mcpwm_foc_measure_res_ind:
 5233              	.LFB299:
 5234              		.loc 1 1286 0
 5235              		.cfi_startproc
 5236              		@ args = 0, pretend = 0, frame = 8
 5237              		@ frame_needed = 0, uses_anonymous_args = 0
 5238              	.LVL403:
 5239 0000 2DE9F043 		push	{r4, r5, r6, r7, r8, r9, lr}
 5240              		.cfi_def_cfa_offset 28
 5241              		.cfi_offset 4, -28
 5242              		.cfi_offset 5, -24
 5243              		.cfi_offset 6, -20
 5244              		.cfi_offset 7, -16
ARM GAS  C:\Users\CHRIST~1\AppData\Local\Temp\ccGCVH4j.s 			page 93


 5245              		.cfi_offset 8, -12
 5246              		.cfi_offset 9, -8
 5247              		.cfi_offset 14, -4
 5248              		.loc 1 1287 0
 5249 0004 734D     		ldr	r5, .L477
 5250              		.loc 1 1291 0
 5251 0006 744A     		ldr	r2, .L477+4
 5252              		.loc 1 1287 0
 5253 0008 2B68     		ldr	r3, [r5]
 5254              		.loc 1 1296 0
 5255 000a 744C     		ldr	r4, .L477+8
 5256              		.loc 1 1287 0
 5257 000c D3F8AC90 		ldr	r9, [r3, #172]	@ float
 5258              	.LVL404:
 5259              		.loc 1 1292 0
 5260 0010 734E     		ldr	r6, .L477+12
 5261              		.loc 1 1288 0
 5262 0012 D3F8A480 		ldr	r8, [r3, #164]	@ float
 5263              	.LVL405:
 5264              		.loc 1 1289 0
 5265 0016 D3F8A870 		ldr	r7, [r3, #168]	@ float
 5266              	.LVL406:
 5267              		.loc 1 1286 0
 5268 001a 2DED048B 		vpush.64	{d8, d9}
 5269              		.cfi_def_cfa_offset 44
 5270              		.cfi_offset 80, -44
 5271              		.cfi_offset 81, -40
 5272              		.cfi_offset 82, -36
 5273              		.cfi_offset 83, -32
 5274              		.loc 1 1291 0
 5275 001e C3F8AC20 		str	r2, [r3, #172]	@ float
 5276              		.loc 1 1293 0
 5277 0022 704A     		ldr	r2, .L477+16
 5278              		.loc 1 1292 0
 5279 0024 C3F8A460 		str	r6, [r3, #164]	@ float
 5280              		.loc 1 1293 0
 5281 0028 C3F8A820 		str	r2, [r3, #168]	@ float
 5282              		.loc 1 1295 0
 5283 002c D3ED2B7A 		vldr.32	s15, [r3, #172]
 5284              		.loc 1 1296 0
 5285 0030 D4F800C0 		ldr	ip, [r4]
 5286 0034 6C4A     		ldr	r2, .L477+20
 5287              		.loc 1 1295 0
 5288 0036 6D4E     		ldr	r6, .L477+24
 5289              		.loc 1 1296 0
 5290 0038 4CF0020C 		orr	ip, ip, #2
 5291 003c C4F800C0 		str	ip, [r4]
 5292 0040 D2F800C0 		ldr	ip, [r2]
 5293              		.loc 1 1295 0
 5294 0044 FDEEE77A 		vcvt.s32.f32	s15, s15
 5295              		.loc 1 1296 0
 5296 0048 4CF0020C 		orr	ip, ip, #2
 5297 004c C2F800C0 		str	ip, [r2]
 5298              		.loc 1 1295 0
 5299 0050 17EE90CA 		vmov	ip, s15	@ int
 5300              		.loc 1 1296 0
 5301 0054 4FF0020E 		mov	lr, #2
ARM GAS  C:\Users\CHRIST~1\AppData\Local\Temp\ccGCVH4j.s 			page 94


 5302              		.loc 1 1295 0
 5303 0058 96FBFCF6 		sdiv	r6, r6, ip
 5304              	.LVL407:
 5305              		.loc 1 1296 0
 5306 005c E662     		str	r6, [r4, #44]
 5307 005e C2F834E0 		str	lr, [r2, #52]
 5308 0062 2668     		ldr	r6, [r4]
 5309              	.LVL408:
 5310 0064 26F00206 		bic	r6, r6, #2
 5311 0068 2660     		str	r6, [r4]
 5312 006a 1468     		ldr	r4, [r2]
 5313 006c 24F00204 		bic	r4, r4, #2
 5314 0070 1460     		str	r4, [r2]
 5315              	.LVL409:
 5316              	.LBB101:
 5317              		.loc 1 1300 0
 5318 0072 D3ED017A 		vldr.32	s15, [r3, #4]
 5319 0076 B6EE007A 		vmov.f32	s14, #5.0e-1
 5320 007a 67EE877A 		vmul.f32	s15, s15, s14
 5321 007e B0EE008A 		vmov.f32	s16, #2.0e+0
 5322 0082 F4EEC87A 		vcmpe.f32	s15, s16
 5323 0086 F1EE10FA 		vmrs	APSR_nzcv, FPSCR
 5324              	.LBE101:
 5325              		.loc 1 1286 0
 5326 008a 83B0     		sub	sp, sp, #12
 5327              		.cfi_def_cfa_offset 56
 5328              		.loc 1 1286 0
 5329 008c 0446     		mov	r4, r0
 5330 008e 0E46     		mov	r6, r1
 5331              	.LBB102:
 5332              		.loc 1 1300 0
 5333 0090 26DD     		ble	.L462
 5334              		.loc 1 1303 0
 5335 0092 F7EE008A 		vmov.f32	s17, #1.0e+0
 5336              		.loc 1 1300 0
 5337 0096 B7EE089A 		vmov.f32	s18, #1.5e+0
 5338 009a 0BE0     		b	.L465
 5339              	.LVL410:
 5340              	.L476:
 5341              		.loc 1 1300 0 is_stmt 0 discriminator 2
 5342 009c 2B68     		ldr	r3, [r5]
 5343 009e D3ED017A 		vldr.32	s15, [r3, #4]
 5344 00a2 28EE098A 		vmul.f32	s16, s16, s18
 5345              	.LVL411:
 5346 00a6 67EE877A 		vmul.f32	s15, s15, s14
 5347 00aa F4EEC87A 		vcmpe.f32	s15, s16
 5348 00ae F1EE10FA 		vmrs	APSR_nzcv, FPSCR
 5349 00b2 15DD     		ble	.L462
 5350              	.LVL412:
 5351              	.L465:
 5352              		.loc 1 1301 0 is_stmt 1
 5353 00b4 1420     		movs	r0, #20
 5354 00b6 B0EE480A 		vmov.f32	s0, s16
 5355 00ba FFF7FEFF 		bl	mcpwm_foc_measure_resistance
 5356              	.LVL413:
 5357              		.loc 1 1303 0
 5358 00be 88EE800A 		vdiv.f32	s0, s17, s0
ARM GAS  C:\Users\CHRIST~1\AppData\Local\Temp\ccGCVH4j.s 			page 95


 5359              	.LVL414:
 5360              		.loc 1 1300 0
 5361 00c2 B6EE007A 		vmov.f32	s14, #5.0e-1
 5362              		.loc 1 1303 0
 5363 00c6 B4EEC80A 		vcmpe.f32	s0, s16
 5364 00ca F1EE10FA 		vmrs	APSR_nzcv, FPSCR
 5365 00ce E5D5     		bpl	.L476
 5366              	.LVL415:
 5367              	.LBE102:
 5368              		.loc 1 1309 0
 5369 00d0 DFED477A 		vldr.32	s15, .L477+28
 5370 00d4 B4EEE78A 		vcmpe.f32	s16, s15
 5371 00d8 F1EE10FA 		vmrs	APSR_nzcv, FPSCR
 5372 00dc 06D5     		bpl	.L466
 5373 00de 2B68     		ldr	r3, [r5]
 5374              	.LVL416:
 5375              	.L462:
 5376              		.loc 1 1310 0
 5377 00e0 93ED018A 		vldr.32	s16, [r3, #4]
 5378 00e4 F6EE007A 		vmov.f32	s15, #5.0e-1
 5379 00e8 28EE278A 		vmul.f32	s16, s16, s15
 5380              	.LVL417:
 5381              	.L466:
 5382              		.loc 1 1313 0
 5383 00ec C820     		movs	r0, #200
 5384 00ee B0EE480A 		vmov.f32	s0, s16
 5385 00f2 FFF7FEFF 		bl	mcpwm_foc_measure_resistance
 5386              	.LVL418:
 5387              		.loc 1 1315 0
 5388 00f6 2B68     		ldr	r3, [r5]
 5389              		.loc 1 1317 0
 5390 00f8 384A     		ldr	r2, .L477+8
 5391              		.loc 1 1315 0
 5392 00fa 3E49     		ldr	r1, .L477+32
 5393              		.loc 1 1313 0
 5394 00fc 84ED000A 		vstr.32	s0, [r4]
 5395              		.loc 1 1315 0
 5396 0100 C3F8AC10 		str	r1, [r3, #172]	@ float
 5397              		.loc 1 1316 0
 5398 0104 D3ED2B7A 		vldr.32	s15, [r3, #172]
 5399              		.loc 1 1317 0
 5400 0108 1168     		ldr	r1, [r2]
 5401 010a 374B     		ldr	r3, .L477+20
 5402              		.loc 1 1316 0
 5403 010c 3748     		ldr	r0, .L477+24
 5404              	.LBB103:
 5405              		.loc 1 1320 0
 5406 010e DFED3A8A 		vldr.32	s17, .L477+36
 5407              	.LBE103:
 5408              		.loc 1 1317 0
 5409 0112 41F00201 		orr	r1, r1, #2
 5410 0116 1160     		str	r1, [r2]
 5411 0118 1968     		ldr	r1, [r3]
 5412              		.loc 1 1316 0
 5413 011a FDEEE77A 		vcvt.s32.f32	s15, s15
 5414              		.loc 1 1317 0
 5415 011e 41F00201 		orr	r1, r1, #2
ARM GAS  C:\Users\CHRIST~1\AppData\Local\Temp\ccGCVH4j.s 			page 96


 5416 0122 1960     		str	r1, [r3]
 5417              		.loc 1 1316 0
 5418 0124 17EE901A 		vmov	r1, s15	@ int
 5419              		.loc 1 1317 0
 5420 0128 0224     		movs	r4, #2
 5421              	.LVL419:
 5422              		.loc 1 1316 0
 5423 012a 90FBF1F1 		sdiv	r1, r0, r1
 5424              	.LVL420:
 5425              		.loc 1 1317 0
 5426 012e D162     		str	r1, [r2, #44]
 5427 0130 5C63     		str	r4, [r3, #52]
 5428 0132 1168     		ldr	r1, [r2]
 5429              	.LVL421:
 5430 0134 21F00201 		bic	r1, r1, #2
 5431 0138 1160     		str	r1, [r2]
 5432 013a 1A68     		ldr	r2, [r3]
 5433 013c 22F00202 		bic	r2, r2, #2
 5434 0140 1A60     		str	r2, [r3]
 5435              	.LVL422:
 5436 0142 0824     		movs	r4, #8
 5437              	.LBB105:
 5438              		.loc 1 1320 0
 5439 0144 B7EE089A 		vmov.f32	s18, #1.5e+0
 5440 0148 01E0     		b	.L469
 5441              	.LVL423:
 5442              	.L471:
 5443 014a F0EE678A 		vmov.f32	s17, s15
 5444              	.LVL424:
 5445              	.L469:
 5446              	.LBB104:
 5447              		.loc 1 1322 0
 5448 014e 01A9     		add	r1, sp, #4
 5449 0150 1420     		movs	r0, #20
 5450 0152 B0EE680A 		vmov.f32	s0, s17
 5451 0156 FFF7FEFF 		bl	mcpwm_foc_measure_inductance
 5452              	.LVL425:
 5453              		.loc 1 1325 0
 5454 015a DDED017A 		vldr.32	s15, [sp, #4]
 5455 015e F4EEC87A 		vcmpe.f32	s15, s16
 5456 0162 F1EE10FA 		vmrs	APSR_nzcv, FPSCR
 5457 0166 03DA     		bge	.L470
 5458              	.LBE104:
 5459              		.loc 1 1320 0
 5460 0168 013C     		subs	r4, r4, #1
 5461 016a 68EE897A 		vmul.f32	s15, s17, s18
 5462              	.LVL426:
 5463 016e ECD1     		bne	.L471
 5464              	.LVL427:
 5465              	.L470:
 5466              	.LBE105:
 5467              		.loc 1 1330 0
 5468 0170 B0EE680A 		vmov.f32	s0, s17
 5469 0174 0021     		movs	r1, #0
 5470 0176 C820     		movs	r0, #200
 5471 0178 FFF7FEFF 		bl	mcpwm_foc_measure_inductance
 5472              	.LVL428:
ARM GAS  C:\Users\CHRIST~1\AppData\Local\Temp\ccGCVH4j.s 			page 97


 5473              		.loc 1 1332 0
 5474 017c 2B68     		ldr	r3, [r5]
 5475              		.loc 1 1337 0
 5476 017e 174A     		ldr	r2, .L477+8
 5477              		.loc 1 1330 0
 5478 0180 86ED000A 		vstr.32	s0, [r6]
 5479              		.loc 1 1332 0
 5480 0184 C3F8AC90 		str	r9, [r3, #172]	@ float
 5481              		.loc 1 1333 0
 5482 0188 C3F8A480 		str	r8, [r3, #164]	@ float
 5483              		.loc 1 1334 0
 5484 018c C3F8A870 		str	r7, [r3, #168]	@ float
 5485              		.loc 1 1336 0
 5486 0190 D3ED2B7A 		vldr.32	s15, [r3, #172]
 5487              		.loc 1 1337 0
 5488 0194 1168     		ldr	r1, [r2]
 5489 0196 144B     		ldr	r3, .L477+20
 5490              		.loc 1 1336 0
 5491 0198 1448     		ldr	r0, .L477+24
 5492              		.loc 1 1337 0
 5493 019a 41F00201 		orr	r1, r1, #2
 5494 019e 1160     		str	r1, [r2]
 5495 01a0 1968     		ldr	r1, [r3]
 5496 01a2 0224     		movs	r4, #2
 5497              		.loc 1 1336 0
 5498 01a4 FDEEE77A 		vcvt.s32.f32	s15, s15
 5499              		.loc 1 1337 0
 5500 01a8 2143     		orrs	r1, r1, r4
 5501 01aa 1960     		str	r1, [r3]
 5502              		.loc 1 1336 0
 5503 01ac 17EE901A 		vmov	r1, s15	@ int
 5504 01b0 90FBF1F1 		sdiv	r1, r0, r1
 5505              	.LVL429:
 5506              		.loc 1 1337 0
 5507 01b4 D162     		str	r1, [r2, #44]
 5508 01b6 5C63     		str	r4, [r3, #52]
 5509 01b8 1168     		ldr	r1, [r2]
 5510              	.LVL430:
 5511 01ba 21F00201 		bic	r1, r1, #2
 5512 01be 1160     		str	r1, [r2]
 5513 01c0 1A68     		ldr	r2, [r3]
 5514              		.loc 1 1340 0
 5515 01c2 0120     		movs	r0, #1
 5516              	.LVL431:
 5517              		.loc 1 1337 0
 5518 01c4 22F00202 		bic	r2, r2, #2
 5519 01c8 1A60     		str	r2, [r3]
 5520              		.loc 1 1340 0
 5521 01ca 03B0     		add	sp, sp, #12
 5522              		.cfi_def_cfa_offset 44
 5523              		@ sp needed
 5524 01cc BDEC048B 		vldm	sp!, {d8-d9}
 5525              		.cfi_restore 82
 5526              		.cfi_restore 83
 5527              		.cfi_restore 80
 5528              		.cfi_restore 81
 5529              		.cfi_def_cfa_offset 28
ARM GAS  C:\Users\CHRIST~1\AppData\Local\Temp\ccGCVH4j.s 			page 98


 5530              	.LVL432:
 5531 01d0 BDE8F083 		pop	{r4, r5, r6, r7, r8, r9, pc}
 5532              	.LVL433:
 5533              	.L478:
 5534              		.align	2
 5535              	.L477:
 5536 01d4 00000000 		.word	.LANCHOR0
 5537 01d8 00401C46 		.word	1176256512
 5538 01dc 00000140 		.word	1073807360
 5539 01e0 0AD7233C 		.word	1008981770
 5540 01e4 00002041 		.word	1092616192
 5541 01e8 00040140 		.word	1073808384
 5542 01ec 007A030A 		.word	168000000
 5543 01f0 0AD7233C 		.word	1008981770
 5544 01f4 00803B45 		.word	1161527296
 5545 01f8 0AD7A33C 		.word	1017370378
 5546              		.cfi_endproc
 5547              	.LFE299:
 5548              		.size	mcpwm_foc_measure_res_ind, .-mcpwm_foc_measure_res_ind
 5549              		.section	.text.mcpwm_foc_hall_detect,"ax",%progbits
 5550              		.align	1
 5551              		.p2align 4,,15
 5552              		.global	mcpwm_foc_hall_detect
 5553              		.syntax unified
 5554              		.thumb
 5555              		.thumb_func
 5556              		.fpu fpv4-sp-d16
 5557              		.type	mcpwm_foc_hall_detect, %function
 5558              	mcpwm_foc_hall_detect:
 5559              	.LFB300:
 5560              		.loc 1 1355 0
 5561              		.cfi_startproc
 5562              		@ args = 0, pretend = 0, frame = 112
 5563              		@ frame_needed = 0, uses_anonymous_args = 0
 5564              	.LVL434:
 5565 0000 2DE9F04F 		push	{r4, r5, r6, r7, r8, r9, r10, fp, lr}
 5566              		.cfi_def_cfa_offset 36
 5567              		.cfi_offset 4, -36
 5568              		.cfi_offset 5, -32
 5569              		.cfi_offset 6, -28
 5570              		.cfi_offset 7, -24
 5571              		.cfi_offset 8, -20
 5572              		.cfi_offset 9, -16
 5573              		.cfi_offset 10, -12
 5574              		.cfi_offset 11, -8
 5575              		.cfi_offset 14, -4
 5576 0004 2DED048B 		vpush.64	{d8, d9}
 5577              		.cfi_def_cfa_offset 52
 5578              		.cfi_offset 80, -52
 5579              		.cfi_offset 81, -48
 5580              		.cfi_offset 82, -44
 5581              		.cfi_offset 83, -40
 5582 0008 9DB0     		sub	sp, sp, #116
 5583              		.cfi_def_cfa_offset 168
 5584              		.loc 1 1355 0
 5585 000a B0EE408A 		vmov.f32	s16, s0
 5586 000e 0646     		mov	r6, r0
ARM GAS  C:\Users\CHRIST~1\AppData\Local\Temp\ccGCVH4j.s 			page 99


 5587              		.loc 1 1356 0
 5588 0010 FFF7FEFF 		bl	mc_interface_lock
 5589              	.LVL435:
 5590              		.loc 1 1358 0
 5591 0014 8349     		ldr	r1, .L494
 5592              		.loc 1 1360 0
 5593 0016 DFED849A 		vldr.32	s19, .L494+4
 5594              		.loc 1 1359 0
 5595 001a DFF82CB2 		ldr	fp, .L494+36
 5596              		.loc 1 1360 0
 5597 001e DFF82CA2 		ldr	r10, .L494+40
 5598              		.loc 1 1362 0
 5599 0022 824F     		ldr	r7, .L494+8
 5600              		.loc 1 1371 0
 5601 0024 824C     		ldr	r4, .L494+12
 5602              	.LBB106:
 5603              	.LBB107:
 5604              	.LBB108:
 5605              		.loc 1 1384 0
 5606 0026 9FED839A 		vldr.32	s18, .L494+16
 5607 002a DFED838A 		vldr.32	s17, .L494+20
 5608              	.LBE108:
 5609              	.LBE107:
 5610              	.LBE106:
 5611              		.loc 1 1358 0
 5612 002e 0122     		movs	r2, #1
 5613 0030 0A70     		strb	r2, [r1]
 5614              		.loc 1 1361 0
 5615 0032 824A     		ldr	r2, .L494+24
 5616              		.loc 1 1359 0
 5617 0034 8BED008A 		vstr.32	s16, [fp]
 5618              		.loc 1 1361 0
 5619 0038 0223     		movs	r3, #2
 5620              		.loc 1 1360 0
 5621 003a CAED009A 		vstr.32	s19, [r10]
 5622              		.loc 1 1361 0
 5623 003e 1370     		strb	r3, [r2]
 5624              		.loc 1 1362 0
 5625 0040 3B70     		strb	r3, [r7]
 5626              		.loc 1 1365 0
 5627 0042 FFF7FEFF 		bl	timeout_get_timeout_msec
 5628              	.LVL436:
 5629 0046 0190     		str	r0, [sp, #4]
 5630              	.LVL437:
 5631              		.loc 1 1366 0
 5632 0048 FFF7FEFF 		bl	timeout_get_brake_current
 5633              	.LVL438:
 5634 004c B0EE408A 		vmov.f32	s16, s0
 5635              	.LVL439:
 5636              		.loc 1 1367 0
 5637 0050 FFF7FEFF 		bl	timeout_reset
 5638              	.LVL440:
 5639              		.loc 1 1368 0
 5640 0054 B0EE690A 		vmov.f32	s0, s19
 5641 0058 4EF66020 		movw	r0, #60000
 5642 005c FFF7FEFF 		bl	timeout_configure
 5643              	.LVL441:
ARM GAS  C:\Users\CHRIST~1\AppData\Local\Temp\ccGCVH4j.s 			page 100


 5644              		.loc 1 1372 0
 5645 0060 42F21070 		movw	r0, #10000
 5646              		.loc 1 1371 0
 5647 0064 C4ED009A 		vstr.32	s19, [r4]
 5648              		.loc 1 1372 0
 5649 0068 FFF7FEFF 		bl	chThdSleep
 5650              	.LVL442:
 5651              		.loc 1 1377 0
 5652 006c 2022     		movs	r2, #32
 5653 006e 0021     		movs	r1, #0
 5654 0070 04A8     		add	r0, sp, #16
 5655 0072 FFF7FEFF 		bl	memset
 5656              	.LVL443:
 5657              		.loc 1 1378 0
 5658 0076 2022     		movs	r2, #32
 5659 0078 0021     		movs	r1, #0
 5660 007a 0CA8     		add	r0, sp, #48
 5661 007c FFF7FEFF 		bl	memset
 5662              	.LVL444:
 5663              		.loc 1 1379 0
 5664 0080 2022     		movs	r2, #32
 5665 0082 0021     		movs	r1, #0
 5666 0084 14A8     		add	r0, sp, #80
 5667 0086 FFF7FEFF 		bl	memset
 5668              	.LVL445:
 5669 008a 0325     		movs	r5, #3
 5670              	.LVL446:
 5671              	.L480:
 5672              	.LBB113:
 5673              	.LBB112:
 5674              		.loc 1 1383 0
 5675 008c 4FF00009 		mov	r9, #0
 5676              	.LVL447:
 5677              	.L481:
 5678              	.LBB109:
 5679              		.loc 1 1384 0 discriminator 3
 5680 0090 07EE909A 		vmov	s15, r9	@ int
 5681 0094 F8EEE77A 		vcvt.f32.s32	s15, s15
 5682              		.loc 1 1385 0 discriminator 3
 5683 0098 3220     		movs	r0, #50
 5684              		.loc 1 1384 0 discriminator 3
 5685 009a 67EE897A 		vmul.f32	s15, s15, s18
 5686              	.LBE109:
 5687              		.loc 1 1383 0 discriminator 3
 5688 009e 09F10109 		add	r9, r9, #1
 5689              	.LVL448:
 5690              	.LBB110:
 5691              		.loc 1 1384 0 discriminator 3
 5692 00a2 87EEA87A 		vdiv.f32	s14, s15, s17
 5693 00a6 84ED007A 		vstr.32	s14, [r4]
 5694              		.loc 1 1385 0 discriminator 3
 5695 00aa FFF7FEFF 		bl	chThdSleep
 5696              	.LVL449:
 5697              		.loc 1 1387 0 discriminator 3
 5698 00ae FFF7FEFF 		bl	read_hall
 5699              	.LVL450:
 5700              		.loc 1 1389 0 discriminator 3
ARM GAS  C:\Users\CHRIST~1\AppData\Local\Temp\ccGCVH4j.s 			page 101


 5701 00b2 94ED000A 		vldr.32	s0, [r4]
 5702              		.loc 1 1387 0 discriminator 3
 5703 00b6 8046     		mov	r8, r0
 5704              	.LVL451:
 5705              		.loc 1 1389 0 discriminator 3
 5706 00b8 03A9     		add	r1, sp, #12
 5707 00ba 02A8     		add	r0, sp, #8
 5708              	.LVL452:
 5709 00bc FFF7FEFF 		bl	sincosf
 5710              	.LVL453:
 5711              		.loc 1 1390 0 discriminator 3
 5712 00c0 1CAB     		add	r3, sp, #112
 5713 00c2 03EB8800 		add	r0, r3, r8, lsl #2
 5714 00c6 10ED186A 		vldr.32	s12, [r0, #-96]
 5715              		.loc 1 1391 0 discriminator 3
 5716 00ca 10ED107A 		vldr.32	s14, [r0, #-64]
 5717              		.loc 1 1390 0 discriminator 3
 5718 00ce DDED026A 		vldr.32	s13, [sp, #8]
 5719              		.loc 1 1391 0 discriminator 3
 5720 00d2 DDED037A 		vldr.32	s15, [sp, #12]
 5721              		.loc 1 1392 0 discriminator 3
 5722 00d6 50F8203C 		ldr	r3, [r0, #-32]
 5723              		.loc 1 1390 0 discriminator 3
 5724 00da 76EE266A 		vadd.f32	s13, s12, s13
 5725              		.loc 1 1391 0 discriminator 3
 5726 00de 77EE277A 		vadd.f32	s15, s14, s15
 5727              		.loc 1 1392 0 discriminator 3
 5728 00e2 0133     		adds	r3, r3, #1
 5729              	.LBE110:
 5730              		.loc 1 1383 0 discriminator 3
 5731 00e4 B9F5B47F 		cmp	r9, #360
 5732              	.LBB111:
 5733              		.loc 1 1390 0 discriminator 3
 5734 00e8 40ED186A 		vstr.32	s13, [r0, #-96]
 5735              		.loc 1 1391 0 discriminator 3
 5736 00ec 40ED107A 		vstr.32	s15, [r0, #-64]
 5737              		.loc 1 1392 0 discriminator 3
 5738 00f0 40F8203C 		str	r3, [r0, #-32]
 5739              	.LBE111:
 5740              		.loc 1 1383 0 discriminator 3
 5741 00f4 CCD1     		bne	.L481
 5742              	.LVL454:
 5743              	.LBE112:
 5744              		.loc 1 1382 0 discriminator 2
 5745 00f6 013D     		subs	r5, r5, #1
 5746              	.LVL455:
 5747 00f8 C8D1     		bne	.L480
 5748              	.LBE113:
 5749              	.LBB114:
 5750              	.LBB115:
 5751              	.LBB116:
 5752              		.loc 1 1399 0
 5753 00fa 9FED4E9A 		vldr.32	s18, .L494+16
 5754 00fe DFED4E8A 		vldr.32	s17, .L494+20
 5755              	.LBE116:
 5756              	.LBE115:
 5757              	.LBE114:
ARM GAS  C:\Users\CHRIST~1\AppData\Local\Temp\ccGCVH4j.s 			page 102


 5758              	.LBB121:
 5759 0102 0325     		movs	r5, #3
 5760              	.LVL456:
 5761              	.L482:
 5762              	.LBE121:
 5763              	.LBB122:
 5764              	.LBB120:
 5765              		.loc 1 1398 0
 5766 0104 4FF4B479 		mov	r9, #360
 5767              	.LVL457:
 5768              	.L483:
 5769              	.LBB117:
 5770              		.loc 1 1399 0 discriminator 3
 5771 0108 07EE909A 		vmov	s15, r9	@ int
 5772 010c F8EEE77A 		vcvt.f32.s32	s15, s15
 5773              		.loc 1 1400 0 discriminator 3
 5774 0110 3220     		movs	r0, #50
 5775              		.loc 1 1399 0 discriminator 3
 5776 0112 67EE897A 		vmul.f32	s15, s15, s18
 5777              	.LBE117:
 5778              		.loc 1 1398 0 discriminator 3
 5779 0116 09F1FF39 		add	r9, r9, #-1
 5780              	.LVL458:
 5781              	.LBB118:
 5782              		.loc 1 1399 0 discriminator 3
 5783 011a 87EEA87A 		vdiv.f32	s14, s15, s17
 5784 011e 84ED007A 		vstr.32	s14, [r4]
 5785              		.loc 1 1400 0 discriminator 3
 5786 0122 FFF7FEFF 		bl	chThdSleep
 5787              	.LVL459:
 5788              		.loc 1 1402 0 discriminator 3
 5789 0126 FFF7FEFF 		bl	read_hall
 5790              	.LVL460:
 5791              		.loc 1 1404 0 discriminator 3
 5792 012a 94ED000A 		vldr.32	s0, [r4]
 5793              		.loc 1 1402 0 discriminator 3
 5794 012e 8046     		mov	r8, r0
 5795              	.LVL461:
 5796              		.loc 1 1404 0 discriminator 3
 5797 0130 03A9     		add	r1, sp, #12
 5798 0132 02A8     		add	r0, sp, #8
 5799              	.LVL462:
 5800 0134 FFF7FEFF 		bl	sincosf
 5801              	.LVL463:
 5802              		.loc 1 1405 0 discriminator 3
 5803 0138 1CAB     		add	r3, sp, #112
 5804 013a 03EB8800 		add	r0, r3, r8, lsl #2
 5805 013e 10ED186A 		vldr.32	s12, [r0, #-96]
 5806              		.loc 1 1406 0 discriminator 3
 5807 0142 10ED107A 		vldr.32	s14, [r0, #-64]
 5808              		.loc 1 1405 0 discriminator 3
 5809 0146 DDED026A 		vldr.32	s13, [sp, #8]
 5810              		.loc 1 1406 0 discriminator 3
 5811 014a DDED037A 		vldr.32	s15, [sp, #12]
 5812              		.loc 1 1407 0 discriminator 3
 5813 014e 50F8203C 		ldr	r3, [r0, #-32]
 5814              		.loc 1 1405 0 discriminator 3
ARM GAS  C:\Users\CHRIST~1\AppData\Local\Temp\ccGCVH4j.s 			page 103


 5815 0152 76EE266A 		vadd.f32	s13, s12, s13
 5816              		.loc 1 1406 0 discriminator 3
 5817 0156 77EE277A 		vadd.f32	s15, s14, s15
 5818              		.loc 1 1407 0 discriminator 3
 5819 015a 0133     		adds	r3, r3, #1
 5820              	.LBE118:
 5821              		.loc 1 1398 0 discriminator 3
 5822 015c B9F1FF3F 		cmp	r9, #-1
 5823              	.LBB119:
 5824              		.loc 1 1405 0 discriminator 3
 5825 0160 40ED186A 		vstr.32	s13, [r0, #-96]
 5826              		.loc 1 1406 0 discriminator 3
 5827 0164 40ED107A 		vstr.32	s15, [r0, #-64]
 5828              		.loc 1 1407 0 discriminator 3
 5829 0168 40F8203C 		str	r3, [r0, #-32]
 5830              	.LBE119:
 5831              		.loc 1 1398 0 discriminator 3
 5832 016c CCD1     		bne	.L483
 5833              	.LVL464:
 5834              	.LBE120:
 5835              		.loc 1 1397 0 discriminator 2
 5836 016e 013D     		subs	r5, r5, #1
 5837              	.LVL465:
 5838 0170 C8D1     		bne	.L482
 5839              	.LBE122:
 5840              		.loc 1 1411 0
 5841 0172 0023     		movs	r3, #0
 5842 0174 CBF80030 		str	r3, [fp]	@ float
 5843              		.loc 1 1412 0
 5844 0178 CAF80030 		str	r3, [r10]	@ float
 5845              		.loc 1 1413 0
 5846 017c 294B     		ldr	r3, .L494
 5847              	.LBB123:
 5848              	.LBB124:
 5849              		.loc 1 1424 0
 5850 017e DFED2E9A 		vldr.32	s19, .L494+20
 5851              	.LBE124:
 5852              	.LBE123:
 5853              		.loc 1 1413 0
 5854 0182 1D70     		strb	r5, [r3]
 5855              		.loc 1 1414 0
 5856 0184 2D4B     		ldr	r3, .L494+24
 5857              	.LBB128:
 5858              	.LBB125:
 5859              		.loc 1 1424 0
 5860 0186 9FED2B9A 		vldr.32	s18, .L494+16
 5861              		.loc 1 1426 0
 5862 018a DFED2D8A 		vldr.32	s17, .L494+28
 5863              	.LBE125:
 5864              	.LBE128:
 5865              		.loc 1 1414 0
 5866 018e 0722     		movs	r2, #7
 5867 0190 1A70     		strb	r2, [r3]
 5868              		.loc 1 1415 0
 5869 0192 3D70     		strb	r5, [r7]
 5870              		.loc 1 1416 0
 5871 0194 FFF7FEFF 		bl	stop_pwm_hw
ARM GAS  C:\Users\CHRIST~1\AppData\Local\Temp\ccGCVH4j.s 			page 104


 5872              	.LVL466:
 5873              		.loc 1 1419 0
 5874 0198 B0EE480A 		vmov.f32	s0, s16
 5875 019c 0198     		ldr	r0, [sp, #4]
 5876              	.LBB129:
 5877              	.LBB126:
 5878              		.loc 1 1426 0
 5879 019e 9FED298A 		vldr.32	s16, .L494+32
 5880              	.LVL467:
 5881              	.LBE126:
 5882              	.LBE129:
 5883              		.loc 1 1419 0
 5884 01a2 FFF7FEFF 		bl	timeout_configure
 5885              	.LVL468:
 5886              		.loc 1 1421 0
 5887 01a6 2F46     		mov	r7, r5
 5888 01a8 13AC     		add	r4, sp, #76
 5889              	.LBB130:
 5890              		.loc 1 1428 0
 5891 01aa 4FF0FF08 		mov	r8, #255
 5892              	.LVL469:
 5893 01ae 06E0     		b	.L487
 5894              	.LVL470:
 5895              	.L485:
 5896 01b0 06F80580 		strb	r8, [r6, r5]
 5897              		.loc 1 1422 0
 5898 01b4 0135     		adds	r5, r5, #1
 5899              	.LVL471:
 5900 01b6 082D     		cmp	r5, #8
 5901              		.loc 1 1429 0
 5902 01b8 07F10107 		add	r7, r7, #1
 5903              	.LVL472:
 5904              		.loc 1 1422 0
 5905 01bc 25D0     		beq	.L493
 5906              	.LVL473:
 5907              	.L487:
 5908              		.loc 1 1423 0
 5909 01be 54F8043F 		ldr	r3, [r4, #4]!
 5910 01c2 1E2B     		cmp	r3, #30
 5911 01c4 F4DD     		ble	.L485
 5912 01c6 AB00     		lsls	r3, r5, #2
 5913              	.LBB127:
 5914              		.loc 1 1424 0
 5915 01c8 04A9     		add	r1, sp, #16
 5916 01ca 0CAA     		add	r2, sp, #48
 5917 01cc 1A44     		add	r2, r2, r3
 5918 01ce 0B44     		add	r3, r3, r1
 5919 01d0 93ED000A 		vldr.32	s0, [r3]
 5920 01d4 D2ED000A 		vldr.32	s1, [r2]
 5921 01d8 FFF7FEFF 		bl	atan2f
 5922              	.LVL474:
 5923 01dc 20EE290A 		vmul.f32	s0, s0, s19
 5924              		.loc 1 1425 0
 5925 01e0 03A8     		add	r0, sp, #12
 5926              		.loc 1 1424 0
 5927 01e2 C0EE097A 		vdiv.f32	s15, s0, s18
 5928 01e6 CDED037A 		vstr.32	s15, [sp, #12]
ARM GAS  C:\Users\CHRIST~1\AppData\Local\Temp\ccGCVH4j.s 			page 105


 5929              		.loc 1 1425 0
 5930 01ea FFF7FEFF 		bl	utils_norm_angle
 5931              	.LVL475:
 5932              		.loc 1 1426 0
 5933 01ee 9DED037A 		vldr.32	s14, [sp, #12]
 5934 01f2 27EE287A 		vmul.f32	s14, s14, s17
 5935 01f6 C7EE087A 		vdiv.f32	s15, s14, s16
 5936 01fa FCEEE77A 		vcvt.u32.f32	s15, s15
 5937 01fe 17EE903A 		vmov	r3, s15	@ int
 5938 0202 7355     		strb	r3, [r6, r5]
 5939              	.LBE127:
 5940              		.loc 1 1422 0
 5941 0204 0135     		adds	r5, r5, #1
 5942              	.LVL476:
 5943 0206 082D     		cmp	r5, #8
 5944 0208 D9D1     		bne	.L487
 5945              	.L493:
 5946              	.LBE130:
 5947              		.loc 1 1433 0
 5948 020a FFF7FEFF 		bl	mc_interface_unlock
 5949              	.LVL477:
 5950              		.loc 1 1436 0
 5951 020e A7F10200 		sub	r0, r7, #2
 5952 0212 B0FA80F0 		clz	r0, r0
 5953 0216 4009     		lsrs	r0, r0, #5
 5954 0218 1DB0     		add	sp, sp, #116
 5955              		.cfi_def_cfa_offset 52
 5956              		@ sp needed
 5957 021a BDEC048B 		vldm	sp!, {d8-d9}
 5958              		.cfi_restore 82
 5959              		.cfi_restore 83
 5960              		.cfi_restore 80
 5961              		.cfi_restore 81
 5962              		.cfi_def_cfa_offset 36
 5963 021e BDE8F08F 		pop	{r4, r5, r6, r7, r8, r9, r10, fp, pc}
 5964              	.LVL478:
 5965              	.L495:
 5966 0222 00BF     		.align	2
 5967              	.L494:
 5968 0224 00000000 		.word	.LANCHOR28
 5969 0228 00000000 		.word	0
 5970 022c 00000000 		.word	.LANCHOR7
 5971 0230 00000000 		.word	.LANCHOR29
 5972 0234 DB0F4940 		.word	1078530011
 5973 0238 00003443 		.word	1127481344
 5974 023c 00000000 		.word	.LANCHOR14
 5975 0240 00004843 		.word	1128792064
 5976 0244 0000B443 		.word	1135869952
 5977 0248 00000000 		.word	.LANCHOR31
 5978 024c 00000000 		.word	.LANCHOR22
 5979              		.cfi_endproc
 5980              	.LFE300:
 5981              		.size	mcpwm_foc_hall_detect, .-mcpwm_foc_hall_detect
 5982              		.section	.text.mcpwm_foc_print_state,"ax",%progbits
 5983              		.align	1
 5984              		.p2align 4,,15
 5985              		.global	mcpwm_foc_print_state
ARM GAS  C:\Users\CHRIST~1\AppData\Local\Temp\ccGCVH4j.s 			page 106


 5986              		.syntax unified
 5987              		.thumb
 5988              		.thumb_func
 5989              		.fpu fpv4-sp-d16
 5990              		.type	mcpwm_foc_print_state, %function
 5991              	mcpwm_foc_print_state:
 5992              	.LFB301:
 5993              		.loc 1 1438 0
 5994              		.cfi_startproc
 5995              		@ args = 0, pretend = 0, frame = 0
 5996              		@ frame_needed = 0, uses_anonymous_args = 0
 5997 0000 10B5     		push	{r4, lr}
 5998              		.cfi_def_cfa_offset 8
 5999              		.cfi_offset 4, -8
 6000              		.cfi_offset 14, -4
 6001              		.loc 1 1439 0
 6002 0002 4A4C     		ldr	r4, .L498
 6003 0004 606B     		ldr	r0, [r4, #52]	@ float
 6004 0006 FFF7FEFF 		bl	__aeabi_f2d
 6005              	.LVL479:
 6006 000a 0246     		mov	r2, r0
 6007 000c 0B46     		mov	r3, r1
 6008 000e 4848     		ldr	r0, .L498+4
 6009 0010 FFF7FEFF 		bl	commands_printf
 6010              	.LVL480:
 6011              		.loc 1 1440 0
 6012 0014 A06B     		ldr	r0, [r4, #56]	@ float
 6013 0016 FFF7FEFF 		bl	__aeabi_f2d
 6014              	.LVL481:
 6015 001a 0246     		mov	r2, r0
 6016 001c 0B46     		mov	r3, r1
 6017 001e 4548     		ldr	r0, .L498+8
 6018 0020 FFF7FEFF 		bl	commands_printf
 6019              	.LVL482:
 6020              		.loc 1 1441 0
 6021 0024 E068     		ldr	r0, [r4, #12]	@ float
 6022 0026 FFF7FEFF 		bl	__aeabi_f2d
 6023              	.LVL483:
 6024 002a 0246     		mov	r2, r0
 6025 002c 0B46     		mov	r3, r1
 6026 002e 4248     		ldr	r0, .L498+12
 6027 0030 FFF7FEFF 		bl	commands_printf
 6028              	.LVL484:
 6029              		.loc 1 1442 0
 6030 0034 E06C     		ldr	r0, [r4, #76]	@ float
 6031 0036 FFF7FEFF 		bl	__aeabi_f2d
 6032              	.LVL485:
 6033 003a 0246     		mov	r2, r0
 6034 003c 0B46     		mov	r3, r1
 6035 003e 3F48     		ldr	r0, .L498+16
 6036 0040 FFF7FEFF 		bl	commands_printf
 6037              	.LVL486:
 6038              		.loc 1 1443 0
 6039 0044 206D     		ldr	r0, [r4, #80]	@ float
 6040 0046 FFF7FEFF 		bl	__aeabi_f2d
 6041              	.LVL487:
 6042 004a 0246     		mov	r2, r0
ARM GAS  C:\Users\CHRIST~1\AppData\Local\Temp\ccGCVH4j.s 			page 107


 6043 004c 0B46     		mov	r3, r1
 6044 004e 3C48     		ldr	r0, .L498+20
 6045 0050 FFF7FEFF 		bl	commands_printf
 6046              	.LVL488:
 6047              		.loc 1 1444 0
 6048 0054 2069     		ldr	r0, [r4, #16]	@ float
 6049 0056 FFF7FEFF 		bl	__aeabi_f2d
 6050              	.LVL489:
 6051 005a 0246     		mov	r2, r0
 6052 005c 0B46     		mov	r3, r1
 6053 005e 3948     		ldr	r0, .L498+24
 6054 0060 FFF7FEFF 		bl	commands_printf
 6055              	.LVL490:
 6056              		.loc 1 1445 0
 6057 0064 E06A     		ldr	r0, [r4, #44]	@ float
 6058 0066 FFF7FEFF 		bl	__aeabi_f2d
 6059              	.LVL491:
 6060 006a 0246     		mov	r2, r0
 6061 006c 0B46     		mov	r3, r1
 6062 006e 3648     		ldr	r0, .L498+28
 6063 0070 FFF7FEFF 		bl	commands_printf
 6064              	.LVL492:
 6065              		.loc 1 1446 0
 6066 0074 206B     		ldr	r0, [r4, #48]	@ float
 6067 0076 FFF7FEFF 		bl	__aeabi_f2d
 6068              	.LVL493:
 6069 007a 0246     		mov	r2, r0
 6070 007c 0B46     		mov	r3, r1
 6071 007e 3348     		ldr	r0, .L498+32
 6072 0080 FFF7FEFF 		bl	commands_printf
 6073              	.LVL494:
 6074              		.loc 1 1447 0
 6075 0084 E06B     		ldr	r0, [r4, #60]	@ float
 6076 0086 FFF7FEFF 		bl	__aeabi_f2d
 6077              	.LVL495:
 6078 008a 0246     		mov	r2, r0
 6079 008c 0B46     		mov	r3, r1
 6080 008e 3048     		ldr	r0, .L498+36
 6081 0090 FFF7FEFF 		bl	commands_printf
 6082              	.LVL496:
 6083              		.loc 1 1448 0
 6084 0094 206C     		ldr	r0, [r4, #64]	@ float
 6085 0096 FFF7FEFF 		bl	__aeabi_f2d
 6086              	.LVL497:
 6087 009a 0246     		mov	r2, r0
 6088 009c 0B46     		mov	r3, r1
 6089 009e 2D48     		ldr	r0, .L498+40
 6090 00a0 FFF7FEFF 		bl	commands_printf
 6091              	.LVL498:
 6092              		.loc 1 1449 0
 6093 00a4 606C     		ldr	r0, [r4, #68]	@ float
 6094 00a6 FFF7FEFF 		bl	__aeabi_f2d
 6095              	.LVL499:
 6096 00aa 0246     		mov	r2, r0
 6097 00ac 0B46     		mov	r3, r1
 6098 00ae 2A48     		ldr	r0, .L498+44
 6099 00b0 FFF7FEFF 		bl	commands_printf
ARM GAS  C:\Users\CHRIST~1\AppData\Local\Temp\ccGCVH4j.s 			page 108


 6100              	.LVL500:
 6101              		.loc 1 1450 0
 6102 00b4 A06C     		ldr	r0, [r4, #72]	@ float
 6103 00b6 FFF7FEFF 		bl	__aeabi_f2d
 6104              	.LVL501:
 6105 00ba 0246     		mov	r2, r0
 6106 00bc 0B46     		mov	r3, r1
 6107 00be 2748     		ldr	r0, .L498+48
 6108 00c0 FFF7FEFF 		bl	commands_printf
 6109              	.LVL502:
 6110              		.loc 1 1451 0
 6111 00c4 2068     		ldr	r0, [r4]	@ float
 6112 00c6 FFF7FEFF 		bl	__aeabi_f2d
 6113              	.LVL503:
 6114 00ca 0246     		mov	r2, r0
 6115 00cc 0B46     		mov	r3, r1
 6116 00ce 2448     		ldr	r0, .L498+52
 6117 00d0 FFF7FEFF 		bl	commands_printf
 6118              	.LVL504:
 6119              		.loc 1 1452 0
 6120 00d4 6068     		ldr	r0, [r4, #4]	@ float
 6121 00d6 FFF7FEFF 		bl	__aeabi_f2d
 6122              	.LVL505:
 6123 00da 0246     		mov	r2, r0
 6124 00dc 0B46     		mov	r3, r1
 6125 00de 2148     		ldr	r0, .L498+56
 6126 00e0 FFF7FEFF 		bl	commands_printf
 6127              	.LVL506:
 6128              		.loc 1 1453 0
 6129 00e4 E069     		ldr	r0, [r4, #28]	@ float
 6130 00e6 FFF7FEFF 		bl	__aeabi_f2d
 6131              	.LVL507:
 6132 00ea 0246     		mov	r2, r0
 6133 00ec 0B46     		mov	r3, r1
 6134 00ee 1E48     		ldr	r0, .L498+60
 6135 00f0 FFF7FEFF 		bl	commands_printf
 6136              	.LVL508:
 6137              		.loc 1 1454 0
 6138 00f4 206A     		ldr	r0, [r4, #32]	@ float
 6139 00f6 FFF7FEFF 		bl	__aeabi_f2d
 6140              	.LVL509:
 6141 00fa 0246     		mov	r2, r0
 6142 00fc 0B46     		mov	r3, r1
 6143 00fe 1B48     		ldr	r0, .L498+64
 6144 0100 FFF7FEFF 		bl	commands_printf
 6145              	.LVL510:
 6146              		.loc 1 1455 0
 6147 0104 1A4B     		ldr	r3, .L498+68
 6148 0106 1868     		ldr	r0, [r3]	@ float
 6149 0108 FFF7FEFF 		bl	__aeabi_f2d
 6150              	.LVL511:
 6151 010c 0246     		mov	r2, r0
 6152 010e 0B46     		mov	r3, r1
 6153 0110 1848     		ldr	r0, .L498+72
 6154 0112 FFF7FEFF 		bl	commands_printf
 6155              	.LVL512:
 6156              		.loc 1 1456 0
ARM GAS  C:\Users\CHRIST~1\AppData\Local\Temp\ccGCVH4j.s 			page 109


 6157 0116 184B     		ldr	r3, .L498+76
 6158 0118 1868     		ldr	r0, [r3]	@ float
 6159 011a FFF7FEFF 		bl	__aeabi_f2d
 6160              	.LVL513:
 6161              		.loc 1 1457 0
 6162 011e BDE81040 		pop	{r4, lr}
 6163              		.cfi_restore 14
 6164              		.cfi_restore 4
 6165              		.cfi_def_cfa_offset 0
 6166              		.loc 1 1456 0
 6167 0122 0246     		mov	r2, r0
 6168 0124 0B46     		mov	r3, r1
 6169 0126 1548     		ldr	r0, .L498+80
 6170 0128 FFF7FEBF 		b	commands_printf
 6171              	.LVL514:
 6172              	.L499:
 6173              		.align	2
 6174              	.L498:
 6175 012c 00000000 		.word	.LANCHOR10
 6176 0130 00000000 		.word	.LC8
 6177 0134 14000000 		.word	.LC9
 6178 0138 28000000 		.word	.LC10
 6179 013c 3C000000 		.word	.LC11
 6180 0140 50000000 		.word	.LC12
 6181 0144 64000000 		.word	.LC13
 6182 0148 78000000 		.word	.LC14
 6183 014c 8C000000 		.word	.LC15
 6184 0150 A0000000 		.word	.LC16
 6185 0154 B4000000 		.word	.LC17
 6186 0158 C8000000 		.word	.LC18
 6187 015c DC000000 		.word	.LC19
 6188 0160 F0000000 		.word	.LC20
 6189 0164 04010000 		.word	.LC21
 6190 0168 18010000 		.word	.LC22
 6191 016c 2C010000 		.word	.LC23
 6192 0170 00000000 		.word	.LANCHOR35
 6193 0174 40010000 		.word	.LC24
 6194 0178 00000000 		.word	.LANCHOR36
 6195 017c 54010000 		.word	.LC25
 6196              		.cfi_endproc
 6197              	.LFE301:
 6198              		.size	mcpwm_foc_print_state, .-mcpwm_foc_print_state
 6199              		.section	.text.mcpwm_foc_get_last_inj_adc_isr_duration,"ax",%progbits
 6200              		.align	1
 6201              		.p2align 4,,15
 6202              		.global	mcpwm_foc_get_last_inj_adc_isr_duration
 6203              		.syntax unified
 6204              		.thumb
 6205              		.thumb_func
 6206              		.fpu fpv4-sp-d16
 6207              		.type	mcpwm_foc_get_last_inj_adc_isr_duration, %function
 6208              	mcpwm_foc_get_last_inj_adc_isr_duration:
 6209              	.LFB302:
 6210              		.loc 1 1459 0
 6211              		.cfi_startproc
 6212              		@ args = 0, pretend = 0, frame = 0
 6213              		@ frame_needed = 0, uses_anonymous_args = 0
ARM GAS  C:\Users\CHRIST~1\AppData\Local\Temp\ccGCVH4j.s 			page 110


 6214              		@ link register save eliminated.
 6215              		.loc 1 1460 0
 6216 0000 014B     		ldr	r3, .L501
 6217 0002 93ED000A 		vldr.32	s0, [r3]
 6218              		.loc 1 1461 0
 6219 0006 7047     		bx	lr
 6220              	.L502:
 6221              		.align	2
 6222              	.L501:
 6223 0008 00000000 		.word	.LANCHOR40
 6224              		.cfi_endproc
 6225              	.LFE302:
 6226              		.size	mcpwm_foc_get_last_inj_adc_isr_duration, .-mcpwm_foc_get_last_inj_adc_isr_duration
 6227              		.section	.text.mcpwm_foc_tim_sample_int_handler,"ax",%progbits
 6228              		.align	1
 6229              		.p2align 4,,15
 6230              		.global	mcpwm_foc_tim_sample_int_handler
 6231              		.syntax unified
 6232              		.thumb
 6233              		.thumb_func
 6234              		.fpu fpv4-sp-d16
 6235              		.type	mcpwm_foc_tim_sample_int_handler, %function
 6236              	mcpwm_foc_tim_sample_int_handler:
 6237              	.LFB303:
 6238              		.loc 1 1463 0
 6239              		.cfi_startproc
 6240              		@ args = 0, pretend = 0, frame = 0
 6241              		@ frame_needed = 0, uses_anonymous_args = 0
 6242              		@ link register save eliminated.
 6243              		.loc 1 1464 0
 6244 0000 034B     		ldr	r3, .L506
 6245 0002 1B78     		ldrb	r3, [r3]	@ zero_extendqisi2
 6246 0004 03B9     		cbnz	r3, .L505
 6247              		.loc 1 1468 0
 6248 0006 7047     		bx	lr
 6249              	.L505:
 6250              		.loc 1 1466 0
 6251 0008 2021     		movs	r1, #32
 6252 000a 0248     		ldr	r0, .L506+4
 6253 000c FFF7FEBF 		b	TIM_GenerateEvent
 6254              	.LVL515:
 6255              	.L507:
 6256              		.align	2
 6257              	.L506:
 6258 0010 00000000 		.word	.LANCHOR23
 6259 0014 00000140 		.word	1073807360
 6260              		.cfi_endproc
 6261              	.LFE303:
 6262              		.size	mcpwm_foc_tim_sample_int_handler, .-mcpwm_foc_tim_sample_int_handler
 6263              		.section	.text.observer_update,"ax",%progbits
 6264              		.align	1
 6265              		.p2align 4,,15
 6266              		.global	observer_update
 6267              		.syntax unified
 6268              		.thumb
 6269              		.thumb_func
 6270              		.fpu fpv4-sp-d16
ARM GAS  C:\Users\CHRIST~1\AppData\Local\Temp\ccGCVH4j.s 			page 111


 6271              		.type	observer_update, %function
 6272              	observer_update:
 6273              	.LFB307:
 6274              		.loc 1 2077 0
 6275              		.cfi_startproc
 6276              		@ args = 0, pretend = 0, frame = 8
 6277              		@ frame_needed = 0, uses_anonymous_args = 0
 6278              	.LVL516:
 6279 0000 2DE9F041 		push	{r4, r5, r6, r7, r8, lr}
 6280              		.cfi_def_cfa_offset 24
 6281              		.cfi_offset 4, -24
 6282              		.cfi_offset 5, -20
 6283              		.cfi_offset 6, -16
 6284              		.cfi_offset 7, -12
 6285              		.cfi_offset 8, -8
 6286              		.cfi_offset 14, -4
 6287              		.loc 1 2079 0
 6288 0004 734F     		ldr	r7, .L529
 6289              		.loc 1 2084 0
 6290 0006 744E     		ldr	r6, .L529+4
 6291              		.loc 1 2079 0
 6292 0008 3B68     		ldr	r3, [r7]
 6293              		.loc 1 2077 0
 6294 000a 2DED0A8B 		vpush.64	{d8, d9, d10, d11, d12}
 6295              		.cfi_def_cfa_offset 64
 6296              		.cfi_offset 80, -64
 6297              		.cfi_offset 81, -60
 6298              		.cfi_offset 82, -56
 6299              		.cfi_offset 83, -52
 6300              		.cfi_offset 84, -48
 6301              		.cfi_offset 85, -44
 6302              		.cfi_offset 86, -40
 6303              		.cfi_offset 87, -36
 6304              		.cfi_offset 88, -32
 6305              		.cfi_offset 89, -28
 6306              		.loc 1 2079 0
 6307 000e 93ED30BA 		vldr.32	s22, [r3, #192]
 6308              		.loc 1 2080 0
 6309 0012 93ED328A 		vldr.32	s16, [r3, #200]
 6310              		.loc 1 2081 0
 6311 0016 D3ED31AA 		vldr.32	s21, [r3, #196]
 6312              		.loc 1 2084 0
 6313 001a D6ED107A 		vldr.32	s15, [r6, #64]
 6314 001e 96ED147A 		vldr.32	s14, [r6, #80]
 6315              		.loc 1 2085 0
 6316 0022 D3ED436A 		vldr.32	s13, [r3, #268]
 6317 0026 D6ED085A 		vldr.32	s11, [r6, #32]
 6318 002a 93ED016A 		vldr.32	s12, [r3, #4]
 6319              		.loc 1 2084 0
 6320 002e 67EE877A 		vmul.f32	s15, s15, s14
 6321              		.loc 1 2079 0
 6322 0032 B7EE087A 		vmov.f32	s14, #1.5e+0
 6323              		.loc 1 2081 0
 6324 0036 6AEE87AA 		vmul.f32	s21, s21, s14
 6325              		.loc 1 2079 0
 6326 003a 2BEE07BA 		vmul.f32	s22, s22, s14
 6327              		.loc 1 2085 0
ARM GAS  C:\Users\CHRIST~1\AppData\Local\Temp\ccGCVH4j.s 			page 112


 6328 003e 85EE867A 		vdiv.f32	s14, s11, s12
 6329              		.loc 1 2077 0
 6330 0042 82B0     		sub	sp, sp, #8
 6331              		.cfi_def_cfa_offset 72
 6332              		.loc 1 2077 0
 6333 0044 9046     		mov	r8, r2
 6334 0046 0546     		mov	r5, r0
 6335 0048 0C46     		mov	r4, r1
 6336              		.loc 1 2084 0
 6337 004a F5EEC07A 		vcmpe.f32	s15, #0
 6338 004e F1EE10FA 		vmrs	APSR_nzcv, FPSCR
 6339 0052 B4BF     		ite	lt
 6340 0054 F1EE6A7A 		vneglt.f32	s15, s21
 6341 0058 F0EE6A7A 		vmovge.f32	s15, s21
 6342              		.loc 1 2085 0
 6343 005c 67EEE67A 		vnmul.f32	s15, s15, s13
 6344              		.loc 1 2077 0
 6345 0060 B0EE409A 		vmov.f32	s18, s0
 6346              	.LVL517:
 6347 0064 F0EE608A 		vmov.f32	s17, s1
 6348 0068 F0EE41BA 		vmov.f32	s23, s2
 6349 006c F0EE61CA 		vmov.f32	s25, s3
 6350 0070 F0EE429A 		vmov.f32	s19, s4
 6351              		.loc 1 2085 0
 6352 0074 E7EE87AA 		vfma.f32	s21, s15, s14
 6353              	.LVL518:
 6354              		.loc 1 2088 0
 6355 0078 FFF7FEFF 		bl	mc_interface_temp_motor_filtered
 6356              	.LVL519:
 6357              		.loc 1 2089 0
 6358 007c 3B68     		ldr	r3, [r7]
 6359 007e 93F81021 		ldrb	r2, [r3, #272]	@ zero_extendqisi2
 6360 0082 3AB1     		cbz	r2, .L510
 6361              		.loc 1 2089 0 is_stmt 0 discriminator 1
 6362 0084 F9EE047A 		vmov.f32	s15, #-5.0e+0
 6363 0088 B4EEE70A 		vcmpe.f32	s0, s15
 6364 008c F1EE10FA 		vmrs	APSR_nzcv, FPSCR
 6365 0090 00F39480 		bgt	.L526
 6366              	.LVL520:
 6367              	.L510:
 6368              		.loc 1 2098 0 is_stmt 1
 6369 0094 514B     		ldr	r3, .L529+8
 6370              		.loc 1 2109 0
 6371 0096 F1EE087A 		vmov.f32	s15, #6.0e+0
 6372 009a 89EEA7CA 		vdiv.f32	s24, s19, s15
 6373              	.LBB131:
 6374              	.LBB132:
 6375              		.loc 1 2113 0
 6376 009e 0626     		movs	r6, #6
 6377              	.LBE132:
 6378              	.LBE131:
 6379              		.loc 1 2095 0
 6380 00a0 6AEEAB7A 		vmul.f32	s15, s21, s23
 6381              		.loc 1 2097 0
 6382 00a4 28EE088A 		vmul.f32	s16, s16, s16
 6383              	.LVL521:
 6384              		.loc 1 2096 0
ARM GAS  C:\Users\CHRIST~1\AppData\Local\Temp\ccGCVH4j.s 			page 113


 6385 00a8 6AEEACAA 		vmul.f32	s21, s21, s25
 6386              	.LVL522:
 6387              		.loc 1 2098 0
 6388 00ac 93ED00AA 		vldr.32	s20, [r3]
 6389              	.LBB138:
 6390              	.LBB133:
 6391              		.loc 1 2113 0
 6392 00b0 DFED4B9A 		vldr.32	s19, .L529+12
 6393              	.LVL523:
 6394              	.LBE133:
 6395              	.LBE138:
 6396              		.loc 1 2098 0
 6397 00b4 B6EE007A 		vmov.f32	s14, #5.0e-1
 6398 00b8 78EEEA8A 		vsub.f32	s17, s17, s21
 6399              	.LVL524:
 6400              		.loc 1 2093 0
 6401 00bc 6BEE2BBA 		vmul.f32	s23, s22, s23
 6402              	.LVL525:
 6403              		.loc 1 2098 0
 6404 00c0 2AEE07AA 		vmul.f32	s20, s20, s14
 6405              	.LBB139:
 6406              	.LBB134:
 6407              		.loc 1 2113 0
 6408 00c4 68EE299A 		vmul.f32	s19, s16, s19
 6409 00c8 39EE679A 		vsub.f32	s18, s18, s15
 6410              	.LVL526:
 6411              	.LBE134:
 6412              	.LBE139:
 6413              		.loc 1 2094 0
 6414 00cc 2BEE2CBA 		vmul.f32	s22, s22, s25
 6415              	.LVL527:
 6416              	.LBB140:
 6417              	.LBB135:
 6418              		.loc 1 2114 0
 6419 00d0 F2EE04AA 		vmov.f32	s21, #1.0e+1
 6420 00d4 27E0     		b	.L513
 6421              	.LVL528:
 6422              	.L528:
 6423 00d6 6AEE2A5A 		vmul.f32	s11, s20, s21
 6424              	.LVL529:
 6425              	.L512:
 6426              		.loc 1 2116 0 discriminator 2
 6427 00da 95ED007A 		vldr.32	s14, [r5]
 6428              		.loc 1 2117 0 discriminator 2
 6429 00de D4ED007A 		vldr.32	s15, [r4]
 6430              		.loc 1 2116 0 discriminator 2
 6431 00e2 9DED016A 		vldr.32	s12, [sp, #4]
 6432              	.LVL530:
 6433              		.loc 1 2119 0 discriminator 2
 6434 00e6 D5ED006A 		vldr.32	s13, [r5]
 6435              		.loc 1 2116 0 discriminator 2
 6436 00ea 37EE6B7A 		vsub.f32	s14, s14, s23
 6437              		.loc 1 2117 0 discriminator 2
 6438 00ee 77EECB7A 		vsub.f32	s15, s15, s22
 6439              		.loc 1 2116 0 discriminator 2
 6440 00f2 27EE257A 		vmul.f32	s14, s14, s11
 6441              		.loc 1 2117 0 discriminator 2
ARM GAS  C:\Users\CHRIST~1\AppData\Local\Temp\ccGCVH4j.s 			page 114


 6442 00f6 67EEA57A 		vmul.f32	s15, s15, s11
 6443              		.loc 1 2116 0 discriminator 2
 6444 00fa F0EE495A 		vmov.f32	s11, s18
 6445              	.LVL531:
 6446 00fe E7EE065A 		vfma.f32	s11, s14, s12
 6447              	.LBE135:
 6448              		.loc 1 2110 0 discriminator 2
 6449 0102 013E     		subs	r6, r6, #1
 6450              	.LVL532:
 6451              	.LBB136:
 6452              		.loc 1 2117 0 discriminator 2
 6453 0104 B0EE687A 		vmov.f32	s14, s17
 6454 0108 A6EE277A 		vfma.f32	s14, s12, s15
 6455              		.loc 1 2119 0 discriminator 2
 6456 010c F0EE667A 		vmov.f32	s15, s13
 6457 0110 ECEE257A 		vfma.f32	s15, s24, s11
