ARM GAS  C:\Users\CHRIST~1\AppData\Local\Temp\ccHCQ7sQ.s 			page 1


   1              		.cpu cortex-m4
   2              		.eabi_attribute 27, 1
   3              		.eabi_attribute 28, 1
   4              		.eabi_attribute 20, 1
   5              		.eabi_attribute 21, 1
   6              		.eabi_attribute 23, 3
   7              		.eabi_attribute 24, 1
   8              		.eabi_attribute 25, 1
   9              		.eabi_attribute 26, 1
  10              		.eabi_attribute 30, 2
  11              		.eabi_attribute 34, 1
  12              		.eabi_attribute 18, 4
  13              		.file	"nrf_driver.c"
  14              		.text
  15              	.Ltext0:
  16              		.cfi_sections	.debug_frame
  17              		.section	.text.tx_thread,"ax",%progbits
  18              		.align	1
  19              		.p2align 4,,15
  20              		.syntax unified
  21              		.thumb
  22              		.thumb_func
  23              		.fpu fpv4-sp-d16
  24              		.type	tx_thread, %function
  25              	tx_thread:
  26              	.LFB223:
  27              		.file 1 "nrf/nrf_driver.c"
  28              		.loc 1 144 0
  29              		.cfi_startproc
  30              		@ args = 0, pretend = 0, frame = 8
  31              		@ frame_needed = 0, uses_anonymous_args = 0
  32              	.LVL0:
  33              	.LBB51:
  34              	.LBB52:
  35              		.file 2 "ChibiOS_3.0.2/os/rt/include/chregistry.h"
  36              		.loc 2 135 0
  37 0000 1C4B     		ldr	r3, .L10
  38 0002 1D49     		ldr	r1, .L10+4
  39 0004 9A69     		ldr	r2, [r3, #24]
  40              	.LBE52:
  41              	.LBE51:
  42              		.loc 1 144 0
  43 0006 2DE9F043 		push	{r4, r5, r6, r7, r8, r9, lr}
  44              		.cfi_def_cfa_offset 28
  45              		.cfi_offset 4, -28
  46              		.cfi_offset 5, -24
  47              		.cfi_offset 6, -20
  48              		.cfi_offset 7, -16
  49              		.cfi_offset 8, -12
  50              		.cfi_offset 9, -8
  51              		.cfi_offset 14, -4
  52              		.loc 1 148 0
  53 000a 1C4F     		ldr	r7, .L10+8
  54              		.loc 1 151 0
  55 000c 1C4D     		ldr	r5, .L10+12
  56              	.LBB54:
  57              	.LBB53:
ARM GAS  C:\Users\CHRIST~1\AppData\Local\Temp\ccHCQ7sQ.s 			page 2


  58              		.loc 2 135 0
  59 000e 9161     		str	r1, [r2, #24]
  60              	.LVL1:
  61              	.LBE53:
  62              	.LBE54:
  63              		.loc 1 148 0
  64 0010 0123     		movs	r3, #1
  65 0012 3B70     		strb	r3, [r7]
  66              		.loc 1 151 0
  67 0014 2B78     		ldrb	r3, [r5]	@ zero_extendqisi2
  68              		.loc 1 144 0
  69 0016 83B0     		sub	sp, sp, #12
  70              		.cfi_def_cfa_offset 40
  71              		.loc 1 151 0
  72 0018 33BB     		cbnz	r3, .L5
  73 001a 1A4C     		ldr	r4, .L10+16
  74              		.loc 1 158 0
  75 001c 1A4E     		ldr	r6, .L10+20
  76              	.LBB55:
  77              	.LBB56:
  78              	.LBB57:
  79              		.loc 1 138 0
  80 001e DFF86C90 		ldr	r9, .L10+24
  81              	.LBE57:
  82              	.LBE56:
  83              		.loc 1 161 0
  84 0022 4FF00208 		mov	r8, #2
  85 0026 04E0     		b	.L2
  86              	.LVL2:
  87              	.L3:
  88              	.LBE55:
  89              		.loc 1 166 0
  90 0028 0A20     		movs	r0, #10
  91 002a FFF7FEFF 		bl	chThdSleep
  92              	.LVL3:
  93              		.loc 1 151 0
  94 002e 2B78     		ldrb	r3, [r5]	@ zero_extendqisi2
  95 0030 D3B9     		cbnz	r3, .L5
  96              	.L2:
  97              		.loc 1 156 0
  98 0032 2368     		ldr	r3, [r4]
  99 0034 0133     		adds	r3, r3, #1
 100              		.loc 1 158 0
 101 0036 312B     		cmp	r3, #49
 102              		.loc 1 156 0
 103 0038 2360     		str	r3, [r4]
 104              		.loc 1 158 0
 105 003a F5DD     		ble	.L3
 106              		.loc 1 158 0 is_stmt 0 discriminator 1
 107 003c 3378     		ldrb	r3, [r6]	@ zero_extendqisi2
 108 003e 002B     		cmp	r3, #0
 109 0040 F2D1     		bne	.L3
 110              	.LVL4:
 111              	.LBB62:
 112              		.loc 1 161 0 is_stmt 1
 113 0042 02A8     		add	r0, sp, #8
 114              	.LBB60:
ARM GAS  C:\Users\CHRIST~1\AppData\Local\Temp\ccHCQ7sQ.s 			page 3


 115              	.LBB58:
 116              		.loc 1 135 0
 117 0044 0121     		movs	r1, #1
 118              	.LBE58:
 119              	.LBE60:
 120              		.loc 1 161 0
 121 0046 00F8048D 		strb	r8, [r0, #-4]!
 122              	.LVL5:
 123              	.LBB61:
 124              	.LBB59:
 125              		.loc 1 135 0
 126 004a FFF7FEFF 		bl	rfhelp_send_data_crc
 127              	.LVL6:
 128              		.loc 1 137 0
 129 004e 18B9     		cbnz	r0, .L4
 130              		.loc 1 138 0
 131 0050 4FF4FA73 		mov	r3, #500
 132 0054 C9F80030 		str	r3, [r9]
 133              	.L4:
 134              	.LBE59:
 135              	.LBE61:
 136              		.loc 1 163 0
 137 0058 0023     		movs	r3, #0
 138              	.LBE62:
 139              		.loc 1 166 0
 140 005a 0A20     		movs	r0, #10
 141              	.LBB63:
 142              		.loc 1 163 0
 143 005c 2360     		str	r3, [r4]
 144              	.LBE63:
 145              		.loc 1 166 0
 146 005e FFF7FEFF 		bl	chThdSleep
 147              	.LVL7:
 148              		.loc 1 151 0
 149 0062 2B78     		ldrb	r3, [r5]	@ zero_extendqisi2
 150 0064 002B     		cmp	r3, #0
 151 0066 E4D0     		beq	.L2
 152              	.LVL8:
 153              	.L5:
 154              		.loc 1 152 0
 155 0068 0023     		movs	r3, #0
 156 006a 3B70     		strb	r3, [r7]
 157              		.loc 1 169 0
 158 006c 03B0     		add	sp, sp, #12
 159              		.cfi_def_cfa_offset 28
 160              		@ sp needed
 161 006e BDE8F083 		pop	{r4, r5, r6, r7, r8, r9, pc}
 162              	.L11:
 163 0072 00BF     		.align	2
 164              	.L10:
 165 0074 00000000 		.word	ch
 166 0078 00000000 		.word	.LC0
 167 007c 00000000 		.word	.LANCHOR0
 168 0080 00000000 		.word	.LANCHOR1
 169 0084 00000000 		.word	.LANCHOR2
 170 0088 00000000 		.word	.LANCHOR3
 171 008c 00000000 		.word	.LANCHOR4
ARM GAS  C:\Users\CHRIST~1\AppData\Local\Temp\ccHCQ7sQ.s 			page 4


 172              		.cfi_endproc
 173              	.LFE223:
 174              		.size	tx_thread, .-tx_thread
 175              		.section	.text.rx_thread,"ax",%progbits
 176              		.align	1
 177              		.p2align 4,,15
 178              		.syntax unified
 179              		.thumb
 180              		.thumb_func
 181              		.fpu fpv4-sp-d16
 182              		.type	rx_thread, %function
 183              	rx_thread:
 184              	.LFB224:
 185              		.loc 1 171 0
 186              		.cfi_startproc
 187              		@ args = 0, pretend = 0, frame = 256
 188              		@ frame_needed = 0, uses_anonymous_args = 0
 189              	.LVL9:
 190 0000 2DE9F04F 		push	{r4, r5, r6, r7, r8, r9, r10, fp, lr}
 191              		.cfi_def_cfa_offset 36
 192              		.cfi_offset 4, -36
 193              		.cfi_offset 5, -32
 194              		.cfi_offset 6, -28
 195              		.cfi_offset 7, -24
 196              		.cfi_offset 8, -20
 197              		.cfi_offset 9, -16
 198              		.cfi_offset 10, -12
 199              		.cfi_offset 11, -8
 200              		.cfi_offset 14, -4
 201              		.loc 1 175 0
 202 0004 AA48     		ldr	r0, .L39
 203              	.LVL10:
 204              	.LBB64:
 205              	.LBB65:
 206              		.loc 2 135 0
 207 0006 AB4F     		ldr	r7, .L39+4
 208 0008 AB49     		ldr	r1, .L39+8
 209 000a BA69     		ldr	r2, [r7, #24]
 210              	.LBE65:
 211              	.LBE64:
 212              		.loc 1 175 0
 213 000c 0123     		movs	r3, #1
 214              		.loc 1 171 0
 215 000e 2DED028B 		vpush.64	{d8}
 216              		.cfi_def_cfa_offset 44
 217              		.cfi_offset 80, -44
 218              		.cfi_offset 81, -40
 219              		.loc 1 175 0
 220 0012 0370     		strb	r3, [r0]
 221              	.LBB67:
 222              		.loc 1 178 0
 223 0014 A94B     		ldr	r3, .L39+12
 224              	.LBE67:
 225              	.LBB80:
 226              	.LBB66:
 227              		.loc 2 135 0
 228 0016 9161     		str	r1, [r2, #24]
ARM GAS  C:\Users\CHRIST~1\AppData\Local\Temp\ccHCQ7sQ.s 			page 5


 229              	.LVL11:
 230              	.LBE66:
 231              	.LBE80:
 232              	.LBB81:
 233              		.loc 1 178 0
 234 0018 1B78     		ldrb	r3, [r3]	@ zero_extendqisi2
 235              	.LBE81:
 236              		.loc 1 171 0
 237 001a C1B0     		sub	sp, sp, #260
 238              		.cfi_def_cfa_offset 304
 239              	.LBB82:
 240              		.loc 1 178 0
 241 001c 002B     		cmp	r3, #0
 242 001e 40F01E81 		bne	.L13
 243 0022 A74D     		ldr	r5, .L39+16
 244 0024 DFF8AC92 		ldr	r9, .L39+36
 245 0028 DFF8ACA2 		ldr	r10, .L39+40
 246              	.LBB68:
 247              	.LBB69:
 248              	.LBB70:
 249              		.loc 1 289 0
 250 002c DFF8ACB2 		ldr	fp, .L39+44
 251              		.loc 1 291 0
 252 0030 DFF8AC82 		ldr	r8, .L39+48
 253              	.LBE70:
 254              		.loc 1 213 0
 255 0034 9FEDA38A 		vldr.32	s16, .L39+20
 256              	.L14:
 257              	.LBE69:
 258              		.loc 1 188 0
 259 0038 04AA     		add	r2, sp, #16
 260 003a 03A9     		add	r1, sp, #12
 261 003c 06A8     		add	r0, sp, #24
 262 003e FFF7FEFF 		bl	rfhelp_read_rx_data_crc
 263              	.LVL12:
 264              		.loc 1 191 0
 265 0042 0023     		movs	r3, #0
 266              		.loc 1 195 0
 267 0044 041E     		subs	r4, r0, #0
 268              		.loc 1 191 0
 269 0046 0593     		str	r3, [sp, #20]
 270              		.loc 1 195 0
 271 0048 C0F2ED80 		blt	.L15
 272              	.LBB74:
 273              		.loc 1 196 0
 274 004c 9DF81830 		ldrb	r3, [sp, #24]	@ zero_extendqisi2
 275              	.LVL13:
 276              		.loc 1 198 0
 277 0050 4FF4FA72 		mov	r2, #500
 278              		.loc 1 200 0
 279 0054 013B     		subs	r3, r3, #1
 280              	.LVL14:
 281              		.loc 1 198 0
 282 0056 2A60     		str	r2, [r5]
 283              		.loc 1 200 0
 284 0058 062B     		cmp	r3, #6
 285 005a 34D8     		bhi	.L16
ARM GAS  C:\Users\CHRIST~1\AppData\Local\Temp\ccHCQ7sQ.s 			page 6


 286 005c DFE803F0 		tbb	[pc, r3]
 287              	.L18:
 288 0060 04       		.byte	(.L17-.L18)/2
 289 0061 33       		.byte	(.L16-.L18)/2
 290 0062 95       		.byte	(.L19-.L18)/2
 291 0063 85       		.byte	(.L20-.L18)/2
 292 0064 4D       		.byte	(.L21-.L18)/2
 293 0065 3A       		.byte	(.L22-.L18)/2
 294 0066 A0       		.byte	(.L23-.L18)/2
 295 0067 00       		.p2align 1
 296              	.L17:
 297              		.loc 1 209 0
 298 0068 9DF81B30 		ldrb	r3, [sp, #27]	@ zero_extendqisi2
 299              	.LVL15:
 300              		.loc 1 207 0
 301 006c 964E     		ldr	r6, .L39+24
 302 006e 9DF81920 		ldrb	r2, [sp, #25]	@ zero_extendqisi2
 303 0072 3270     		strb	r2, [r6]
 304              		.loc 1 210 0
 305 0074 03F00101 		and	r1, r3, #1
 306              		.loc 1 208 0
 307 0078 9DF81A20 		ldrb	r2, [sp, #26]	@ zero_extendqisi2
 308              		.loc 1 210 0
 309 007c B170     		strb	r1, [r6, #2]
 310              		.loc 1 211 0
 311 007e C3F34001 		ubfx	r1, r3, #1, #1
 312              		.loc 1 208 0
 313 0082 7270     		strb	r2, [r6, #1]
 314              		.loc 1 212 0
 315 0084 C3F38003 		ubfx	r3, r3, #2, #1
 316              	.LVL16:
 317              		.loc 1 209 0
 318 0088 0422     		movs	r2, #4
 319              		.loc 1 211 0
 320 008a F170     		strb	r1, [r6, #3]
 321              		.loc 1 213 0
 322 008c 06A8     		add	r0, sp, #24
 323              	.LVL17:
 324 008e 05A9     		add	r1, sp, #20
 325              		.loc 1 212 0
 326 0090 3371     		strb	r3, [r6, #4]
 327              		.loc 1 209 0
 328 0092 0592     		str	r2, [sp, #20]
 329              		.loc 1 213 0
 330 0094 FFF7FEFF 		bl	buffer_get_int16
 331              	.LVL18:
 332 0098 07EE900A 		vmov	s15, r0	@ int
 333 009c B8EEE77A 		vcvt.f32.s32	s14, s15
 334              		.loc 1 215 0
 335 00a0 3378     		ldrb	r3, [r6]	@ zero_extendqisi2
 336              		.loc 1 216 0
 337 00a2 7278     		ldrb	r2, [r6, #1]	@ zero_extendqisi2
 338 00a4 0F92     		str	r2, [sp, #60]
 339              		.loc 1 213 0
 340 00a6 C7EE087A 		vdiv.f32	s15, s14, s16
 341              		.loc 1 215 0
 342 00aa C3F1FF03 		rsb	r3, r3, #255
ARM GAS  C:\Users\CHRIST~1\AppData\Local\Temp\ccHCQ7sQ.s 			page 7


 343              		.loc 1 217 0
 344 00ae B178     		ldrb	r1, [r6, #2]	@ zero_extendqisi2
 345              		.loc 1 218 0
 346 00b0 F278     		ldrb	r2, [r6, #3]	@ zero_extendqisi2
 347              		.loc 1 215 0
 348 00b2 0E93     		str	r3, [sp, #56]
 349              		.loc 1 220 0
 350 00b4 0EA8     		add	r0, sp, #56
 351              		.loc 1 217 0
 352 00b6 8DF84C10 		strb	r1, [sp, #76]
 353              		.loc 1 218 0
 354 00ba 8DF84D20 		strb	r2, [sp, #77]
 355              		.loc 1 213 0
 356 00be C6ED027A 		vstr.32	s15, [r6, #8]
 357              		.loc 1 220 0
 358 00c2 FFF7FEFF 		bl	app_nunchuk_update_output
 359              	.LVL19:
 360              	.L16:
 361              	.LBE74:
 362              		.loc 1 310 0
 363 00c6 002C     		cmp	r4, #0
 364 00c8 00F0AD80 		beq	.L15
 365              		.loc 1 314 0
 366 00cc 0A20     		movs	r0, #10
 367 00ce FFF7FEFF 		bl	chThdSleep
 368              	.LVL20:
 369              	.LBE68:
 370              		.loc 1 187 0
 371 00d2 B1E7     		b	.L14
 372              	.LVL21:
 373              	.L22:
 374              	.LBB76:
 375              	.LBB75:
 376              		.loc 1 267 0
 377 00d4 1420     		movs	r0, #20
 378              	.LVL22:
 379 00d6 FFF7FEFF 		bl	chThdSleep
 380              	.LVL23:
 381              		.loc 1 269 0
 382 00da 7C48     		ldr	r0, .L39+28
 383 00dc FFF7FEFF 		bl	commands_set_send_func
 384              	.LVL24:
 385              		.loc 1 271 0
 386 00e0 0399     		ldr	r1, [sp, #12]
 387              		.loc 1 270 0
 388 00e2 0123     		movs	r3, #1
 389              		.loc 1 271 0
 390 00e4 0139     		subs	r1, r1, #1
 391 00e6 0DF11900 		add	r0, sp, #25
 392              		.loc 1 270 0
 393 00ea 88F80030 		strb	r3, [r8]
 394              		.loc 1 271 0
 395 00ee FFF7FEFF 		bl	commands_process_packet
 396              	.LVL25:
 397              		.loc 1 272 0
 398 00f2 0023     		movs	r3, #0
 399 00f4 88F80030 		strb	r3, [r8]
ARM GAS  C:\Users\CHRIST~1\AppData\Local\Temp\ccHCQ7sQ.s 			page 8


 400              		.loc 1 273 0
 401 00f8 E5E7     		b	.L16
 402              	.LVL26:
 403              	.L21:
 404              	.LBB71:
 405              		.loc 1 238 0
 406 00fa 9DF81920 		ldrb	r2, [sp, #25]	@ zero_extendqisi2
 407              	.LVL27:
 408              		.loc 1 239 0
 409 00fe 9DF81A30 		ldrb	r3, [sp, #26]	@ zero_extendqisi2
 410              	.LVL28:
 411 0102 43EA0226 		orr	r6, r3, r2, lsl #8
 412              	.LVL29:
 413              		.loc 1 241 0
 414 0106 B6F5806F 		cmp	r6, #1024
 415              		.loc 1 239 0
 416 010a 4FF00302 		mov	r2, #3
 417 010e 0592     		str	r2, [sp, #20]
 418              		.loc 1 241 0
 419 0110 D9D8     		bhi	.L16
 420              	.LVL30:
 421              		.loc 1 248 0
 422 0112 039A     		ldr	r2, [sp, #12]
 423              		.loc 1 245 0
 424 0114 9DF81B30 		ldrb	r3, [sp, #27]	@ zero_extendqisi2
 425 0118 0093     		str	r3, [sp]
 426              	.LVL31:
 427              		.loc 1 248 0
 428 011a 053A     		subs	r2, r2, #5
 429 011c 6C4B     		ldr	r3, .L39+32
 430              		.loc 1 246 0
 431 011e 9DF81C10 		ldrb	r1, [sp, #28]	@ zero_extendqisi2
 432 0122 0191     		str	r1, [sp, #4]
 433              	.LVL32:
 434              		.loc 1 248 0
 435 0124 B01A     		subs	r0, r6, r2
 436              	.LVL33:
 437 0126 1844     		add	r0, r0, r3
 438 0128 0DF11D01 		add	r1, sp, #29
 439              		.loc 1 246 0
 440 012c 0523     		movs	r3, #5
 441 012e 0593     		str	r3, [sp, #20]
 442              		.loc 1 248 0
 443 0130 FFF7FEFF 		bl	memcpy
 444              	.LVL34:
 445              		.loc 1 250 0
 446 0134 3146     		mov	r1, r6
 447 0136 6648     		ldr	r0, .L39+32
 448 0138 FFF7FEFF 		bl	crc16
 449              	.LVL35:
 450              		.loc 1 252 0
 451 013c DDE90031 		ldrd	r3, r1, [sp]
 452 0140 41EA0322 		orr	r2, r1, r3, lsl #8
 453              		.loc 1 250 0
 454 0144 9042     		cmp	r0, r2
 455 0146 BED1     		bne	.L16
 456              		.loc 1 255 0
ARM GAS  C:\Users\CHRIST~1\AppData\Local\Temp\ccHCQ7sQ.s 			page 9


 457 0148 1420     		movs	r0, #20
 458 014a FFF7FEFF 		bl	chThdSleep
 459              	.LVL36:
 460              		.loc 1 257 0
 461 014e 5F48     		ldr	r0, .L39+28
 462 0150 FFF7FEFF 		bl	commands_set_send_func
 463              	.LVL37:
 464              		.loc 1 258 0
 465 0154 0123     		movs	r3, #1
 466              		.loc 1 259 0
 467 0156 3146     		mov	r1, r6
 468 0158 5D48     		ldr	r0, .L39+32
 469              		.loc 1 258 0
 470 015a 88F80030 		strb	r3, [r8]
 471              		.loc 1 259 0
 472 015e FFF7FEFF 		bl	commands_process_packet
 473              	.LVL38:
 474              		.loc 1 260 0
 475 0162 0023     		movs	r3, #0
 476 0164 88F80030 		strb	r3, [r8]
 477 0168 ADE7     		b	.L16
 478              	.LVL39:
 479              	.L20:
 480 016a BDF81930 		ldrh	r3, [sp, #25]	@ unaligned
 481              	.LVL40:
 482 016e 5BBA     		rev16	r3, r3
 483 0170 9BB2     		uxth	r3, r3
 484              	.LVL41:
 485              	.LBE71:
 486              	.LBB72:
 487              		.loc 1 230 0
 488 0172 B3F5806F 		cmp	r3, #1024
 489 0176 A6D2     		bcs	.L16
 490              		.loc 1 231 0
 491 0178 039A     		ldr	r2, [sp, #12]
 492 017a 5548     		ldr	r0, .L39+32
 493              	.LVL42:
 494 017c 033A     		subs	r2, r2, #3
 495 017e 1844     		add	r0, r0, r3
 496 0180 0DF11B01 		add	r1, sp, #27
 497 0184 FFF7FEFF 		bl	memcpy
 498              	.LVL43:
 499 0188 9DE7     		b	.L16
 500              	.LVL44:
 501              	.L19:
 502              	.LBE72:
 503              		.loc 1 224 0
 504 018a 9DF81930 		ldrb	r3, [sp, #25]	@ zero_extendqisi2
 505              	.LVL45:
 506 018e 039A     		ldr	r2, [sp, #12]
 507 0190 4F48     		ldr	r0, .L39+32
 508              	.LVL46:
 509 0192 023A     		subs	r2, r2, #2
 510 0194 1844     		add	r0, r0, r3
 511 0196 0DF11A01 		add	r1, sp, #26
 512 019a FFF7FEFF 		bl	memcpy
 513              	.LVL47:
ARM GAS  C:\Users\CHRIST~1\AppData\Local\Temp\ccHCQ7sQ.s 			page 10


 514              		.loc 1 225 0
 515 019e 92E7     		b	.L16
 516              	.LVL48:
 517              	.L23:
 518              	.LBB73:
 519              		.loc 1 276 0
 520 01a0 0126     		movs	r6, #1
 521 01a2 0596     		str	r6, [sp, #20]
 522              		.loc 1 278 0
 523 01a4 FFF7FEFF 		bl	app_get_configuration
 524              	.LVL49:
 525 01a8 C822     		movs	r2, #200
 526 01aa 0146     		mov	r1, r0
 527 01ac 0EA8     		add	r0, sp, #56
 528 01ae FFF7FEFF 		bl	memcpy
 529              	.LVL50:
 530              		.loc 1 279 0
 531 01b2 059B     		ldr	r3, [sp, #20]
 532              		.loc 1 283 0
 533 01b4 8DF8F660 		strb	r6, [sp, #246]
 534              		.loc 1 279 0
 535 01b8 40AA     		add	r2, sp, #256
 536 01ba 1A44     		add	r2, r2, r3
 537              		.loc 1 282 0
 538 01bc 0433     		adds	r3, r3, #4
 539              		.loc 1 279 0
 540 01be 12F8E8EC 		ldrb	lr, [r2, #-232]	@ zero_extendqisi2
 541              		.loc 1 280 0
 542 01c2 12F8E7CC 		ldrb	ip, [r2, #-231]	@ zero_extendqisi2
 543              		.loc 1 281 0
 544 01c6 12F8E61C 		ldrb	r1, [r2, #-230]	@ zero_extendqisi2
 545              		.loc 1 286 0
 546 01ca 8DF8FD60 		strb	r6, [sp, #253]
 547              		.loc 1 282 0
 548 01ce 12F8E52C 		ldrb	r2, [r2, #-229]	@ zero_extendqisi2
 549              		.loc 1 291 0
 550 01d2 88F80060 		strb	r6, [r8]
 551              		.loc 1 282 0
 552 01d6 0593     		str	r3, [sp, #20]
 553              		.loc 1 287 0
 554 01d8 0026     		movs	r6, #0
 555              		.loc 1 284 0
 556 01da 0323     		movs	r3, #3
 557              		.loc 1 292 0
 558 01dc 0EA8     		add	r0, sp, #56
 559              		.loc 1 279 0
 560 01de 8DF8FAE0 		strb	lr, [sp, #250]
 561              		.loc 1 280 0
 562 01e2 8DF8FBC0 		strb	ip, [sp, #251]
 563              		.loc 1 282 0
 564 01e6 8DF8F920 		strb	r2, [sp, #249]
 565              		.loc 1 284 0
 566 01ea 8DF8F830 		strb	r3, [sp, #248]
 567              		.loc 1 285 0
 568 01ee 8DF8F730 		strb	r3, [sp, #247]
 569              		.loc 1 281 0
 570 01f2 8DF8FC10 		strb	r1, [sp, #252]
ARM GAS  C:\Users\CHRIST~1\AppData\Local\Temp\ccHCQ7sQ.s 			page 11


 571              		.loc 1 287 0
 572 01f6 8DF8F460 		strb	r6, [sp, #244]
 573              		.loc 1 289 0
 574 01fa 8BF80060 		strb	r6, [fp]
 575              		.loc 1 292 0
 576 01fe FFF7FEFF 		bl	conf_general_store_app_configuration
 577              	.LVL51:
 578              		.loc 1 293 0
 579 0202 0EA8     		add	r0, sp, #56
 580 0204 FFF7FEFF 		bl	app_set_configuration
 581              	.LVL52:
 582              		.loc 1 294 0
 583 0208 0EA9     		add	r1, sp, #56
 584 020a 1120     		movs	r0, #17
 585 020c FFF7FEFF 		bl	commands_send_appconf
 586              	.LVL53:
 587              		.loc 1 297 0
 588 0210 40A8     		add	r0, sp, #256
 589 0212 40F22513 		movw	r3, #293
 590 0216 20F8F83D 		strh	r3, [r0, #-248]!	@ movhi
 591              		.loc 1 299 0
 592 021a 0221     		movs	r1, #2
 593 021c FFF7FEFF 		bl	commands_send_packet
 594              	.LVL54:
 595              		.loc 1 301 0
 596 0220 88F80060 		strb	r6, [r8]
 597              	.LBE73:
 598              		.loc 1 302 0
 599 0224 4FE7     		b	.L16
 600              	.L15:
 601              	.LBE75:
 602              	.LBE76:
 603              	.LBB77:
 604              	.LBB78:
 605              		.file 3 "ChibiOS_3.0.2/os/rt/include/chvt.h"
 606              		.loc 3 231 0
 607 0226 BB6A     		ldr	r3, [r7, #40]
 608              	.LBE78:
 609              	.LBE77:
 610              		.loc 1 318 0
 611 0228 D9F80020 		ldr	r2, [r9]
 612 022c 9A42     		cmp	r2, r3
 613 022e 02D2     		bcs	.L26
 614              		.loc 1 318 0 is_stmt 0 discriminator 1
 615 0230 9BF80030 		ldrb	r3, [fp]	@ zero_extendqisi2
 616 0234 2BBB     		cbnz	r3, .L38
 617              	.L26:
 618              		.loc 1 329 0 is_stmt 1
 619 0236 3220     		movs	r0, #50
 620 0238 FFF7FEFF 		bl	chThdSleep
 621              	.LVL55:
 622              		.loc 1 332 0
 623 023c 2B68     		ldr	r3, [r5]
 624 023e 002B     		cmp	r3, #0
 625 0240 15DD     		ble	.L27
 626              		.loc 1 332 0 is_stmt 0 discriminator 1
 627 0242 DAF80020 		ldr	r2, [r10]
ARM GAS  C:\Users\CHRIST~1\AppData\Local\Temp\ccHCQ7sQ.s 			page 12


 628 0246 002A     		cmp	r2, #0
 629 0248 11DD     		ble	.L27
 630              		.loc 1 333 0 is_stmt 1
 631 024a 053B     		subs	r3, r3, #5
 632              		.loc 1 334 0
 633 024c 053A     		subs	r2, r2, #5
 634              		.loc 1 333 0
 635 024e 2B60     		str	r3, [r5]
 636              		.loc 1 334 0
 637 0250 CAF80020 		str	r2, [r10]
 638              	.L28:
 639              		.loc 1 178 0
 640 0254 194B     		ldr	r3, .L39+12
 641 0256 1B78     		ldrb	r3, [r3]	@ zero_extendqisi2
 642 0258 002B     		cmp	r3, #0
 643 025a 3FF4EDAE 		beq	.L14
 644              	.LVL56:
 645              	.L13:
 646              		.loc 1 179 0
 647 025e 144A     		ldr	r2, .L39
 648 0260 0023     		movs	r3, #0
 649 0262 1370     		strb	r3, [r2]
 650              	.LBE82:
 651              		.loc 1 342 0
 652 0264 41B0     		add	sp, sp, #260
 653              		.cfi_remember_state
 654              		.cfi_def_cfa_offset 44
 655              		@ sp needed
 656 0266 BDEC028B 		vldm	sp!, {d8}
 657              		.cfi_restore 80
 658              		.cfi_restore 81
 659              		.cfi_def_cfa_offset 36
 660 026a BDE8F08F 		pop	{r4, r5, r6, r7, r8, r9, r10, fp, pc}
 661              	.LVL57:
 662              	.L27:
 663              		.cfi_restore_state
 664              	.LBB83:
 665              		.loc 1 336 0
 666 026e FFF7FEFF 		bl	rfhelp_power_up
 667              	.LVL58:
 668              		.loc 1 337 0
 669 0272 FFF7FEFF 		bl	rfhelp_restart
 670              	.LVL59:
 671              		.loc 1 338 0
 672 0276 4FF4FA73 		mov	r3, #500
 673 027a 2B60     		str	r3, [r5]
 674              		.loc 1 339 0
 675 027c CAF80030 		str	r3, [r10]
 676 0280 E8E7     		b	.L28
 677              	.L38:
 678              	.LBB79:
 679              		.loc 1 319 0
 680 0282 0023     		movs	r3, #0
 681 0284 8BF80030 		strb	r3, [fp]
 682              		.loc 1 320 0
 683 0288 FFF7FEFF 		bl	app_get_configuration
 684              	.LVL60:
ARM GAS  C:\Users\CHRIST~1\AppData\Local\Temp\ccHCQ7sQ.s 			page 13


 685 028c BC30     		adds	r0, r0, #188
 686 028e 07C8     		ldm	r0, {r0, r1, r2}
 687 0290 0EAB     		add	r3, sp, #56
 688 0292 03C3     		stmia	r3!, {r0, r1}
 689              		.loc 1 321 0
 690 0294 0EA8     		add	r0, sp, #56
 691              		.loc 1 320 0
 692 0296 1A80     		strh	r2, [r3]	@ movhi
 693              		.loc 1 321 0
 694 0298 FFF7FEFF 		bl	rfhelp_update_conf
 695              	.LVL61:
 696              		.loc 1 324 0
 697 029c 40A8     		add	r0, sp, #256
 698 029e 40F22523 		movw	r3, #549
 699 02a2 20F8EC3D 		strh	r3, [r0, #-236]!	@ movhi
 700              		.loc 1 326 0
 701 02a6 0221     		movs	r1, #2
 702 02a8 FFF7FEFF 		bl	commands_send_packet
 703              	.LVL62:
 704 02ac C3E7     		b	.L26
 705              	.L40:
 706 02ae 00BF     		.align	2
 707              	.L39:
 708 02b0 00000000 		.word	.LANCHOR5
 709 02b4 00000000 		.word	ch
 710 02b8 00000000 		.word	.LC1
 711 02bc 00000000 		.word	.LANCHOR6
 712 02c0 00000000 		.word	.LANCHOR7
 713 02c4 00007A44 		.word	1148846080
 714 02c8 00000000 		.word	.LANCHOR8
 715 02cc 00000000 		.word	nrf_driver_send_buffer
 716 02d0 00000000 		.word	.LANCHOR9
 717 02d4 00000000 		.word	.LANCHOR11
 718 02d8 00000000 		.word	.LANCHOR4
 719 02dc 00000000 		.word	.LANCHOR3
 720 02e0 00000000 		.word	.LANCHOR10
 721              	.LBE79:
 722              	.LBE83:
 723              		.cfi_endproc
 724              	.LFE224:
 725              		.size	rx_thread, .-rx_thread
 726              		.section	.text.nrf_driver_send_buffer,"ax",%progbits
 727              		.align	1
 728              		.p2align 4,,15
 729              		.global	nrf_driver_send_buffer
 730              		.syntax unified
 731              		.thumb
 732              		.thumb_func
 733              		.fpu fpv4-sp-d16
 734              		.type	nrf_driver_send_buffer, %function
 735              	nrf_driver_send_buffer:
 736              	.LFB225:
 737              		.loc 1 344 0
 738              		.cfi_startproc
 739              		@ args = 0, pretend = 0, frame = 40
 740              		@ frame_needed = 0, uses_anonymous_args = 0
 741              	.LVL63:
ARM GAS  C:\Users\CHRIST~1\AppData\Local\Temp\ccHCQ7sQ.s 			page 14


 742 0000 2DE9F04F 		push	{r4, r5, r6, r7, r8, r9, r10, fp, lr}
 743              		.cfi_def_cfa_offset 36
 744              		.cfi_offset 4, -36
 745              		.cfi_offset 5, -32
 746              		.cfi_offset 6, -28
 747              		.cfi_offset 7, -24
 748              		.cfi_offset 8, -20
 749              		.cfi_offset 9, -16
 750              		.cfi_offset 10, -12
 751              		.cfi_offset 11, -8
 752              		.cfi_offset 14, -4
 753              		.loc 1 347 0
 754 0004 1829     		cmp	r1, #24
 755              		.loc 1 344 0
 756 0006 8BB0     		sub	sp, sp, #44
 757              		.cfi_def_cfa_offset 80
 758              		.loc 1 344 0
 759 0008 8846     		mov	r8, r1
 760 000a 0646     		mov	r6, r0
 761              		.loc 1 347 0
 762 000c 6DD9     		bls	.L59
 763              	.LVL64:
 764              	.LBB103:
 765              	.LBB104:
 766              	.LBB105:
 767              		.loc 1 356 0
 768 000e A1F11405 		sub	r5, r1, #20
 769              	.LVL65:
 770 0012 694F     		ldr	r7, .L64
 771              	.LBB106:
 772              	.LBB107:
 773              	.LBB108:
 774              	.LBB109:
 775              		.loc 1 138 0
 776 0014 DFF8A4A1 		ldr	r10, .L64+4
 777              	.LBE109:
 778              	.LBE108:
 779              	.LBE107:
 780              	.LBE106:
 781              		.loc 1 355 0
 782 0018 0021     		movs	r1, #0
 783              	.LVL66:
 784              	.LBB117:
 785              	.LBB114:
 786              		.loc 1 366 0
 787 001a 4FF00309 		mov	r9, #3
 788 001e 02E0     		b	.L45
 789              	.LVL67:
 790              	.L50:
 791              		.loc 1 359 0
 792 0020 B4F58A7F 		cmp	r4, #276
 793 0024 7BD0     		beq	.L60
 794              	.LVL68:
 795              	.L45:
 796              		.loc 1 363 0
 797 0026 01F11704 		add	r4, r1, #23
 798              	.LVL69:
ARM GAS  C:\Users\CHRIST~1\AppData\Local\Temp\ccHCQ7sQ.s 			page 15


 799 002a E3B2     		uxtb	r3, r4
 800              		.loc 1 367 0
 801 002c A3F11702 		sub	r2, r3, #23
 802              		.loc 1 369 0
 803 0030 A542     		cmp	r5, r4
 804              		.loc 1 366 0
 805 0032 8DF80C90 		strb	r9, [sp, #12]
 806 0036 3144     		add	r1, r1, r6
 807              	.LVL70:
 808              		.loc 1 367 0
 809 0038 8DF80D20 		strb	r2, [sp, #13]
 810              		.loc 1 369 0
 811 003c C0F0AE80 		bcc	.L47
 812              		.loc 1 370 0
 813 0040 0B68     		ldr	r3, [r1]	@ unaligned
 814 0042 4A68     		ldr	r2, [r1, #4]	@ unaligned
 815 0044 CDF80E30 		str	r3, [sp, #14]	@ unaligned
 816 0048 CDF81220 		str	r2, [sp, #18]	@ unaligned
 817 004c 8B68     		ldr	r3, [r1, #8]	@ unaligned
 818 004e CA68     		ldr	r2, [r1, #12]	@ unaligned
 819 0050 888A     		ldrh	r0, [r1, #20]	@ unaligned
 820 0052 CDF81630 		str	r3, [sp, #22]	@ unaligned
 821 0056 CDF81A20 		str	r2, [sp, #26]	@ unaligned
 822 005a 0B69     		ldr	r3, [r1, #16]	@ unaligned
 823 005c 8A7D     		ldrb	r2, [r1, #22]	@ zero_extendqisi2
 824 005e CDF81E30 		str	r3, [sp, #30]	@ unaligned
 825 0062 ADF82200 		strh	r0, [sp, #34]	@ unaligned
 826 0066 8DF82420 		strb	r2, [sp, #36]
 827 006a 1921     		movs	r1, #25
 828              	.LVL71:
 829              	.L48:
 830              	.LBB112:
 831              	.LBB110:
 832              		.loc 1 135 0
 833 006c 03A8     		add	r0, sp, #12
 834              	.LVL72:
 835 006e FFF7FEFF 		bl	rfhelp_send_data_crc
 836              	.LVL73:
 837              	.LBE110:
 838              	.LBE112:
 839              		.loc 1 377 0
 840 0072 0023     		movs	r3, #0
 841 0074 2146     		mov	r1, r4
 842              	.LBB113:
 843              	.LBB111:
 844              		.loc 1 137 0
 845 0076 18B9     		cbnz	r0, .L49
 846              	.LVL74:
 847              		.loc 1 138 0
 848 0078 4FF4FA72 		mov	r2, #500
 849 007c CAF80020 		str	r2, [r10]
 850              	.L49:
 851              	.LBE111:
 852              	.LBE113:
 853              	.LBE114:
 854              		.loc 1 358 0
 855 0080 A542     		cmp	r5, r4
ARM GAS  C:\Users\CHRIST~1\AppData\Local\Temp\ccHCQ7sQ.s 			page 16


 856              	.LBB115:
 857              		.loc 1 377 0
 858 0082 3B60     		str	r3, [r7]
 859              	.LBE115:
 860              		.loc 1 358 0
 861 0084 CCD8     		bhi	.L50
 862              	.LVL75:
 863              	.L51:
 864              	.LBE117:
 865              		.loc 1 398 0
 866 0086 0522     		movs	r2, #5
 867              		.loc 1 399 0
 868 0088 4FEA1823 		lsr	r3, r8, #8
 869              		.loc 1 401 0
 870 008c 4146     		mov	r1, r8
 871 008e 3046     		mov	r0, r6
 872              		.loc 1 404 0
 873 0090 3544     		add	r5, r5, r6
 874              	.LVL76:
 875              		.loc 1 398 0
 876 0092 8DF80C20 		strb	r2, [sp, #12]
 877              	.LVL77:
 878              		.loc 1 399 0
 879 0096 8DF80D30 		strb	r3, [sp, #13]
 880              	.LVL78:
 881              		.loc 1 400 0
 882 009a 8DF80E80 		strb	r8, [sp, #14]
 883              		.loc 1 401 0
 884 009e FFF7FEFF 		bl	crc16
 885              	.LVL79:
 886              		.loc 1 404 0
 887 00a2 2B68     		ldr	r3, [r5]	@ unaligned
 888 00a4 6968     		ldr	r1, [r5, #4]	@ unaligned
 889 00a6 CDF81130 		str	r3, [sp, #17]	@ unaligned
 890              		.loc 1 401 0
 891 00aa 0246     		mov	r2, r0
 892              	.LVL80:
 893              		.loc 1 402 0
 894 00ac 030A     		lsrs	r3, r0, #8
 895              		.loc 1 403 0
 896 00ae 8DF81020 		strb	r2, [sp, #16]
 897              		.loc 1 404 0
 898 00b2 AC68     		ldr	r4, [r5, #8]	@ unaligned
 899              		.loc 1 402 0
 900 00b4 8DF80F30 		strb	r3, [sp, #15]
 901              	.LVL81:
 902              		.loc 1 404 0
 903 00b8 EA68     		ldr	r2, [r5, #12]	@ unaligned
 904 00ba 2B69     		ldr	r3, [r5, #16]	@ unaligned
 905 00bc CDF81510 		str	r1, [sp, #21]	@ unaligned
 906              	.LBB118:
 907              	.LBB119:
 908              		.loc 1 135 0
 909 00c0 03A8     		add	r0, sp, #12
 910              	.LVL82:
 911 00c2 1921     		movs	r1, #25
 912              	.LBE119:
ARM GAS  C:\Users\CHRIST~1\AppData\Local\Temp\ccHCQ7sQ.s 			page 17


 913              	.LBE118:
 914              		.loc 1 404 0
 915 00c4 CDF81940 		str	r4, [sp, #25]	@ unaligned
 916 00c8 CDF81D20 		str	r2, [sp, #29]	@ unaligned
 917 00cc CDF82130 		str	r3, [sp, #33]	@ unaligned
 918              	.LVL83:
 919              	.LBB122:
 920              	.LBB120:
 921              		.loc 1 135 0
 922 00d0 FFF7FEFF 		bl	rfhelp_send_data_crc
 923              	.LVL84:
 924              		.loc 1 137 0
 925 00d4 20B1     		cbz	r0, .L61
 926              	.L55:
 927              	.LVL85:
 928              	.LBE120:
 929              	.LBE122:
 930              		.loc 1 408 0
 931 00d6 0023     		movs	r3, #0
 932 00d8 3B60     		str	r3, [r7]
 933              	.LBE105:
 934              	.LBE104:
 935              	.LBE103:
 936              		.loc 1 410 0
 937 00da 0BB0     		add	sp, sp, #44
 938              		.cfi_remember_state
 939              		.cfi_def_cfa_offset 36
 940              		@ sp needed
 941 00dc BDE8F08F 		pop	{r4, r5, r6, r7, r8, r9, r10, fp, pc}
 942              	.LVL86:
 943              	.L61:
 944              		.cfi_restore_state
 945              	.LBB137:
 946              	.LBB135:
 947              	.LBB133:
 948              	.LBB123:
 949              	.LBB121:
 950              		.loc 1 138 0
 951 00e0 364B     		ldr	r3, .L64+4
 952 00e2 4FF4FA72 		mov	r2, #500
 953 00e6 1A60     		str	r2, [r3]
 954 00e8 F5E7     		b	.L55
 955              	.LVL87:
 956              	.L59:
 957              	.LBE121:
 958              	.LBE123:
 959              	.LBE133:
 960              	.LBE135:
 961              	.LBE137:
 962              	.LBB138:
 963              		.loc 1 349 0
 964 00ea 0AAC     		add	r4, sp, #40
 965 00ec 0623     		movs	r3, #6
 966 00ee 04F81C3D 		strb	r3, [r4, #-28]!
 967              		.loc 1 350 0
 968 00f2 0146     		mov	r1, r0
 969              	.LVL88:
ARM GAS  C:\Users\CHRIST~1\AppData\Local\Temp\ccHCQ7sQ.s 			page 18


 970 00f4 4246     		mov	r2, r8
 971 00f6 0DF10D00 		add	r0, sp, #13
 972              	.LVL89:
 973 00fa FFF7FEFF 		bl	memcpy
 974              	.LVL90:
 975              	.LBB139:
 976              	.LBB140:
 977              		.loc 1 135 0
 978 00fe 2046     		mov	r0, r4
 979 0100 08F10101 		add	r1, r8, #1
 980              	.LVL91:
 981 0104 FFF7FEFF 		bl	rfhelp_send_data_crc
 982              	.LVL92:
 983              		.loc 1 137 0
 984 0108 18B9     		cbnz	r0, .L43
 985              		.loc 1 138 0
 986 010a 2C4B     		ldr	r3, .L64+4
 987 010c 4FF4FA72 		mov	r2, #500
 988 0110 1A60     		str	r2, [r3]
 989              	.L43:
 990              	.LVL93:
 991              	.LBE140:
 992              	.LBE139:
 993              		.loc 1 353 0
 994 0112 294B     		ldr	r3, .L64
 995 0114 0022     		movs	r2, #0
 996 0116 1A60     		str	r2, [r3]
 997              	.LBE138:
 998              		.loc 1 410 0
 999 0118 0BB0     		add	sp, sp, #44
 1000              		.cfi_remember_state
 1001              		.cfi_def_cfa_offset 36
 1002              		@ sp needed
 1003 011a BDE8F08F 		pop	{r4, r5, r6, r7, r8, r9, r10, fp, pc}
 1004              	.LVL94:
 1005              	.L60:
 1006              		.cfi_restore_state
 1007 011e A6F1160B 		sub	fp, r6, #22
 1008              	.LBB141:
 1009              	.LBB136:
 1010              	.LBB134:
 1011              	.LBB124:
 1012              	.LBB125:
 1013              		.loc 1 382 0
 1014 0122 4FF0040A 		mov	r10, #4
 1015 0126 05F11609 		add	r9, r5, #22
 1016 012a 0196     		str	r6, [sp, #4]
 1017 012c 1EE0     		b	.L46
 1018              	.LVL95:
 1019              	.L63:
 1020              		.loc 1 387 0
 1021 012e 0B68     		ldr	r3, [r1]	@ unaligned
 1022 0130 4A68     		ldr	r2, [r1, #4]	@ unaligned
 1023 0132 CDF80F30 		str	r3, [sp, #15]	@ unaligned
 1024 0136 8B68     		ldr	r3, [r1, #8]	@ unaligned
 1025 0138 C868     		ldr	r0, [r1, #12]	@ unaligned
 1026 013a CDF81320 		str	r2, [sp, #19]	@ unaligned
ARM GAS  C:\Users\CHRIST~1\AppData\Local\Temp\ccHCQ7sQ.s 			page 19


 1027 013e CDF81730 		str	r3, [sp, #23]	@ unaligned
 1028 0142 8A8A     		ldrh	r2, [r1, #20]	@ unaligned
 1029 0144 0B69     		ldr	r3, [r1, #16]	@ unaligned
 1030 0146 CDF81B00 		str	r0, [sp, #27]	@ unaligned
 1031 014a CDF81F30 		str	r3, [sp, #31]	@ unaligned
 1032 014e ADF82320 		strh	r2, [sp, #35]	@ unaligned
 1033 0152 1921     		movs	r1, #25
 1034              	.LVL96:
 1035              	.L53:
 1036              	.LBB126:
 1037              	.LBB127:
 1038              		.loc 1 135 0
 1039 0154 03A8     		add	r0, sp, #12
 1040              	.LVL97:
 1041 0156 FFF7FEFF 		bl	rfhelp_send_data_crc
 1042              	.LVL98:
 1043              	.LBE127:
 1044              	.LBE126:
 1045              		.loc 1 394 0
 1046 015a 0023     		movs	r3, #0
 1047              	.LBB129:
 1048              	.LBB128:
 1049              		.loc 1 137 0
 1050 015c 18B9     		cbnz	r0, .L54
 1051              		.loc 1 138 0
 1052 015e 1749     		ldr	r1, .L64+4
 1053 0160 4FF4FA72 		mov	r2, #500
 1054 0164 0A60     		str	r2, [r1]
 1055              	.L54:
 1056              	.LBE128:
 1057              	.LBE129:
 1058              	.LBE125:
 1059              		.loc 1 380 0
 1060 0166 A542     		cmp	r5, r4
 1061              	.LBB130:
 1062              		.loc 1 394 0
 1063 0168 3B60     		str	r3, [r7]
 1064              	.LVL99:
 1065              	.LBE130:
 1066              		.loc 1 380 0
 1067 016a 15D9     		bls	.L62
 1068              	.LVL100:
 1069              	.L46:
 1070              	.LBB131:
 1071              		.loc 1 383 0
 1072 016c 230A     		lsrs	r3, r4, #8
 1073              		.loc 1 384 0
 1074 016e 8DF80E40 		strb	r4, [sp, #14]
 1075              		.loc 1 386 0
 1076 0172 1634     		adds	r4, r4, #22
 1077              	.LVL101:
 1078 0174 A542     		cmp	r5, r4
 1079              		.loc 1 383 0
 1080 0176 8DF80D30 		strb	r3, [sp, #13]
 1081              		.loc 1 382 0
 1082 017a 8DF80CA0 		strb	r10, [sp, #12]
 1083 017e 0BEB0401 		add	r1, fp, r4
ARM GAS  C:\Users\CHRIST~1\AppData\Local\Temp\ccHCQ7sQ.s 			page 20


 1084 0182 A9EB0403 		sub	r3, r9, r4
 1085              		.loc 1 386 0
 1086 0186 D2D2     		bcs	.L63
 1087 0188 DEB2     		uxtb	r6, r3
 1088              	.LVL102:
 1089              		.loc 1 390 0
 1090 018a 3246     		mov	r2, r6
 1091 018c 0DF10F00 		add	r0, sp, #15
 1092 0190 FFF7FEFF 		bl	memcpy
 1093              	.LVL103:
 1094 0194 F11C     		adds	r1, r6, #3
 1095 0196 DDE7     		b	.L53
 1096              	.LVL104:
 1097              	.L62:
 1098 0198 019E     		ldr	r6, [sp, #4]
 1099 019a 74E7     		b	.L51
 1100              	.LVL105:
 1101              	.L47:
 1102 019c C3F1170B 		rsb	fp, r3, #23
 1103 01a0 AB44     		add	fp, fp, r5
 1104 01a2 5FFA8BFB 		uxtb	fp, fp
 1105              	.LVL106:
 1106              	.LBE131:
 1107              	.LBE124:
 1108              	.LBB132:
 1109              	.LBB116:
 1110              		.loc 1 373 0
 1111 01a6 5A46     		mov	r2, fp
 1112 01a8 0DF10E00 		add	r0, sp, #14
 1113 01ac FFF7FEFF 		bl	memcpy
 1114              	.LVL107:
 1115 01b0 0BF10201 		add	r1, fp, #2
 1116 01b4 5AE7     		b	.L48
 1117              	.L65:
 1118 01b6 00BF     		.align	2
 1119              	.L64:
 1120 01b8 00000000 		.word	.LANCHOR2
 1121 01bc 00000000 		.word	.LANCHOR4
 1122              	.LBE116:
 1123              	.LBE132:
 1124              	.LBE134:
 1125              	.LBE136:
 1126              	.LBE141:
 1127              		.cfi_endproc
 1128              	.LFE225:
 1129              		.size	nrf_driver_send_buffer, .-nrf_driver_send_buffer
 1130              		.section	.text.nrf_driver_stop.part.1,"ax",%progbits
 1131              		.align	1
 1132              		.p2align 4,,15
 1133              		.syntax unified
 1134              		.thumb
 1135              		.thumb_func
 1136              		.fpu fpv4-sp-d16
 1137              		.type	nrf_driver_stop.part.1, %function
 1138              	nrf_driver_stop.part.1:
 1139              	.LFB227:
 1140              		.loc 1 92 0
ARM GAS  C:\Users\CHRIST~1\AppData\Local\Temp\ccHCQ7sQ.s 			page 21


 1141              		.cfi_startproc
 1142              		@ args = 0, pretend = 0, frame = 0
 1143              		@ frame_needed = 0, uses_anonymous_args = 0
 1144              		.loc 1 97 0
 1145 0000 0D49     		ldr	r1, .L78
 1146              		.loc 1 98 0
 1147 0002 0E4A     		ldr	r2, .L78+4
 1148              		.loc 1 92 0
 1149 0004 38B5     		push	{r3, r4, r5, lr}
 1150              		.cfi_def_cfa_offset 16
 1151              		.cfi_offset 3, -16
 1152              		.cfi_offset 4, -12
 1153              		.cfi_offset 5, -8
 1154              		.cfi_offset 14, -4
 1155              		.loc 1 97 0
 1156 0006 0123     		movs	r3, #1
 1157              		.loc 1 100 0
 1158 0008 0D4C     		ldr	r4, .L78+8
 1159              		.loc 1 97 0
 1160 000a 0B70     		strb	r3, [r1]
 1161              		.loc 1 98 0
 1162 000c 1370     		strb	r3, [r2]
 1163              		.loc 1 100 0
 1164 000e 2378     		ldrb	r3, [r4]	@ zero_extendqisi2
 1165 0010 0C4D     		ldr	r5, .L78+12
 1166 0012 0BB9     		cbnz	r3, .L67
 1167 0014 2B78     		ldrb	r3, [r5]	@ zero_extendqisi2
 1168 0016 33B1     		cbz	r3, .L69
 1169              	.L67:
 1170              		.loc 1 101 0
 1171 0018 FFF7FEFF 		bl	rfhelp_stop
 1172              	.LVL108:
 1173              		.loc 1 104 0
 1174 001c 2378     		ldrb	r3, [r4]	@ zero_extendqisi2
 1175              		.loc 1 105 0
 1176 001e 0A20     		movs	r0, #10
 1177              		.loc 1 104 0
 1178 0020 2BB1     		cbz	r3, .L77
 1179              	.L70:
 1180              		.loc 1 105 0
 1181 0022 FFF7FEFF 		bl	chThdSleep
 1182              	.LVL109:
 1183              	.L69:
 1184              		.loc 1 104 0
 1185 0026 2378     		ldrb	r3, [r4]	@ zero_extendqisi2
 1186              		.loc 1 105 0
 1187 0028 0A20     		movs	r0, #10
 1188              		.loc 1 104 0
 1189 002a 002B     		cmp	r3, #0
 1190 002c F9D1     		bne	.L70
 1191              	.L77:
 1192 002e 2B78     		ldrb	r3, [r5]	@ zero_extendqisi2
 1193 0030 002B     		cmp	r3, #0
 1194 0032 F6D1     		bne	.L70
 1195              		.loc 1 107 0
 1196 0034 38BD     		pop	{r3, r4, r5, pc}
 1197              	.L79:
ARM GAS  C:\Users\CHRIST~1\AppData\Local\Temp\ccHCQ7sQ.s 			page 22


 1198 0036 00BF     		.align	2
 1199              	.L78:
 1200 0038 00000000 		.word	.LANCHOR1
 1201 003c 00000000 		.word	.LANCHOR6
 1202 0040 00000000 		.word	.LANCHOR5
 1203 0044 00000000 		.word	.LANCHOR0
 1204              		.cfi_endproc
 1205              	.LFE227:
 1206              		.size	nrf_driver_stop.part.1, .-nrf_driver_stop.part.1
 1207              		.section	.text.nrf_driver_init,"ax",%progbits
 1208              		.align	1
 1209              		.p2align 4,,15
 1210              		.global	nrf_driver_init
 1211              		.syntax unified
 1212              		.thumb
 1213              		.thumb_func
 1214              		.fpu fpv4-sp-d16
 1215              		.type	nrf_driver_init, %function
 1216              	nrf_driver_init:
 1217              	.LFB219:
 1218              		.loc 1 64 0
 1219              		.cfi_startproc
 1220              		@ args = 0, pretend = 0, frame = 0
 1221              		@ frame_needed = 0, uses_anonymous_args = 0
 1222 0000 70B5     		push	{r4, r5, r6, lr}
 1223              		.cfi_def_cfa_offset 16
 1224              		.cfi_offset 4, -16
 1225              		.cfi_offset 5, -12
 1226              		.cfi_offset 6, -8
 1227              		.cfi_offset 14, -4
 1228              		.loc 1 65 0
 1229 0002 1F4A     		ldr	r2, .L89
 1230 0004 1378     		ldrb	r3, [r2]	@ zero_extendqisi2
 1231              		.loc 1 64 0
 1232 0006 82B0     		sub	sp, sp, #8
 1233              		.cfi_def_cfa_offset 24
 1234              		.loc 1 65 0
 1235 0008 03F0FF04 		and	r4, r3, #255
 1236 000c 33B9     		cbnz	r3, .L81
 1237              	.LBB142:
 1238              	.LBB143:
 1239              		.loc 1 93 0
 1240 000e 1378     		ldrb	r3, [r2]	@ zero_extendqisi2
 1241 0010 002B     		cmp	r3, #0
 1242 0012 2DD0     		beq	.L87
 1243              	.LBE143:
 1244              	.LBE142:
 1245              		.loc 1 71 0
 1246 0014 FFF7FEFF 		bl	rfhelp_init
 1247              	.LVL110:
 1248 0018 0446     		mov	r4, r0
 1249 001a 10B9     		cbnz	r0, .L88
 1250              	.L81:
 1251              		.loc 1 90 0
 1252 001c 2046     		mov	r0, r4
 1253 001e 02B0     		add	sp, sp, #8
 1254              		.cfi_remember_state
ARM GAS  C:\Users\CHRIST~1\AppData\Local\Temp\ccHCQ7sQ.s 			page 23


 1255              		.cfi_def_cfa_offset 16
 1256              		@ sp needed
 1257 0020 70BD     		pop	{r4, r5, r6, pc}
 1258              	.L88:
 1259              		.cfi_restore_state
 1260              		.loc 1 82 0
 1261 0022 1848     		ldr	r0, .L89+4
 1262              		.loc 1 75 0
 1263 0024 184E     		ldr	r6, .L89+8
 1264              		.loc 1 76 0
 1265 0026 194B     		ldr	r3, .L89+12
 1266              		.loc 1 77 0
 1267 0028 194A     		ldr	r2, .L89+16
 1268              		.loc 1 79 0
 1269 002a 1A49     		ldr	r1, .L89+20
 1270              		.loc 1 75 0
 1271 002c 0025     		movs	r5, #0
 1272              		.loc 1 84 0
 1273 002e 0095     		str	r5, [sp]
 1274              		.loc 1 82 0
 1275 0030 0570     		strb	r5, [r0]
 1276              		.loc 1 75 0
 1277 0032 3560     		str	r5, [r6]
 1278              		.loc 1 80 0
 1279 0034 1848     		ldr	r0, .L89+24
 1280              		.loc 1 83 0
 1281 0036 194E     		ldr	r6, .L89+28
 1282              		.loc 1 76 0
 1283 0038 1D60     		str	r5, [r3]
 1284              		.loc 1 77 0
 1285 003a 1560     		str	r5, [r2]
 1286              		.loc 1 79 0
 1287 003c 0D60     		str	r5, [r1]
 1288              		.loc 1 80 0
 1289 003e 0570     		strb	r5, [r0]
 1290              		.loc 1 84 0
 1291 0040 174B     		ldr	r3, .L89+32
 1292              		.loc 1 83 0
 1293 0042 3570     		strb	r5, [r6]
 1294              		.loc 1 84 0
 1295 0044 3F22     		movs	r2, #63
 1296 0046 40F69811 		movw	r1, #2456
 1297 004a 1648     		ldr	r0, .L89+36
 1298 004c FFF7FEFF 		bl	chThdCreateStatic
 1299              	.LVL111:
 1300              		.loc 1 85 0
 1301 0050 0095     		str	r5, [sp]
 1302 0052 154B     		ldr	r3, .L89+40
 1303 0054 1548     		ldr	r0, .L89+44
 1304 0056 3F22     		movs	r2, #63
 1305 0058 4FF46671 		mov	r1, #920
 1306 005c FFF7FEFF 		bl	chThdCreateStatic
 1307              	.LVL112:
 1308              		.loc 1 86 0
 1309 0060 1349     		ldr	r1, .L89+48
 1310              		.loc 1 87 0
 1311 0062 144A     		ldr	r2, .L89+52
ARM GAS  C:\Users\CHRIST~1\AppData\Local\Temp\ccHCQ7sQ.s 			page 24


 1312              		.loc 1 86 0
 1313 0064 0123     		movs	r3, #1
 1314              		.loc 1 90 0
 1315 0066 2046     		mov	r0, r4
 1316              		.loc 1 86 0
 1317 0068 0B70     		strb	r3, [r1]
 1318              		.loc 1 87 0
 1319 006a 1370     		strb	r3, [r2]
 1320              		.loc 1 90 0
 1321 006c 02B0     		add	sp, sp, #8
 1322              		.cfi_remember_state
 1323              		.cfi_def_cfa_offset 16
 1324              		@ sp needed
 1325 006e 70BD     		pop	{r4, r5, r6, pc}
 1326              	.L87:
 1327              		.cfi_restore_state
 1328              	.LBB145:
 1329              	.LBB144:
 1330 0070 FFF7FEFF 		bl	nrf_driver_stop.part.1
 1331              	.LVL113:
 1332              	.LBE144:
 1333              	.LBE145:
 1334              		.loc 1 71 0
 1335 0074 FFF7FEFF 		bl	rfhelp_init
 1336              	.LVL114:
 1337 0078 0446     		mov	r4, r0
 1338 007a 0028     		cmp	r0, #0
 1339 007c CED0     		beq	.L81
 1340 007e D0E7     		b	.L88
 1341              	.L90:
 1342              		.align	2
 1343              	.L89:
 1344 0080 00000000 		.word	.LANCHOR10
 1345 0084 00000000 		.word	.LANCHOR6
 1346 0088 00000000 		.word	.LANCHOR2
 1347 008c 00000000 		.word	.LANCHOR7
 1348 0090 00000000 		.word	.LANCHOR4
 1349 0094 00000000 		.word	.LANCHOR11
 1350 0098 00000000 		.word	.LANCHOR3
 1351 009c 00000000 		.word	.LANCHOR1
 1352 00a0 00000000 		.word	rx_thread
 1353 00a4 00000000 		.word	.LANCHOR12
 1354 00a8 00000000 		.word	tx_thread
 1355 00ac 00000000 		.word	.LANCHOR13
 1356 00b0 00000000 		.word	.LANCHOR5
 1357 00b4 00000000 		.word	.LANCHOR0
 1358              		.cfi_endproc
 1359              	.LFE219:
 1360              		.size	nrf_driver_init, .-nrf_driver_init
 1361              		.section	.text.nrf_driver_stop,"ax",%progbits
 1362              		.align	1
 1363              		.p2align 4,,15
 1364              		.global	nrf_driver_stop
 1365              		.syntax unified
 1366              		.thumb
 1367              		.thumb_func
 1368              		.fpu fpv4-sp-d16
ARM GAS  C:\Users\CHRIST~1\AppData\Local\Temp\ccHCQ7sQ.s 			page 25


 1369              		.type	nrf_driver_stop, %function
 1370              	nrf_driver_stop:
 1371              	.LFB220:
 1372              		.loc 1 92 0
 1373              		.cfi_startproc
 1374              		@ args = 0, pretend = 0, frame = 0
 1375              		@ frame_needed = 0, uses_anonymous_args = 0
 1376              		@ link register save eliminated.
 1377              		.loc 1 93 0
 1378 0000 024B     		ldr	r3, .L93
 1379 0002 1B78     		ldrb	r3, [r3]	@ zero_extendqisi2
 1380 0004 0BB9     		cbnz	r3, .L91
 1381 0006 FFF7FEBF 		b	nrf_driver_stop.part.1
 1382              	.LVL115:
 1383              	.L91:
 1384              		.loc 1 107 0
 1385 000a 7047     		bx	lr
 1386              	.L94:
 1387              		.align	2
 1388              	.L93:
 1389 000c 00000000 		.word	.LANCHOR10
 1390              		.cfi_endproc
 1391              	.LFE220:
 1392              		.size	nrf_driver_stop, .-nrf_driver_stop
 1393              		.section	.text.nrf_driver_start_pairing,"ax",%progbits
 1394              		.align	1
 1395              		.p2align 4,,15
 1396              		.global	nrf_driver_start_pairing
 1397              		.syntax unified
 1398              		.thumb
 1399              		.thumb_func
 1400              		.fpu fpv4-sp-d16
 1401              		.type	nrf_driver_start_pairing, %function
 1402              	nrf_driver_start_pairing:
 1403              	.LFB221:
 1404              		.loc 1 109 0
 1405              		.cfi_startproc
 1406              		@ args = 0, pretend = 0, frame = 16
 1407              		@ frame_needed = 0, uses_anonymous_args = 0
 1408              	.LVL116:
 1409              		.loc 1 110 0
 1410 0000 1A4B     		ldr	r3, .L104
 1411 0002 1B78     		ldrb	r3, [r3]	@ zero_extendqisi2
 1412 0004 ABB1     		cbz	r3, .L100
 1413              		.loc 1 109 0
 1414 0006 30B5     		push	{r4, r5, lr}
 1415              		.cfi_def_cfa_offset 12
 1416              		.cfi_offset 4, -12
 1417              		.cfi_offset 5, -8
 1418              		.cfi_offset 14, -4
 1419              		.loc 1 114 0
 1420 0008 42F21073 		movw	r3, #10000
 1421              	.LBB146:
 1422              	.LBB147:
 1423              		.loc 3 231 0
 1424 000c 184A     		ldr	r2, .L104+4
 1425              	.LBE147:
ARM GAS  C:\Users\CHRIST~1\AppData\Local\Temp\ccHCQ7sQ.s 			page 26


 1426              	.LBE146:
 1427              		.loc 1 114 0
 1428 000e 194C     		ldr	r4, .L104+8
 1429              		.loc 1 116 0
 1430 0010 1949     		ldr	r1, .L104+12
 1431              	.LBB149:
 1432              	.LBB148:
 1433              		.loc 3 231 0
 1434 0012 926A     		ldr	r2, [r2, #40]
 1435              	.LBE148:
 1436              	.LBE149:
 1437              		.loc 1 114 0
 1438 0014 194D     		ldr	r5, .L104+16
 1439 0016 03FB00F0 		mul	r0, r3, r0
 1440              	.LVL117:
 1441 001a 00F2E730 		addw	r0, r0, #999
 1442 001e A4FB0030 		umull	r3, r0, r4, r0
 1443              		.loc 1 116 0
 1444 0022 0C78     		ldrb	r4, [r1]	@ zero_extendqisi2
 1445              		.loc 1 114 0
 1446 0024 02EB9010 		add	r0, r2, r0, lsr #6
 1447              		.loc 1 109 0
 1448 0028 85B0     		sub	sp, sp, #20
 1449              		.cfi_def_cfa_offset 32
 1450              		.loc 1 114 0
 1451 002a 2860     		str	r0, [r5]
 1452              		.loc 1 116 0
 1453 002c 14B1     		cbz	r4, .L103
 1454              		.loc 1 132 0
 1455 002e 05B0     		add	sp, sp, #20
 1456              		.cfi_def_cfa_offset 12
 1457              		@ sp needed
 1458 0030 30BD     		pop	{r4, r5, pc}
 1459              	.LVL118:
 1460              	.L100:
 1461              		.cfi_def_cfa_offset 0
 1462              		.cfi_restore 4
 1463              		.cfi_restore 5
 1464              		.cfi_restore 14
 1465 0032 7047     		bx	lr
 1466              	.LVL119:
 1467              	.L103:
 1468              		.cfi_def_cfa_offset 32
 1469              		.cfi_offset 4, -12
 1470              		.cfi_offset 5, -8
 1471              		.cfi_offset 14, -4
 1472              	.LBB150:
 1473              		.loc 1 117 0 discriminator 2
 1474 0034 0125     		movs	r5, #1
 1475 0036 0D70     		strb	r5, [r1]
 1476              		.loc 1 119 0 discriminator 2
 1477 0038 FFF7FEFF 		bl	app_get_configuration
 1478              	.LVL120:
 1479 003c BC30     		adds	r0, r0, #188
 1480 003e 07C8     		ldm	r0, {r0, r1, r2}
 1481              		.loc 1 128 0 discriminator 2
 1482 0040 04AA     		add	r2, sp, #16
ARM GAS  C:\Users\CHRIST~1\AppData\Local\Temp\ccHCQ7sQ.s 			page 27


 1483              		.loc 1 119 0 discriminator 2
 1484 0042 01AB     		add	r3, sp, #4
 1485 0044 03C3     		stmia	r3!, {r0, r1}
 1486              		.loc 1 128 0 discriminator 2
 1487 0046 02F80C4D 		strb	r4, [r2, #-12]!
 1488              		.loc 1 125 0 discriminator 2
 1489 004a 0D49     		ldr	r1, .L104+20
 1490              		.loc 1 127 0 discriminator 2
 1491 004c 8DF80D50 		strb	r5, [sp, #13]
 1492              		.loc 1 126 0 discriminator 2
 1493 0050 0323     		movs	r3, #3
 1494              		.loc 1 130 0 discriminator 2
 1495 0052 1046     		mov	r0, r2
 1496              		.loc 1 124 0 discriminator 2
 1497 0054 8DF80650 		strb	r5, [sp, #6]
 1498              		.loc 1 121 0 discriminator 2
 1499 0058 8DF80C40 		strb	r4, [sp, #12]
 1500              		.loc 1 125 0 discriminator 2
 1501 005c 0291     		str	r1, [sp, #8]
 1502              		.loc 1 126 0 discriminator 2
 1503 005e 8DF80730 		strb	r3, [sp, #7]
 1504              		.loc 1 130 0 discriminator 2
 1505 0062 FFF7FEFF 		bl	rfhelp_update_conf
 1506              	.LVL121:
 1507              	.LBE150:
 1508              		.loc 1 132 0 discriminator 2
 1509 0066 05B0     		add	sp, sp, #20
 1510              		.cfi_def_cfa_offset 12
 1511              		@ sp needed
 1512 0068 30BD     		pop	{r4, r5, pc}
 1513              	.L105:
 1514 006a 00BF     		.align	2
 1515              	.L104:
 1516 006c 00000000 		.word	.LANCHOR5
 1517 0070 00000000 		.word	ch
 1518 0074 D34D6210 		.word	274877907
 1519 0078 00000000 		.word	.LANCHOR3
 1520 007c 00000000 		.word	.LANCHOR11
 1521 0080 037CC6C5 		.word	-976847869
 1522              		.cfi_endproc
 1523              	.LFE221:
 1524              		.size	nrf_driver_start_pairing, .-nrf_driver_start_pairing
 1525              		.section	.bss.from_nrf,"aw",%nobits
 1526              		.set	.LANCHOR10,. + 0
 1527              		.type	from_nrf, %object
 1528              		.size	from_nrf, 1
 1529              	from_nrf:
 1530 0000 00       		.space	1
 1531              		.section	.bss.mstate,"aw",%nobits
 1532              		.align	2
 1533              		.set	.LANCHOR8,. + 0
 1534              		.type	mstate, %object
 1535              		.size	mstate, 12
 1536              	mstate:
 1537 0000 00000000 		.space	12
 1537      00000000 
 1537      00000000 
ARM GAS  C:\Users\CHRIST~1\AppData\Local\Temp\ccHCQ7sQ.s 			page 28


 1538              		.section	.bss.nosend_cnt,"aw",%nobits
 1539              		.align	2
 1540              		.set	.LANCHOR2,. + 0
 1541              		.type	nosend_cnt, %object
 1542              		.size	nosend_cnt, 4
 1543              	nosend_cnt:
 1544 0000 00000000 		.space	4
 1545              		.section	.bss.nrf_restart_rx_time,"aw",%nobits
 1546              		.align	2
 1547              		.set	.LANCHOR7,. + 0
 1548              		.type	nrf_restart_rx_time, %object
 1549              		.size	nrf_restart_rx_time, 4
 1550              	nrf_restart_rx_time:
 1551 0000 00000000 		.space	4
 1552              		.section	.bss.nrf_restart_tx_time,"aw",%nobits
 1553              		.align	2
 1554              		.set	.LANCHOR4,. + 0
 1555              		.type	nrf_restart_tx_time, %object
 1556              		.size	nrf_restart_tx_time, 4
 1557              	nrf_restart_tx_time:
 1558 0000 00000000 		.space	4
 1559              		.section	.bss.pairing_active,"aw",%nobits
 1560              		.set	.LANCHOR3,. + 0
 1561              		.type	pairing_active, %object
 1562              		.size	pairing_active, 1
 1563              	pairing_active:
 1564 0000 00       		.space	1
 1565              		.section	.bss.pairing_time_end,"aw",%nobits
 1566              		.align	2
 1567              		.set	.LANCHOR11,. + 0
 1568              		.type	pairing_time_end, %object
 1569              		.size	pairing_time_end, 4
 1570              	pairing_time_end:
 1571 0000 00000000 		.space	4
 1572              		.section	.bss.rx_buffer,"aw",%nobits
 1573              		.align	2
 1574              		.set	.LANCHOR9,. + 0
 1575              		.type	rx_buffer, %object
 1576              		.size	rx_buffer, 1024
 1577              	rx_buffer:
 1578 0000 00000000 		.space	1024
 1578      00000000 
 1578      00000000 
 1578      00000000 
 1578      00000000 
 1579              		.section	.bss.rx_running,"aw",%nobits
 1580              		.set	.LANCHOR5,. + 0
 1581              		.type	rx_running, %object
 1582              		.size	rx_running, 1
 1583              	rx_running:
 1584 0000 00       		.space	1
 1585              		.section	.bss.rx_thread_wa,"aw",%nobits
 1586              		.align	3
 1587              		.set	.LANCHOR12,. + 0
 1588              		.type	rx_thread_wa, %object
 1589              		.size	rx_thread_wa, 2456
 1590              	rx_thread_wa:
ARM GAS  C:\Users\CHRIST~1\AppData\Local\Temp\ccHCQ7sQ.s 			page 29


 1591 0000 00000000 		.space	2456
 1591      00000000 
 1591      00000000 
 1591      00000000 
 1591      00000000 
 1592              		.section	.bss.tx_running,"aw",%nobits
 1593              		.set	.LANCHOR0,. + 0
 1594              		.type	tx_running, %object
 1595              		.size	tx_running, 1
 1596              	tx_running:
 1597 0000 00       		.space	1
 1598              		.section	.bss.tx_thread_wa,"aw",%nobits
 1599              		.align	3
 1600              		.set	.LANCHOR13,. + 0
 1601              		.type	tx_thread_wa, %object
 1602              		.size	tx_thread_wa, 920
 1603              	tx_thread_wa:
 1604 0000 00000000 		.space	920
 1604      00000000 
 1604      00000000 
 1604      00000000 
 1604      00000000 
 1605              		.section	.data.rx_stop,"aw",%progbits
 1606              		.set	.LANCHOR6,. + 0
 1607              		.type	rx_stop, %object
 1608              		.size	rx_stop, 1
 1609              	rx_stop:
 1610 0000 01       		.byte	1
 1611              		.section	.data.tx_stop,"aw",%progbits
 1612              		.set	.LANCHOR1,. + 0
 1613              		.type	tx_stop, %object
 1614              		.size	tx_stop, 1
 1615              	tx_stop:
 1616 0000 01       		.byte	1
 1617              		.section	.rodata.rx_thread.str1.4,"aMS",%progbits,1
 1618              		.align	2
 1619              	.LC1:
 1620 0000 4E726620 		.ascii	"Nrf RX\000"
 1620      525800
 1621              		.section	.rodata.tx_thread.str1.4,"aMS",%progbits,1
 1622              		.align	2
 1623              	.LC0:
 1624 0000 4E726620 		.ascii	"Nrf TX\000"
 1624      545800
 1625              		.text
 1626              	.Letext0:
 1627              		.file 4 "c:\\program files (x86)\\gnu tools arm embedded\\7 2017-q4-major\\lib\\gcc\\arm-none-eabi
 1628              		.file 5 "c:\\program files (x86)\\gnu tools arm embedded\\7 2017-q4-major\\arm-none-eabi\\include\
 1629              		.file 6 "c:\\program files (x86)\\gnu tools arm embedded\\7 2017-q4-major\\arm-none-eabi\\include\
 1630              		.file 7 "c:\\program files (x86)\\gnu tools arm embedded\\7 2017-q4-major\\arm-none-eabi\\include\
 1631              		.file 8 "c:\\program files (x86)\\gnu tools arm embedded\\7 2017-q4-major\\arm-none-eabi\\include\
 1632              		.file 9 "c:\\program files (x86)\\gnu tools arm embedded\\7 2017-q4-major\\arm-none-eabi\\include\
 1633              		.file 10 "ChibiOS_3.0.2/os/rt/ports/ARMCMx/compilers/GCC/chtypes.h"
 1634              		.file 11 "ChibiOS_3.0.2/os/rt/include/chsystypes.h"
 1635              		.file 12 "ChibiOS_3.0.2/os/rt/include/chschd.h"
 1636              		.file 13 "ChibiOS_3.0.2/os/ext/CMSIS/include/core_cm4.h"
 1637              		.file 14 "ChibiOS_3.0.2/os/ext/CMSIS/ST/system_stm32f4xx.h"
ARM GAS  C:\Users\CHRIST~1\AppData\Local\Temp\ccHCQ7sQ.s 			page 30


 1638              		.file 15 "ChibiOS_3.0.2/os/rt/ports/ARMCMx/chcore.h"
 1639              		.file 16 "ChibiOS_3.0.2/os/rt/ports/ARMCMx/chcore_v7m.h"
 1640              		.file 17 "ChibiOS_3.0.2/os/rt/include/chtm.h"
 1641              		.file 18 "ChibiOS_3.0.2/os/rt/include/chsem.h"
 1642              		.file 19 "ChibiOS_3.0.2/os/rt/include/chmtx.h"
 1643              		.file 20 "./datatypes.h"
 1644              		.file 21 "./conf_general.h"
 1645              		.file 22 "./crc.h"
 1646              		.file 23 "ChibiOS_3.0.2/os/rt/include/chthreads.h"
 1647              		.file 24 "./commands.h"
 1648              		.file 25 "applications/app.h"
 1649              		.file 26 "./buffer.h"
 1650              		.file 27 "nrf/rfhelp.h"
 1651              		.file 28 "<built-in>"