ARM GAS  C:\Users\CHRIST~1\AppData\Local\Temp\cc3sxhHg.s 			page 1


   1              		.cpu cortex-m4
   2              		.eabi_attribute 27, 1
   3              		.eabi_attribute 28, 1
   4              		.eabi_attribute 20, 1
   5              		.eabi_attribute 21, 1
   6              		.eabi_attribute 23, 3
   7              		.eabi_attribute 24, 1
   8              		.eabi_attribute 25, 1
   9              		.eabi_attribute 26, 1
  10              		.eabi_attribute 30, 2
  11              		.eabi_attribute 34, 1
  12              		.eabi_attribute 18, 4
  13              		.file	"rfhelp.c"
  14              		.text
  15              	.Ltext0:
  16              		.cfi_sections	.debug_frame
  17              		.section	.text.rfhelp_init,"ax",%progbits
  18              		.align	1
  19              		.p2align 4,,15
  20              		.global	rfhelp_init
  21              		.syntax unified
  22              		.thumb
  23              		.thumb_func
  24              		.fpu fpv4-sp-d16
  25              		.type	rfhelp_init, %function
  26              	rfhelp_init:
  27              	.LFB256:
  28              		.file 1 "nrf/rfhelp.c"
  29              		.loc 1 45 0
  30              		.cfi_startproc
  31              		@ args = 0, pretend = 0, frame = 16
  32              		@ frame_needed = 0, uses_anonymous_args = 0
  33 0000 70B5     		push	{r4, r5, r6, lr}
  34              		.cfi_def_cfa_offset 16
  35              		.cfi_offset 4, -16
  36              		.cfi_offset 5, -12
  37              		.cfi_offset 6, -8
  38              		.cfi_offset 14, -4
  39              		.loc 1 46 0
  40 0002 2A48     		ldr	r0, .L11
  41              		.loc 1 50 0
  42 0004 2A4E     		ldr	r6, .L11+4
  43              		.loc 1 45 0
  44 0006 84B0     		sub	sp, sp, #16
  45              		.cfi_def_cfa_offset 32
  46              		.loc 1 50 0
  47 0008 0324     		movs	r4, #3
  48              		.loc 1 46 0
  49 000a FFF7FEFF 		bl	chMtxObjectInit
  50              	.LVL0:
  51              		.loc 1 47 0
  52 000e FFF7FEFF 		bl	rf_init
  53              	.LVL1:
  54              		.loc 1 59 0
  55 0012 2246     		mov	r2, r4
  56 0014 01A9     		add	r1, sp, #4
  57 0016 1020     		movs	r0, #16
ARM GAS  C:\Users\CHRIST~1\AppData\Local\Temp\cc3sxhHg.s 			page 2


  58              		.loc 1 50 0
  59 0018 3460     		str	r4, [r6]
  60              		.loc 1 59 0
  61 001a FFF7FEFF 		bl	rf_read_reg
  62              	.LVL2:
  63              		.loc 1 60 0
  64 001e 254B     		ldr	r3, .L11+8
  65 0020 1B68     		ldr	r3, [r3]
  66 0022 ADF80830 		strh	r3, [sp, #8]	@ movhi
  67              		.loc 1 61 0
  68 0026 2246     		mov	r2, r4
  69              		.loc 1 60 0
  70 0028 1B0C     		lsrs	r3, r3, #16
  71              		.loc 1 61 0
  72 002a 02A9     		add	r1, sp, #8
  73 002c 1020     		movs	r0, #16
  74              		.loc 1 60 0
  75 002e 8DF80A30 		strb	r3, [sp, #10]
  76              		.loc 1 61 0
  77 0032 FFF7FEFF 		bl	rf_write_reg
  78              	.LVL3:
  79              		.loc 1 63 0
  80 0036 2246     		mov	r2, r4
  81 0038 03A9     		add	r1, sp, #12
  82 003a 1020     		movs	r0, #16
  83 003c FFF7FEFF 		bl	rf_read_reg
  84              	.LVL4:
  85              		.loc 1 64 0
  86 0040 2246     		mov	r2, r4
  87 0042 01A9     		add	r1, sp, #4
  88 0044 1020     		movs	r0, #16
  89 0046 FFF7FEFF 		bl	rf_write_reg
  90              	.LVL5:
  91              		.loc 1 66 0
  92 004a BDF80820 		ldrh	r2, [sp, #8]
  93 004e BDF80C30 		ldrh	r3, [sp, #12]
  94 0052 9A42     		cmp	r2, r3
  95 0054 04D0     		beq	.L10
  96              	.L2:
  97              		.loc 1 67 0
  98 0056 FFF7FEFF 		bl	rf_stop
  99              	.LVL6:
 100              		.loc 1 68 0
 101 005a 0020     		movs	r0, #0
 102              		.loc 1 85 0
 103 005c 04B0     		add	sp, sp, #16
 104              		.cfi_remember_state
 105              		.cfi_def_cfa_offset 16
 106              		@ sp needed
 107 005e 70BD     		pop	{r4, r5, r6, pc}
 108              	.L10:
 109              		.cfi_restore_state
 110              		.loc 1 66 0
 111 0060 9DF80A20 		ldrb	r2, [sp, #10]	@ zero_extendqisi2
 112 0064 9DF80E30 		ldrb	r3, [sp, #14]	@ zero_extendqisi2
 113 0068 9A42     		cmp	r2, r3
 114 006a F4D1     		bne	.L2
ARM GAS  C:\Users\CHRIST~1\AppData\Local\Temp\cc3sxhHg.s 			page 3


 115 006c 124D     		ldr	r5, .L11+12
 116 006e 0A24     		movs	r4, #10
 117              	.L6:
 118              	.LVL7:
 119              	.LBB2:
 120              		.loc 1 72 0 discriminator 3
 121 0070 2946     		mov	r1, r5
 122 0072 2046     		mov	r0, r4
 123 0074 3268     		ldr	r2, [r6]
 124 0076 0134     		adds	r4, r4, #1
 125              	.LVL8:
 126 0078 FFF7FEFF 		bl	rf_read_reg
 127              	.LVL9:
 128              		.loc 1 71 0 discriminator 3
 129 007c 102C     		cmp	r4, #16
 130 007e 05F10505 		add	r5, r5, #5
 131 0082 F5D1     		bne	.L6
 132              	.LBE2:
 133              		.loc 1 76 0
 134 0084 2046     		mov	r0, r4
 135 0086 3268     		ldr	r2, [r6]
 136 0088 0C49     		ldr	r1, .L11+16
 137 008a FFF7FEFF 		bl	rf_read_reg
 138              	.LVL10:
 139              		.loc 1 77 0
 140 008e 3268     		ldr	r2, [r6]
 141 0090 0A49     		ldr	r1, .L11+16
 142 0092 0948     		ldr	r0, .L11+12
 143 0094 FFF7FEFF 		bl	memcmp
 144              	.LVL11:
 145 0098 0949     		ldr	r1, .L11+20
 146              		.loc 1 82 0
 147 009a 0A4A     		ldr	r2, .L11+24
 148              		.loc 1 77 0
 149 009c B0FA80F3 		clz	r3, r0
 150 00a0 5B09     		lsrs	r3, r3, #5
 151              		.loc 1 82 0
 152 00a2 0120     		movs	r0, #1
 153              		.loc 1 77 0
 154 00a4 0B70     		strb	r3, [r1]
 155              		.loc 1 82 0
 156 00a6 1070     		strb	r0, [r2]
 157              		.loc 1 85 0
 158 00a8 04B0     		add	sp, sp, #16
 159              		.cfi_def_cfa_offset 16
 160              		@ sp needed
 161 00aa 70BD     		pop	{r4, r5, r6, pc}
 162              	.L12:
 163              		.align	2
 164              	.L11:
 165 00ac 00000000 		.word	.LANCHOR0
 166 00b0 00000000 		.word	.LANCHOR1
 167 00b4 00000000 		.word	.LANCHOR2
 168 00b8 00000000 		.word	.LANCHOR3
 169 00bc 00000000 		.word	.LANCHOR4
 170 00c0 00000000 		.word	.LANCHOR5
 171 00c4 00000000 		.word	.LANCHOR6
ARM GAS  C:\Users\CHRIST~1\AppData\Local\Temp\cc3sxhHg.s 			page 4


 172              		.cfi_endproc
 173              	.LFE256:
 174              		.size	rfhelp_init, .-rfhelp_init
 175              		.section	.text.rfhelp_stop,"ax",%progbits
 176              		.align	1
 177              		.p2align 4,,15
 178              		.global	rfhelp_stop
 179              		.syntax unified
 180              		.thumb
 181              		.thumb_func
 182              		.fpu fpv4-sp-d16
 183              		.type	rfhelp_stop, %function
 184              	rfhelp_stop:
 185              	.LFB257:
 186              		.loc 1 87 0
 187              		.cfi_startproc
 188              		@ args = 0, pretend = 0, frame = 0
 189              		@ frame_needed = 0, uses_anonymous_args = 0
 190 0000 08B5     		push	{r3, lr}
 191              		.cfi_def_cfa_offset 8
 192              		.cfi_offset 3, -8
 193              		.cfi_offset 14, -4
 194              		.loc 1 88 0
 195 0002 FFF7FEFF 		bl	rf_stop
 196              	.LVL12:
 197              		.loc 1 89 0
 198 0006 024B     		ldr	r3, .L15
 199 0008 0022     		movs	r2, #0
 200 000a 1A70     		strb	r2, [r3]
 201              		.loc 1 90 0
 202 000c 08BD     		pop	{r3, pc}
 203              	.L16:
 204 000e 00BF     		.align	2
 205              	.L15:
 206 0010 00000000 		.word	.LANCHOR6
 207              		.cfi_endproc
 208              	.LFE257:
 209              		.size	rfhelp_stop, .-rfhelp_stop
 210              		.section	.text.rfhelp_restart,"ax",%progbits
 211              		.align	1
 212              		.p2align 4,,15
 213              		.global	rfhelp_restart
 214              		.syntax unified
 215              		.thumb
 216              		.thumb_func
 217              		.fpu fpv4-sp-d16
 218              		.type	rfhelp_restart, %function
 219              	rfhelp_restart:
 220              	.LFB259:
 221              		.loc 1 103 0
 222              		.cfi_startproc
 223              		@ args = 0, pretend = 0, frame = 0
 224              		@ frame_needed = 0, uses_anonymous_args = 0
 225 0000 F8B5     		push	{r3, r4, r5, r6, r7, lr}
 226              		.cfi_def_cfa_offset 24
 227              		.cfi_offset 3, -24
 228              		.cfi_offset 4, -20
ARM GAS  C:\Users\CHRIST~1\AppData\Local\Temp\cc3sxhHg.s 			page 5


 229              		.cfi_offset 5, -16
 230              		.cfi_offset 6, -12
 231              		.cfi_offset 7, -8
 232              		.cfi_offset 14, -4
 233              		.loc 1 104 0
 234 0002 2B4E     		ldr	r6, .L19
 235              		.loc 1 114 0
 236 0004 2B4C     		ldr	r4, .L19+4
 237              		.loc 1 128 0
 238 0006 2C4D     		ldr	r5, .L19+8
 239              		.loc 1 131 0
 240 0008 2C4F     		ldr	r7, .L19+12
 241              		.loc 1 104 0
 242 000a 3046     		mov	r0, r6
 243 000c FFF7FEFF 		bl	chMtxLock
 244              	.LVL13:
 245              		.loc 1 106 0
 246 0010 FFF7FEFF 		bl	rf_power_down
 247              	.LVL14:
 248              		.loc 1 111 0
 249 0014 0021     		movs	r1, #0
 250 0016 0220     		movs	r0, #2
 251 0018 FFF7FEFF 		bl	rf_write_reg_byte
 252              	.LVL15:
 253              		.loc 1 112 0
 254 001c 0021     		movs	r1, #0
 255 001e 1C20     		movs	r0, #28
 256 0020 FFF7FEFF 		bl	rf_write_reg_byte
 257              	.LVL16:
 258              		.loc 1 114 0
 259 0024 A078     		ldrb	r0, [r4, #2]	@ zero_extendqisi2
 260 0026 FFF7FEFF 		bl	rf_set_crc_type
 261              	.LVL17:
 262              		.loc 1 115 0
 263 002a 2079     		ldrb	r0, [r4, #4]	@ zero_extendqisi2
 264 002c FFF7FEFF 		bl	rf_set_retr_retries
 265              	.LVL18:
 266              		.loc 1 116 0
 267 0030 E078     		ldrb	r0, [r4, #3]	@ zero_extendqisi2
 268 0032 FFF7FEFF 		bl	rf_set_retr_delay
 269              	.LVL19:
 270              		.loc 1 117 0
 271 0036 6078     		ldrb	r0, [r4, #1]	@ zero_extendqisi2
 272 0038 FFF7FEFF 		bl	rf_set_power
 273              	.LVL20:
 274              		.loc 1 118 0
 275 003c 2078     		ldrb	r0, [r4]	@ zero_extendqisi2
 276 003e FFF7FEFF 		bl	rf_set_speed
 277              	.LVL21:
 278              		.loc 1 119 0
 279 0042 0020     		movs	r0, #0
 280 0044 FFF7FEFF 		bl	rf_set_address_width
 281              	.LVL22:
 282              		.loc 1 120 0
 283 0048 6079     		ldrb	r0, [r4, #5]	@ zero_extendqisi2
 284 004a 00F51660 		add	r0, r0, #2400
 285 004e FFF7FEFF 		bl	rf_set_frequency
ARM GAS  C:\Users\CHRIST~1\AppData\Local\Temp\cc3sxhHg.s 			page 6


 286              	.LVL23:
 287              		.loc 1 121 0
 288 0052 0520     		movs	r0, #5
 289 0054 FFF7FEFF 		bl	rf_enable_features
 290              	.LVL24:
 291              		.loc 1 123 0
 292 0058 0120     		movs	r0, #1
 293 005a FFF7FEFF 		bl	rf_enable_pipe_autoack
 294              	.LVL25:
 295              		.loc 1 124 0
 296 005e 0120     		movs	r0, #1
 297 0060 FFF7FEFF 		bl	rf_enable_pipe_address
 298              	.LVL26:
 299              		.loc 1 125 0
 300 0064 0120     		movs	r0, #1
 301 0066 FFF7FEFF 		bl	rf_enable_pipe_dlp
 302              	.LVL27:
 303              		.loc 1 127 0
 304 006a 34F8063F 		ldrh	r3, [r4, #6]!	@ unaligned
 305 006e 1448     		ldr	r0, .L19+16
 306              		.loc 1 129 0
 307 0070 DFF850C0 		ldr	ip, .L19+20
 308              		.loc 1 127 0
 309 0074 A278     		ldrb	r2, [r4, #2]	@ zero_extendqisi2
 310 0076 0380     		strh	r3, [r0]	@ unaligned
 311              		.loc 1 131 0
 312 0078 3968     		ldr	r1, [r7]
 313              		.loc 1 127 0
 314 007a 8270     		strb	r2, [r0, #2]
 315              		.loc 1 128 0
 316 007c AA70     		strb	r2, [r5, #2]
 317              		.loc 1 129 0
 318 007e 0122     		movs	r2, #1
 319              		.loc 1 128 0
 320 0080 2B80     		strh	r3, [r5]	@ unaligned
 321              		.loc 1 129 0
 322 0082 8CF80020 		strb	r2, [ip]
 323              		.loc 1 131 0
 324 0086 FFF7FEFF 		bl	rf_set_tx_addr
 325              	.LVL28:
 326              		.loc 1 132 0
 327 008a 3A68     		ldr	r2, [r7]
 328 008c 2946     		mov	r1, r5
 329 008e 0020     		movs	r0, #0
 330 0090 FFF7FEFF 		bl	rf_set_rx_addr
 331              	.LVL29:
 332              		.loc 1 134 0
 333 0094 FFF7FEFF 		bl	rf_power_up
 334              	.LVL30:
 335              		.loc 1 135 0
 336 0098 FFF7FEFF 		bl	rf_mode_rx
 337              	.LVL31:
 338              		.loc 1 136 0
 339 009c FFF7FEFF 		bl	rf_flush_all
 340              	.LVL32:
 341              		.loc 1 137 0
 342 00a0 FFF7FEFF 		bl	rf_clear_irq
ARM GAS  C:\Users\CHRIST~1\AppData\Local\Temp\cc3sxhHg.s 			page 7


 343              	.LVL33:
 344              		.loc 1 139 0
 345 00a4 3046     		mov	r0, r6
 346              		.loc 1 140 0
 347 00a6 BDE8F840 		pop	{r3, r4, r5, r6, r7, lr}
 348              		.cfi_restore 14
 349              		.cfi_restore 7
 350              		.cfi_restore 6
 351              		.cfi_restore 5
 352              		.cfi_restore 4
 353              		.cfi_restore 3
 354              		.cfi_def_cfa_offset 0
 355              		.loc 1 139 0
 356 00aa FFF7FEBF 		b	chMtxUnlock
 357              	.LVL34:
 358              	.L20:
 359 00ae 00BF     		.align	2
 360              	.L19:
 361 00b0 00000000 		.word	.LANCHOR0
 362 00b4 00000000 		.word	.LANCHOR7
 363 00b8 00000000 		.word	.LANCHOR3
 364 00bc 00000000 		.word	.LANCHOR1
 365 00c0 00000000 		.word	.LANCHOR4
 366 00c4 00000000 		.word	.LANCHOR5
 367              		.cfi_endproc
 368              	.LFE259:
 369              		.size	rfhelp_restart, .-rfhelp_restart
 370              		.section	.text.rfhelp_update_conf,"ax",%progbits
 371              		.align	1
 372              		.p2align 4,,15
 373              		.global	rfhelp_update_conf
 374              		.syntax unified
 375              		.thumb
 376              		.thumb_func
 377              		.fpu fpv4-sp-d16
 378              		.type	rfhelp_update_conf, %function
 379              	rfhelp_update_conf:
 380              	.LFB258:
 381              		.loc 1 92 0
 382              		.cfi_startproc
 383              		@ args = 0, pretend = 0, frame = 0
 384              		@ frame_needed = 0, uses_anonymous_args = 0
 385              		@ link register save eliminated.
 386              	.LVL35:
 387 0000 0246     		mov	r2, r0
 388              		.loc 1 93 0
 389 0002 074B     		ldr	r3, .L25
 390 0004 5168     		ldr	r1, [r2, #4]	@ unaligned
 391 0006 0068     		ldr	r0, [r0]	@ unaligned
 392              	.LVL36:
 393              		.loc 1 92 0
 394 0008 30B4     		push	{r4, r5}
 395              		.cfi_def_cfa_offset 8
 396              		.cfi_offset 4, -8
 397              		.cfi_offset 5, -4
 398              		.loc 1 95 0
 399 000a 064D     		ldr	r5, .L25+4
ARM GAS  C:\Users\CHRIST~1\AppData\Local\Temp\cc3sxhHg.s 			page 8


 400              		.loc 1 93 0
 401 000c 1489     		ldrh	r4, [r2, #8]	@ unaligned
 402              		.loc 1 95 0
 403 000e 2A78     		ldrb	r2, [r5]	@ zero_extendqisi2
 404              	.LVL37:
 405              		.loc 1 93 0
 406 0010 03C3     		stmia	r3!, {r0, r1}
 407 0012 1C80     		strh	r4, [r3]	@ unaligned
 408              		.loc 1 95 0
 409 0014 0AB9     		cbnz	r2, .L24
 410              		.loc 1 98 0
 411 0016 30BC     		pop	{r4, r5}
 412              		.cfi_remember_state
 413              		.cfi_restore 5
 414              		.cfi_restore 4
 415              		.cfi_def_cfa_offset 0
 416 0018 7047     		bx	lr
 417              	.L24:
 418              		.cfi_restore_state
 419 001a 30BC     		pop	{r4, r5}
 420              		.cfi_restore 5
 421              		.cfi_restore 4
 422              		.cfi_def_cfa_offset 0
 423              		.loc 1 96 0
 424 001c FFF7FEBF 		b	rfhelp_restart
 425              	.LVL38:
 426              	.L26:
 427              		.align	2
 428              	.L25:
 429 0020 00000000 		.word	.LANCHOR7
 430 0024 00000000 		.word	.LANCHOR6
 431              		.cfi_endproc
 432              	.LFE258:
 433              		.size	rfhelp_update_conf, .-rfhelp_update_conf
 434              		.section	.text.rfhelp_send_data,"ax",%progbits
 435              		.align	1
 436              		.p2align 4,,15
 437              		.global	rfhelp_send_data
 438              		.syntax unified
 439              		.thumb
 440              		.thumb_func
 441              		.fpu fpv4-sp-d16
 442              		.type	rfhelp_send_data, %function
 443              	rfhelp_send_data:
 444              	.LFB260:
 445              		.loc 1 156 0
 446              		.cfi_startproc
 447              		@ args = 0, pretend = 0, frame = 0
 448              		@ frame_needed = 0, uses_anonymous_args = 0
 449              	.LVL39:
 450 0000 F8B5     		push	{r3, r4, r5, r6, r7, lr}
 451              		.cfi_def_cfa_offset 24
 452              		.cfi_offset 3, -24
 453              		.cfi_offset 4, -20
 454              		.cfi_offset 5, -16
 455              		.cfi_offset 6, -12
 456              		.cfi_offset 7, -8
ARM GAS  C:\Users\CHRIST~1\AppData\Local\Temp\cc3sxhHg.s 			page 9


 457              		.cfi_offset 14, -4
 458              		.loc 1 167 0
 459 0002 254E     		ldr	r6, .L52
 460              		.loc 1 156 0
 461 0004 0446     		mov	r4, r0
 462              		.loc 1 160 0
 463 0006 2548     		ldr	r0, .L52+4
 464              	.LVL40:
 465              		.loc 1 156 0
 466 0008 0D46     		mov	r5, r1
 467 000a 1746     		mov	r7, r2
 468              		.loc 1 160 0
 469 000c FFF7FEFF 		bl	chMtxLock
 470              	.LVL41:
 471              		.loc 1 162 0
 472 0010 FFF7FEFF 		bl	rf_mode_tx
 473              	.LVL42:
 474              		.loc 1 163 0
 475 0014 FFF7FEFF 		bl	rf_clear_irq
 476              	.LVL43:
 477              		.loc 1 164 0
 478 0018 FFF7FEFF 		bl	rf_flush_all
 479              	.LVL44:
 480              		.loc 1 167 0
 481 001c 3078     		ldrb	r0, [r6]	@ zero_extendqisi2
 482 001e 10BB     		cbnz	r0, .L28
 483              		.loc 1 167 0 is_stmt 0 discriminator 1
 484 0020 6FBB     		cbnz	r7, .L48
 485              	.L29:
 486              		.loc 1 174 0 is_stmt 1
 487 0022 2946     		mov	r1, r5
 488 0024 2046     		mov	r0, r4
 489 0026 FFF7FEFF 		bl	rf_write_tx_payload_no_ack
 490              	.LVL45:
 491              	.L32:
 492              		.loc 1 156 0
 493 002a 3C25     		movs	r5, #60
 494              	.LVL46:
 495 002c 03E0     		b	.L31
 496              	.LVL47:
 497              	.L51:
 498              	.LBB3:
 499              		.loc 1 186 0
 500 002e E306     		lsls	r3, r4, #27
 501 0030 20D4     		bmi	.L49
 502              		.loc 1 190 0
 503 0032 013D     		subs	r5, r5, #1
 504              	.LVL48:
 505 0034 2DD0     		beq	.L50
 506              	.LVL49:
 507              	.L31:
 508              		.loc 1 178 0
 509 0036 FFF7FEFF 		bl	rf_status
 510              	.LVL50:
 511 003a 0446     		mov	r4, r0
 512              	.LVL51:
 513              		.loc 1 180 0
ARM GAS  C:\Users\CHRIST~1\AppData\Local\Temp\cc3sxhHg.s 			page 10


 514 003c 0A20     		movs	r0, #10
 515              	.LVL52:
 516 003e FFF7FEFF 		bl	chThdSleep
 517              	.LVL53:
 518              		.loc 1 183 0
 519 0042 A206     		lsls	r2, r4, #26
 520 0044 F3D5     		bpl	.L51
 521              		.loc 1 184 0
 522 0046 0024     		movs	r4, #0
 523              	.LVL54:
 524              	.L33:
 525              	.LBE3:
 526              		.loc 1 197 0
 527 0048 3078     		ldrb	r0, [r6]	@ zero_extendqisi2
 528 004a 28B9     		cbnz	r0, .L35
 529              		.loc 1 197 0 is_stmt 0 discriminator 1
 530 004c 27B1     		cbz	r7, .L35
 531              		.loc 1 198 0 is_stmt 1
 532 004e 144B     		ldr	r3, .L52+8
 533 0050 1449     		ldr	r1, .L52+12
 534 0052 1A68     		ldr	r2, [r3]
 535 0054 FFF7FEFF 		bl	rf_set_rx_addr
 536              	.LVL55:
 537              	.L35:
 538              		.loc 1 201 0
 539 0058 FFF7FEFF 		bl	rf_mode_rx
 540              	.LVL56:
 541              		.loc 1 203 0
 542 005c 0F48     		ldr	r0, .L52+4
 543 005e FFF7FEFF 		bl	chMtxUnlock
 544              	.LVL57:
 545              		.loc 1 206 0
 546 0062 2046     		mov	r0, r4
 547 0064 F8BD     		pop	{r3, r4, r5, r6, r7, pc}
 548              	.LVL58:
 549              	.L28:
 550              		.loc 1 171 0
 551 0066 002F     		cmp	r7, #0
 552 0068 DBD0     		beq	.L29
 553              		.loc 1 172 0
 554 006a 2946     		mov	r1, r5
 555 006c 2046     		mov	r0, r4
 556 006e FFF7FEFF 		bl	rf_write_tx_payload
 557              	.LVL59:
 558 0072 DAE7     		b	.L32
 559              	.LVL60:
 560              	.L49:
 561              	.LBB4:
 562              		.loc 1 187 0
 563 0074 FFF7FEFF 		bl	rf_clear_maxrt_irq
 564              	.LVL61:
 565              		.loc 1 188 0
 566 0078 4FF0FF34 		mov	r4, #-1
 567              	.LVL62:
 568              		.loc 1 189 0
 569 007c E4E7     		b	.L33
 570              	.LVL63:
ARM GAS  C:\Users\CHRIST~1\AppData\Local\Temp\cc3sxhHg.s 			page 11


 571              	.L48:
 572              	.LBE4:
 573              		.loc 1 168 0
 574 007e 084B     		ldr	r3, .L52+8
 575 0080 0949     		ldr	r1, .L52+16
 576 0082 1A68     		ldr	r2, [r3]
 577 0084 FFF7FEFF 		bl	rf_set_rx_addr
 578              	.LVL64:
 579              		.loc 1 172 0
 580 0088 2946     		mov	r1, r5
 581 008a 2046     		mov	r0, r4
 582 008c FFF7FEFF 		bl	rf_write_tx_payload
 583              	.LVL65:
 584 0090 CBE7     		b	.L32
 585              	.LVL66:
 586              	.L50:
 587              	.LBB5:
 588              		.loc 1 191 0
 589 0092 6FF00104 		mvn	r4, #1
 590              	.LVL67:
 591 0096 D7E7     		b	.L33
 592              	.L53:
 593              		.align	2
 594              	.L52:
 595 0098 00000000 		.word	.LANCHOR5
 596 009c 00000000 		.word	.LANCHOR0
 597 00a0 00000000 		.word	.LANCHOR1
 598 00a4 00000000 		.word	.LANCHOR3
 599 00a8 00000000 		.word	.LANCHOR4
 600              	.LBE5:
 601              		.cfi_endproc
 602              	.LFE260:
 603              		.size	rfhelp_send_data, .-rfhelp_send_data
 604              		.section	.text.rfhelp_send_data_crc,"ax",%progbits
 605              		.align	1
 606              		.p2align 4,,15
 607              		.global	rfhelp_send_data_crc
 608              		.syntax unified
 609              		.thumb
 610              		.thumb_func
 611              		.fpu fpv4-sp-d16
 612              		.type	rfhelp_send_data_crc, %function
 613              	rfhelp_send_data_crc:
 614              	.LFB261:
 615              		.loc 1 224 0
 616              		.cfi_startproc
 617              		@ args = 0, pretend = 0, frame = 0
 618              		@ frame_needed = 1, uses_anonymous_args = 0
 619              	.LVL68:
 620 0000 F8B5     		push	{r3, r4, r5, r6, r7, lr}
 621              		.cfi_def_cfa_offset 24
 622              		.cfi_offset 3, -24
 623              		.cfi_offset 4, -20
 624              		.cfi_offset 5, -16
 625              		.cfi_offset 6, -12
 626              		.cfi_offset 7, -8
 627              		.cfi_offset 14, -4
ARM GAS  C:\Users\CHRIST~1\AppData\Local\Temp\cc3sxhHg.s 			page 12


 628              		.loc 1 225 0
 629 0002 01F10903 		add	r3, r1, #9
 630 0006 23F00703 		bic	r3, r3, #7
 631              		.loc 1 224 0
 632 000a 00AF     		add	r7, sp, #0
 633              		.cfi_def_cfa_register 7
 634              		.loc 1 225 0
 635 000c ADEB030D 		sub	sp, sp, r3
 636              		.loc 1 224 0
 637 0010 0C46     		mov	r4, r1
 638 0012 0646     		mov	r6, r0
 639              		.loc 1 226 0
 640 0014 FFF7FEFF 		bl	crc16
 641              	.LVL69:
 642              		.loc 1 228 0
 643 0018 2246     		mov	r2, r4
 644              		.loc 1 226 0
 645 001a 0546     		mov	r5, r0
 646              		.loc 1 228 0
 647 001c 3146     		mov	r1, r6
 648 001e 6846     		mov	r0, sp
 649 0020 FFF7FEFF 		bl	memcpy
 650              	.LVL70:
 651              		.loc 1 230 0
 652 0024 0DEB0403 		add	r3, sp, r4
 653              		.loc 1 232 0
 654 0028 054A     		ldr	r2, .L56
 655              		.loc 1 229 0
 656 002a 280A     		lsrs	r0, r5, #8
 657 002c 0DF80400 		strb	r0, [sp, r4]
 658              		.loc 1 225 0
 659 0030 A11C     		adds	r1, r4, #2
 660              	.LVL71:
 661              		.loc 1 232 0
 662 0032 527A     		ldrb	r2, [r2, #9]	@ zero_extendqisi2
 663              		.loc 1 230 0
 664 0034 5D70     		strb	r5, [r3, #1]
 665              		.loc 1 232 0
 666 0036 6846     		mov	r0, sp
 667 0038 FFF7FEFF 		bl	rfhelp_send_data
 668              	.LVL72:
 669              		.loc 1 233 0
 670 003c BD46     		mov	sp, r7
 671              		.cfi_def_cfa_register 13
 672              	.LVL73:
 673              		@ sp needed
 674 003e F8BD     		pop	{r3, r4, r5, r6, r7, pc}
 675              	.LVL74:
 676              	.L57:
 677              		.align	2
 678              	.L56:
 679 0040 00000000 		.word	.LANCHOR7
 680              		.cfi_endproc
 681              	.LFE261:
 682              		.size	rfhelp_send_data_crc, .-rfhelp_send_data_crc
 683              		.section	.text.rfhelp_read_rx_data,"ax",%progbits
 684              		.align	1
ARM GAS  C:\Users\CHRIST~1\AppData\Local\Temp\cc3sxhHg.s 			page 13


 685              		.p2align 4,,15
 686              		.global	rfhelp_read_rx_data
 687              		.syntax unified
 688              		.thumb
 689              		.thumb_func
 690              		.fpu fpv4-sp-d16
 691              		.type	rfhelp_read_rx_data, %function
 692              	rfhelp_read_rx_data:
 693              	.LFB262:
 694              		.loc 1 253 0
 695              		.cfi_startproc
 696              		@ args = 0, pretend = 0, frame = 0
 697              		@ frame_needed = 0, uses_anonymous_args = 0
 698              	.LVL75:
 699 0000 F8B5     		push	{r3, r4, r5, r6, r7, lr}
 700              		.cfi_def_cfa_offset 24
 701              		.cfi_offset 3, -24
 702              		.cfi_offset 4, -20
 703              		.cfi_offset 5, -16
 704              		.cfi_offset 6, -12
 705              		.cfi_offset 7, -8
 706              		.cfi_offset 14, -4
 707              		.loc 1 253 0
 708 0002 0746     		mov	r7, r0
 709              		.loc 1 256 0
 710 0004 1648     		ldr	r0, .L67
 711              	.LVL76:
 712              		.loc 1 253 0
 713 0006 0C46     		mov	r4, r1
 714 0008 1646     		mov	r6, r2
 715              		.loc 1 256 0
 716 000a FFF7FEFF 		bl	chMtxLock
 717              	.LVL77:
 718              		.loc 1 258 0
 719 000e FFF7FEFF 		bl	rf_status
 720              	.LVL78:
 721              		.loc 1 259 0
 722 0012 C0F34205 		ubfx	r5, r0, #1, #3
 723              	.LVL79:
 724              		.loc 1 261 0
 725 0016 072D     		cmp	r5, #7
 726 0018 1ED0     		beq	.L62
 727              		.loc 1 262 0
 728 001a FFF7FEFF 		bl	rf_get_payload_width
 729              	.LVL80:
 730 001e 2060     		str	r0, [r4]
 731              		.loc 1 263 0
 732 0020 0EB1     		cbz	r6, .L60
 733              		.loc 1 264 0
 734 0022 3560     		str	r5, [r6]
 735 0024 2068     		ldr	r0, [r4]
 736              	.L60:
 737              		.loc 1 266 0
 738 0026 2028     		cmp	r0, #32
 739 0028 11D8     		bhi	.L61
 740              		.loc 1 267 0
 741 002a 0146     		mov	r1, r0
ARM GAS  C:\Users\CHRIST~1\AppData\Local\Temp\cc3sxhHg.s 			page 14


 742 002c 3846     		mov	r0, r7
 743 002e FFF7FEFF 		bl	rf_read_rx_payload
 744              	.LVL81:
 745              		.loc 1 268 0
 746 0032 FFF7FEFF 		bl	rf_clear_rx_irq
 747              	.LVL82:
 748              		.loc 1 271 0
 749 0036 FFF7FEFF 		bl	rf_status
 750              	.LVL83:
 751              		.loc 1 272 0
 752 003a C0F34200 		ubfx	r0, r0, #1, #3
 753              	.LVL84:
 754 003e C41F     		subs	r4, r0, #7
 755              	.LVL85:
 756 0040 18BF     		it	ne
 757 0042 0124     		movne	r4, #1
 758              	.LVL86:
 759              	.L59:
 760              		.loc 1 283 0
 761 0044 0648     		ldr	r0, .L67
 762 0046 FFF7FEFF 		bl	chMtxUnlock
 763              	.LVL87:
 764              		.loc 1 286 0
 765 004a 2046     		mov	r0, r4
 766 004c F8BD     		pop	{r3, r4, r5, r6, r7, pc}
 767              	.LVL88:
 768              	.L61:
 769              		.loc 1 278 0
 770 004e 0023     		movs	r3, #0
 771 0050 2360     		str	r3, [r4]
 772              	.LVL89:
 773              		.loc 1 279 0
 774 0052 6FF00104 		mvn	r4, #1
 775              	.LVL90:
 776 0056 F5E7     		b	.L59
 777              	.LVL91:
 778              	.L62:
 779              		.loc 1 254 0
 780 0058 4FF0FF34 		mov	r4, #-1
 781              	.LVL92:
 782 005c F2E7     		b	.L59
 783              	.L68:
 784 005e 00BF     		.align	2
 785              	.L67:
 786 0060 00000000 		.word	.LANCHOR0
 787              		.cfi_endproc
 788              	.LFE262:
 789              		.size	rfhelp_read_rx_data, .-rfhelp_read_rx_data
 790              		.section	.text.rfhelp_read_rx_data_crc,"ax",%progbits
 791              		.align	1
 792              		.p2align 4,,15
 793              		.global	rfhelp_read_rx_data_crc
 794              		.syntax unified
 795              		.thumb
 796              		.thumb_func
 797              		.fpu fpv4-sp-d16
 798              		.type	rfhelp_read_rx_data_crc, %function
ARM GAS  C:\Users\CHRIST~1\AppData\Local\Temp\cc3sxhHg.s 			page 15


 799              	rfhelp_read_rx_data_crc:
 800              	.LFB263:
 801              		.loc 1 308 0
 802              		.cfi_startproc
 803              		@ args = 0, pretend = 0, frame = 0
 804              		@ frame_needed = 0, uses_anonymous_args = 0
 805              	.LVL93:
 806 0000 70B5     		push	{r4, r5, r6, lr}
 807              		.cfi_def_cfa_offset 16
 808              		.cfi_offset 4, -16
 809              		.cfi_offset 5, -12
 810              		.cfi_offset 6, -8
 811              		.cfi_offset 14, -4
 812              		.loc 1 308 0
 813 0002 0546     		mov	r5, r0
 814 0004 0C46     		mov	r4, r1
 815              		.loc 1 309 0
 816 0006 FFF7FEFF 		bl	rfhelp_read_rx_data
 817              	.LVL94:
 818              		.loc 1 311 0
 819 000a 061E     		subs	r6, r0, #0
 820 000c 1ADB     		blt	.L74
 821              		.loc 1 311 0 is_stmt 0 discriminator 1
 822 000e 2368     		ldr	r3, [r4]
 823 0010 022B     		cmp	r3, #2
 824 0012 A3F10201 		sub	r1, r3, #2
 825 0016 02DC     		bgt	.L75
 826              		.loc 1 319 0 is_stmt 1
 827 0018 2160     		str	r1, [r4]
 828              		.loc 1 322 0
 829 001a 3046     		mov	r0, r6
 830 001c 70BD     		pop	{r4, r5, r6, pc}
 831              	.LVL95:
 832              	.L75:
 833              	.LBB6:
 834              		.loc 1 312 0
 835 001e 2846     		mov	r0, r5
 836              	.LVL96:
 837 0020 FFF7FEFF 		bl	crc16
 838              	.LVL97:
 839              		.loc 1 314 0
 840 0024 2168     		ldr	r1, [r4]
 841 0026 0D44     		add	r5, r5, r1
 842              	.LVL98:
 843 0028 0239     		subs	r1, r1, #2
 844 002a 15F8022C 		ldrb	r2, [r5, #-2]	@ zero_extendqisi2
 845 002e 15F8013C 		ldrb	r3, [r5, #-1]	@ zero_extendqisi2
 846              	.LBE6:
 847              		.loc 1 319 0
 848 0032 2160     		str	r1, [r4]
 849              	.LBB7:
 850              		.loc 1 314 0
 851 0034 43EA0223 		orr	r3, r3, r2, lsl #8
 852 0038 9842     		cmp	r0, r3
 853              	.LVL99:
 854              		.loc 1 315 0
 855 003a 18BF     		it	ne
ARM GAS  C:\Users\CHRIST~1\AppData\Local\Temp\cc3sxhHg.s 			page 16


 856 003c 6FF00206 		mvnne	r6, #2
 857              	.LVL100:
 858              	.LBE7:
 859              		.loc 1 322 0
 860 0040 3046     		mov	r0, r6
 861              	.LVL101:
 862 0042 70BD     		pop	{r4, r5, r6, pc}
 863              	.LVL102:
 864              	.L74:
 865 0044 2168     		ldr	r1, [r4]
 866 0046 0239     		subs	r1, r1, #2
 867              		.loc 1 319 0
 868 0048 2160     		str	r1, [r4]
 869              		.loc 1 322 0
 870 004a 3046     		mov	r0, r6
 871 004c 70BD     		pop	{r4, r5, r6, pc}
 872              		.cfi_endproc
 873              	.LFE263:
 874              		.size	rfhelp_read_rx_data_crc, .-rfhelp_read_rx_data_crc
 875 004e 00BF     		.section	.text.rfhelp_rf_status,"ax",%progbits
 876              		.align	1
 877              		.p2align 4,,15
 878              		.global	rfhelp_rf_status
 879              		.syntax unified
 880              		.thumb
 881              		.thumb_func
 882              		.fpu fpv4-sp-d16
 883              		.type	rfhelp_rf_status, %function
 884              	rfhelp_rf_status:
 885              	.LFB264:
 886              		.loc 1 324 0
 887              		.cfi_startproc
 888              		@ args = 0, pretend = 0, frame = 0
 889              		@ frame_needed = 0, uses_anonymous_args = 0
 890 0000 38B5     		push	{r3, r4, r5, lr}
 891              		.cfi_def_cfa_offset 16
 892              		.cfi_offset 3, -16
 893              		.cfi_offset 4, -12
 894              		.cfi_offset 5, -8
 895              		.cfi_offset 14, -4
 896              		.loc 1 325 0
 897 0002 064C     		ldr	r4, .L78
 898 0004 2046     		mov	r0, r4
 899 0006 FFF7FEFF 		bl	chMtxLock
 900              	.LVL103:
 901              		.loc 1 326 0
 902 000a FFF7FEFF 		bl	rf_status
 903              	.LVL104:
 904 000e 0546     		mov	r5, r0
 905              	.LVL105:
 906              		.loc 1 327 0
 907 0010 2046     		mov	r0, r4
 908              	.LVL106:
 909 0012 FFF7FEFF 		bl	chMtxUnlock
 910              	.LVL107:
 911              		.loc 1 330 0
 912 0016 2846     		mov	r0, r5
ARM GAS  C:\Users\CHRIST~1\AppData\Local\Temp\cc3sxhHg.s 			page 17


 913 0018 38BD     		pop	{r3, r4, r5, pc}
 914              	.LVL108:
 915              	.L79:
 916 001a 00BF     		.align	2
 917              	.L78:
 918 001c 00000000 		.word	.LANCHOR0
 919              		.cfi_endproc
 920              	.LFE264:
 921              		.size	rfhelp_rf_status, .-rfhelp_rf_status
 922              		.section	.text.rfhelp_set_tx_addr,"ax",%progbits
 923              		.align	1
 924              		.p2align 4,,15
 925              		.global	rfhelp_set_tx_addr
 926              		.syntax unified
 927              		.thumb
 928              		.thumb_func
 929              		.fpu fpv4-sp-d16
 930              		.type	rfhelp_set_tx_addr, %function
 931              	rfhelp_set_tx_addr:
 932              	.LFB265:
 933              		.loc 1 332 0
 934              		.cfi_startproc
 935              		@ args = 0, pretend = 0, frame = 0
 936              		@ frame_needed = 0, uses_anonymous_args = 0
 937              	.LVL109:
 938 0000 F8B5     		push	{r3, r4, r5, r6, r7, lr}
 939              		.cfi_def_cfa_offset 24
 940              		.cfi_offset 3, -24
 941              		.cfi_offset 4, -20
 942              		.cfi_offset 5, -16
 943              		.cfi_offset 6, -12
 944              		.cfi_offset 7, -8
 945              		.cfi_offset 14, -4
 946              		.loc 1 333 0
 947 0002 104E     		ldr	r6, .L82
 948              		.loc 1 334 0
 949 0004 104D     		ldr	r5, .L82+4
 950              		.loc 1 332 0
 951 0006 0C46     		mov	r4, r1
 952 0008 0746     		mov	r7, r0
 953              		.loc 1 333 0
 954 000a 3046     		mov	r0, r6
 955              	.LVL110:
 956 000c FFF7FEFF 		bl	chMtxLock
 957              	.LVL111:
 958              		.loc 1 334 0
 959 0010 3946     		mov	r1, r7
 960 0012 2246     		mov	r2, r4
 961 0014 2846     		mov	r0, r5
 962 0016 FFF7FEFF 		bl	memcpy
 963              	.LVL112:
 964              		.loc 1 335 0
 965 001a 0C4B     		ldr	r3, .L82+8
 966              		.loc 1 337 0
 967 001c 0C48     		ldr	r0, .L82+12
 968              		.loc 1 335 0
 969 001e 1C60     		str	r4, [r3]
ARM GAS  C:\Users\CHRIST~1\AppData\Local\Temp\cc3sxhHg.s 			page 18


 970              		.loc 1 337 0
 971 0020 2246     		mov	r2, r4
 972 0022 2946     		mov	r1, r5
 973 0024 FFF7FEFF 		bl	memcmp
 974              	.LVL113:
 975 0028 0A4A     		ldr	r2, .L82+16
 976 002a B0FA80F3 		clz	r3, r0
 977 002e 5B09     		lsrs	r3, r3, #5
 978              		.loc 1 339 0
 979 0030 2846     		mov	r0, r5
 980 0032 2146     		mov	r1, r4
 981              		.loc 1 337 0
 982 0034 1370     		strb	r3, [r2]
 983              		.loc 1 339 0
 984 0036 FFF7FEFF 		bl	rf_set_tx_addr
 985              	.LVL114:
 986              		.loc 1 340 0
 987 003a 3046     		mov	r0, r6
 988              		.loc 1 341 0
 989 003c BDE8F840 		pop	{r3, r4, r5, r6, r7, lr}
 990              		.cfi_restore 14
 991              		.cfi_restore 7
 992              		.cfi_restore 6
 993              		.cfi_restore 5
 994              		.cfi_restore 4
 995              		.cfi_restore 3
 996              		.cfi_def_cfa_offset 0
 997              	.LVL115:
 998              		.loc 1 340 0
 999 0040 FFF7FEBF 		b	chMtxUnlock
 1000              	.LVL116:
 1001              	.L83:
 1002              		.align	2
 1003              	.L82:
 1004 0044 00000000 		.word	.LANCHOR0
 1005 0048 00000000 		.word	.LANCHOR4
 1006 004c 00000000 		.word	.LANCHOR1
 1007 0050 00000000 		.word	.LANCHOR3
 1008 0054 00000000 		.word	.LANCHOR5
 1009              		.cfi_endproc
 1010              	.LFE265:
 1011              		.size	rfhelp_set_tx_addr, .-rfhelp_set_tx_addr
 1012              		.section	.text.rfhelp_set_rx_addr,"ax",%progbits
 1013              		.align	1
 1014              		.p2align 4,,15
 1015              		.global	rfhelp_set_rx_addr
 1016              		.syntax unified
 1017              		.thumb
 1018              		.thumb_func
 1019              		.fpu fpv4-sp-d16
 1020              		.type	rfhelp_set_rx_addr, %function
 1021              	rfhelp_set_rx_addr:
 1022              	.LFB266:
 1023              		.loc 1 343 0
 1024              		.cfi_startproc
 1025              		@ args = 0, pretend = 0, frame = 0
 1026              		@ frame_needed = 0, uses_anonymous_args = 0
ARM GAS  C:\Users\CHRIST~1\AppData\Local\Temp\cc3sxhHg.s 			page 19


 1027              	.LVL117:
 1028 0000 2DE9F041 		push	{r4, r5, r6, r7, r8, lr}
 1029              		.cfi_def_cfa_offset 24
 1030              		.cfi_offset 4, -24
 1031              		.cfi_offset 5, -20
 1032              		.cfi_offset 6, -16
 1033              		.cfi_offset 7, -12
 1034              		.cfi_offset 8, -8
 1035              		.cfi_offset 14, -4
 1036              		.loc 1 344 0
 1037 0004 134E     		ldr	r6, .L86
 1038              		.loc 1 345 0
 1039 0006 DFF85880 		ldr	r8, .L86+12
 1040              		.loc 1 343 0
 1041 000a 0546     		mov	r5, r0
 1042              		.loc 1 344 0
 1043 000c 3046     		mov	r0, r6
 1044              	.LVL118:
 1045              		.loc 1 343 0
 1046 000e 1446     		mov	r4, r2
 1047 0010 0F46     		mov	r7, r1
 1048              		.loc 1 344 0
 1049 0012 FFF7FEFF 		bl	chMtxLock
 1050              	.LVL119:
 1051              		.loc 1 345 0
 1052 0016 05EB8500 		add	r0, r5, r5, lsl #2
 1053 001a 2246     		mov	r2, r4
 1054 001c 3946     		mov	r1, r7
 1055 001e 4044     		add	r0, r0, r8
 1056 0020 FFF7FEFF 		bl	memcpy
 1057              	.LVL120:
 1058              		.loc 1 346 0
 1059 0024 0C4B     		ldr	r3, .L86+4
 1060              		.loc 1 348 0
 1061 0026 0D49     		ldr	r1, .L86+8
 1062              		.loc 1 346 0
 1063 0028 1C60     		str	r4, [r3]
 1064              		.loc 1 348 0
 1065 002a 2246     		mov	r2, r4
 1066 002c 4046     		mov	r0, r8
 1067 002e FFF7FEFF 		bl	memcmp
 1068              	.LVL121:
 1069 0032 DFF830C0 		ldr	ip, .L86+16
 1070 0036 B0FA80F3 		clz	r3, r0
 1071 003a 5B09     		lsrs	r3, r3, #5
 1072              		.loc 1 351 0
 1073 003c 2846     		mov	r0, r5
 1074 003e 2246     		mov	r2, r4
 1075 0040 3946     		mov	r1, r7
 1076              		.loc 1 348 0
 1077 0042 8CF80030 		strb	r3, [ip]
 1078              		.loc 1 351 0
 1079 0046 FFF7FEFF 		bl	rf_set_rx_addr
 1080              	.LVL122:
 1081              		.loc 1 352 0
 1082 004a 3046     		mov	r0, r6
 1083              		.loc 1 353 0
ARM GAS  C:\Users\CHRIST~1\AppData\Local\Temp\cc3sxhHg.s 			page 20


 1084 004c BDE8F041 		pop	{r4, r5, r6, r7, r8, lr}
 1085              		.cfi_restore 14
 1086              		.cfi_restore 8
 1087              		.cfi_restore 7
 1088              		.cfi_restore 6
 1089              		.cfi_restore 5
 1090              		.cfi_restore 4
 1091              		.cfi_def_cfa_offset 0
 1092              	.LVL123:
 1093              		.loc 1 352 0
 1094 0050 FFF7FEBF 		b	chMtxUnlock
 1095              	.LVL124:
 1096              	.L87:
 1097              		.align	2
 1098              	.L86:
 1099 0054 00000000 		.word	.LANCHOR0
 1100 0058 00000000 		.word	.LANCHOR1
 1101 005c 00000000 		.word	.LANCHOR4
 1102 0060 00000000 		.word	.LANCHOR3
 1103 0064 00000000 		.word	.LANCHOR5
 1104              		.cfi_endproc
 1105              	.LFE266:
 1106              		.size	rfhelp_set_rx_addr, .-rfhelp_set_rx_addr
 1107              		.section	.text.rfhelp_power_down,"ax",%progbits
 1108              		.align	1
 1109              		.p2align 4,,15
 1110              		.global	rfhelp_power_down
 1111              		.syntax unified
 1112              		.thumb
 1113              		.thumb_func
 1114              		.fpu fpv4-sp-d16
 1115              		.type	rfhelp_power_down, %function
 1116              	rfhelp_power_down:
 1117              	.LFB267:
 1118              		.loc 1 355 0
 1119              		.cfi_startproc
 1120              		@ args = 0, pretend = 0, frame = 0
 1121              		@ frame_needed = 0, uses_anonymous_args = 0
 1122 0000 10B5     		push	{r4, lr}
 1123              		.cfi_def_cfa_offset 8
 1124              		.cfi_offset 4, -8
 1125              		.cfi_offset 14, -4
 1126              		.loc 1 356 0
 1127 0002 054C     		ldr	r4, .L90
 1128 0004 2046     		mov	r0, r4
 1129 0006 FFF7FEFF 		bl	chMtxLock
 1130              	.LVL125:
 1131              		.loc 1 357 0
 1132 000a FFF7FEFF 		bl	rf_power_down
 1133              	.LVL126:
 1134              		.loc 1 358 0
 1135 000e 2046     		mov	r0, r4
 1136              		.loc 1 359 0
 1137 0010 BDE81040 		pop	{r4, lr}
 1138              		.cfi_restore 14
 1139              		.cfi_restore 4
 1140              		.cfi_def_cfa_offset 0
ARM GAS  C:\Users\CHRIST~1\AppData\Local\Temp\cc3sxhHg.s 			page 21


 1141              		.loc 1 358 0
 1142 0014 FFF7FEBF 		b	chMtxUnlock
 1143              	.LVL127:
 1144              	.L91:
 1145              		.align	2
 1146              	.L90:
 1147 0018 00000000 		.word	.LANCHOR0
 1148              		.cfi_endproc
 1149              	.LFE267:
 1150              		.size	rfhelp_power_down, .-rfhelp_power_down
 1151              		.section	.text.rfhelp_power_up,"ax",%progbits
 1152              		.align	1
 1153              		.p2align 4,,15
 1154              		.global	rfhelp_power_up
 1155              		.syntax unified
 1156              		.thumb
 1157              		.thumb_func
 1158              		.fpu fpv4-sp-d16
 1159              		.type	rfhelp_power_up, %function
 1160              	rfhelp_power_up:
 1161              	.LFB268:
 1162              		.loc 1 361 0
 1163              		.cfi_startproc
 1164              		@ args = 0, pretend = 0, frame = 0
 1165              		@ frame_needed = 0, uses_anonymous_args = 0
 1166 0000 10B5     		push	{r4, lr}
 1167              		.cfi_def_cfa_offset 8
 1168              		.cfi_offset 4, -8
 1169              		.cfi_offset 14, -4
 1170              		.loc 1 362 0
 1171 0002 054C     		ldr	r4, .L94
 1172 0004 2046     		mov	r0, r4
 1173 0006 FFF7FEFF 		bl	chMtxLock
 1174              	.LVL128:
 1175              		.loc 1 363 0
 1176 000a FFF7FEFF 		bl	rf_power_up
 1177              	.LVL129:
 1178              		.loc 1 364 0
 1179 000e 2046     		mov	r0, r4
 1180              		.loc 1 365 0
 1181 0010 BDE81040 		pop	{r4, lr}
 1182              		.cfi_restore 14
 1183              		.cfi_restore 4
 1184              		.cfi_def_cfa_offset 0
 1185              		.loc 1 364 0
 1186 0014 FFF7FEBF 		b	chMtxUnlock
 1187              	.LVL130:
 1188              	.L95:
 1189              		.align	2
 1190              	.L94:
 1191 0018 00000000 		.word	.LANCHOR0
 1192              		.cfi_endproc
 1193              	.LFE268:
 1194              		.size	rfhelp_power_up, .-rfhelp_power_up
 1195              		.section	.rodata
 1196              		.align	2
 1197              		.set	.LANCHOR2,. + 0
ARM GAS  C:\Users\CHRIST~1\AppData\Local\Temp\cc3sxhHg.s 			page 22


 1198              	.LC0:
 1199 0000 12       		.byte	18
 1200 0001 41       		.byte	65
 1201 0002 F3       		.byte	-13
 1202              		.section	.bss.address_length,"aw",%nobits
 1203              		.align	2
 1204              		.set	.LANCHOR1,. + 0
 1205              		.type	address_length, %object
 1206              		.size	address_length, 4
 1207              	address_length:
 1208 0000 00000000 		.space	4
 1209              		.section	.bss.init_done,"aw",%nobits
 1210              		.set	.LANCHOR6,. + 0
 1211              		.type	init_done, %object
 1212              		.size	init_done, 1
 1213              	init_done:
 1214 0000 00       		.space	1
 1215              		.section	.bss.nrf_conf,"aw",%nobits
 1216              		.align	2
 1217              		.set	.LANCHOR7,. + 0
 1218              		.type	nrf_conf, %object
 1219              		.size	nrf_conf, 10
 1220              	nrf_conf:
 1221 0000 00000000 		.space	10
 1221      00000000 
 1221      0000
 1222              		.section	.bss.rf_mutex,"aw",%nobits
 1223              		.align	2
 1224              		.set	.LANCHOR0,. + 0
 1225              		.type	rf_mutex, %object
 1226              		.size	rf_mutex, 16
 1227              	rf_mutex:
 1228 0000 00000000 		.space	16
 1228      00000000 
 1228      00000000 
 1228      00000000 
 1229              		.section	.bss.rx_addr,"aw",%nobits
 1230              		.align	2
 1231              		.set	.LANCHOR3,. + 0
 1232              		.type	rx_addr, %object
 1233              		.size	rx_addr, 30
 1234              	rx_addr:
 1235 0000 00000000 		.space	30
 1235      00000000 
 1235      00000000 
 1235      00000000 
 1235      00000000 
 1236              		.section	.bss.tx_addr,"aw",%nobits
 1237              		.align	2
 1238              		.set	.LANCHOR4,. + 0
 1239              		.type	tx_addr, %object
 1240              		.size	tx_addr, 5
 1241              	tx_addr:
 1242 0000 00000000 		.space	5
 1242      00
 1243              		.section	.bss.tx_pipe0_addr_eq,"aw",%nobits
 1244              		.set	.LANCHOR5,. + 0
ARM GAS  C:\Users\CHRIST~1\AppData\Local\Temp\cc3sxhHg.s 			page 23


 1245              		.type	tx_pipe0_addr_eq, %object
 1246              		.size	tx_pipe0_addr_eq, 1
 1247              	tx_pipe0_addr_eq:
 1248 0000 00       		.space	1
 1249              		.text
 1250              	.Letext0:
 1251              		.file 2 "c:\\program files (x86)\\gnu tools arm embedded\\7 2017-q4-major\\arm-none-eabi\\include\
 1252              		.file 3 "c:\\program files (x86)\\gnu tools arm embedded\\7 2017-q4-major\\arm-none-eabi\\include\
 1253              		.file 4 "c:\\program files (x86)\\gnu tools arm embedded\\7 2017-q4-major\\lib\\gcc\\arm-none-eabi
 1254              		.file 5 "ChibiOS_3.0.2/os/rt/ports/ARMCMx/compilers/GCC/chtypes.h"
 1255              		.file 6 "ChibiOS_3.0.2/os/rt/include/chsystypes.h"
 1256              		.file 7 "ChibiOS_3.0.2/os/rt/include/chschd.h"
 1257              		.file 8 "ChibiOS_3.0.2/os/ext/CMSIS/include/core_cm4.h"
 1258              		.file 9 "ChibiOS_3.0.2/os/ext/CMSIS/ST/system_stm32f4xx.h"
 1259              		.file 10 "ChibiOS_3.0.2/os/ext/CMSIS/ST/stm32f407xx.h"
 1260              		.file 11 "ChibiOS_3.0.2/os/rt/ports/ARMCMx/chcore.h"
 1261              		.file 12 "ChibiOS_3.0.2/os/rt/ports/ARMCMx/chcore_v7m.h"
 1262              		.file 13 "ChibiOS_3.0.2/os/rt/include/chtm.h"
 1263              		.file 14 "ChibiOS_3.0.2/os/rt/include/chsem.h"
 1264              		.file 15 "ChibiOS_3.0.2/os/rt/include/chmtx.h"
 1265              		.file 16 "ChibiOS_3.0.2/os/rt/include/chregistry.h"
 1266              		.file 17 "ChibiOS_3.0.2/os/rt/include/chevents.h"
 1267              		.file 18 "ChibiOS_3.0.2/os/rt/include/chqueues.h"
 1268              		.file 19 "./datatypes.h"
 1269              		.file 20 "./conf_general.h"
 1270              		.file 21 "ChibiOS_3.0.2/os/hal/ports/STM32/STM32F4xx/stm32_dma.h"
 1271              		.file 22 "ChibiOS_3.0.2/os/hal/ports/STM32/LLD/GPIOv2/pal_lld.h"
 1272              		.file 23 "ChibiOS_3.0.2/os/hal/include/can.h"
 1273              		.file 24 "ChibiOS_3.0.2/os/hal/ports/STM32/LLD/can_lld.h"
 1274              		.file 25 "ChibiOS_3.0.2/os/hal/include/i2c.h"
 1275              		.file 26 "ChibiOS_3.0.2/os/hal/ports/STM32/LLD/I2Cv1/i2c_lld.h"
 1276              		.file 27 "ChibiOS_3.0.2/os/hal/include/icu.h"
 1277              		.file 28 "ChibiOS_3.0.2/os/hal/ports/STM32/LLD/TIMv1/icu_lld.h"
 1278              		.file 29 "ChibiOS_3.0.2/os/hal/ports/STM32/LLD/TIMv1/stm32_tim.h"
 1279              		.file 30 "ChibiOS_3.0.2/os/hal/include/spi.h"
 1280              		.file 31 "ChibiOS_3.0.2/os/hal/ports/STM32/LLD/SPIv1/spi_lld.h"
 1281              		.file 32 "ChibiOS_3.0.2/os/hal/include/uart.h"
 1282              		.file 33 "ChibiOS_3.0.2/os/hal/ports/STM32/LLD/USARTv1/uart_lld.h"
 1283              		.file 34 "ChibiOS_3.0.2/os/hal/include/usb.h"
 1284              		.file 35 "ChibiOS_3.0.2/os/hal/ports/STM32/LLD/OTGv1/usb_lld.h"
 1285              		.file 36 "ChibiOS_3.0.2/os/hal/ports/STM32/LLD/OTGv1/stm32_otg.h"
 1286              		.file 37 "c:\\program files (x86)\\gnu tools arm embedded\\7 2017-q4-major\\arm-none-eabi\\include
 1287              		.file 38 "c:\\program files (x86)\\gnu tools arm embedded\\7 2017-q4-major\\arm-none-eabi\\include
 1288              		.file 39 "c:\\program files (x86)\\gnu tools arm embedded\\7 2017-q4-major\\arm-none-eabi\\include
 1289              		.file 40 "nrf/rf.h"
 1290              		.file 41 "<built-in>"
 1291              		.file 42 "./crc.h"
 1292              		.file 43 "ChibiOS_3.0.2/os/rt/include/chthreads.h"