ARM GAS  C:\Users\CHRIST~1\AppData\Local\Temp\ccdmW5op.s 			page 1


   1              		.cpu cortex-m4
   2              		.eabi_attribute 27, 1
   3              		.eabi_attribute 28, 1
   4              		.eabi_attribute 20, 1
   5              		.eabi_attribute 21, 1
   6              		.eabi_attribute 23, 3
   7              		.eabi_attribute 24, 1
   8              		.eabi_attribute 25, 1
   9              		.eabi_attribute 26, 1
  10              		.eabi_attribute 30, 2
  11              		.eabi_attribute 34, 1
  12              		.eabi_attribute 18, 4
  13              		.file	"usb.c"
  14              		.text
  15              	.Ltext0:
  16              		.cfi_sections	.debug_frame
  17              		.section	.text.usbInit,"ax",%progbits
  18              		.align	1
  19              		.p2align 4,,15
  20              		.global	usbInit
  21              		.syntax unified
  22              		.thumb
  23              		.thumb_func
  24              		.fpu fpv4-sp-d16
  25              		.type	usbInit, %function
  26              	usbInit:
  27              	.LFB259:
  28              		.file 1 "ChibiOS_3.0.2/os/hal/src/usb.c"
  29              		.loc 1 254 0
  30              		.cfi_startproc
  31              		@ args = 0, pretend = 0, frame = 0
  32              		@ frame_needed = 0, uses_anonymous_args = 0
  33              		@ link register save eliminated.
  34              		.loc 1 256 0
  35 0000 FFF7FEBF 		b	usb_lld_init
  36              	.LVL0:
  37              		.cfi_endproc
  38              	.LFE259:
  39              		.size	usbInit, .-usbInit
  40              		.section	.text.usbObjectInit,"ax",%progbits
  41              		.align	1
  42              		.p2align 4,,15
  43              		.global	usbObjectInit
  44              		.syntax unified
  45              		.thumb
  46              		.thumb_func
  47              		.fpu fpv4-sp-d16
  48              		.type	usbObjectInit, %function
  49              	usbObjectInit:
  50              	.LFB260:
  51              		.loc 1 266 0
  52              		.cfi_startproc
  53              		@ args = 0, pretend = 0, frame = 0
  54              		@ frame_needed = 0, uses_anonymous_args = 0
  55              		@ link register save eliminated.
  56              	.LVL1:
  57              		.loc 1 272 0
ARM GAS  C:\Users\CHRIST~1\AppData\Local\Temp\ccdmW5op.s 			page 2


  58 0000 0023     		movs	r3, #0
  59              		.loc 1 269 0
  60 0002 0122     		movs	r2, #1
  61 0004 0270     		strb	r2, [r0]
  62              	.LVL2:
  63              		.loc 1 272 0
  64 0006 C361     		str	r3, [r0, #28]
  65              		.loc 1 273 0
  66 0008 8362     		str	r3, [r0, #40]
  67              	.LVL3:
  68              		.loc 1 272 0
  69 000a 0362     		str	r3, [r0, #32]
  70              		.loc 1 273 0
  71 000c C362     		str	r3, [r0, #44]
  72              	.LVL4:
  73              		.loc 1 272 0
  74 000e 4362     		str	r3, [r0, #36]
  75              		.loc 1 273 0
  76 0010 0363     		str	r3, [r0, #48]
  77              	.LVL5:
  78              		.loc 1 270 0
  79 0012 C0E90133 		strd	r3, r3, [r0, #4]
  80              		.loc 1 277 0
  81 0016 7047     		bx	lr
  82              		.cfi_endproc
  83              	.LFE260:
  84              		.size	usbObjectInit, .-usbObjectInit
  85              		.section	.text.usbStart,"ax",%progbits
  86              		.align	1
  87              		.p2align 4,,15
  88              		.global	usbStart
  89              		.syntax unified
  90              		.thumb
  91              		.thumb_func
  92              		.fpu fpv4-sp-d16
  93              		.type	usbStart, %function
  94              	usbStart:
  95              	.LFB261:
  96              		.loc 1 287 0
  97              		.cfi_startproc
  98              		@ args = 0, pretend = 0, frame = 0
  99              		@ frame_needed = 0, uses_anonymous_args = 0
 100              	.LVL6:
 101 0000 38B5     		push	{r3, r4, r5, lr}
 102              		.cfi_def_cfa_offset 16
 103              		.cfi_offset 3, -16
 104              		.cfi_offset 4, -12
 105              		.cfi_offset 5, -8
 106              		.cfi_offset 14, -4
 107              		.loc 1 287 0
 108 0002 0446     		mov	r4, r0
 109              	.LBB212:
 110              	.LBB213:
 111              	.LBB214:
 112              	.LBB215:
 113              	.LBB216:
 114              		.file 2 "ChibiOS_3.0.2/os/ext/CMSIS/include/core_cmFunc.h"
ARM GAS  C:\Users\CHRIST~1\AppData\Local\Temp\ccdmW5op.s 			page 3


 115              		.loc 2 546 0
 116 0004 2023     		movs	r3, #32
 117              		.syntax unified
 118              	@ 546 "ChibiOS_3.0.2/os/ext/CMSIS/include/core_cmFunc.h" 1
 119 0006 83F31188 		MSR basepri, r3
 120              	@ 0 "" 2
 121              	.LVL7:
 122              		.thumb
 123              		.syntax unified
 124              	.LBE216:
 125              	.LBE215:
 126              	.LBE214:
 127              	.LBE213:
 128              	.LBE212:
 129              		.loc 1 297 0
 130 000a 0025     		movs	r5, #0
 131              		.loc 1 295 0
 132 000c 4160     		str	r1, [r0, #4]
 133              	.LVL8:
 134              		.loc 1 297 0
 135 000e C0E90355 		strd	r5, r5, [r0, #12]
 136              	.LVL9:
 137 0012 C0E90555 		strd	r5, r5, [r0, #20]
 138              	.LVL10:
 139              		.loc 1 299 0
 140 0016 FFF7FEFF 		bl	usb_lld_start
 141              	.LVL11:
 142              		.loc 1 300 0
 143 001a 0223     		movs	r3, #2
 144 001c 2370     		strb	r3, [r4]
 145              	.LVL12:
 146              	.LBB217:
 147              	.LBB218:
 148              	.LBB219:
 149              	.LBB220:
 150              	.LBB221:
 151              	.LBB222:
 152              		.loc 2 546 0
 153              		.syntax unified
 154              	@ 546 "ChibiOS_3.0.2/os/ext/CMSIS/include/core_cmFunc.h" 1
 155 001e 85F31188 		MSR basepri, r5
 156              	@ 0 "" 2
 157              	.LVL13:
 158              		.thumb
 159              		.syntax unified
 160              	.LBE222:
 161              	.LBE221:
 162              	.LBE220:
 163              	.LBE219:
 164              	.LBE218:
 165              	.LBE217:
 166              		.loc 1 302 0
 167 0022 38BD     		pop	{r3, r4, r5, pc}
 168              		.cfi_endproc
 169              	.LFE261:
 170              		.size	usbStart, .-usbStart
 171              		.section	.text.usbStop,"ax",%progbits
ARM GAS  C:\Users\CHRIST~1\AppData\Local\Temp\ccdmW5op.s 			page 4


 172              		.align	1
 173              		.p2align 4,,15
 174              		.global	usbStop
 175              		.syntax unified
 176              		.thumb
 177              		.thumb_func
 178              		.fpu fpv4-sp-d16
 179              		.type	usbStop, %function
 180              	usbStop:
 181              	.LFB262:
 182              		.loc 1 311 0
 183              		.cfi_startproc
 184              		@ args = 0, pretend = 0, frame = 0
 185              		@ frame_needed = 0, uses_anonymous_args = 0
 186              	.LVL14:
 187 0000 10B5     		push	{r4, lr}
 188              		.cfi_def_cfa_offset 8
 189              		.cfi_offset 4, -8
 190              		.cfi_offset 14, -4
 191              	.LBB223:
 192              	.LBB224:
 193              	.LBB225:
 194              	.LBB226:
 195              	.LBB227:
 196              		.loc 2 546 0
 197 0002 2023     		movs	r3, #32
 198              	.LBE227:
 199              	.LBE226:
 200              	.LBE225:
 201              	.LBE224:
 202              	.LBE223:
 203              		.loc 1 311 0
 204 0004 0446     		mov	r4, r0
 205              	.LBB232:
 206              	.LBB231:
 207              	.LBB230:
 208              	.LBB229:
 209              	.LBB228:
 210              		.loc 2 546 0
 211              		.syntax unified
 212              	@ 546 "ChibiOS_3.0.2/os/ext/CMSIS/include/core_cmFunc.h" 1
 213 0006 83F31188 		MSR basepri, r3
 214              	@ 0 "" 2
 215              	.LVL15:
 216              		.thumb
 217              		.syntax unified
 218              	.LBE228:
 219              	.LBE229:
 220              	.LBE230:
 221              	.LBE231:
 222              	.LBE232:
 223              		.loc 1 319 0
 224 000a FFF7FEFF 		bl	usb_lld_stop
 225              	.LVL16:
 226              		.loc 1 320 0
 227 000e 0123     		movs	r3, #1
 228 0010 2370     		strb	r3, [r4]
ARM GAS  C:\Users\CHRIST~1\AppData\Local\Temp\ccdmW5op.s 			page 5


 229              	.LVL17:
 230              	.LBB233:
 231              	.LBB234:
 232              	.LBB235:
 233              	.LBB236:
 234              	.LBB237:
 235              	.LBB238:
 236              		.loc 2 546 0
 237 0012 0023     		movs	r3, #0
 238              		.syntax unified
 239              	@ 546 "ChibiOS_3.0.2/os/ext/CMSIS/include/core_cmFunc.h" 1
 240 0014 83F31188 		MSR basepri, r3
 241              	@ 0 "" 2
 242              	.LVL18:
 243              		.thumb
 244              		.syntax unified
 245              	.LBE238:
 246              	.LBE237:
 247              	.LBE236:
 248              	.LBE235:
 249              	.LBE234:
 250              	.LBE233:
 251              		.loc 1 322 0
 252 0018 10BD     		pop	{r4, pc}
 253              		.cfi_endproc
 254              	.LFE262:
 255              		.size	usbStop, .-usbStop
 256 001a 00BF     		.section	.text.usbInitEndpointI,"ax",%progbits
 257              		.align	1
 258              		.p2align 4,,15
 259              		.global	usbInitEndpointI
 260              		.syntax unified
 261              		.thumb
 262              		.thumb_func
 263              		.fpu fpv4-sp-d16
 264              		.type	usbInitEndpointI, %function
 265              	usbInitEndpointI:
 266              	.LFB263:
 267              		.loc 1 338 0
 268              		.cfi_startproc
 269              		@ args = 0, pretend = 0, frame = 0
 270              		@ frame_needed = 0, uses_anonymous_args = 0
 271              		@ link register save eliminated.
 272              	.LVL19:
 273              		.loc 1 347 0
 274 0000 5369     		ldr	r3, [r2, #20]
 275              		.loc 1 338 0
 276 0002 10B4     		push	{r4}
 277              		.cfi_def_cfa_offset 4
 278              		.cfi_offset 4, -4
 279              		.loc 1 347 0
 280 0004 2BB1     		cbz	r3, .L9
 281              		.loc 1 348 0
 282 0006 0024     		movs	r4, #0
 283 0008 1C60     		str	r4, [r3]	@ unaligned
 284 000a 5C60     		str	r4, [r3, #4]	@ unaligned
 285 000c 9C60     		str	r4, [r3, #8]	@ unaligned
ARM GAS  C:\Users\CHRIST~1\AppData\Local\Temp\ccdmW5op.s 			page 6


 286 000e DC60     		str	r4, [r3, #12]	@ unaligned
 287 0010 1C61     		str	r4, [r3, #16]	@ unaligned
 288              	.L9:
 289              		.loc 1 350 0
 290 0012 9369     		ldr	r3, [r2, #24]
 291 0014 2BB1     		cbz	r3, .L10
 292              		.loc 1 351 0
 293 0016 0024     		movs	r4, #0
 294 0018 1C60     		str	r4, [r3]	@ unaligned
 295 001a 5C60     		str	r4, [r3, #4]	@ unaligned
 296 001c 9C60     		str	r4, [r3, #8]	@ unaligned
 297 001e DC60     		str	r4, [r3, #12]	@ unaligned
 298 0020 1C61     		str	r4, [r3, #16]	@ unaligned
 299              	.L10:
 300              		.loc 1 354 0
 301 0022 00EB8103 		add	r3, r0, r1, lsl #2
 302              		.loc 1 358 0
 303 0026 5DF8044B 		ldr	r4, [sp], #4
 304              		.cfi_restore 4
 305              		.cfi_def_cfa_offset 0
 306              		.loc 1 354 0
 307 002a DA60     		str	r2, [r3, #12]
 308              		.loc 1 357 0
 309 002c FFF7FEBF 		b	usb_lld_init_endpoint
 310              	.LVL20:
 311              		.cfi_endproc
 312              	.LFE263:
 313              		.size	usbInitEndpointI, .-usbInitEndpointI
 314              		.section	.text.usbDisableEndpointsI,"ax",%progbits
 315              		.align	1
 316              		.p2align 4,,15
 317              		.global	usbDisableEndpointsI
 318              		.syntax unified
 319              		.thumb
 320              		.thumb_func
 321              		.fpu fpv4-sp-d16
 322              		.type	usbDisableEndpointsI, %function
 323              	usbDisableEndpointsI:
 324              	.LFB264:
 325              		.loc 1 371 0
 326              		.cfi_startproc
 327              		@ args = 0, pretend = 0, frame = 0
 328              		@ frame_needed = 0, uses_anonymous_args = 0
 329              		@ link register save eliminated.
 330              	.LVL21:
 331 0000 10B4     		push	{r4}
 332              		.cfi_def_cfa_offset 4
 333              		.cfi_offset 4, -4
 334              		.loc 1 379 0
 335 0002 4189     		ldrh	r1, [r0, #10]
 336              		.loc 1 378 0
 337 0004 0489     		ldrh	r4, [r0, #8]
 338              		.loc 1 381 0
 339 0006 0022     		movs	r2, #0
 340              		.loc 1 378 0
 341 0008 24F00104 		bic	r4, r4, #1
 342              		.loc 1 379 0
ARM GAS  C:\Users\CHRIST~1\AppData\Local\Temp\ccdmW5op.s 			page 7


 343 000c 21F00101 		bic	r1, r1, #1
 344              		.loc 1 378 0
 345 0010 0481     		strh	r4, [r0, #8]	@ movhi
 346              		.loc 1 381 0
 347 0012 0261     		str	r2, [r0, #16]
 348              		.loc 1 379 0
 349 0014 4181     		strh	r1, [r0, #10]	@ movhi
 350              	.LVL22:
 351              		.loc 1 381 0
 352 0016 C0E90522 		strd	r2, r2, [r0, #20]
 353              	.LVL23:
 354              		.loc 1 386 0
 355 001a 5DF8044B 		ldr	r4, [sp], #4
 356              		.cfi_restore 4
 357              		.cfi_def_cfa_offset 0
 358              		.loc 1 385 0
 359 001e FFF7FEBF 		b	usb_lld_disable_endpoints
 360              	.LVL24:
 361              		.cfi_endproc
 362              	.LFE264:
 363              		.size	usbDisableEndpointsI, .-usbDisableEndpointsI
 364 0022 00BF     		.section	.text.usbPrepareReceive,"ax",%progbits
 365              		.align	1
 366              		.p2align 4,,15
 367              		.global	usbPrepareReceive
 368              		.syntax unified
 369              		.thumb
 370              		.thumb_func
 371              		.fpu fpv4-sp-d16
 372              		.type	usbPrepareReceive, %function
 373              	usbPrepareReceive:
 374              	.LFB265:
 375              		.loc 1 400 0
 376              		.cfi_startproc
 377              		@ args = 0, pretend = 0, frame = 0
 378              		@ frame_needed = 0, uses_anonymous_args = 0
 379              		@ link register save eliminated.
 380              	.LVL25:
 381 0000 30B4     		push	{r4, r5}
 382              		.cfi_def_cfa_offset 8
 383              		.cfi_offset 4, -8
 384              		.cfi_offset 5, -4
 385              		.loc 1 401 0
 386 0002 00EB8104 		add	r4, r0, r1, lsl #2
 387              		.loc 1 403 0
 388 0006 0025     		movs	r5, #0
 389              		.loc 1 401 0
 390 0008 E468     		ldr	r4, [r4, #12]
 391 000a A469     		ldr	r4, [r4, #24]
 392              	.LVL26:
 393              		.loc 1 404 0
 394 000c E260     		str	r2, [r4, #12]
 395              		.loc 1 405 0
 396 000e 6360     		str	r3, [r4, #4]
 397              		.loc 1 403 0
 398 0010 2570     		strb	r5, [r4]
 399              		.loc 1 406 0
ARM GAS  C:\Users\CHRIST~1\AppData\Local\Temp\ccdmW5op.s 			page 8


 400 0012 A560     		str	r5, [r4, #8]
 401              		.loc 1 409 0
 402 0014 30BC     		pop	{r4, r5}
 403              		.cfi_restore 5
 404              		.cfi_restore 4
 405              		.cfi_def_cfa_offset 0
 406              	.LVL27:
 407              		.loc 1 408 0
 408 0016 FFF7FEBF 		b	usb_lld_prepare_receive
 409              	.LVL28:
 410              		.cfi_endproc
 411              	.LFE265:
 412              		.size	usbPrepareReceive, .-usbPrepareReceive
 413 001a 00BF     		.section	.text.usbPrepareTransmit,"ax",%progbits
 414              		.align	1
 415              		.p2align 4,,15
 416              		.global	usbPrepareTransmit
 417              		.syntax unified
 418              		.thumb
 419              		.thumb_func
 420              		.fpu fpv4-sp-d16
 421              		.type	usbPrepareTransmit, %function
 422              	usbPrepareTransmit:
 423              	.LFB266:
 424              		.loc 1 426 0
 425              		.cfi_startproc
 426              		@ args = 0, pretend = 0, frame = 0
 427              		@ frame_needed = 0, uses_anonymous_args = 0
 428              		@ link register save eliminated.
 429              	.LVL29:
 430 0000 30B4     		push	{r4, r5}
 431              		.cfi_def_cfa_offset 8
 432              		.cfi_offset 4, -8
 433              		.cfi_offset 5, -4
 434              		.loc 1 427 0
 435 0002 00EB8104 		add	r4, r0, r1, lsl #2
 436              		.loc 1 429 0
 437 0006 0025     		movs	r5, #0
 438              		.loc 1 427 0
 439 0008 E468     		ldr	r4, [r4, #12]
 440 000a 6469     		ldr	r4, [r4, #20]
 441              	.LVL30:
 442              		.loc 1 430 0
 443 000c E260     		str	r2, [r4, #12]
 444              		.loc 1 431 0
 445 000e 6360     		str	r3, [r4, #4]
 446              		.loc 1 429 0
 447 0010 2570     		strb	r5, [r4]
 448              		.loc 1 432 0
 449 0012 A560     		str	r5, [r4, #8]
 450              		.loc 1 435 0
 451 0014 30BC     		pop	{r4, r5}
 452              		.cfi_restore 5
 453              		.cfi_restore 4
 454              		.cfi_def_cfa_offset 0
 455              	.LVL31:
 456              		.loc 1 434 0
ARM GAS  C:\Users\CHRIST~1\AppData\Local\Temp\ccdmW5op.s 			page 9


 457 0016 FFF7FEBF 		b	usb_lld_prepare_transmit
 458              	.LVL32:
 459              		.cfi_endproc
 460              	.LFE266:
 461              		.size	usbPrepareTransmit, .-usbPrepareTransmit
 462 001a 00BF     		.section	.text.usbPrepareQueuedReceive,"ax",%progbits
 463              		.align	1
 464              		.p2align 4,,15
 465              		.global	usbPrepareQueuedReceive
 466              		.syntax unified
 467              		.thumb
 468              		.thumb_func
 469              		.fpu fpv4-sp-d16
 470              		.type	usbPrepareQueuedReceive, %function
 471              	usbPrepareQueuedReceive:
 472              	.LFB267:
 473              		.loc 1 455 0
 474              		.cfi_startproc
 475              		@ args = 0, pretend = 0, frame = 0
 476              		@ frame_needed = 0, uses_anonymous_args = 0
 477              		@ link register save eliminated.
 478              	.LVL33:
 479 0000 30B4     		push	{r4, r5}
 480              		.cfi_def_cfa_offset 8
 481              		.cfi_offset 4, -8
 482              		.cfi_offset 5, -4
 483              		.loc 1 456 0
 484 0002 00EB8104 		add	r4, r0, r1, lsl #2
 485              		.loc 1 458 0
 486 0006 0125     		movs	r5, #1
 487              		.loc 1 456 0
 488 0008 E468     		ldr	r4, [r4, #12]
 489 000a A469     		ldr	r4, [r4, #24]
 490              	.LVL34:
 491              		.loc 1 459 0
 492 000c E260     		str	r2, [r4, #12]
 493              		.loc 1 461 0
 494 000e 0022     		movs	r2, #0
 495              	.LVL35:
 496              		.loc 1 460 0
 497 0010 6360     		str	r3, [r4, #4]
 498              		.loc 1 458 0
 499 0012 2570     		strb	r5, [r4]
 500              		.loc 1 461 0
 501 0014 A260     		str	r2, [r4, #8]
 502              		.loc 1 464 0
 503 0016 30BC     		pop	{r4, r5}
 504              		.cfi_restore 5
 505              		.cfi_restore 4
 506              		.cfi_def_cfa_offset 0
 507              	.LVL36:
 508              		.loc 1 463 0
 509 0018 FFF7FEBF 		b	usb_lld_prepare_receive
 510              	.LVL37:
 511              		.cfi_endproc
 512              	.LFE267:
 513              		.size	usbPrepareQueuedReceive, .-usbPrepareQueuedReceive
ARM GAS  C:\Users\CHRIST~1\AppData\Local\Temp\ccdmW5op.s 			page 10


 514              		.section	.text.usbPrepareQueuedTransmit,"ax",%progbits
 515              		.align	1
 516              		.p2align 4,,15
 517              		.global	usbPrepareQueuedTransmit
 518              		.syntax unified
 519              		.thumb
 520              		.thumb_func
 521              		.fpu fpv4-sp-d16
 522              		.type	usbPrepareQueuedTransmit, %function
 523              	usbPrepareQueuedTransmit:
 524              	.LFB268:
 525              		.loc 1 481 0
 526              		.cfi_startproc
 527              		@ args = 0, pretend = 0, frame = 0
 528              		@ frame_needed = 0, uses_anonymous_args = 0
 529              		@ link register save eliminated.
 530              	.LVL38:
 531 0000 30B4     		push	{r4, r5}
 532              		.cfi_def_cfa_offset 8
 533              		.cfi_offset 4, -8
 534              		.cfi_offset 5, -4
 535              		.loc 1 482 0
 536 0002 00EB8104 		add	r4, r0, r1, lsl #2
 537              		.loc 1 484 0
 538 0006 0125     		movs	r5, #1
 539              		.loc 1 482 0
 540 0008 E468     		ldr	r4, [r4, #12]
 541 000a 6469     		ldr	r4, [r4, #20]
 542              	.LVL39:
 543              		.loc 1 485 0
 544 000c E260     		str	r2, [r4, #12]
 545              		.loc 1 487 0
 546 000e 0022     		movs	r2, #0
 547              	.LVL40:
 548              		.loc 1 486 0
 549 0010 6360     		str	r3, [r4, #4]
 550              		.loc 1 484 0
 551 0012 2570     		strb	r5, [r4]
 552              		.loc 1 487 0
 553 0014 A260     		str	r2, [r4, #8]
 554              		.loc 1 490 0
 555 0016 30BC     		pop	{r4, r5}
 556              		.cfi_restore 5
 557              		.cfi_restore 4
 558              		.cfi_def_cfa_offset 0
 559              	.LVL41:
 560              		.loc 1 489 0
 561 0018 FFF7FEBF 		b	usb_lld_prepare_transmit
 562              	.LVL42:
 563              		.cfi_endproc
 564              	.LFE268:
 565              		.size	usbPrepareQueuedTransmit, .-usbPrepareQueuedTransmit
 566              		.section	.text.usbStartReceiveI,"ax",%progbits
 567              		.align	1
 568              		.p2align 4,,15
 569              		.global	usbStartReceiveI
 570              		.syntax unified
ARM GAS  C:\Users\CHRIST~1\AppData\Local\Temp\ccdmW5op.s 			page 11


 571              		.thumb
 572              		.thumb_func
 573              		.fpu fpv4-sp-d16
 574              		.type	usbStartReceiveI, %function
 575              	usbStartReceiveI:
 576              	.LFB269:
 577              		.loc 1 506 0
 578              		.cfi_startproc
 579              		@ args = 0, pretend = 0, frame = 0
 580              		@ frame_needed = 0, uses_anonymous_args = 0
 581              	.LVL43:
 582              		.loc 1 511 0
 583 0000 0122     		movs	r2, #1
 584              		.loc 1 506 0
 585 0002 70B5     		push	{r4, r5, r6, lr}
 586              		.cfi_def_cfa_offset 16
 587              		.cfi_offset 4, -16
 588              		.cfi_offset 5, -12
 589              		.cfi_offset 6, -8
 590              		.cfi_offset 14, -4
 591              		.loc 1 511 0
 592 0004 02FA01F3 		lsl	r3, r2, r1
 593 0008 4489     		ldrh	r4, [r0, #10]
 594 000a 9BB2     		uxth	r3, r3
 595 000c 14EA0306 		ands	r6, r4, r3
 596 0010 01D0     		beq	.L32
 597              		.loc 1 512 0
 598 0012 1046     		mov	r0, r2
 599              	.LVL44:
 600              		.loc 1 518 0
 601 0014 70BD     		pop	{r4, r5, r6, pc}
 602              	.LVL45:
 603              	.L32:
 604              		.loc 1 515 0
 605 0016 2343     		orrs	r3, r3, r4
 606 0018 4381     		strh	r3, [r0, #10]	@ movhi
 607              		.loc 1 516 0
 608 001a FFF7FEFF 		bl	usb_lld_start_out
 609              	.LVL46:
 610              		.loc 1 517 0
 611 001e 3046     		mov	r0, r6
 612              		.loc 1 518 0
 613 0020 70BD     		pop	{r4, r5, r6, pc}
 614              		.cfi_endproc
 615              	.LFE269:
 616              		.size	usbStartReceiveI, .-usbStartReceiveI
 617 0022 00BF     		.section	.text.usbStartTransmitI,"ax",%progbits
 618              		.align	1
 619              		.p2align 4,,15
 620              		.global	usbStartTransmitI
 621              		.syntax unified
 622              		.thumb
 623              		.thumb_func
 624              		.fpu fpv4-sp-d16
 625              		.type	usbStartTransmitI, %function
 626              	usbStartTransmitI:
 627              	.LFB270:
ARM GAS  C:\Users\CHRIST~1\AppData\Local\Temp\ccdmW5op.s 			page 12


 628              		.loc 1 534 0
 629              		.cfi_startproc
 630              		@ args = 0, pretend = 0, frame = 0
 631              		@ frame_needed = 0, uses_anonymous_args = 0
 632              	.LVL47:
 633              		.loc 1 539 0
 634 0000 0122     		movs	r2, #1
 635              		.loc 1 534 0
 636 0002 70B5     		push	{r4, r5, r6, lr}
 637              		.cfi_def_cfa_offset 16
 638              		.cfi_offset 4, -16
 639              		.cfi_offset 5, -12
 640              		.cfi_offset 6, -8
 641              		.cfi_offset 14, -4
 642              		.loc 1 539 0
 643 0004 02FA01F3 		lsl	r3, r2, r1
 644 0008 0489     		ldrh	r4, [r0, #8]
 645 000a 9BB2     		uxth	r3, r3
 646 000c 14EA0306 		ands	r6, r4, r3
 647 0010 01D0     		beq	.L37
 648              		.loc 1 540 0
 649 0012 1046     		mov	r0, r2
 650              	.LVL48:
 651              		.loc 1 546 0
 652 0014 70BD     		pop	{r4, r5, r6, pc}
 653              	.LVL49:
 654              	.L37:
 655              		.loc 1 543 0
 656 0016 2343     		orrs	r3, r3, r4
 657 0018 0381     		strh	r3, [r0, #8]	@ movhi
 658              		.loc 1 544 0
 659 001a FFF7FEFF 		bl	usb_lld_start_in
 660              	.LVL50:
 661              		.loc 1 545 0
 662 001e 3046     		mov	r0, r6
 663              		.loc 1 546 0
 664 0020 70BD     		pop	{r4, r5, r6, pc}
 665              		.cfi_endproc
 666              	.LFE270:
 667              		.size	usbStartTransmitI, .-usbStartTransmitI
 668 0022 00BF     		.section	.text.usbStallReceiveI,"ax",%progbits
 669              		.align	1
 670              		.p2align 4,,15
 671              		.global	usbStallReceiveI
 672              		.syntax unified
 673              		.thumb
 674              		.thumb_func
 675              		.fpu fpv4-sp-d16
 676              		.type	usbStallReceiveI, %function
 677              	usbStallReceiveI:
 678              	.LFB271:
 679              		.loc 1 560 0
 680              		.cfi_startproc
 681              		@ args = 0, pretend = 0, frame = 0
 682              		@ frame_needed = 0, uses_anonymous_args = 0
 683              	.LVL51:
 684 0000 10B5     		push	{r4, lr}
ARM GAS  C:\Users\CHRIST~1\AppData\Local\Temp\ccdmW5op.s 			page 13


 685              		.cfi_def_cfa_offset 8
 686              		.cfi_offset 4, -8
 687              		.cfi_offset 14, -4
 688              		.loc 1 565 0
 689 0002 0123     		movs	r3, #1
 690 0004 4489     		ldrh	r4, [r0, #10]
 691 0006 03FA01F2 		lsl	r2, r3, r1
 692 000a 1440     		ands	r4, r2, r4
 693 000c 01D0     		beq	.L42
 694              		.loc 1 566 0
 695 000e 1846     		mov	r0, r3
 696              	.LVL52:
 697              		.loc 1 571 0
 698 0010 10BD     		pop	{r4, pc}
 699              	.LVL53:
 700              	.L42:
 701              		.loc 1 569 0
 702 0012 FFF7FEFF 		bl	usb_lld_stall_out
 703              	.LVL54:
 704              		.loc 1 570 0
 705 0016 2046     		mov	r0, r4
 706              		.loc 1 571 0
 707 0018 10BD     		pop	{r4, pc}
 708              		.cfi_endproc
 709              	.LFE271:
 710              		.size	usbStallReceiveI, .-usbStallReceiveI
 711 001a 00BF     		.section	.text.usbStallTransmitI,"ax",%progbits
 712              		.align	1
 713              		.p2align 4,,15
 714              		.global	usbStallTransmitI
 715              		.syntax unified
 716              		.thumb
 717              		.thumb_func
 718              		.fpu fpv4-sp-d16
 719              		.type	usbStallTransmitI, %function
 720              	usbStallTransmitI:
 721              	.LFB272:
 722              		.loc 1 585 0
 723              		.cfi_startproc
 724              		@ args = 0, pretend = 0, frame = 0
 725              		@ frame_needed = 0, uses_anonymous_args = 0
 726              	.LVL55:
 727 0000 10B5     		push	{r4, lr}
 728              		.cfi_def_cfa_offset 8
 729              		.cfi_offset 4, -8
 730              		.cfi_offset 14, -4
 731              		.loc 1 590 0
 732 0002 0123     		movs	r3, #1
 733 0004 0489     		ldrh	r4, [r0, #8]
 734 0006 03FA01F2 		lsl	r2, r3, r1
 735 000a 1440     		ands	r4, r2, r4
 736 000c 01D0     		beq	.L47
 737              		.loc 1 591 0
 738 000e 1846     		mov	r0, r3
 739              	.LVL56:
 740              		.loc 1 596 0
 741 0010 10BD     		pop	{r4, pc}
ARM GAS  C:\Users\CHRIST~1\AppData\Local\Temp\ccdmW5op.s 			page 14


 742              	.LVL57:
 743              	.L47:
 744              		.loc 1 594 0
 745 0012 FFF7FEFF 		bl	usb_lld_stall_in
 746              	.LVL58:
 747              		.loc 1 595 0
 748 0016 2046     		mov	r0, r4
 749              		.loc 1 596 0
 750 0018 10BD     		pop	{r4, pc}
 751              		.cfi_endproc
 752              	.LFE272:
 753              		.size	usbStallTransmitI, .-usbStallTransmitI
 754 001a 00BF     		.section	.text._usb_reset,"ax",%progbits
 755              		.align	1
 756              		.p2align 4,,15
 757              		.global	_usb_reset
 758              		.syntax unified
 759              		.thumb
 760              		.thumb_func
 761              		.fpu fpv4-sp-d16
 762              		.type	_usb_reset, %function
 763              	_usb_reset:
 764              	.LFB273:
 765              		.loc 1 607 0
 766              		.cfi_startproc
 767              		@ args = 0, pretend = 0, frame = 0
 768              		@ frame_needed = 0, uses_anonymous_args = 0
 769              		@ link register save eliminated.
 770              	.LVL59:
 771              		.loc 1 611 0
 772 0000 0022     		movs	r2, #0
 773              		.loc 1 610 0
 774 0002 0221     		movs	r1, #2
 775 0004 0170     		strb	r1, [r0]
 776              		.loc 1 611 0
 777 0006 C264     		str	r2, [r0, #76]
 778              	.LVL60:
 779              		.loc 1 615 0
 780 0008 C0E90222 		strd	r2, r2, [r0, #8]
 781              		.loc 1 619 0
 782 000c C0E90422 		strd	r2, r2, [r0, #16]
 783 0010 8261     		str	r2, [r0, #24]
 784              	.LVL61:
 785              		.loc 1 623 0
 786 0012 80F83420 		strb	r2, [r0, #52]
 787              		.loc 1 626 0
 788 0016 FFF7FEBF 		b	usb_lld_reset
 789              	.LVL62:
 790              		.cfi_endproc
 791              	.LFE273:
 792              		.size	_usb_reset, .-_usb_reset
 793 001a 00BF     		.section	.text._usb_ep0setup,"ax",%progbits
 794              		.align	1
 795              		.p2align 4,,15
 796              		.global	_usb_ep0setup
 797              		.syntax unified
 798              		.thumb
ARM GAS  C:\Users\CHRIST~1\AppData\Local\Temp\ccdmW5op.s 			page 15


 799              		.thumb_func
 800              		.fpu fpv4-sp-d16
 801              		.type	_usb_ep0setup, %function
 802              	_usb_ep0setup:
 803              	.LFB274:
 804              		.loc 1 639 0
 805              		.cfi_startproc
 806              		@ args = 0, pretend = 0, frame = 0
 807              		@ frame_needed = 0, uses_anonymous_args = 0
 808              	.LVL63:
 809 0000 70B5     		push	{r4, r5, r6, lr}
 810              		.cfi_def_cfa_offset 16
 811              		.cfi_offset 4, -16
 812              		.cfi_offset 5, -12
 813              		.cfi_offset 6, -8
 814              		.cfi_offset 14, -4
 815              		.loc 1 642 0
 816 0002 0023     		movs	r3, #0
 817              		.loc 1 639 0
 818 0004 0446     		mov	r4, r0
 819              		.loc 1 642 0
 820 0006 80F83430 		strb	r3, [r0, #52]
 821              		.loc 1 643 0
 822 000a 00F14402 		add	r2, r0, #68
 823 000e FFF7FEFF 		bl	usb_lld_read_setup
 824              	.LVL64:
 825              		.loc 1 648 0
 826 0012 6368     		ldr	r3, [r4, #4]
 827 0014 9B68     		ldr	r3, [r3, #8]
 828 0016 002B     		cmp	r3, #0
 829 0018 33D0     		beq	.L54
 830              		.loc 1 649 0 discriminator 1
 831 001a 2046     		mov	r0, r4
 832 001c 9847     		blx	r3
 833              	.LVL65:
 834              		.loc 1 648 0 discriminator 1
 835 001e 80B3     		cbz	r0, .L54
 836 0020 E16B     		ldr	r1, [r4, #60]
 837 0022 94F84430 		ldrb	r3, [r4, #68]	@ zero_extendqisi2
 838              	.L71:
 839              	.LBB311:
 840              	.LBB312:
 841              		.loc 1 55 0
 842 0026 94F84B00 		ldrb	r0, [r4, #75]	@ zero_extendqisi2
 843 002a 94F84A20 		ldrb	r2, [r4, #74]	@ zero_extendqisi2
 844              	.LBE312:
 845              	.LBE311:
 846              		.loc 1 676 0
 847 002e 42EA0022 		orr	r2, r2, r0, lsl #8
 848              	.LVL66:
 849              		.loc 1 678 0
 850 0032 8A42     		cmp	r2, r1
 851 0034 2CBF     		ite	cs
 852 0036 0A46     		movcs	r2, r1
 853              	.LVL67:
 854              		.loc 1 679 0
 855 0038 E263     		strcc	r2, [r4, #60]
ARM GAS  C:\Users\CHRIST~1\AppData\Local\Temp\ccdmW5op.s 			page 16


 856              		.loc 1 681 0
 857 003a 1806     		lsls	r0, r3, #24
 858              	.LVL68:
 859 003c E168     		ldr	r1, [r4, #12]
 860 003e 00F19980 		bmi	.L141
 861              		.loc 1 707 0
 862 0042 002A     		cmp	r2, #0
 863 0044 7BD0     		beq	.L93
 864              	.LBB313:
 865              	.LBB314:
 866              		.loc 1 401 0
 867 0046 8B69     		ldr	r3, [r1, #24]
 868              	.LBE314:
 869              	.LBE313:
 870              		.loc 1 710 0
 871 0048 A06B     		ldr	r0, [r4, #56]
 872              	.LVL69:
 873              	.LBB317:
 874              	.LBB315:
 875              		.loc 1 403 0
 876 004a 0021     		movs	r1, #0
 877              	.LBE315:
 878              	.LBE317:
 879              		.loc 1 709 0
 880 004c 0425     		movs	r5, #4
 881 004e 84F83450 		strb	r5, [r4, #52]
 882              	.LBB318:
 883              	.LBB316:
 884              		.loc 1 404 0
 885 0052 D860     		str	r0, [r3, #12]
 886              	.LVL70:
 887              		.loc 1 405 0
 888 0054 5A60     		str	r2, [r3, #4]
 889              		.loc 1 403 0
 890 0056 1970     		strb	r1, [r3]
 891              		.loc 1 406 0
 892 0058 9960     		str	r1, [r3, #8]
 893              	.LVL71:
 894              	.L140:
 895              		.loc 1 408 0
 896 005a 2046     		mov	r0, r4
 897 005c FFF7FEFF 		bl	usb_lld_prepare_receive
 898              	.LVL72:
 899              	.LBE316:
 900              	.LBE318:
 901              	.LBB319:
 902              	.LBB320:
 903              	.LBB321:
 904              	.LBB322:
 905              	.LBB323:
 906              	.LBB324:
 907              		.loc 2 546 0
 908 0060 2023     		movs	r3, #32
 909              		.syntax unified
 910              	@ 546 "ChibiOS_3.0.2/os/ext/CMSIS/include/core_cmFunc.h" 1
 911 0062 83F31188 		MSR basepri, r3
 912              	@ 0 "" 2
ARM GAS  C:\Users\CHRIST~1\AppData\Local\Temp\ccdmW5op.s 			page 17


 913              	.LVL73:
 914              		.thumb
 915              		.syntax unified
 916              	.LBE324:
 917              	.LBE323:
 918              	.LBE322:
 919              	.LBE321:
 920              	.LBE320:
 921              	.LBE319:
 922              	.LBB325:
 923              	.LBB326:
 924              		.loc 1 511 0
 925 0066 6389     		ldrh	r3, [r4, #10]
 926 0068 13F00101 		ands	r1, r3, #1
 927 006c 05D1     		bne	.L95
 928              		.loc 1 515 0
 929 006e 43F00103 		orr	r3, r3, #1
 930 0072 6381     		strh	r3, [r4, #10]	@ movhi
 931              		.loc 1 516 0
 932 0074 2046     		mov	r0, r4
 933 0076 FFF7FEFF 		bl	usb_lld_start_out
 934              	.LVL74:
 935              	.L95:
 936              	.LBE326:
 937              	.LBE325:
 938              	.LBB327:
 939              	.LBB328:
 940              	.LBB329:
 941              	.LBB330:
 942              	.LBB331:
 943              	.LBB332:
 944              		.loc 2 546 0
 945 007a 0023     		movs	r3, #0
 946              		.syntax unified
 947              	@ 546 "ChibiOS_3.0.2/os/ext/CMSIS/include/core_cmFunc.h" 1
 948 007c 83F31188 		MSR basepri, r3
 949              	@ 0 "" 2
 950              	.LVL75:
 951              		.thumb
 952              		.syntax unified
 953              	.LBE332:
 954              	.LBE331:
 955              	.LBE330:
 956              	.LBE329:
 957              	.LBE328:
 958              	.LBE327:
 959              		.loc 1 729 0
 960 0080 70BD     		pop	{r4, r5, r6, pc}
 961              	.LVL76:
 962              	.L54:
 963              		.loc 1 654 0
 964 0082 94F84430 		ldrb	r3, [r4, #68]	@ zero_extendqisi2
 965 0086 13F06005 		ands	r5, r3, #96
 966 008a 1846     		mov	r0, r3
 967 008c 11D0     		beq	.L142
 968              	.L70:
 969              		.loc 1 660 0
ARM GAS  C:\Users\CHRIST~1\AppData\Local\Temp\ccdmW5op.s 			page 18


 970 008e 0021     		movs	r1, #0
 971 0090 2046     		mov	r0, r4
 972 0092 FFF7FEFF 		bl	usb_lld_stall_in
 973              	.LVL77:
 974              		.loc 1 661 0
 975 0096 0021     		movs	r1, #0
 976 0098 2046     		mov	r0, r4
 977 009a FFF7FEFF 		bl	usb_lld_stall_out
 978              	.LVL78:
 979              		.loc 1 662 0
 980 009e 6368     		ldr	r3, [r4, #4]
 981 00a0 1B68     		ldr	r3, [r3]
 982 00a2 13B1     		cbz	r3, .L85
 983              		.loc 1 662 0 is_stmt 0 discriminator 1
 984 00a4 0521     		movs	r1, #5
 985 00a6 2046     		mov	r0, r4
 986 00a8 9847     		blx	r3
 987              	.LVL79:
 988              	.L85:
 989              		.loc 1 663 0 is_stmt 1
 990 00aa 0623     		movs	r3, #6
 991 00ac 84F83430 		strb	r3, [r4, #52]
 992              		.loc 1 729 0
 993 00b0 70BD     		pop	{r4, r5, r6, pc}
 994              	.LVL80:
 995              	.L142:
 996              	.LBB333:
 997              	.LBB334:
 998              		.loc 1 90 0
 999 00b2 94F84510 		ldrb	r1, [r4, #69]	@ zero_extendqisi2
 1000              		.loc 1 88 0
 1001 00b6 03F07F02 		and	r2, r3, #127
 1002              		.loc 1 89 0
 1003 00ba 42EA0122 		orr	r2, r2, r1, lsl #8
 1004              		.loc 1 88 0
 1005 00be B2F5407F 		cmp	r2, #768
 1006 00c2 00F01481 		beq	.L56
 1007 00c6 17D9     		bls	.L143
 1008 00c8 B2F5C06F 		cmp	r2, #1536
 1009 00cc 00F0F680 		beq	.L64
 1010 00d0 40F29980 		bls	.L144
 1011 00d4 B2F5106F 		cmp	r2, #2304
 1012 00d8 73D0     		beq	.L68
 1013 00da 40F60241 		movw	r1, #3074
 1014 00de 8A42     		cmp	r2, r1
 1015 00e0 00F0D280 		beq	.L61
 1016 00e4 B2F5006F 		cmp	r2, #2048
 1017 00e8 D1D1     		bne	.L70
 1018              		.loc 1 141 0
 1019 00ea 04F14F02 		add	r2, r4, #79
 1020 00ee 0121     		movs	r1, #1
 1021 00f0 2564     		str	r5, [r4, #64]
 1022              	.LVL81:
 1023 00f2 C4E90E21 		strd	r2, r1, [r4, #56]
 1024 00f6 96E7     		b	.L71
 1025              	.LVL82:
 1026              	.L143:
ARM GAS  C:\Users\CHRIST~1\AppData\Local\Temp\ccdmW5op.s 			page 19


 1027              		.loc 1 88 0
 1028 00f8 022A     		cmp	r2, #2
 1029 00fa 00F0AB80 		beq	.L58
 1030 00fe 40F2A180 		bls	.L145
 1031 0102 B2F5807F 		cmp	r2, #256
 1032 0106 6FD0     		beq	.L62
 1033 0108 B2F5817F 		cmp	r2, #258
 1034 010c BFD1     		bne	.L70
 1035              		.loc 1 201 0
 1036 010e 94F84630 		ldrb	r3, [r4, #70]	@ zero_extendqisi2
 1037 0112 002B     		cmp	r3, #0
 1038 0114 BBD1     		bne	.L70
 1039              		.loc 1 205 0
 1040 0116 94F84830 		ldrb	r3, [r4, #72]	@ zero_extendqisi2
 1041 011a 13F00F01 		ands	r1, r3, #15
 1042 011e 07D0     		beq	.L83
 1043              		.loc 1 206 0
 1044 0120 1E06     		lsls	r6, r3, #24
 1045              		.loc 1 207 0
 1046 0122 2046     		mov	r0, r4
 1047              		.loc 1 206 0
 1048 0124 00F1FB80 		bmi	.L146
 1049              	.LVL83:
 1050              		.loc 1 210 0
 1051 0128 FFF7FEFF 		bl	usb_lld_clear_out
 1052              	.LVL84:
 1053 012c 94F84400 		ldrb	r0, [r4, #68]	@ zero_extendqisi2
 1054              	.L83:
 1055              		.loc 1 229 0
 1056 0130 0023     		movs	r3, #0
 1057 0132 C4E90E33 		strd	r3, r3, [r4, #56]
 1058 0136 2364     		str	r3, [r4, #64]
 1059              	.LVL85:
 1060              	.L72:
 1061              	.LBE334:
 1062              	.LBE333:
 1063              		.loc 1 681 0
 1064 0138 0306     		lsls	r3, r0, #24
 1065 013a E168     		ldr	r1, [r4, #12]
 1066 013c 36D4     		bmi	.L90
 1067              	.LVL86:
 1068              	.L93:
 1069              	.LBB342:
 1070              	.LBB343:
 1071              		.loc 1 427 0
 1072 013e 4A69     		ldr	r2, [r1, #20]
 1073              		.loc 1 429 0
 1074 0140 0023     		movs	r3, #0
 1075              	.LBE343:
 1076              	.LBE342:
 1077              		.loc 1 718 0
 1078 0142 0521     		movs	r1, #5
 1079 0144 84F83410 		strb	r1, [r4, #52]
 1080              	.LVL87:
 1081              	.LBB345:
 1082              	.LBB344:
 1083              		.loc 1 434 0
ARM GAS  C:\Users\CHRIST~1\AppData\Local\Temp\ccdmW5op.s 			page 20


 1084 0148 2046     		mov	r0, r4
 1085 014a 1946     		mov	r1, r3
 1086              		.loc 1 429 0
 1087 014c 1370     		strb	r3, [r2]
 1088              		.loc 1 430 0
 1089 014e D360     		str	r3, [r2, #12]
 1090              		.loc 1 432 0
 1091 0150 C2E90133 		strd	r3, r3, [r2, #4]
 1092              		.loc 1 434 0
 1093 0154 FFF7FEFF 		bl	usb_lld_prepare_transmit
 1094              	.LVL88:
 1095              	.LBE344:
 1096              	.LBE345:
 1097              	.LBB346:
 1098              	.LBB347:
 1099              	.LBB348:
 1100              	.LBB349:
 1101              	.LBB350:
 1102              	.LBB351:
 1103              		.loc 2 546 0
 1104 0158 2023     		movs	r3, #32
 1105              		.syntax unified
 1106              	@ 546 "ChibiOS_3.0.2/os/ext/CMSIS/include/core_cmFunc.h" 1
 1107 015a 83F31188 		MSR basepri, r3
 1108              	@ 0 "" 2
 1109              	.LVL89:
 1110              		.thumb
 1111              		.syntax unified
 1112              	.LBE351:
 1113              	.LBE350:
 1114              	.LBE349:
 1115              	.LBE348:
 1116              	.LBE347:
 1117              	.LBE346:
 1118              	.LBB352:
 1119              	.LBB353:
 1120              		.loc 1 539 0
 1121 015e 2389     		ldrh	r3, [r4, #8]
 1122 0160 13F00101 		ands	r1, r3, #1
 1123 0164 89D1     		bne	.L95
 1124              		.loc 1 543 0
 1125 0166 43F00103 		orr	r3, r3, #1
 1126 016a 2381     		strh	r3, [r4, #8]	@ movhi
 1127              		.loc 1 544 0
 1128 016c 2046     		mov	r0, r4
 1129 016e FFF7FEFF 		bl	usb_lld_start_in
 1130              	.LVL90:
 1131 0172 82E7     		b	.L95
 1132              	.LVL91:
 1133              	.L141:
 1134              	.LBE353:
 1135              	.LBE352:
 1136              		.loc 1 683 0
 1137 0174 D2B1     		cbz	r2, .L90
 1138              	.LBB354:
 1139              	.LBB355:
 1140              		.loc 1 427 0
ARM GAS  C:\Users\CHRIST~1\AppData\Local\Temp\ccdmW5op.s 			page 21


 1141 0176 4B69     		ldr	r3, [r1, #20]
 1142              	.LBE355:
 1143              	.LBE354:
 1144              		.loc 1 686 0
 1145 0178 A06B     		ldr	r0, [r4, #56]
 1146              	.LVL92:
 1147              	.LBB358:
 1148              	.LBB356:
 1149              		.loc 1 429 0
 1150 017a 0021     		movs	r1, #0
 1151              	.LBE356:
 1152              	.LBE358:
 1153              		.loc 1 685 0
 1154 017c 0125     		movs	r5, #1
 1155 017e 84F83450 		strb	r5, [r4, #52]
 1156              	.LBB359:
 1157              	.LBB357:
 1158              		.loc 1 430 0
 1159 0182 D860     		str	r0, [r3, #12]
 1160              	.LVL93:
 1161              		.loc 1 431 0
 1162 0184 5A60     		str	r2, [r3, #4]
 1163              		.loc 1 429 0
 1164 0186 1970     		strb	r1, [r3]
 1165              		.loc 1 432 0
 1166 0188 9960     		str	r1, [r3, #8]
 1167              		.loc 1 434 0
 1168 018a 2046     		mov	r0, r4
 1169              	.LVL94:
 1170 018c FFF7FEFF 		bl	usb_lld_prepare_transmit
 1171              	.LVL95:
 1172              	.LBE357:
 1173              	.LBE359:
 1174              	.LBB360:
 1175              	.LBB361:
 1176              	.LBB362:
 1177              	.LBB363:
 1178              	.LBB364:
 1179              	.LBB365:
 1180              		.loc 2 546 0
 1181 0190 2023     		movs	r3, #32
 1182              		.syntax unified
 1183              	@ 546 "ChibiOS_3.0.2/os/ext/CMSIS/include/core_cmFunc.h" 1
 1184 0192 83F31188 		MSR basepri, r3
 1185              	@ 0 "" 2
 1186              	.LVL96:
 1187              		.thumb
 1188              		.syntax unified
 1189              	.LBE365:
 1190              	.LBE364:
 1191              	.LBE363:
 1192              	.LBE362:
 1193              	.LBE361:
 1194              	.LBE360:
 1195              	.LBB366:
 1196              	.LBB367:
 1197              		.loc 1 539 0
ARM GAS  C:\Users\CHRIST~1\AppData\Local\Temp\ccdmW5op.s 			page 22


 1198 0196 2389     		ldrh	r3, [r4, #8]
 1199 0198 13EA0501 		ands	r1, r3, r5
 1200 019c 7FF46DAF 		bne	.L95
 1201              		.loc 1 543 0
 1202 01a0 2B43     		orrs	r3, r3, r5
 1203 01a2 2381     		strh	r3, [r4, #8]	@ movhi
 1204              		.loc 1 544 0
 1205 01a4 2046     		mov	r0, r4
 1206 01a6 FFF7FEFF 		bl	usb_lld_start_in
 1207              	.LVL97:
 1208 01aa 66E7     		b	.L95
 1209              	.LVL98:
 1210              	.L90:
 1211              	.LBE367:
 1212              	.LBE366:
 1213              	.LBB368:
 1214              	.LBB369:
 1215              		.loc 1 401 0
 1216 01ac 8A69     		ldr	r2, [r1, #24]
 1217              		.loc 1 403 0
 1218 01ae 0023     		movs	r3, #0
 1219              	.LBE369:
 1220              	.LBE368:
 1221              		.loc 1 694 0
 1222 01b0 0321     		movs	r1, #3
 1223 01b2 84F83410 		strb	r1, [r4, #52]
 1224              	.LVL99:
 1225              	.LBB371:
 1226              	.LBB370:
 1227              		.loc 1 408 0
 1228 01b6 1946     		mov	r1, r3
 1229              		.loc 1 403 0
 1230 01b8 1370     		strb	r3, [r2]
 1231              		.loc 1 404 0
 1232 01ba D360     		str	r3, [r2, #12]
 1233              		.loc 1 406 0
 1234 01bc C2E90133 		strd	r3, r3, [r2, #4]
 1235 01c0 4BE7     		b	.L140
 1236              	.LVL100:
 1237              	.L68:
 1238              	.LBE370:
 1239              	.LBE371:
 1240              	.LBB372:
 1241              	.LBB341:
 1242              		.loc 1 145 0
 1243 01c2 94F84630 		ldrb	r3, [r4, #70]	@ zero_extendqisi2
 1244 01c6 84F84F30 		strb	r3, [r4, #79]
 1245              		.loc 1 146 0
 1246 01ca 002B     		cmp	r3, #0
 1247 01cc 40F09E80 		bne	.L75
 1248              		.loc 1 147 0
 1249 01d0 0323     		movs	r3, #3
 1250 01d2 2370     		strb	r3, [r4]
 1251              	.L76:
 1252              		.loc 1 152 0
 1253 01d4 6368     		ldr	r3, [r4, #4]
 1254 01d6 1B68     		ldr	r3, [r3]
ARM GAS  C:\Users\CHRIST~1\AppData\Local\Temp\ccdmW5op.s 			page 23


 1255 01d8 002B     		cmp	r3, #0
 1256 01da A9D0     		beq	.L83
 1257 01dc 2046     		mov	r0, r4
 1258 01de 0221     		movs	r1, #2
 1259 01e0 9847     		blx	r3
 1260              	.LVL101:
 1261 01e2 94F84400 		ldrb	r0, [r4, #68]	@ zero_extendqisi2
 1262 01e6 A3E7     		b	.L83
 1263              	.L62:
 1264              		.loc 1 98 0
 1265 01e8 94F84630 		ldrb	r3, [r4, #70]	@ zero_extendqisi2
 1266 01ec 012B     		cmp	r3, #1
 1267 01ee 7FF44EAF 		bne	.L70
 1268              		.loc 1 99 0
 1269 01f2 B4F84C30 		ldrh	r3, [r4, #76]
 1270              		.loc 1 100 0
 1271 01f6 A563     		str	r5, [r4, #56]
 1272              		.loc 1 99 0
 1273 01f8 23F00203 		bic	r3, r3, #2
 1274              		.loc 1 100 0
 1275 01fc C4E90F55 		strd	r5, r5, [r4, #60]
 1276              	.LVL102:
 1277              		.loc 1 99 0
 1278 0200 A4F84C30 		strh	r3, [r4, #76]	@ movhi
 1279 0204 98E7     		b	.L72
 1280              	.LVL103:
 1281              	.L144:
 1282              		.loc 1 88 0
 1283 0206 40F20233 		movw	r3, #770
 1284 020a 9A42     		cmp	r2, r3
 1285 020c 43D0     		beq	.L66
 1286 020e B2F5A06F 		cmp	r2, #1280
 1287 0212 7FF43CAF 		bne	.L70
 1288              		.loc 1 118 0
 1289 0216 B4F84430 		ldrh	r3, [r4, #68]
 1290 021a B3F5A06F 		cmp	r3, #1280
 1291 021e 87D1     		bne	.L83
 1292              	.LVL104:
 1293              	.LBB335:
 1294              	.LBB336:
 1295              		.loc 1 66 0
 1296 0220 94F84630 		ldrb	r3, [r4, #70]	@ zero_extendqisi2
 1297 0224 84F84E30 		strb	r3, [r4, #78]
 1298              		.loc 1 67 0
 1299 0228 2046     		mov	r0, r4
 1300 022a FFF7FEFF 		bl	usb_lld_set_address
 1301              	.LVL105:
 1302              		.loc 1 68 0
 1303 022e 6368     		ldr	r3, [r4, #4]
 1304 0230 1B68     		ldr	r3, [r3]
 1305 0232 13B1     		cbz	r3, .L74
 1306 0234 0121     		movs	r1, #1
 1307 0236 2046     		mov	r0, r4
 1308 0238 9847     		blx	r3
 1309              	.LVL106:
 1310              	.L74:
 1311              		.loc 1 69 0
ARM GAS  C:\Users\CHRIST~1\AppData\Local\Temp\ccdmW5op.s 			page 24


 1312 023a 0323     		movs	r3, #3
 1313 023c 94F84400 		ldrb	r0, [r4, #68]	@ zero_extendqisi2
 1314 0240 2370     		strb	r3, [r4]
 1315 0242 75E7     		b	.L83
 1316              	.LVL107:
 1317              	.L145:
 1318              	.LBE336:
 1319              	.LBE335:
 1320              		.loc 1 88 0
 1321 0244 EAB9     		cbnz	r2, .L147
 1322              		.loc 1 93 0
 1323 0246 04F14C00 		add	r0, r4, #76
 1324 024a 0221     		movs	r1, #2
 1325 024c 2264     		str	r2, [r4, #64]
 1326              	.LVL108:
 1327 024e C4E90E01 		strd	r0, r1, [r4, #56]
 1328 0252 E8E6     		b	.L71
 1329              	.LVL109:
 1330              	.L58:
 1331              		.loc 1 165 0
 1332 0254 94F84830 		ldrb	r3, [r4, #72]	@ zero_extendqisi2
 1333 0258 03F00F01 		and	r1, r3, #15
 1334 025c 1B06     		lsls	r3, r3, #24
 1335              		.loc 1 166 0
 1336 025e 2046     		mov	r0, r4
 1337              		.loc 1 165 0
 1338 0260 57D4     		bmi	.L148
 1339              	.LVL110:
 1340              		.loc 1 183 0
 1341 0262 FFF7FEFF 		bl	usb_lld_get_status_out
 1342              	.LVL111:
 1343 0266 0128     		cmp	r0, #1
 1344 0268 57D0     		beq	.L79
 1345              	.L137:
 1346 026a 0228     		cmp	r0, #2
 1347 026c 7FF40FAF 		bne	.L70
 1348              		.loc 1 174 0
 1349 0270 304B     		ldr	r3, .L150
 1350              	.L138:
 1351 0272 A363     		str	r3, [r4, #56]
 1352 0274 0221     		movs	r1, #2
 1353 0276 0023     		movs	r3, #0
 1354 0278 C4E90F13 		strd	r1, r3, [r4, #60]
 1355              	.LVL112:
 1356 027c 94F84430 		ldrb	r3, [r4, #68]	@ zero_extendqisi2
 1357 0280 D1E6     		b	.L71
 1358              	.LVL113:
 1359              	.L147:
 1360              		.loc 1 88 0
 1361 0282 012A     		cmp	r2, #1
 1362 0284 7FF403AF 		bne	.L70
 1363              	.L61:
 1364              		.loc 1 160 0
 1365 0288 2B4A     		ldr	r2, .L150+4
 1366 028a A263     		str	r2, [r4, #56]
 1367 028c 0221     		movs	r1, #2
 1368 028e 0022     		movs	r2, #0
ARM GAS  C:\Users\CHRIST~1\AppData\Local\Temp\ccdmW5op.s 			page 25


 1369 0290 C4E90F12 		strd	r1, r2, [r4, #60]
 1370              	.LVL114:
 1371 0294 C7E6     		b	.L71
 1372              	.LVL115:
 1373              	.L66:
 1374              		.loc 1 217 0
 1375 0296 94F84630 		ldrb	r3, [r4, #70]	@ zero_extendqisi2
 1376 029a 002B     		cmp	r3, #0
 1377 029c 7FF4F7AE 		bne	.L70
 1378              		.loc 1 221 0
 1379 02a0 94F84830 		ldrb	r3, [r4, #72]	@ zero_extendqisi2
 1380 02a4 13F00F01 		ands	r1, r3, #15
 1381 02a8 3FF442AF 		beq	.L83
 1382              		.loc 1 222 0
 1383 02ac 1D06     		lsls	r5, r3, #24
 1384              		.loc 1 223 0
 1385 02ae 2046     		mov	r0, r4
 1386              		.loc 1 222 0
 1387 02b0 3AD4     		bmi	.L149
 1388              	.LVL116:
 1389              		.loc 1 226 0
 1390 02b2 FFF7FEFF 		bl	usb_lld_stall_out
 1391              	.LVL117:
 1392 02b6 94F84400 		ldrb	r0, [r4, #68]	@ zero_extendqisi2
 1393 02ba 39E7     		b	.L83
 1394              	.L64:
 1395              	.LBB337:
 1396              	.LBB338:
 1397              		.loc 1 55 0
 1398 02bc 94F84900 		ldrb	r0, [r4, #73]	@ zero_extendqisi2
 1399              	.LBE338:
 1400              	.LBE337:
 1401              		.loc 1 129 0
 1402 02c0 6168     		ldr	r1, [r4, #4]
 1403              	.LBB340:
 1404              	.LBB339:
 1405              		.loc 1 55 0
 1406 02c2 94F84830 		ldrb	r3, [r4, #72]	@ zero_extendqisi2
 1407              	.LBE339:
 1408              	.LBE340:
 1409              		.loc 1 129 0
 1410 02c6 4E68     		ldr	r6, [r1, #4]
 1411 02c8 94F84620 		ldrb	r2, [r4, #70]	@ zero_extendqisi2
 1412 02cc 94F84710 		ldrb	r1, [r4, #71]	@ zero_extendqisi2
 1413 02d0 43EA0023 		orr	r3, r3, r0, lsl #8
 1414 02d4 2046     		mov	r0, r4
 1415 02d6 B047     		blx	r6
 1416              	.LVL118:
 1417              		.loc 1 132 0
 1418 02d8 0028     		cmp	r0, #0
 1419 02da 3FF4D8AE 		beq	.L70
 1420              		.loc 1 136 0
 1421 02de D0E90013 		ldrd	r1, r3, [r0]
 1422 02e2 2564     		str	r5, [r4, #64]
 1423              	.LVL119:
 1424 02e4 C4E90E31 		strd	r3, r1, [r4, #56]
 1425 02e8 94F84430 		ldrb	r3, [r4, #68]	@ zero_extendqisi2
ARM GAS  C:\Users\CHRIST~1\AppData\Local\Temp\ccdmW5op.s 			page 26


 1426 02ec 9BE6     		b	.L71
 1427              	.LVL120:
 1428              	.L56:
 1429              		.loc 1 107 0
 1430 02ee 94F84630 		ldrb	r3, [r4, #70]	@ zero_extendqisi2
 1431 02f2 012B     		cmp	r3, #1
 1432 02f4 7FF4CBAE 		bne	.L70
 1433              		.loc 1 108 0
 1434 02f8 B4F84C30 		ldrh	r3, [r4, #76]
 1435              		.loc 1 109 0
 1436 02fc A563     		str	r5, [r4, #56]
 1437              		.loc 1 108 0
 1438 02fe 43F00203 		orr	r3, r3, #2
 1439              		.loc 1 109 0
 1440 0302 C4E90F55 		strd	r5, r5, [r4, #60]
 1441              	.LVL121:
 1442              		.loc 1 108 0
 1443 0306 A4F84C30 		strh	r3, [r4, #76]	@ movhi
 1444 030a 15E7     		b	.L72
 1445              	.LVL122:
 1446              	.L75:
 1447              		.loc 1 150 0
 1448 030c 0423     		movs	r3, #4
 1449 030e 2370     		strb	r3, [r4]
 1450 0310 60E7     		b	.L76
 1451              	.LVL123:
 1452              	.L148:
 1453              		.loc 1 166 0
 1454 0312 FFF7FEFF 		bl	usb_lld_get_status_in
 1455              	.LVL124:
 1456 0316 0128     		cmp	r0, #1
 1457 0318 A7D1     		bne	.L137
 1458              	.L79:
 1459              		.loc 1 169 0
 1460 031a 084B     		ldr	r3, .L150+8
 1461 031c A9E7     		b	.L138
 1462              	.LVL125:
 1463              	.L146:
 1464              		.loc 1 207 0
 1465 031e FFF7FEFF 		bl	usb_lld_clear_in
 1466              	.LVL126:
 1467 0322 94F84400 		ldrb	r0, [r4, #68]	@ zero_extendqisi2
 1468 0326 03E7     		b	.L83
 1469              	.LVL127:
 1470              	.L149:
 1471              		.loc 1 223 0
 1472 0328 FFF7FEFF 		bl	usb_lld_stall_in
 1473              	.LVL128:
 1474 032c 94F84400 		ldrb	r0, [r4, #68]	@ zero_extendqisi2
 1475 0330 FEE6     		b	.L83
 1476              	.L151:
 1477 0332 00BF     		.align	2
 1478              	.L150:
 1479 0334 00000000 		.word	.LANCHOR2
 1480 0338 00000000 		.word	.LANCHOR0
 1481 033c 00000000 		.word	.LANCHOR1
 1482              	.LBE341:
ARM GAS  C:\Users\CHRIST~1\AppData\Local\Temp\ccdmW5op.s 			page 27


 1483              	.LBE372:
 1484              		.cfi_endproc
 1485              	.LFE274:
 1486              		.size	_usb_ep0setup, .-_usb_ep0setup
 1487              		.section	.text._usb_ep0in,"ax",%progbits
 1488              		.align	1
 1489              		.p2align 4,,15
 1490              		.global	_usb_ep0in
 1491              		.syntax unified
 1492              		.thumb
 1493              		.thumb_func
 1494              		.fpu fpv4-sp-d16
 1495              		.type	_usb_ep0in, %function
 1496              	_usb_ep0in:
 1497              	.LFB275:
 1498              		.loc 1 741 0
 1499              		.cfi_startproc
 1500              		@ args = 0, pretend = 0, frame = 0
 1501              		@ frame_needed = 0, uses_anonymous_args = 0
 1502              	.LVL129:
 1503              		.loc 1 745 0
 1504 0000 90F83430 		ldrb	r3, [r0, #52]	@ zero_extendqisi2
 1505              		.loc 1 741 0
 1506 0004 10B5     		push	{r4, lr}
 1507              		.cfi_def_cfa_offset 8
 1508              		.cfi_offset 4, -8
 1509              		.cfi_offset 14, -4
 1510              		.loc 1 741 0
 1511 0006 0446     		mov	r4, r0
 1512              		.loc 1 745 0
 1513 0008 062B     		cmp	r3, #6
 1514 000a 23D8     		bhi	.L152
 1515 000c DFE803F0 		tbb	[pc, r3]
 1516              	.L155:
 1517 0010 58       		.byte	(.L154-.L155)/2
 1518 0011 2A       		.byte	(.L156-.L155)/2
 1519 0012 04       		.byte	(.L157-.L155)/2
 1520 0013 58       		.byte	(.L154-.L155)/2
 1521 0014 58       		.byte	(.L154-.L155)/2
 1522 0015 23       		.byte	(.L158-.L155)/2
 1523 0016 58       		.byte	(.L154-.L155)/2
 1524 0017 00       		.p2align 1
 1525              	.L157:
 1526 0018 C368     		ldr	r3, [r0, #12]
 1527              	.LVL130:
 1528              	.L159:
 1529              	.LBB373:
 1530              	.LBB374:
 1531              		.loc 1 401 0
 1532 001a 9A69     		ldr	r2, [r3, #24]
 1533              	.LBE374:
 1534              	.LBE373:
 1535              		.loc 1 763 0
 1536 001c 0321     		movs	r1, #3
 1537              	.LBB377:
 1538              	.LBB375:
 1539              		.loc 1 403 0
ARM GAS  C:\Users\CHRIST~1\AppData\Local\Temp\ccdmW5op.s 			page 28


 1540 001e 0023     		movs	r3, #0
 1541              	.LBE375:
 1542              	.LBE377:
 1543              		.loc 1 763 0
 1544 0020 84F83410 		strb	r1, [r4, #52]
 1545              	.LVL131:
 1546              	.LBB378:
 1547              	.LBB376:
 1548              		.loc 1 408 0
 1549 0024 2046     		mov	r0, r4
 1550 0026 1946     		mov	r1, r3
 1551              		.loc 1 403 0
 1552 0028 1370     		strb	r3, [r2]
 1553              		.loc 1 404 0
 1554 002a D360     		str	r3, [r2, #12]
 1555              		.loc 1 406 0
 1556 002c C2E90133 		strd	r3, r3, [r2, #4]
 1557              		.loc 1 408 0
 1558 0030 FFF7FEFF 		bl	usb_lld_prepare_receive
 1559              	.LVL132:
 1560              	.LBE376:
 1561              	.LBE378:
 1562              	.LBB379:
 1563              	.LBB380:
 1564              	.LBB381:
 1565              	.LBB382:
 1566              	.LBB383:
 1567              	.LBB384:
 1568              		.loc 2 546 0
 1569 0034 2023     		movs	r3, #32
 1570              		.syntax unified
 1571              	@ 546 "ChibiOS_3.0.2/os/ext/CMSIS/include/core_cmFunc.h" 1
 1572 0036 83F31188 		MSR basepri, r3
 1573              	@ 0 "" 2
 1574              	.LVL133:
 1575              		.thumb
 1576              		.syntax unified
 1577              	.LBE384:
 1578              	.LBE383:
 1579              	.LBE382:
 1580              	.LBE381:
 1581              	.LBE380:
 1582              	.LBE379:
 1583              	.LBB385:
 1584              	.LBB386:
 1585              		.loc 1 511 0
 1586 003a 6389     		ldrh	r3, [r4, #10]
 1587 003c 13F00101 		ands	r1, r3, #1
 1588 0040 05D1     		bne	.L161
 1589              		.loc 1 515 0
 1590 0042 43F00103 		orr	r3, r3, #1
 1591 0046 6381     		strh	r3, [r4, #10]	@ movhi
 1592              		.loc 1 516 0
 1593 0048 2046     		mov	r0, r4
 1594 004a FFF7FEFF 		bl	usb_lld_start_out
 1595              	.LVL134:
 1596              	.L161:
ARM GAS  C:\Users\CHRIST~1\AppData\Local\Temp\ccdmW5op.s 			page 29


 1597              	.LBE386:
 1598              	.LBE385:
 1599              	.LBB387:
 1600              	.LBB388:
 1601              	.LBB389:
 1602              	.LBB390:
 1603              	.LBB391:
 1604              	.LBB392:
 1605              		.loc 2 546 0
 1606 004e 0023     		movs	r3, #0
 1607              		.syntax unified
 1608              	@ 546 "ChibiOS_3.0.2/os/ext/CMSIS/include/core_cmFunc.h" 1
 1609 0050 83F31188 		MSR basepri, r3
 1610              	@ 0 "" 2
 1611              	.LVL135:
 1612              		.thumb
 1613              		.syntax unified
 1614              	.L152:
 1615              	.LBE392:
 1616              	.LBE391:
 1617              	.LBE390:
 1618              	.LBE389:
 1619              	.LBE388:
 1620              	.LBE387:
 1621              		.loc 1 798 0
 1622 0054 10BD     		pop	{r4, pc}
 1623              	.LVL136:
 1624              	.L158:
 1625              		.loc 1 775 0
 1626 0056 036C     		ldr	r3, [r0, #64]
 1627 0058 03B1     		cbz	r3, .L162
 1628              		.loc 1 776 0
 1629 005a 9847     		blx	r3
 1630              	.LVL137:
 1631              	.L162:
 1632              		.loc 1 778 0
 1633 005c 0023     		movs	r3, #0
 1634 005e 84F83430 		strb	r3, [r4, #52]
 1635              		.loc 1 798 0
 1636 0062 10BD     		pop	{r4, pc}
 1637              	.LVL138:
 1638              	.L156:
 1639              	.LBB393:
 1640              	.LBB394:
 1641              		.loc 1 55 0
 1642 0064 90F84B00 		ldrb	r0, [r0, #75]	@ zero_extendqisi2
 1643              	.LVL139:
 1644 0068 94F84A20 		ldrb	r2, [r4, #74]	@ zero_extendqisi2
 1645              	.LBE394:
 1646              	.LBE393:
 1647              		.loc 1 751 0
 1648 006c E16B     		ldr	r1, [r4, #60]
 1649              	.LVL140:
 1650 006e E368     		ldr	r3, [r4, #12]
 1651              		.loc 1 747 0
 1652 0070 42EA0022 		orr	r2, r2, r0, lsl #8
 1653              		.loc 1 751 0
ARM GAS  C:\Users\CHRIST~1\AppData\Local\Temp\ccdmW5op.s 			page 30


 1654 0074 9142     		cmp	r1, r2
 1655 0076 D0D2     		bcs	.L159
 1656              		.loc 1 752 0 discriminator 1
 1657 0078 188A     		ldrh	r0, [r3, #16]
 1658              	.LVL141:
 1659 007a B1FBF0F2 		udiv	r2, r1, r0
 1660 007e 00FB1212 		mls	r2, r0, r2, r1
 1661              		.loc 1 751 0 discriminator 1
 1662 0082 002A     		cmp	r2, #0
 1663 0084 C9D1     		bne	.L159
 1664              	.LVL142:
 1665              	.LBB395:
 1666              	.LBB396:
 1667              		.loc 1 427 0
 1668 0086 5B69     		ldr	r3, [r3, #20]
 1669              	.LVL143:
 1670              		.loc 1 434 0
 1671 0088 1146     		mov	r1, r2
 1672              		.loc 1 429 0
 1673 008a 1A70     		strb	r2, [r3]
 1674              	.LVL144:
 1675              		.loc 1 430 0
 1676 008c DA60     		str	r2, [r3, #12]
 1677              		.loc 1 432 0
 1678 008e C3E90122 		strd	r2, r2, [r3, #4]
 1679              		.loc 1 434 0
 1680 0092 2046     		mov	r0, r4
 1681 0094 FFF7FEFF 		bl	usb_lld_prepare_transmit
 1682              	.LVL145:
 1683              	.LBE396:
 1684              	.LBE395:
 1685              	.LBB397:
 1686              	.LBB398:
 1687              	.LBB399:
 1688              	.LBB400:
 1689              	.LBB401:
 1690              	.LBB402:
 1691              		.loc 2 546 0
 1692 0098 2023     		movs	r3, #32
 1693              		.syntax unified
 1694              	@ 546 "ChibiOS_3.0.2/os/ext/CMSIS/include/core_cmFunc.h" 1
 1695 009a 83F31188 		MSR basepri, r3
 1696              	@ 0 "" 2
 1697              	.LVL146:
 1698              		.thumb
 1699              		.syntax unified
 1700              	.LBE402:
 1701              	.LBE401:
 1702              	.LBE400:
 1703              	.LBE399:
 1704              	.LBE398:
 1705              	.LBE397:
 1706              	.LBB403:
 1707              	.LBB404:
 1708              		.loc 1 539 0
 1709 009e 2389     		ldrh	r3, [r4, #8]
 1710 00a0 13F00101 		ands	r1, r3, #1
ARM GAS  C:\Users\CHRIST~1\AppData\Local\Temp\ccdmW5op.s 			page 31


 1711 00a4 05D1     		bne	.L160
 1712              		.loc 1 543 0
 1713 00a6 43F00103 		orr	r3, r3, #1
 1714 00aa 2381     		strh	r3, [r4, #8]	@ movhi
 1715              		.loc 1 544 0
 1716 00ac 2046     		mov	r0, r4
 1717 00ae FFF7FEFF 		bl	usb_lld_start_in
 1718              	.LVL147:
 1719              	.L160:
 1720              	.LBE404:
 1721              	.LBE403:
 1722              	.LBB405:
 1723              	.LBB406:
 1724              	.LBB407:
 1725              	.LBB408:
 1726              	.LBB409:
 1727              	.LBB410:
 1728              		.loc 2 546 0
 1729 00b2 0023     		movs	r3, #0
 1730              		.syntax unified
 1731              	@ 546 "ChibiOS_3.0.2/os/ext/CMSIS/include/core_cmFunc.h" 1
 1732 00b4 83F31188 		MSR basepri, r3
 1733              	@ 0 "" 2
 1734              	.LVL148:
 1735              		.thumb
 1736              		.syntax unified
 1737              	.LBE410:
 1738              	.LBE409:
 1739              	.LBE408:
 1740              	.LBE407:
 1741              	.LBE406:
 1742              	.LBE405:
 1743              		.loc 1 757 0
 1744 00b8 0223     		movs	r3, #2
 1745 00ba 84F83430 		strb	r3, [r4, #52]
 1746              		.loc 1 798 0
 1747 00be 10BD     		pop	{r4, pc}
 1748              	.LVL149:
 1749              	.L154:
 1750              		.loc 1 790 0
 1751 00c0 0021     		movs	r1, #0
 1752              	.LVL150:
 1753 00c2 FFF7FEFF 		bl	usb_lld_stall_in
 1754              	.LVL151:
 1755              		.loc 1 791 0
 1756 00c6 0021     		movs	r1, #0
 1757 00c8 2046     		mov	r0, r4
 1758 00ca FFF7FEFF 		bl	usb_lld_stall_out
 1759              	.LVL152:
 1760              		.loc 1 792 0
 1761 00ce 6368     		ldr	r3, [r4, #4]
 1762 00d0 1B68     		ldr	r3, [r3]
 1763 00d2 13B1     		cbz	r3, .L163
 1764              		.loc 1 792 0 is_stmt 0 discriminator 1
 1765 00d4 0521     		movs	r1, #5
 1766 00d6 2046     		mov	r0, r4
 1767 00d8 9847     		blx	r3
ARM GAS  C:\Users\CHRIST~1\AppData\Local\Temp\ccdmW5op.s 			page 32


 1768              	.LVL153:
 1769              	.L163:
 1770              		.loc 1 793 0 is_stmt 1
 1771 00da 0623     		movs	r3, #6
 1772 00dc 84F83430 		strb	r3, [r4, #52]
 1773              		.loc 1 798 0
 1774 00e0 10BD     		pop	{r4, pc}
 1775              		.cfi_endproc
 1776              	.LFE275:
 1777              		.size	_usb_ep0in, .-_usb_ep0in
 1778 00e2 00BF     		.section	.text._usb_ep0out,"ax",%progbits
 1779              		.align	1
 1780              		.p2align 4,,15
 1781              		.global	_usb_ep0out
 1782              		.syntax unified
 1783              		.thumb
 1784              		.thumb_func
 1785              		.fpu fpv4-sp-d16
 1786              		.type	_usb_ep0out, %function
 1787              	_usb_ep0out:
 1788              	.LFB276:
 1789              		.loc 1 810 0
 1790              		.cfi_startproc
 1791              		@ args = 0, pretend = 0, frame = 0
 1792              		@ frame_needed = 0, uses_anonymous_args = 0
 1793              	.LVL154:
 1794              		.loc 1 813 0
 1795 0000 90F83420 		ldrb	r2, [r0, #52]	@ zero_extendqisi2
 1796 0004 062A     		cmp	r2, #6
 1797 0006 14D8     		bhi	.L188
 1798 0008 0123     		movs	r3, #1
 1799 000a 9340     		lsls	r3, r3, r2
 1800 000c 13F0670F 		tst	r3, #103
 1801              		.loc 1 810 0
 1802 0010 10B5     		push	{r4, lr}
 1803              		.cfi_def_cfa_offset 8
 1804              		.cfi_offset 4, -8
 1805              		.cfi_offset 14, -4
 1806 0012 0446     		mov	r4, r0
 1807 0014 27D1     		bne	.L173
 1808 0016 13F00802 		ands	r2, r3, #8
 1809 001a 0BD0     		beq	.L191
 1810              		.loc 1 830 0
 1811 001c C368     		ldr	r3, [r0, #12]
 1812 001e 9B69     		ldr	r3, [r3, #24]
 1813 0020 9B68     		ldr	r3, [r3, #8]
 1814 0022 2BB9     		cbnz	r3, .L171
 1815              		.loc 1 834 0
 1816 0024 036C     		ldr	r3, [r0, #64]
 1817 0026 03B1     		cbz	r3, .L176
 1818              		.loc 1 835 0
 1819 0028 9847     		blx	r3
 1820              	.LVL155:
 1821              	.L176:
 1822              		.loc 1 837 0
 1823 002a 0023     		movs	r3, #0
 1824 002c 84F83430 		strb	r3, [r4, #52]
ARM GAS  C:\Users\CHRIST~1\AppData\Local\Temp\ccdmW5op.s 			page 33


 1825              	.L171:
 1826              		.loc 1 858 0
 1827 0030 10BD     		pop	{r4, pc}
 1828              	.LVL156:
 1829              	.L188:
 1830              		.cfi_def_cfa_offset 0
 1831              		.cfi_restore 4
 1832              		.cfi_restore 14
 1833 0032 7047     		bx	lr
 1834              	.L191:
 1835              		.cfi_def_cfa_offset 8
 1836              		.cfi_offset 4, -8
 1837              		.cfi_offset 14, -4
 1838 0034 DB06     		lsls	r3, r3, #27
 1839 0036 FBD5     		bpl	.L171
 1840              	.LBB411:
 1841              	.LBB412:
 1842              		.loc 1 427 0
 1843 0038 C368     		ldr	r3, [r0, #12]
 1844 003a 5B69     		ldr	r3, [r3, #20]
 1845              	.LBE412:
 1846              	.LBE411:
 1847              		.loc 1 816 0
 1848 003c 0521     		movs	r1, #5
 1849              	.LVL157:
 1850 003e 80F83410 		strb	r1, [r0, #52]
 1851              	.LVL158:
 1852              	.LBB414:
 1853              	.LBB413:
 1854              		.loc 1 429 0
 1855 0042 1A70     		strb	r2, [r3]
 1856              		.loc 1 430 0
 1857 0044 DA60     		str	r2, [r3, #12]
 1858              		.loc 1 432 0
 1859 0046 C3E90122 		strd	r2, r2, [r3, #4]
 1860              		.loc 1 434 0
 1861 004a 1146     		mov	r1, r2
 1862 004c FFF7FEFF 		bl	usb_lld_prepare_transmit
 1863              	.LVL159:
 1864              	.LBE413:
 1865              	.LBE414:
 1866              	.LBB415:
 1867              	.LBB416:
 1868              	.LBB417:
 1869              	.LBB418:
 1870              	.LBB419:
 1871              	.LBB420:
 1872              		.loc 2 546 0
 1873 0050 2023     		movs	r3, #32
 1874              		.syntax unified
 1875              	@ 546 "ChibiOS_3.0.2/os/ext/CMSIS/include/core_cmFunc.h" 1
 1876 0052 83F31188 		MSR basepri, r3
 1877              	@ 0 "" 2
 1878              	.LVL160:
 1879              		.thumb
 1880              		.syntax unified
 1881              	.LBE420:
ARM GAS  C:\Users\CHRIST~1\AppData\Local\Temp\ccdmW5op.s 			page 34


 1882              	.LBE419:
 1883              	.LBE418:
 1884              	.LBE417:
 1885              	.LBE416:
 1886              	.LBE415:
 1887              	.LBB421:
 1888              	.LBB422:
 1889              		.loc 1 539 0
 1890 0056 2389     		ldrh	r3, [r4, #8]
 1891 0058 13F00101 		ands	r1, r3, #1
 1892 005c 14D0     		beq	.L192
 1893              	.L175:
 1894              	.LVL161:
 1895              	.LBE422:
 1896              	.LBE421:
 1897              	.LBB424:
 1898              	.LBB425:
 1899              	.LBB426:
 1900              	.LBB427:
 1901              	.LBB428:
 1902              	.LBB429:
 1903              		.loc 2 546 0
 1904 005e 0023     		movs	r3, #0
 1905              		.syntax unified
 1906              	@ 546 "ChibiOS_3.0.2/os/ext/CMSIS/include/core_cmFunc.h" 1
 1907 0060 83F31188 		MSR basepri, r3
 1908              	@ 0 "" 2
 1909              	.LVL162:
 1910              		.thumb
 1911              		.syntax unified
 1912              	.LBE429:
 1913              	.LBE428:
 1914              	.LBE427:
 1915              	.LBE426:
 1916              	.LBE425:
 1917              	.LBE424:
 1918              		.loc 1 858 0
 1919 0064 10BD     		pop	{r4, pc}
 1920              	.LVL163:
 1921              	.L173:
 1922              		.loc 1 850 0
 1923 0066 0021     		movs	r1, #0
 1924              	.LVL164:
 1925 0068 FFF7FEFF 		bl	usb_lld_stall_in
 1926              	.LVL165:
 1927              		.loc 1 851 0
 1928 006c 0021     		movs	r1, #0
 1929 006e 2046     		mov	r0, r4
 1930 0070 FFF7FEFF 		bl	usb_lld_stall_out
 1931              	.LVL166:
 1932              		.loc 1 852 0
 1933 0074 6368     		ldr	r3, [r4, #4]
 1934 0076 1B68     		ldr	r3, [r3]
 1935 0078 13B1     		cbz	r3, .L177
 1936              		.loc 1 852 0 is_stmt 0 discriminator 1
 1937 007a 0521     		movs	r1, #5
 1938 007c 2046     		mov	r0, r4
ARM GAS  C:\Users\CHRIST~1\AppData\Local\Temp\ccdmW5op.s 			page 35


 1939 007e 9847     		blx	r3
 1940              	.LVL167:
 1941              	.L177:
 1942              		.loc 1 853 0 is_stmt 1
 1943 0080 0623     		movs	r3, #6
 1944 0082 84F83430 		strb	r3, [r4, #52]
 1945              		.loc 1 858 0
 1946 0086 10BD     		pop	{r4, pc}
 1947              	.LVL168:
 1948              	.L192:
 1949              	.LBB430:
 1950              	.LBB423:
 1951              		.loc 1 543 0
 1952 0088 43F00103 		orr	r3, r3, #1
 1953 008c 2381     		strh	r3, [r4, #8]	@ movhi
 1954              		.loc 1 544 0
 1955 008e 2046     		mov	r0, r4
 1956 0090 FFF7FEFF 		bl	usb_lld_start_in
 1957              	.LVL169:
 1958 0094 E3E7     		b	.L175
 1959              	.LBE423:
 1960              	.LBE430:
 1961              		.cfi_endproc
 1962              	.LFE276:
 1963              		.size	_usb_ep0out, .-_usb_ep0out
 1964 0096 00BF     		.section	.rodata.active_status,"a",%progbits
 1965              		.align	2
 1966              		.set	.LANCHOR2,. + 0
 1967              		.type	active_status, %object
 1968              		.size	active_status, 2
 1969              	active_status:
 1970 0000 0000     		.space	2
 1971              		.section	.rodata.halted_status,"a",%progbits
 1972              		.align	2
 1973              		.set	.LANCHOR1,. + 0
 1974              		.type	halted_status, %object
 1975              		.size	halted_status, 2
 1976              	halted_status:
 1977 0000 01       		.byte	1
 1978 0001 00       		.byte	0
 1979              		.section	.rodata.zero_status,"a",%progbits
 1980              		.align	2
 1981              		.set	.LANCHOR0,. + 0
 1982              		.type	zero_status, %object
 1983              		.size	zero_status, 2
 1984              	zero_status:
 1985 0000 0000     		.space	2
 1986              		.text
 1987              	.Letext0:
 1988              		.file 3 "c:\\program files (x86)\\gnu tools arm embedded\\7 2017-q4-major\\lib\\gcc\\arm-none-eabi
 1989              		.file 4 "c:\\program files (x86)\\gnu tools arm embedded\\7 2017-q4-major\\arm-none-eabi\\include\
 1990              		.file 5 "c:\\program files (x86)\\gnu tools arm embedded\\7 2017-q4-major\\arm-none-eabi\\include\
 1991              		.file 6 "c:\\program files (x86)\\gnu tools arm embedded\\7 2017-q4-major\\arm-none-eabi\\include\
 1992              		.file 7 "c:\\program files (x86)\\gnu tools arm embedded\\7 2017-q4-major\\arm-none-eabi\\include\
 1993              		.file 8 "c:\\program files (x86)\\gnu tools arm embedded\\7 2017-q4-major\\arm-none-eabi\\include\
 1994              		.file 9 "ChibiOS_3.0.2/os/rt/ports/ARMCMx/compilers/GCC/chtypes.h"
 1995              		.file 10 "ChibiOS_3.0.2/os/rt/include/chsystypes.h"
ARM GAS  C:\Users\CHRIST~1\AppData\Local\Temp\ccdmW5op.s 			page 36


 1996              		.file 11 "ChibiOS_3.0.2/os/rt/include/chschd.h"
 1997              		.file 12 "ChibiOS_3.0.2/os/ext/CMSIS/include/core_cm4.h"
 1998              		.file 13 "ChibiOS_3.0.2/os/ext/CMSIS/ST/system_stm32f4xx.h"
 1999              		.file 14 "ChibiOS_3.0.2/os/ext/CMSIS/ST/stm32f407xx.h"
 2000              		.file 15 "ChibiOS_3.0.2/os/rt/ports/ARMCMx/chcore.h"
 2001              		.file 16 "ChibiOS_3.0.2/os/rt/ports/ARMCMx/chcore_v7m.h"
 2002              		.file 17 "ChibiOS_3.0.2/os/rt/include/chtm.h"
 2003              		.file 18 "ChibiOS_3.0.2/os/rt/include/chsem.h"
 2004              		.file 19 "ChibiOS_3.0.2/os/rt/include/chmtx.h"
 2005              		.file 20 "ChibiOS_3.0.2/os/rt/include/chregistry.h"
 2006              		.file 21 "ChibiOS_3.0.2/os/rt/include/chevents.h"
 2007              		.file 22 "ChibiOS_3.0.2/os/rt/include/chqueues.h"
 2008              		.file 23 "./conf_general.h"
 2009              		.file 24 "ChibiOS_3.0.2/os/hal/ports/STM32/STM32F4xx/stm32_dma.h"
 2010              		.file 25 "ChibiOS_3.0.2/os/hal/ports/STM32/LLD/GPIOv2/pal_lld.h"
 2011              		.file 26 "ChibiOS_3.0.2/os/hal/include/can.h"
 2012              		.file 27 "ChibiOS_3.0.2/os/hal/ports/STM32/LLD/can_lld.h"
 2013              		.file 28 "ChibiOS_3.0.2/os/hal/include/i2c.h"
 2014              		.file 29 "ChibiOS_3.0.2/os/hal/ports/STM32/LLD/I2Cv1/i2c_lld.h"
 2015              		.file 30 "ChibiOS_3.0.2/os/hal/include/icu.h"
 2016              		.file 31 "ChibiOS_3.0.2/os/hal/ports/STM32/LLD/TIMv1/icu_lld.h"
 2017              		.file 32 "ChibiOS_3.0.2/os/hal/ports/STM32/LLD/TIMv1/stm32_tim.h"
 2018              		.file 33 "ChibiOS_3.0.2/os/hal/include/spi.h"
 2019              		.file 34 "ChibiOS_3.0.2/os/hal/ports/STM32/LLD/SPIv1/spi_lld.h"
 2020              		.file 35 "ChibiOS_3.0.2/os/hal/include/uart.h"
 2021              		.file 36 "ChibiOS_3.0.2/os/hal/ports/STM32/LLD/USARTv1/uart_lld.h"
 2022              		.file 37 "ChibiOS_3.0.2/os/hal/include/usb.h"
 2023              		.file 38 "ChibiOS_3.0.2/os/hal/ports/STM32/LLD/OTGv1/usb_lld.h"
 2024              		.file 39 "ChibiOS_3.0.2/os/hal/ports/STM32/LLD/OTGv1/stm32_otg.h"
 2025              		.file 40 "ChibiOS_3.0.2/os/hal/osal/rt/osal.h"
 2026              		.file 41 "ChibiOS_3.0.2/os/rt/include/chsys.h"